
test.bin:     file format binary


Disassembly of section .data:

0000000000000000 <.data>:
       0:	00000093          	li	ra,0
       4:	00000113          	li	sp,0
       8:	00000193          	li	gp,0
       c:	401480b3          	sub	ra,s1,ra
      10:	00371133          	sll	sp,a4,gp
      14:	002151b3          	srl	gp,sp,sp
      18:	13737013          	andi	zero,t1,311
      1c:	1a2090b7          	lui	ra,0x1a209
      20:	2f00e013          	ori	zero,ra,752
      24:	babab1b7          	lui	gp,0xbabab
      28:	9f7591b7          	lui	gp,0x9f759
      2c:	4010d133          	sra	sp,ra,ra
      30:	8d1e2017          	auipc	zero,0x8d1e2
      34:	00022a33          	sltz	s4,tp
      38:	11242197          	auipc	gp,0x11242
      3c:	4c82f117          	auipc	sp,0x4c82f
      40:	2a24e117          	auipc	sp,0x2a24e
      44:	2e431197          	auipc	gp,0x2e431
      48:	589590b7          	lui	ra,0x58959
      4c:	0030d033          	srl	zero,ra,gp
      50:	002121b3          	slt	gp,sp,sp
      54:	42ced097          	auipc	ra,0x42ced
      58:	47386037          	lui	zero,0x47386
      5c:	9d9c5037          	lui	zero,0x9d9c5
      60:	001050b3          	srl	ra,zero,ra
      64:	0021f1b3          	and	gp,gp,sp
      68:	40010133          	sub	sp,sp,zero
      6c:	a763e093          	ori	ra,t2,-1418
      70:	003340b3          	xor	ra,t1,gp
      74:	4015d1b3          	sra	gp,a1,ra
      78:	007071b3          	and	gp,zero,t2
      7c:	5dc6e197          	auipc	gp,0x5dc6e
      80:	8960f193          	andi	gp,ra,-1898
      84:	bb50c113          	xori	sp,ra,-1099
      88:	002147b3          	xor	a5,sp,sp
      8c:	0cfec197          	auipc	gp,0xcfec
      90:	00000197          	auipc	gp,0x0
      94:	1ac18067          	jr	428(gp) # 0x23c
      98:	403180b3          	sub	ra,gp,gp
      9c:	8921e013          	ori	zero,gp,-1902
      a0:	010150b3          	srl	ra,sp,a6
      a4:	0020b833          	sltu	a6,ra,sp
      a8:	0182d233          	srl	tp,t0,s8
      ac:	b4e2c1b7          	lui	gp,0xb4e2c
      b0:	40310333          	sub	t1,sp,gp
      b4:	0350c193          	xori	gp,ra,53
      b8:	00335033          	srl	zero,t1,gp
      bc:	403000b3          	neg	ra,gp
      c0:	a424b097          	auipc	ra,0xa424b
      c4:	1e18f137          	lui	sp,0x1e18f
      c8:	b5bb0197          	auipc	gp,0xb5bb0
      cc:	00b25133          	srl	sp,tp,a1
      d0:	868d5497          	auipc	s1,0x868d5
      d4:	402150b3          	sra	ra,sp,sp
      d8:	66933217          	auipc	tp,0x66933
      dc:	2961e213          	ori	tp,gp,662
      e0:	0e56d0b7          	lui	ra,0xe56d
      e4:	76fa1497          	auipc	s1,0x76fa1
      e8:	003271b3          	and	gp,tp,gp
      ec:	48c37193          	andi	gp,t1,1164
      f0:	00fe0133          	add	sp,t3,a5
      f4:	74f660b7          	lui	ra,0x74f66
      f8:	003210b3          	sll	ra,tp,gp
      fc:	002160b3          	or	ra,sp,sp
     100:	3d0a0037          	lui	zero,0x3d0a0
     104:	0020a333          	slt	t1,ra,sp
     108:	c4e7b1b7          	lui	gp,0xc4e7b
     10c:	ffe6b117          	auipc	sp,0xffe6b
     110:	001151b3          	srl	gp,sp,ra
     114:	c0b94037          	lui	zero,0xc0b94
     118:	00389133          	sll	sp,a7,gp
     11c:	58310263          	beq	sp,gp,0x6a0
     120:	5800016f          	jal	sp,0x6a0
     124:	fa0300b7          	lui	ra,0xfa030
     128:	2ab1e093          	ori	ra,gp,683
     12c:	51d54097          	auipc	ra,0x51d54
     130:	41a1c093          	xori	ra,gp,1050
     134:	9a118193          	addi	gp,gp,-1631 # 0xffffffffc4e7a9a1
     138:	4aa00097          	auipc	ra,0x4aa00
     13c:	0b80b197          	auipc	gp,0xb80b
     140:	00f06133          	or	sp,zero,a5
     144:	d796c097          	auipc	ra,0xd796c
     148:	7d967193          	andi	gp,a2,2009
     14c:	9030f193          	andi	gp,ra,-1789
     150:	6fea51b7          	lui	gp,0x6fea5
     154:	0020a133          	slt	sp,ra,sp
     158:	0011c2b3          	xor	t0,gp,ra
     15c:	40315233          	sra	tp,sp,gp
     160:	0031c033          	xor	zero,gp,gp
     164:	83d8f137          	lui	sp,0x83d8f
     168:	cc2f7397          	auipc	t2,0xcc2f7
     16c:	006126b3          	slt	a3,sp,t1
     170:	43c24197          	auipc	gp,0x43c24
     174:	8ea40097          	auipc	ra,0x8ea40
     178:	fa90e113          	ori	sp,ra,-87
     17c:	0010a0b3          	slt	ra,ra,ra
     180:	f1826397          	auipc	t2,0xf1826
     184:	86607193          	andi	gp,zero,-1946
     188:	0060b133          	sltu	sp,ra,t1
     18c:	40235033          	sra	zero,t1,sp
     190:	7710e193          	ori	gp,ra,1905
     194:	e4cbe117          	auipc	sp,0xe4cbe
     198:	616d7097          	auipc	ra,0x616d7
     19c:	66895117          	auipc	sp,0x66895
     1a0:	0031d0b3          	srl	ra,gp,gp
     1a4:	ee209ae3          	bne	ra,sp,0x98
     1a8:	ee2088e3          	beq	ra,sp,0x98
     1ac:	c7466093          	ori	ra,a2,-908
     1b0:	05b4e193          	ori	gp,s1,91
     1b4:	000120b3          	sltz	ra,sp
     1b8:	48c04293          	xori	t0,zero,1164
     1bc:	8080c293          	xori	t0,ra,-2040
     1c0:	cde65197          	auipc	gp,0xcde65
     1c4:	4a624193          	xori	gp,tp,1190
     1c8:	b9d022b7          	lui	t0,0xb9d02
     1cc:	b8b10313          	addi	t1,sp,-1141 # 0x66894d27
     1d0:	f7440117          	auipc	sp,0xf7440
     1d4:	00217233          	and	tp,sp,sp
     1d8:	000221b3          	sltz	gp,tp
     1dc:	002122b3          	slt	t0,sp,sp
     1e0:	947ab2b7          	lui	t0,0x947ab
     1e4:	eb8c41b7          	lui	gp,0xeb8c4
     1e8:	40608333          	sub	t1,ra,t1
     1ec:	005321b3          	slt	gp,t1,t0
     1f0:	40315333          	sra	t1,sp,gp
     1f4:	0035f2b3          	and	t0,a1,gp
     1f8:	00220233          	add	tp,tp,sp
     1fc:	003bf133          	and	sp,s7,gp
     200:	004e62b3          	or	t0,t3,tp
     204:	e8eae097          	auipc	ra,0xe8eae
     208:	868c0197          	auipc	gp,0x868c0
     20c:	001380b3          	add	ra,t2,ra
     210:	401158b3          	sra	a7,sp,ra
     214:	a3e040b7          	lui	ra,0xa3e04
     218:	00d0d397          	auipc	t2,0xd0d
     21c:	004171b3          	and	gp,sp,tp
     220:	b991c313          	xori	t1,gp,-1127
     224:	712090b7          	lui	ra,0x71209
     228:	7f181137          	lui	sp,0x7f181
     22c:	40110033          	sub	zero,sp,ra
     230:	263810b7          	lui	ra,0x26381
     234:	2dd1d863          	bge	gp,t4,0x504
     238:	2dd1c663          	blt	gp,t4,0x504
     23c:	003141b3          	xor	gp,sp,gp
     240:	849e0117          	auipc	sp,0x849e0
     244:	a91521b7          	lui	gp,0xa9152
     248:	cb13a0b7          	lui	ra,0xcb13a
     24c:	a9d1c113          	xori	sp,gp,-1379
     250:	989ca2b7          	lui	t0,0x989ca
     254:	402281b3          	sub	gp,t0,sp
     258:	75f66117          	auipc	sp,0x75f66
     25c:	d9418093          	addi	ra,gp,-620 # 0xffffffffa9151d94
     260:	40bac1b7          	lui	gp,0x40bac
     264:	39a31217          	auipc	tp,0x39a31
     268:	df66f197          	auipc	gp,0xdf66f
     26c:	0e50c4b7          	lui	s1,0xe50c
     270:	a0312397          	auipc	t2,0xa0312
     274:	e53932b7          	lui	t0,0xe5393
     278:	1242e113          	ori	sp,t0,292
     27c:	4060d2b3          	sra	t0,ra,t1
     280:	042f0137          	lui	sp,0x42f0
     284:	403081b3          	sub	gp,ra,gp
     288:	001151b3          	srl	gp,sp,ra
     28c:	a801f193          	andi	gp,gp,-1408
     290:	f9bf51b7          	lui	gp,0xf9bf5
     294:	40218a33          	sub	s4,gp,sp
     298:	b4d08293          	addi	t0,ra,-1203 # 0xffffffffcb139b4d
     29c:	003101b3          	add	gp,sp,gp
     2a0:	00213133          	sltu	sp,sp,sp
     2a4:	0011a333          	slt	t1,gp,ra
     2a8:	003ba1b3          	slt	gp,s7,gp
     2ac:	002161b3          	or	gp,sp,sp
     2b0:	d785a297          	auipc	t0,0xd785a
     2b4:	6452f297          	auipc	t0,0x6452f
     2b8:	002130b3          	sltu	ra,sp,sp
     2bc:	c3837b37          	lui	s6,0xc3837
     2c0:	712db2b7          	lui	t0,0x712db
     2c4:	0012f133          	and	sp,t0,ra
     2c8:	e4730ee3          	beq	t1,t2,0x124
     2cc:	e59ff1ef          	jal	gp,0x124
     2d0:	003121b3          	slt	gp,sp,gp
     2d4:	44c1c193          	xori	gp,gp,1100
     2d8:	0020c0b3          	xor	ra,ra,sp
     2dc:	032ed197          	auipc	gp,0x32ed
     2e0:	0030d133          	srl	sp,ra,gp
     2e4:	65b3a0b7          	lui	ra,0x65b3a
     2e8:	6c6aa137          	lui	sp,0x6c6aa
     2ec:	5f0783b7          	lui	t2,0x5f078
     2f0:	003011b3          	sll	gp,zero,gp
     2f4:	fdc1c337          	lui	t1,0xfdc1c
     2f8:	0aabf093          	andi	ra,s7,170
     2fc:	beab9297          	auipc	t0,0xbeab9
     300:	40318033          	sub	zero,gp,gp
     304:	40228133          	sub	sp,t0,sp
     308:	57614113          	xori	sp,sp,1398
     30c:	2416d197          	auipc	gp,0x2416d
     310:	40218133          	sub	sp,gp,sp
     314:	067e6097          	auipc	ra,0x67e6
     318:	53730097          	auipc	ra,0x53730
     31c:	00f1b033          	sltu	zero,gp,a5
     320:	0010c0b3          	xor	ra,ra,ra
     324:	7551e093          	ori	ra,gp,1877
     328:	00213133          	sltu	sp,sp,sp
     32c:	00338133          	add	sp,t2,gp
     330:	9011f293          	andi	t0,gp,-1791
     334:	34399197          	auipc	gp,0x34399
     338:	c37cd1b7          	lui	gp,0xc37cd
     33c:	00316133          	or	sp,sp,gp
     340:	001091b3          	sll	gp,ra,ra
     344:	a02e1117          	auipc	sp,0xa02e1
     348:	00008093          	mv	ra,ra
     34c:	22108c63          	beq	ra,ra,0x584
     350:	f5b2b197          	auipc	gp,0xf5b2b
     354:	b14cb237          	lui	tp,0xb14cb
     358:	e0a9e337          	lui	t1,0xe0a9e
     35c:	7b956117          	auipc	sp,0x7b956
     360:	179fa097          	auipc	ra,0x179fa
     364:	0070e0b3          	or	ra,ra,t2
     368:	33817313          	andi	t1,sp,824
     36c:	0031a1b3          	slt	gp,gp,gp
     370:	60ff3197          	auipc	gp,0x60ff3
     374:	8190e397          	auipc	t2,0x8190e
     378:	0010a133          	slt	sp,ra,ra
     37c:	00213133          	sltu	sp,sp,sp
     380:	ab2675b7          	lui	a1,0xab267
     384:	002131b3          	sltu	gp,sp,sp
     388:	001114b3          	sll	s1,sp,ra
     38c:	b3b0c113          	xori	sp,ra,-1221
     390:	2db8c1b7          	lui	gp,0x2db8c
     394:	0020a3b3          	slt	t2,ra,sp
     398:	36b2f013          	andi	zero,t0,875
     39c:	0021e0b3          	or	ra,gp,sp
     3a0:	92876137          	lui	sp,0x92876
     3a4:	005241b3          	xor	gp,tp,t0
     3a8:	79ea91b7          	lui	gp,0x79ea9
     3ac:	c68d61b7          	lui	gp,0xc68d6
     3b0:	5cb1c0b7          	lui	ra,0x5cb1c
     3b4:	0030b0b3          	sltu	ra,ra,gp
     3b8:	00201133          	sll	sp,zero,sp
     3bc:	0180d0b3          	srl	ra,ra,s8
     3c0:	05029037          	lui	zero,0x5029
     3c4:	3f114193          	xori	gp,sp,1009
     3c8:	00232133          	slt	sp,t1,sp
     3cc:	407250b3          	sra	ra,tp,t2
     3d0:	c367e797          	auipc	a5,0xc367e
     3d4:	00e781b3          	add	gp,a5,a4
     3d8:	c260a017          	auipc	zero,0xc260a
     3dc:	d8bc91b7          	lui	gp,0xd8bc9
     3e0:	ee1318e3          	bne	t1,ra,0x2d0
     3e4:	ee1306e3          	beq	t1,ra,0x2d0
     3e8:	00310bb3          	add	s7,sp,gp
     3ec:	0010a1b3          	slt	gp,ra,ra
     3f0:	17ccf317          	auipc	t1,0x17ccf
     3f4:	92d0f113          	andi	sp,ra,-1747
     3f8:	7b48f197          	auipc	gp,0x7b48f
     3fc:	4cf1f013          	andi	zero,gp,1231
     400:	1f954137          	lui	sp,0x1f954
     404:	0071e1b3          	or	gp,gp,t2
     408:	e2108113          	addi	sp,ra,-479 # 0x5cb1be21
     40c:	006151b3          	srl	gp,sp,t1
     410:	1650c013          	xori	zero,ra,357
     414:	0012f1b3          	and	gp,t0,ra
     418:	d74b5f97          	auipc	t6,0xd74b5
     41c:	40308133          	sub	sp,ra,gp
     420:	002153b3          	srl	t2,sp,sp
     424:	0011a133          	slt	sp,gp,ra
     428:	15a07293          	andi	t0,zero,346
     42c:	68102097          	auipc	ra,0x68102
     430:	4a413097          	auipc	ra,0x4a413
     434:	8d068137          	lui	sp,0x8d068
     438:	0010f493          	andi	s1,ra,1
     43c:	404101b3          	sub	gp,sp,tp
     440:	00336133          	or	sp,t1,gp
     444:	403a80b3          	sub	ra,s5,gp
     448:	5d308017          	auipc	zero,0x5d308
     44c:	957690b7          	lui	ra,0x95769
     450:	b0625397          	auipc	t2,0xb0625
     454:	6ea8d117          	auipc	sp,0x6ea8d
     458:	df35d197          	auipc	gp,0xdf35d
     45c:	143f7237          	lui	tp,0x143f7
     460:	d51ee037          	lui	zero,0xd51ee
     464:	ddca11b7          	lui	gp,0xddca1
     468:	5e517663          	bgeu	sp,t0,0xa54
     46c:	5e516463          	bltu	sp,t0,0xa54
     470:	4001d1b3          	sra	gp,gp,zero
     474:	0021d1b3          	srl	gp,gp,sp
     478:	1c40c193          	xori	gp,ra,452
     47c:	4091e093          	ori	ra,gp,1033
     480:	0000e3b3          	or	t2,ra,zero
     484:	0061a1b3          	slt	gp,gp,t1
     488:	0031b133          	sltu	sp,gp,gp
     48c:	7b2631b7          	lui	gp,0x7b263
     490:	9fb5f213          	andi	tp,a1,-1541
     494:	2af16093          	ori	ra,sp,687
     498:	0051a0b3          	slt	ra,gp,t0
     49c:	aa4080b7          	lui	ra,0xaa408
     4a0:	007021b3          	sgtz	gp,t2
     4a4:	9ba2c293          	xori	t0,t0,-1606
     4a8:	b1807393          	andi	t2,zero,-1256
     4ac:	433b9e17          	auipc	t3,0x433b9
     4b0:	00034333          	xor	t1,t1,zero
     4b4:	001120b3          	slt	ra,sp,ra
     4b8:	4061d233          	sra	tp,gp,t1
     4bc:	f210e213          	ori	tp,ra,-223
     4c0:	3c02de37          	lui	t3,0x3c02d
     4c4:	007098b3          	sll	a7,ra,t2
     4c8:	00112133          	slt	sp,sp,ra
     4cc:	02d0c113          	xori	sp,ra,45
     4d0:	700ae137          	lui	sp,0x700ae
     4d4:	00613233          	sltu	tp,sp,t1
     4d8:	0b6d2497          	auipc	s1,0xb6d2
     4dc:	40115133          	sra	sp,sp,ra
     4e0:	018090b3          	sll	ra,ra,s8
     4e4:	403150b3          	sra	ra,sp,gp
     4e8:	40210133          	sub	sp,sp,sp
     4ec:	403100b3          	sub	ra,sp,gp
     4f0:	ac17e193          	ori	gp,a5,-1343
     4f4:	001131b3          	sltu	gp,sp,ra
     4f8:	85d3c193          	xori	gp,t2,-1955
     4fc:	00030263          	beqz	t1,0x500
     500:	7cd000ef          	jal	ra,0x14cc
     504:	401180b3          	sub	ra,gp,ra
     508:	40b861b7          	lui	gp,0x40b86
     50c:	9fad4097          	auipc	ra,0x9fad4
     510:	34277217          	auipc	tp,0x34277
     514:	a76ce397          	auipc	t2,0xa76ce
     518:	0010d333          	srl	t1,ra,ra
     51c:	40308233          	sub	tp,ra,gp
     520:	89fe30b7          	lui	ra,0x89fe3
     524:	346161b7          	lui	gp,0x34616
     528:	2431e193          	ori	gp,gp,579
     52c:	9a229217          	auipc	tp,0x9a229
     530:	fe062117          	auipc	sp,0xfe062
     534:	1d357093          	andi	ra,a0,467
     538:	21a82137          	lui	sp,0x21a82
     53c:	0021a0b3          	slt	ra,gp,sp
     540:	002161b3          	or	gp,sp,sp
     544:	40118133          	sub	sp,gp,ra
     548:	bc34a1b7          	lui	gp,0xbc34a
     54c:	1f716193          	ori	gp,sp,503
     550:	f4716113          	ori	sp,sp,-185
     554:	ab5f50b7          	lui	ra,0xab5f5
     558:	00b1e133          	or	sp,gp,a1
     55c:	405100b3          	sub	ra,sp,t0
     560:	4041d2b3          	sra	t0,gp,tp
     564:	00235333          	srl	t1,t1,sp
     568:	135fd117          	auipc	sp,0x135fd
     56c:	0021b133          	sltu	sp,gp,sp
     570:	cc8fe197          	auipc	gp,0xcc8fe
     574:	220bc117          	auipc	sp,0x220bc
     578:	f6318097          	auipc	ra,0xf6318
     57c:	00000197          	auipc	gp,0x0
     580:	1bc180e7          	jalr	444(gp) # 0x738
     584:	0022c0b3          	xor	ra,t0,sp
     588:	69c2d117          	auipc	sp,0x69c2d
     58c:	0030e0b3          	or	ra,ra,gp
     590:	af8240b7          	lui	ra,0xaf824
     594:	7d91e193          	ori	gp,gp,2009
     598:	d3e10193          	addi	gp,sp,-706 # 0x69c2d2c6
     59c:	f4a16437          	lui	s0,0xf4a16
     5a0:	0020f1b3          	and	gp,ra,sp
     5a4:	00511133          	sll	sp,sp,t0
     5a8:	b648d0b7          	lui	ra,0xb648d
     5ac:	001132b3          	sltu	t0,sp,ra
     5b0:	2f300093          	li	ra,755
     5b4:	0011a4b3          	slt	s1,gp,ra
     5b8:	0020d133          	srl	sp,ra,sp
     5bc:	0010a0b3          	slt	ra,ra,ra
     5c0:	805b40b7          	lui	ra,0x805b4
     5c4:	fdc8a2b7          	lui	t0,0xfdc8a
     5c8:	0010f133          	and	sp,ra,ra
     5cc:	d960e093          	ori	ra,ra,-618
     5d0:	0011d133          	srl	sp,gp,ra
     5d4:	3d3a40b7          	lui	ra,0x3d3a4
     5d8:	3dd14593          	xori	a1,sp,989
     5dc:	e240f093          	andi	ra,ra,-476
     5e0:	68214693          	xori	a3,sp,1666
     5e4:	611220b7          	lui	ra,0x61122
     5e8:	dd1d11b7          	lui	gp,0xdd1d1
     5ec:	53f2e197          	auipc	gp,0x53f2e
     5f0:	08c861b7          	lui	gp,0x8c86
     5f4:	f579c1b7          	lui	gp,0xf579c
     5f8:	43f14213          	xori	tp,sp,1087
     5fc:	00225233          	srl	tp,tp,sp
     600:	003120b3          	slt	ra,sp,gp
     604:	4031d133          	sra	sp,gp,gp
     608:	e1864117          	auipc	sp,0xe1864
     60c:	40d181b3          	sub	gp,gp,a3
     610:	00010093          	mv	ra,sp
     614:	2a208463          	beq	ra,sp,0x8bc
     618:	40a155b3          	sra	a1,sp,a0
     61c:	aedd1117          	auipc	sp,0xaedd1
     620:	c3a0c193          	xori	gp,ra,-966
     624:	050173b7          	lui	t2,0x5017
     628:	1eefe297          	auipc	t0,0x1eefe
     62c:	00a3c0b3          	xor	ra,t2,a0
     630:	85816093          	ori	ra,sp,-1960
     634:	0021a2b3          	slt	t0,gp,sp
     638:	62c17193          	andi	gp,sp,1580
     63c:	00317133          	and	sp,sp,gp
     640:	dd1c1097          	auipc	ra,0xdd1c1
     644:	002550b3          	srl	ra,a0,sp
     648:	45fef197          	auipc	gp,0x45fef
     64c:	6b8f6697          	auipc	a3,0x6b8f6
     650:	0013e0b3          	or	ra,t2,ra
     654:	0011d3b3          	srl	t2,gp,ra
     658:	001090b3          	sll	ra,ra,ra
     65c:	f171e113          	ori	sp,gp,-233
     660:	83916193          	ori	gp,sp,-1991
     664:	879e7bb7          	lui	s7,0x879e7
     668:	cb7e7097          	auipc	ra,0xcb7e7
     66c:	a84f00b7          	lui	ra,0xa84f0
     670:	00318133          	add	sp,gp,gp
     674:	0021a0b3          	slt	ra,gp,sp
     678:	0423d137          	lui	sp,0x423d
     67c:	55717113          	andi	sp,sp,1367
     680:	29cc71b7          	lui	gp,0x29cc7
     684:	01516033          	or	zero,sp,s5
     688:	002161b3          	or	gp,sp,sp
     68c:	cb200193          	li	gp,-846
     690:	995f7097          	auipc	ra,0x995f7
     694:	3543a097          	auipc	ra,0x3543a
     698:	00028293          	mv	t0,t0
     69c:	2a528663          	beq	t0,t0,0x948
     6a0:	402101b3          	sub	gp,sp,sp
     6a4:	00315233          	srl	tp,sp,gp
     6a8:	402500b3          	sub	ra,a0,sp
     6ac:	001103b3          	add	t2,sp,ra
     6b0:	866d13b7          	lui	t2,0x866d1
     6b4:	3f52a117          	auipc	sp,0x3f52a
     6b8:	8f394037          	lui	zero,0x8f394
     6bc:	002131b3          	sltu	gp,sp,sp
     6c0:	7bfda137          	lui	sp,0x7bfda
     6c4:	40b1d0b3          	sra	ra,gp,a1
     6c8:	90f16313          	ori	t1,sp,-1777
     6cc:	0030e1b3          	or	gp,ra,gp
     6d0:	7070c113          	xori	sp,ra,1799
     6d4:	e67591b7          	lui	gp,0xe6759
     6d8:	4025d5b3          	sra	a1,a1,sp
     6dc:	cd1310b7          	lui	ra,0xcd131
     6e0:	c560e193          	ori	gp,ra,-938
     6e4:	95f08093          	addi	ra,ra,-1697 # 0xffffffffcd13095f
     6e8:	0031e133          	or	sp,gp,gp
     6ec:	00115133          	srl	sp,sp,ra
     6f0:	f790f093          	andi	ra,ra,-135
     6f4:	b2dfd0b7          	lui	ra,0xb2dfd
     6f8:	ecdb70b7          	lui	ra,0xecdb7
     6fc:	f3a09197          	auipc	gp,0xf3a09
     700:	b0952137          	lui	sp,0xb0952
     704:	86cbe3b7          	lui	t2,0x86cbe
     708:	93e8d0b7          	lui	ra,0x93e8d
     70c:	0001c2b3          	xor	t0,gp,zero
     710:	03c30313          	addi	t1,t1,60 # 0x17ccf42c
     714:	6d910113          	addi	sp,sp,1753 # 0xffffffffb09526d9
     718:	9019b237          	lui	tp,0x9019b
     71c:	71a08a93          	addi	s5,ra,1818 # 0xffffffff93e8d71a
     720:	000690b3          	sll	ra,a3,zero
     724:	003060b3          	or	ra,zero,gp
     728:	2f8c1197          	auipc	gp,0x2f8c1
     72c:	0024d0b3          	srl	ra,s1,sp
     730:	3a330663          	beq	t1,gp,0xadc
     734:	3a80026f          	jal	tp,0xadc
     738:	0031d133          	srl	sp,gp,gp
     73c:	72b7b237          	lui	tp,0x72b7b
     740:	ec8250b7          	lui	ra,0xec825
     744:	d210f193          	andi	gp,ra,-735
     748:	0030f3b3          	and	t2,ra,gp
     74c:	198e6697          	auipc	a3,0x198e6
     750:	0073d0b3          	srl	ra,t2,t2
     754:	fd809097          	auipc	ra,0xfd809
     758:	ada06193          	ori	gp,zero,-1318
     75c:	4b1471b7          	lui	gp,0x4b147
     760:	aa918117          	auipc	sp,0xaa918
     764:	7af11097          	auipc	ra,0x7af11
     768:	fe3071b7          	lui	gp,0xfe307
     76c:	d3e00193          	li	gp,-706
     770:	bcafe1b7          	lui	gp,0xbcafe
     774:	53e18013          	addi	zero,gp,1342 # 0xffffffffbcafe53e
     778:	e101c113          	xori	sp,gp,-496
     77c:	5cc0f113          	andi	sp,ra,1484
     780:	0020e033          	or	zero,ra,sp
     784:	401e01b7          	lui	gp,0x401e0
     788:	0001f133          	and	sp,gp,zero
     78c:	003113b3          	sll	t2,sp,gp
     790:	002250b3          	srl	ra,tp,sp
     794:	e263b1b7          	lui	gp,0xe263b
     798:	532d4a97          	auipc	s5,0x532d4
     79c:	c0450137          	lui	sp,0xc0450
     7a0:	15c94597          	auipc	a1,0x15c94
     7a4:	e032f117          	auipc	sp,0xe032f
     7a8:	5c97e2b7          	lui	t0,0x5c97e
     7ac:	a3d46093          	ori	ra,s0,-1475
     7b0:	00018d13          	mv	s10,gp
     7b4:	c23d0ae3          	beq	s10,gp,0x3e8
     7b8:	bb14f197          	auipc	gp,0xbb14f
     7bc:	146b5237          	lui	tp,0x146b5
     7c0:	40135133          	sra	sp,t1,ra
     7c4:	00313033          	sltu	zero,sp,gp
     7c8:	00215233          	srl	tp,sp,sp
     7cc:	38a06137          	lui	sp,0x38a06
     7d0:	46f440b7          	lui	ra,0x46f44
     7d4:	044fe097          	auipc	ra,0x44fe
     7d8:	00212133          	slt	sp,sp,sp
     7dc:	99c19117          	auipc	sp,0x99c19
     7e0:	d93ba197          	auipc	gp,0xd93ba
     7e4:	369f2137          	lui	sp,0x369f2
     7e8:	fe608313          	addi	t1,ra,-26 # 0x44fe7ba
     7ec:	0060d3b3          	srl	t2,ra,t1
     7f0:	0023d133          	srl	sp,t2,sp
     7f4:	00231133          	sll	sp,t1,sp
     7f8:	6ae01197          	auipc	gp,0x6ae01
     7fc:	0002c233          	xor	tp,t0,zero
     800:	afb7cc97          	auipc	s9,0xafb7c
     804:	003091b3          	sll	gp,ra,gp
     808:	fb9bf097          	auipc	ra,0xfb9bf
     80c:	36617113          	andi	sp,sp,870
     810:	00117333          	and	t1,sp,ra
     814:	00331133          	sll	sp,t1,gp
     818:	7520d217          	auipc	tp,0x7520d
     81c:	006130b3          	sltu	ra,sp,t1
     820:	af6f4097          	auipc	ra,0xaf6f4
     824:	acf1d097          	auipc	ra,0xacf1d
     828:	3d86e617          	auipc	a2,0x3d86e
     82c:	0020d133          	srl	sp,ra,sp
     830:	35cee337          	lui	t1,0x35cee
     834:	961ddce3          	bge	s11,ra,0x1ac
     838:	961dcae3          	blt	s11,ra,0x1ac
     83c:	a9e16d13          	ori	s10,sp,-1378
     840:	003140b3          	xor	ra,sp,gp
     844:	65877697          	auipc	a3,0x65877
     848:	002263b3          	or	t2,tp,sp
     84c:	0010a233          	slt	tp,ra,ra
     850:	5216f137          	lui	sp,0x5216f
     854:	32da4b97          	auipc	s7,0x32da4
     858:	10dcd1b7          	lui	gp,0x10dcd
     85c:	aebaa137          	lui	sp,0xaebaa
     860:	00210033          	add	zero,sp,sp
     864:	da77f0b7          	lui	ra,0xda77f
     868:	3de0e093          	ori	ra,ra,990
     86c:	4b41c093          	xori	ra,gp,1204
     870:	006270b3          	and	ra,tp,t1
     874:	0060a0b3          	slt	ra,ra,t1
     878:	40208133          	sub	sp,ra,sp
     87c:	e8280117          	auipc	sp,0xe8280
     880:	1220f113          	andi	sp,ra,290
     884:	baae7337          	lui	t1,0xbaae7
     888:	f7a34193          	xori	gp,t1,-134
     88c:	37ea7197          	auipc	gp,0x37ea7
     890:	7dea2137          	lui	sp,0x7dea2
     894:	00318333          	add	t1,gp,gp
     898:	f72e41b7          	lui	gp,0xf72e4
     89c:	002151b3          	srl	gp,sp,sp
     8a0:	ead46137          	lui	sp,0xead46
     8a4:	8ca74397          	auipc	t2,0x8ca74
     8a8:	d4dc4097          	auipc	ra,0xd4dc4
     8ac:	0061a1b3          	slt	gp,gp,t1
     8b0:	f6b5f137          	lui	sp,0xf6b5f
     8b4:	d79172e3          	bgeu	sp,s9,0x618
     8b8:	d79160e3          	bltu	sp,s9,0x618
     8bc:	8970d037          	lui	zero,0x8970d
     8c0:	77173017          	auipc	zero,0x77173
     8c4:	0020e0b3          	or	ra,ra,sp
     8c8:	83a89197          	auipc	gp,0x83a89
     8cc:	2b410193          	addi	gp,sp,692 # 0xfffffffff6b5f2b4
     8d0:	079ef317          	auipc	t1,0x79ef
     8d4:	496771b7          	lui	gp,0x49677
     8d8:	400bf017          	auipc	zero,0x400bf
     8dc:	0021d1b3          	srl	gp,gp,sp
     8e0:	0018a0b3          	slt	ra,a7,ra
     8e4:	0ab8d197          	auipc	gp,0xab8d
     8e8:	0140efb3          	or	t6,ra,s4
     8ec:	00313333          	sltu	t1,sp,gp
     8f0:	23c26293          	ori	t0,tp,572
     8f4:	248fe097          	auipc	ra,0x248fe
     8f8:	84f3f2b7          	lui	t0,0x84f3f
     8fc:	b643f097          	auipc	ra,0xb643f
     900:	39c96197          	auipc	gp,0x39c96
     904:	21b003b7          	lui	t2,0x21b00
     908:	001180b3          	add	ra,gp,ra
     90c:	5150c093          	xori	ra,ra,1301
     910:	0030c133          	xor	sp,ra,gp
     914:	001111b3          	sll	gp,sp,ra
     918:	7edac0b7          	lui	ra,0x7edac
     91c:	0021b6b3          	sltu	a3,gp,sp
     920:	00212133          	slt	sp,sp,sp
     924:	e0cd3397          	auipc	t2,0xe0cd3
     928:	0041d0b3          	srl	ra,gp,tp
     92c:	06617093          	andi	ra,sp,102
     930:	95a0c113          	xori	sp,ra,-1702
     934:	5de731b7          	lui	gp,0x5de73
     938:	00116133          	or	sp,sp,ra
     93c:	8f708093          	addi	ra,ra,-1801 # 0x7edab8f7
     940:	08300a63          	beq	zero,gp,0x9d4
     944:	090009ef          	jal	s3,0x9d4
     948:	012130b3          	sltu	ra,sp,s2
     94c:	eea1c193          	xori	gp,gp,-278
     950:	0635c1b7          	lui	gp,0x635c
     954:	cdf33297          	auipc	t0,0xcdf33
     958:	91ccc097          	auipc	ra,0x91ccc
     95c:	70c47097          	auipc	ra,0x70c47
     960:	961801b7          	lui	gp,0x96180
     964:	8e9084b7          	lui	s1,0x8e908
     968:	003110b3          	sll	ra,sp,gp
     96c:	58dd1337          	lui	t1,0x58dd1
     970:	ee88a317          	auipc	t1,0xee88a
     974:	0015f0b3          	and	ra,a1,ra
     978:	f042b1b7          	lui	gp,0xf042b
     97c:	c54221b7          	lui	gp,0xc5422
     980:	faad5097          	auipc	ra,0xfaad5
     984:	78f04093          	xori	ra,zero,1935
     988:	af4e6197          	auipc	gp,0xaf4e6
     98c:	5c11d0b7          	lui	ra,0x5c11d
     990:	c23fb197          	auipc	gp,0xc23fb
     994:	8f506193          	ori	gp,zero,-1803
     998:	0051a233          	slt	tp,gp,t0
     99c:	00313133          	sltu	sp,sp,gp
     9a0:	ff4da137          	lui	sp,0xff4da
     9a4:	363c72b7          	lui	t0,0x363c7
     9a8:	5a696197          	auipc	gp,0x5a696
     9ac:	a27b5197          	auipc	gp,0xa27b5
     9b0:	a5f91097          	auipc	ra,0xa5f91
     9b4:	0010a1b3          	slt	gp,ra,ra
     9b8:	0021f133          	and	sp,gp,sp
     9bc:	001100b3          	add	ra,sp,ra
     9c0:	0021c133          	xor	sp,gp,sp
     9c4:	0010d1b3          	srl	gp,ra,ra
     9c8:	002132b3          	sltu	t0,sp,sp
     9cc:	981182e3          	beq	gp,ra,0x350
     9d0:	981ff36f          	jal	t1,0x350
     9d4:	7c0e4297          	auipc	t0,0x7c0e4
     9d8:	ae9761b7          	lui	gp,0xae976
     9dc:	e9fee117          	auipc	sp,0xe9fee
     9e0:	d9d20497          	auipc	s1,0xd9d20
     9e4:	b68ed317          	auipc	t1,0xb68ed
     9e8:	a2016113          	ori	sp,sp,-1504
     9ec:	2eb07113          	andi	sp,zero,747
     9f0:	48313c97          	auipc	s9,0x48313
     9f4:	227fb0b7          	lui	ra,0x227fb
     9f8:	faa84117          	auipc	sp,0xfaa84
     9fc:	a7f08093          	addi	ra,ra,-1409 # 0x227faa7f
     a00:	000160b3          	or	ra,sp,zero
     a04:	53b3f113          	andi	sp,t2,1339
     a08:	00110333          	add	t1,sp,ra
     a0c:	a56cc1b7          	lui	gp,0xa56cc
     a10:	0022e1b3          	or	gp,t0,sp
     a14:	00228333          	add	t1,t0,sp
     a18:	dda332b7          	lui	t0,0xdda33
     a1c:	846b3237          	lui	tp,0x846b3
     a20:	46364217          	auipc	tp,0x46364
     a24:	b8a47097          	auipc	ra,0xb8a47
     a28:	29814293          	xori	t0,sp,664
     a2c:	0a399197          	auipc	gp,0xa399
     a30:	00108233          	add	tp,ra,ra
     a34:	24dcd6b7          	lui	a3,0x24dcd
     a38:	27717113          	andi	sp,sp,631
     a3c:	a96ee097          	auipc	ra,0xa96ee
     a40:	8c9fb2b7          	lui	t0,0x8c9fb
     a44:	ca44c297          	auipc	t0,0xca44c
     a48:	00016133          	or	sp,sp,zero
     a4c:	a26312e3          	bne	t1,t1,0x470
     a50:	a26300e3          	beq	t1,t1,0x470
     a54:	6691f193          	andi	gp,gp,1641
     a58:	001351b3          	srl	gp,t1,ra
     a5c:	0020d1b3          	srl	gp,ra,sp
     a60:	0032f1b3          	and	gp,t0,gp
     a64:	71a14193          	xori	gp,sp,1818
     a68:	fa4b4137          	lui	sp,0xfa4b4
     a6c:	00317233          	and	tp,sp,gp
     a70:	e84a9117          	auipc	sp,0xe84a9
     a74:	aff0f1b7          	lui	gp,0xaff0f
     a78:	002150b3          	srl	ra,sp,sp
     a7c:	d14e1137          	lui	sp,0xd14e1
     a80:	11a3f097          	auipc	ra,0x11a3f
     a84:	8a261037          	lui	zero,0x8a261
     a88:	00014133          	xor	sp,sp,zero
     a8c:	0020a333          	slt	t1,ra,sp
     a90:	c79311b7          	lui	gp,0xc7931
     a94:	962160b7          	lui	ra,0x96216
     a98:	b71c0197          	auipc	gp,0xb71c0
     a9c:	0010d133          	srl	sp,ra,ra
     aa0:	406101b3          	sub	gp,sp,t1
     aa4:	9d908293          	addi	t0,ra,-1575 # 0xffffffff962159d9
     aa8:	37a980b7          	lui	ra,0x37a98
     aac:	0010d0b3          	srl	ra,ra,ra
     ab0:	73226213          	ori	tp,tp,1842
     ab4:	bb70e193          	ori	gp,ra,-1097
     ab8:	99c39117          	auipc	sp,0x99c39
     abc:	350fc017          	auipc	zero,0x350fc
     ac0:	00515233          	srl	tp,sp,t0
     ac4:	0015f233          	and	tp,a1,ra
     ac8:	00318033          	add	zero,gp,gp
     acc:	00506193          	ori	gp,zero,5
     ad0:	402152b3          	sra	t0,sp,sp
     ad4:	00000197          	auipc	gp,0x0
     ad8:	d68180e7          	jalr	-664(gp) # 0x83c
     adc:	b8011137          	lui	sp,0xb8011
     ae0:	1500f593          	andi	a1,ra,336
     ae4:	fd565617          	auipc	a2,0xfd565
     ae8:	5360f093          	andi	ra,ra,1334
     aec:	ffa100b7          	lui	ra,0xffa10
     af0:	46bcf217          	auipc	tp,0x46bcf
     af4:	1bc55317          	auipc	t1,0x1bc55
     af8:	00fb61b3          	or	gp,s6,a5
     afc:	0020f233          	and	tp,ra,sp
     b00:	410181b3          	sub	gp,gp,a6
     b04:	3fc0e0b7          	lui	ra,0x3fc0e
     b08:	c5a2c193          	xori	gp,t0,-934
     b0c:	1a0b0117          	auipc	sp,0x1a0b0
     b10:	0031e033          	or	zero,gp,gp
     b14:	bae0a137          	lui	sp,0xbae0a
     b18:	0010b6b3          	sltu	a3,ra,ra
     b1c:	0021b2b3          	sltu	t0,gp,sp
     b20:	df600113          	li	sp,-522
     b24:	b2d1f093          	andi	ra,gp,-1235
     b28:	6bb1c113          	xori	sp,gp,1723
     b2c:	8e0c5197          	auipc	gp,0x8e0c5
     b30:	99615137          	lui	sp,0x99615
     b34:	0020d133          	srl	sp,ra,sp
     b38:	0021a133          	slt	sp,gp,sp
     b3c:	00f0af33          	slt	t5,ra,a5
     b40:	0779e0b7          	lui	ra,0x779e
     b44:	bafec197          	auipc	gp,0xbafec
     b48:	2c6ea197          	auipc	gp,0x2c6ea
     b4c:	0010a0b3          	slt	ra,ra,ra
     b50:	4010d0b3          	sra	ra,ra,ra
     b54:	33d0c113          	xori	sp,ra,829
     b58:	001070b3          	and	ra,zero,ra
     b5c:	075a6097          	auipc	ra,0x75a6
     b60:	b296cc37          	lui	s8,0xb296c
     b64:	20e7f337          	lui	t1,0x20e7f
     b68:	1ed7f097          	auipc	ra,0x1ed7f
     b6c:	c42196e3          	bne	gp,sp,0x7b8
     b70:	c42184e3          	beq	gp,sp,0x7b8
     b74:	8a330013          	addi	zero,t1,-1885 # 0x20e7e8a3
     b78:	0051c1b3          	xor	gp,gp,t0
     b7c:	0034c0b3          	xor	ra,s1,gp
     b80:	06d29097          	auipc	ra,0x6d29
     b84:	0023f1b3          	and	gp,t2,sp
     b88:	7a568317          	auipc	t1,0x7a568
     b8c:	00109133          	sll	sp,ra,ra
     b90:	002081b3          	add	gp,ra,sp
     b94:	8231f093          	andi	ra,gp,-2013
     b98:	0011a933          	slt	s2,gp,ra
     b9c:	0020c2b3          	xor	t0,ra,sp
     ba0:	4d20e093          	ori	ra,ra,1234
     ba4:	0013f133          	and	sp,t2,ra
     ba8:	9f788237          	lui	tp,0x9f788
     bac:	e2c301b7          	lui	gp,0xe2c30
     bb0:	c6394197          	auipc	gp,0xc6394
     bb4:	ad527317          	auipc	t1,0xad527
     bb8:	0020f0b3          	and	ra,ra,sp
     bbc:	3c50a197          	auipc	gp,0x3c50a
     bc0:	43b36093          	ori	ra,t1,1083
     bc4:	002080b3          	add	ra,ra,sp
     bc8:	028c90b7          	lui	ra,0x28c9
     bcc:	4031d0b3          	sra	ra,gp,gp
     bd0:	00517a33          	and	s4,sp,t0
     bd4:	0010c333          	xor	t1,ra,ra
     bd8:	cf9e9197          	auipc	gp,0xcf9e9
     bdc:	005172b3          	and	t0,sp,t0
     be0:	73b1e497          	auipc	s1,0x73b1e
     be4:	a4f0f113          	andi	sp,ra,-1457
     be8:	0066f3b3          	and	t2,a3,t1
     bec:	789bd1b7          	lui	gp,0x789bd
     bf0:	123a2137          	lui	sp,0x123a2
     bf4:	001001b3          	add	gp,zero,ra
     bf8:	d66e51b7          	lui	gp,0xd66e5
     bfc:	07d0f193          	andi	gp,ra,125
     c00:	3a86f0b7          	lui	ra,0x3a86f
     c04:	003190b3          	sll	ra,gp,gp
     c08:	00028193          	mv	gp,t0
     c0c:	10518463          	beq	gp,t0,0xd14
     c10:	00219133          	sll	sp,gp,sp
     c14:	401dd1b3          	sra	gp,s11,ra
     c18:	66b74137          	lui	sp,0x66b74
     c1c:	404609b3          	sub	s3,a2,tp
     c20:	b30a5097          	auipc	ra,0xb30a5
     c24:	17d071b7          	lui	gp,0x17d07
     c28:	00316233          	or	tp,sp,gp
     c2c:	00d142b3          	xor	t0,sp,a3
     c30:	4040d1b3          	sra	gp,ra,tp
     c34:	4010d1b3          	sra	gp,ra,ra
     c38:	fdbb0117          	auipc	sp,0xfdbb0
     c3c:	f8ab0137          	lui	sp,0xf8ab0
     c40:	00b0a2b3          	slt	t0,ra,a1
     c44:	0021e033          	or	zero,gp,sp
     c48:	6451c113          	xori	sp,gp,1605
     c4c:	4042e1b7          	lui	gp,0x4042e
     c50:	9d236093          	ori	ra,t1,-1582
     c54:	0060f2b3          	and	t0,ra,t1
     c58:	00327233          	and	tp,tp,gp
     c5c:	000040b3          	xor	ra,zero,zero
     c60:	6cfab137          	lui	sp,0x6cfab
     c64:	0042b133          	sltu	sp,t0,tp
     c68:	d2406193          	ori	gp,zero,-732
     c6c:	00308133          	add	sp,ra,gp
     c70:	0031e1b3          	or	gp,gp,gp
     c74:	dd45b117          	auipc	sp,0xdd45b
     c78:	005301b3          	add	gp,t1,t0
     c7c:	0011f1b3          	and	gp,gp,ra
     c80:	ae2eb117          	auipc	sp,0xae2eb
     c84:	00d150b3          	srl	ra,sp,a3
     c88:	b1df9037          	lui	zero,0xb1df9
     c8c:	1e462117          	auipc	sp,0x1e462
     c90:	9069e0b7          	lui	ra,0x9069e
     c94:	00048393          	mv	t2,s1
     c98:	2a938663          	beq	t2,s1,0xf44
     c9c:	00b19133          	sll	sp,gp,a1
     ca0:	776ef097          	auipc	ra,0x776ef
     ca4:	f63e11b7          	lui	gp,0xf63e1
     ca8:	001011b3          	sll	gp,zero,ra
     cac:	53336193          	ori	gp,t1,1331
     cb0:	80c30193          	addi	gp,t1,-2036 # 0xffffffffad5273c0
     cb4:	00738333          	add	t1,t2,t2
     cb8:	402050b3          	sra	ra,zero,sp
     cbc:	04618093          	addi	ra,gp,70 # 0xfffffffff63e1046
     cc0:	ce874237          	lui	tp,0xce874
     cc4:	40208233          	sub	tp,ra,sp
     cc8:	855b8137          	lui	sp,0x855b8
     ccc:	07728017          	auipc	zero,0x7728
     cd0:	34bfa137          	lui	sp,0x34bfa
     cd4:	00111133          	sll	sp,sp,ra
     cd8:	00414333          	xor	t1,sp,tp
     cdc:	97c17393          	andi	t2,sp,-1668
     ce0:	003270b3          	and	ra,tp,gp
     ce4:	1c8c4017          	auipc	zero,0x1c8c4
     ce8:	bf30f113          	andi	sp,ra,-1037
     cec:	b1c1e393          	ori	t2,gp,-1252
     cf0:	31f2e0b7          	lui	ra,0x31f2e
     cf4:	17ed71b7          	lui	gp,0x17ed7
     cf8:	0061e0b3          	or	ra,gp,t1
     cfc:	5fe14197          	auipc	gp,0x5fe14
     d00:	d4f0f113          	andi	sp,ra,-689
     d04:	0d9420b7          	lui	ra,0xd942
     d08:	002b8c33          	add	s8,s7,sp
     d0c:	00010113          	mv	sp,sp
     d10:	62210863          	beq	sp,sp,0x1340
     d14:	0051fdb3          	and	s11,gp,t0
     d18:	00717233          	and	tp,sp,t2
     d1c:	f5514193          	xori	gp,sp,-171
     d20:	3d78c097          	auipc	ra,0x3d78c
     d24:	001081b3          	add	gp,ra,ra
     d28:	0011b0b3          	sltu	ra,gp,ra
     d2c:	0011a133          	slt	sp,gp,ra
     d30:	6ce51337          	lui	t1,0x6ce51
     d34:	4011d0b3          	sra	ra,gp,ra
     d38:	01e6f3b7          	lui	t2,0x1e6f
     d3c:	8676f097          	auipc	ra,0x8676f
     d40:	401081b3          	sub	gp,ra,ra
     d44:	01a25033          	srl	zero,tp,s10
     d48:	001351b3          	srl	gp,t1,ra
     d4c:	abf550b7          	lui	ra,0xabf55
     d50:	9d83f193          	andi	gp,t2,-1576
     d54:	1ffa7113          	andi	sp,s4,511
     d58:	f64e3137          	lui	sp,0xf64e3
     d5c:	4151e693          	ori	a3,gp,1045
     d60:	a7b77097          	auipc	ra,0xa7b77
     d64:	4011d3b3          	sra	t2,gp,ra
     d68:	fea01197          	auipc	gp,0xfea01
     d6c:	40320133          	sub	sp,tp,gp
     d70:	011490b3          	sll	ra,s1,a7
     d74:	b6e18117          	auipc	sp,0xb6e18
     d78:	3ed14093          	xori	ra,sp,1005
     d7c:	3781e093          	ori	ra,gp,888
     d80:	4020d2b3          	sra	t0,ra,sp
     d84:	a4a3c193          	xori	gp,t2,-1462
     d88:	f5f7f137          	lui	sp,0xf5f7f
     d8c:	40335333          	sra	t1,t1,gp
     d90:	40708133          	sub	sp,ra,t2
     d94:	4cd1c013          	xori	zero,gp,1229
     d98:	08315863          	bge	sp,gp,0xe28
     d9c:	08314663          	blt	sp,gp,0xe28
     da0:	00117fb3          	and	t6,sp,ra
     da4:	0024c333          	xor	t1,s1,sp
     da8:	8f146197          	auipc	gp,0x8f146
     dac:	001100b3          	add	ra,sp,ra
     db0:	21b59097          	auipc	ra,0x21b59
     db4:	ddb4f193          	andi	gp,s1,-549
     db8:	e4010113          	addi	sp,sp,-448 # 0xfffffffff5f7ee40
     dbc:	32757137          	lui	sp,0x32757
     dc0:	4020d0b3          	sra	ra,ra,sp
     dc4:	002171b3          	and	gp,sp,sp
     dc8:	e42ba1b7          	lui	gp,0xe42ba
     dcc:	0030a033          	slt	zero,ra,gp
     dd0:	c1417193          	andi	gp,sp,-1004
     dd4:	01d171b3          	and	gp,sp,t4
     dd8:	4281c693          	xori	a3,gp,1064
     ddc:	0032c0b3          	xor	ra,t0,gp
     de0:	f54b4317          	auipc	t1,0xf54b4
     de4:	0002d233          	srl	tp,t0,zero
     de8:	831c5137          	lui	sp,0x831c5
     dec:	5839e197          	auipc	gp,0x5839e
     df0:	61c17113          	andi	sp,sp,1564
     df4:	957e50b7          	lui	ra,0x957e5
     df8:	42509137          	lui	sp,0x42509
     dfc:	9695a2b7          	lui	t0,0x9695a
     e00:	00309133          	sll	sp,ra,gp
     e04:	006253b3          	srl	t2,tp,t1
     e08:	00112333          	slt	t1,sp,ra
     e0c:	f8c44137          	lui	sp,0xf8c44
     e10:	40310133          	sub	sp,sp,gp
     e14:	cd40c193          	xori	gp,ra,-812
     e18:	cc858093          	addi	ra,a1,-824 # 0x15c94468
     e1c:	93708113          	addi	sp,ra,-1737 # 0xffffffff957e4937
     e20:	00008113          	mv	sp,ra
     e24:	d41108e3          	beq	sp,ra,0xb74
     e28:	002130b3          	sltu	ra,sp,sp
     e2c:	4960b2b7          	lui	t0,0x4960b
     e30:	6c8d81b7          	lui	gp,0x6c8d8
     e34:	6b1b81b7          	lui	gp,0x6b1b8
     e38:	650470b7          	lui	ra,0x65047
     e3c:	84bf3237          	lui	tp,0x84bf3
     e40:	3fc9c137          	lui	sp,0x3fc9c
     e44:	038d2197          	auipc	gp,0x38d2
     e48:	6465f1b7          	lui	gp,0x6465f
     e4c:	b4c8c117          	auipc	sp,0xb4c8c
     e50:	4021d0b3          	sra	ra,gp,sp
     e54:	2c7cb097          	auipc	ra,0x2c7cb
     e58:	00316133          	or	sp,sp,gp
     e5c:	01a0f1b3          	and	gp,ra,s10
     e60:	2041c193          	xori	gp,gp,516
     e64:	c31a1d37          	lui	s10,0xc31a1
     e68:	bc14b1b7          	lui	gp,0xbc14b
     e6c:	002142b3          	xor	t0,sp,sp
     e70:	0010f1b3          	and	gp,ra,ra
     e74:	f51785b7          	lui	a1,0xf5178
     e78:	9e20f793          	andi	a5,ra,-1566
     e7c:	0031e0b3          	or	ra,gp,gp
     e80:	23ec41b7          	lui	gp,0x23ec4
     e84:	0035d0b3          	srl	ra,a1,gp
     e88:	002272b3          	and	t0,tp,sp
     e8c:	b05ad0b7          	lui	ra,0xb05ad
     e90:	d8234113          	xori	sp,t1,-638
     e94:	00111133          	sll	sp,sp,ra
     e98:	002181b3          	add	gp,gp,sp
     e9c:	4023d033          	sra	zero,t2,sp
     ea0:	402101b3          	sub	gp,sp,sp
     ea4:	003070b3          	and	ra,zero,gp
     ea8:	0060e1b3          	or	gp,ra,t1
     eac:	0c67d197          	auipc	gp,0xc67d
     eb0:	2c51de63          	bge	gp,t0,0x118c
     eb4:	2c51cc63          	blt	gp,t0,0x118c
     eb8:	7209b097          	auipc	ra,0x7209b
     ebc:	4a646097          	auipc	ra,0x4a646
     ec0:	e361f313          	andi	t1,gp,-458
     ec4:	746571b7          	lui	gp,0x74657
     ec8:	fed80237          	lui	tp,0xfed80
     ecc:	343f70b7          	lui	ra,0x343f7
     ed0:	8e3d8197          	auipc	gp,0x8e3d8
     ed4:	42cad697          	auipc	a3,0x42cad
     ed8:	401153b3          	sra	t2,sp,ra
     edc:	668d8197          	auipc	gp,0x668d8
     ee0:	aa5ba137          	lui	sp,0xaa5ba
     ee4:	003179b3          	and	s3,sp,gp
     ee8:	4010d0b3          	sra	ra,ra,ra
     eec:	22aa9097          	auipc	ra,0x22aa9
     ef0:	d5a956b7          	lui	a3,0xd5a95
     ef4:	004151b3          	srl	gp,sp,tp
     ef8:	beae1317          	auipc	t1,0xbeae1
     efc:	002c90b3          	sll	ra,s9,sp
     f00:	003190b3          	sll	ra,gp,gp
     f04:	4f6090b7          	lui	ra,0x4f609
     f08:	76e0f113          	andi	sp,ra,1902
     f0c:	5141fe13          	andi	t3,gp,1300
     f10:	b4c0e137          	lui	sp,0xb4c0e
     f14:	0013d133          	srl	sp,t2,ra
     f18:	ddf5f4b7          	lui	s1,0xddf5f
     f1c:	e155e093          	ori	ra,a1,-491
     f20:	76814393          	xori	t2,sp,1896
     f24:	002160b3          	or	ra,sp,sp
     f28:	40215133          	sra	sp,sp,sp
     f2c:	0020a133          	slt	sp,ra,sp
     f30:	40315133          	sra	sp,sp,gp
     f34:	000010b3          	sll	ra,zero,zero
     f38:	1e616013          	ori	zero,sp,486
     f3c:	36235263          	bge	t1,sp,0x12a0
     f40:	36234063          	blt	t1,sp,0x12a0
     f44:	4ef0f493          	andi	s1,ra,1263
     f48:	0010b0b3          	sltu	ra,ra,ra
     f4c:	421d31b7          	lui	gp,0x421d3
     f50:	2550c093          	xori	ra,ra,597
     f54:	0030d0b3          	srl	ra,ra,gp
     f58:	23b6e137          	lui	sp,0x23b6e
     f5c:	002371b3          	and	gp,t1,sp
     f60:	b395b697          	auipc	a3,0xb395b
     f64:	053212b7          	lui	t0,0x5321
     f68:	3d262097          	auipc	ra,0x3d262
     f6c:	9a90c197          	auipc	gp,0x9a90c
     f70:	00f123b3          	slt	t2,sp,a5
     f74:	003150b3          	srl	ra,sp,gp
     f78:	0010b1b3          	sltu	gp,ra,ra
     f7c:	67c18113          	addi	sp,gp,1660 # 0xffffffff9a90d5e8
     f80:	e3208193          	addi	gp,ra,-462 # 0x3d262d9a
     f84:	4330e113          	ori	sp,ra,1075
     f88:	d1e621b7          	lui	gp,0xd1e62
     f8c:	4022d333          	sra	t1,t0,sp
     f90:	138cd217          	auipc	tp,0x138cd
     f94:	74663197          	auipc	gp,0x74663
     f98:	05176113          	ori	sp,a4,81
     f9c:	d323e093          	ori	ra,t2,-718
     fa0:	4b500097          	auipc	ra,0x4b500
     fa4:	0b268137          	lui	sp,0xb268
     fa8:	4bad7097          	auipc	ra,0x4bad7
     fac:	4c908313          	addi	t1,ra,1225 # 0x4bad8471
     fb0:	5ecc9197          	auipc	gp,0x5ecc9
     fb4:	003081b3          	add	gp,ra,gp
     fb8:	347f2097          	auipc	ra,0x347f2
     fbc:	002080b3          	add	ra,ra,sp
     fc0:	c7310193          	addi	gp,sp,-909 # 0xb267c73
     fc4:	89191197          	auipc	gp,0x89191
     fc8:	00225333          	srl	t1,tp,sp
     fcc:	0861fc63          	bgeu	gp,t1,0x1064
     fd0:	0861ea63          	bltu	gp,t1,0x1064
     fd4:	09a1e113          	ori	sp,gp,154
     fd8:	0011e3b3          	or	t2,gp,ra
     fdc:	0133e1b3          	or	gp,t2,s3
     fe0:	4031d233          	sra	tp,gp,gp
     fe4:	03b6f093          	andi	ra,a3,59
     fe8:	38a0f093          	andi	ra,ra,906
     fec:	fd85f297          	auipc	t0,0xfd85f
     ff0:	94db1097          	auipc	ra,0x94db1
     ff4:	004141b3          	xor	gp,sp,tp
     ff8:	0073be33          	sltu	t3,t2,t2
     ffc:	4012d333          	sra	t1,t0,ra
    1000:	00010133          	add	sp,sp,zero
    1004:	402251b3          	sra	gp,tp,sp
    1008:	0030f1b3          	and	gp,ra,gp
    100c:	79a1e193          	ori	gp,gp,1946
    1010:	939e16b7          	lui	a3,0x939e1
    1014:	4031d3b3          	sra	t2,gp,gp
    1018:	e22992b7          	lui	t0,0xe2299
    101c:	d85a22b7          	lui	t0,0xd85a2
    1020:	4021d1b3          	sra	gp,gp,sp
    1024:	0012d133          	srl	sp,t0,ra
    1028:	002101b3          	add	gp,sp,sp
    102c:	cc8670b7          	lui	ra,0xcc867
    1030:	c5a17193          	andi	gp,sp,-934
    1034:	0021f0b3          	and	ra,gp,sp
    1038:	0020f1b3          	and	gp,ra,sp
    103c:	4020d133          	sra	sp,ra,sp
    1040:	10c6f037          	lui	zero,0x10c6f
    1044:	ce914113          	xori	sp,sp,-791
    1048:	406200b3          	sub	ra,tp,t1
    104c:	00616233          	or	tp,sp,t1
    1050:	e4f17137          	lui	sp,0xe4f17
    1054:	00d14133          	xor	sp,sp,a3
    1058:	df1b9137          	lui	sp,0xdf1b9
    105c:	58217663          	bgeu	sp,sp,0x15e8
    1060:	58216463          	bltu	sp,sp,0x15e8
    1064:	002140b3          	xor	ra,sp,sp
    1068:	4f318137          	lui	sp,0x4f318
    106c:	4aeb61b7          	lui	gp,0x4aeb6
    1070:	7346a297          	auipc	t0,0x7346a
    1074:	00209133          	sll	sp,ra,sp
    1078:	12a72137          	lui	sp,0x12a72
    107c:	ba21b137          	lui	sp,0xba21b
    1080:	a341f193          	andi	gp,gp,-1484
    1084:	74f8b197          	auipc	gp,0x74f8b
    1088:	40f14113          	xori	sp,sp,1039
    108c:	e4781037          	lui	zero,0xe4781
    1090:	072f5097          	auipc	ra,0x72f5
    1094:	59ecba17          	auipc	s4,0x59ecb
    1098:	6cf5b197          	auipc	gp,0x6cf5b
    109c:	df80e193          	ori	gp,ra,-520
    10a0:	b05840b7          	lui	ra,0xb0584
    10a4:	7ca10113          	addi	sp,sp,1994 # 0xffffffffba21b7ca
    10a8:	d5555137          	lui	sp,0xd5555
    10ac:	003135b3          	sltu	a1,sp,gp
    10b0:	0011b1b3          	sltu	gp,gp,ra
    10b4:	7f8940b7          	lui	ra,0x7f894
    10b8:	84800013          	li	zero,-1976
    10bc:	d4e1c113          	xori	sp,gp,-690
    10c0:	0030e1b3          	or	gp,ra,gp
    10c4:	4012d0b3          	sra	ra,t0,ra
    10c8:	001100b3          	add	ra,sp,ra
    10cc:	3dc14193          	xori	gp,sp,988
    10d0:	62506113          	ori	sp,zero,1573
    10d4:	23627093          	andi	ra,tp,566
    10d8:	9c008013          	addi	zero,ra,-1600 # 0x7f8939c0
    10dc:	004271b3          	and	gp,tp,tp
    10e0:	00212333          	slt	t1,sp,sp
    10e4:	07504493          	xori	s1,zero,117
    10e8:	ff61b0b7          	lui	ra,0xff61b
    10ec:	003120b3          	slt	ra,sp,gp
    10f0:	2a4fc0b7          	lui	ra,0x2a4fc
    10f4:	dc3112e3          	bne	sp,gp,0xeb8
    10f8:	dc3100e3          	beq	sp,gp,0xeb8
    10fc:	60980197          	auipc	gp,0x60980
    1100:	00336133          	or	sp,t1,gp
    1104:	9d0eb037          	lui	zero,0x9d0eb
    1108:	ec8e1397          	auipc	t2,0xec8e1
    110c:	0021a1b3          	slt	gp,gp,sp
    1110:	9ec10093          	addi	ra,sp,-1556 # 0xffffffffd55549ec
    1114:	d0043037          	lui	zero,0xd0043
    1118:	a8c70117          	auipc	sp,0xa8c70
    111c:	ce418093          	addi	ra,gp,-796 # 0x60980de0
    1120:	b8010293          	addi	t0,sp,-1152 # 0xffffffffa8c70c98
    1124:	20284117          	auipc	sp,0x20284
    1128:	cc610013          	addi	zero,sp,-826 # 0x20284dea
    112c:	006141b3          	xor	gp,sp,t1
    1130:	1080e117          	auipc	sp,0x1080e
    1134:	3543d117          	auipc	sp,0x3543d
    1138:	00314233          	xor	tp,sp,gp
    113c:	3aa232b7          	lui	t0,0x3aa23
    1140:	a274e217          	auipc	tp,0xa274e
    1144:	9912e097          	auipc	ra,0x9912e
    1148:	72f920b7          	lui	ra,0x72f92
    114c:	403081b3          	sub	gp,ra,gp
    1150:	4cd3f197          	auipc	gp,0x4cd3f
    1154:	b8c00193          	li	gp,-1140
    1158:	002451b3          	srl	gp,s0,sp
    115c:	ce13c093          	xori	ra,t2,-799
    1160:	a039d0b7          	lui	ra,0xa039d
    1164:	f1062697          	auipc	a3,0xf1062
    1168:	5635d0b7          	lui	ra,0x5635d
    116c:	27731737          	lui	a4,0x27731
    1170:	935ca1b7          	lui	gp,0x935ca
    1174:	002133b3          	sltu	t2,sp,sp
    1178:	8a2f9217          	auipc	tp,0x8a2f9
    117c:	0031a0b3          	slt	ra,gp,gp
    1180:	405151b3          	sra	gp,sp,t0
    1184:	a832d6e3          	bge	t0,gp,0xc10
    1188:	a832c4e3          	blt	t0,gp,0xc10
    118c:	4bdb70b7          	lui	ra,0x4bdb7
    1190:	002230b3          	sltu	ra,tp,sp
    1194:	849b6f17          	auipc	t5,0x849b6
    1198:	00610033          	add	zero,sp,t1
    119c:	07b99197          	auipc	gp,0x7b99
    11a0:	fe4be093          	ori	ra,s7,-28
    11a4:	96913697          	auipc	a3,0x96913
    11a8:	00130133          	add	sp,t1,ra
    11ac:	01b031b3          	snez	gp,s11
    11b0:	00316133          	or	sp,sp,gp
    11b4:	a0010193          	addi	gp,sp,-1536 # 0x3543db34
    11b8:	491af117          	auipc	sp,0x491af
    11bc:	0043f133          	and	sp,t2,tp
    11c0:	0010f333          	and	t1,ra,ra
    11c4:	0033d333          	srl	t1,t2,gp
    11c8:	b4e740b7          	lui	ra,0xb4e74
    11cc:	007153b3          	srl	t2,sp,t2
    11d0:	002261b3          	or	gp,tp,sp
    11d4:	d681c113          	xori	sp,gp,-664
    11d8:	a6fac237          	lui	tp,0xa6fac
    11dc:	d5097597          	auipc	a1,0xd5097
    11e0:	ca95f097          	auipc	ra,0xca95f
    11e4:	6000f117          	auipc	sp,0x6000f
    11e8:	0364e7b7          	lui	a5,0x364e
    11ec:	47010113          	addi	sp,sp,1136 # 0x60010654
    11f0:	0011a0b3          	slt	ra,gp,ra
    11f4:	0024e033          	or	zero,s1,sp
    11f8:	9d5fcd17          	auipc	s10,0x9d5fc
    11fc:	2bf3e297          	auipc	t0,0x2bf3e
    1200:	35c17093          	andi	ra,sp,860
    1204:	28e70117          	auipc	sp,0x28e70
    1208:	0010e233          	or	tp,ra,ra
    120c:	00000117          	auipc	sp,0x0
    1210:	ef0100e7          	jalr	-272(sp) # 0x10fc
    1214:	37d17113          	andi	sp,sp,893
    1218:	7811e317          	auipc	t1,0x7811e
    121c:	56f4e1b7          	lui	gp,0x56f4e
    1220:	0030b3b3          	sltu	t2,ra,gp
    1224:	91b0c197          	auipc	gp,0x91b0c
    1228:	40108133          	sub	sp,ra,ra
    122c:	89c70a97          	auipc	s5,0x89c70
    1230:	6342f113          	andi	sp,t0,1588
    1234:	078c3497          	auipc	s1,0x78c3
    1238:	04bf41b7          	lui	gp,0x4bf4
    123c:	0051b1b3          	sltu	gp,gp,t0
    1240:	ad3df637          	lui	a2,0xad3df
    1244:	e29e2297          	auipc	t0,0xe29e2
    1248:	0ac1b097          	auipc	ra,0xac1b
    124c:	0097f033          	and	zero,a5,s1
    1250:	0d5ef3b7          	lui	t2,0xd5ef
    1254:	0013c033          	xor	zero,t2,ra
    1258:	4d5e2197          	auipc	gp,0x4d5e2
    125c:	0020b133          	sltu	sp,ra,sp
    1260:	12b7f097          	auipc	ra,0x12b7f
    1264:	0030c333          	xor	t1,ra,gp
    1268:	91d2f097          	auipc	ra,0x91d2f
    126c:	eae603b7          	lui	t2,0xeae60
    1270:	e37c5117          	auipc	sp,0xe37c5
    1274:	00131133          	sll	sp,t1,ra
    1278:	1d9d6117          	auipc	sp,0x1d9d6
    127c:	01c1e133          	or	sp,gp,t3
    1280:	003101b3          	add	gp,sp,gp
    1284:	00305db3          	srl	s11,zero,gp
    1288:	eb938037          	lui	zero,0xeb938
    128c:	8f98b1b7          	lui	gp,0x8f98b
    1290:	402154b3          	sra	s1,sp,sp
    1294:	3ad1c093          	xori	ra,gp,941
    1298:	00018113          	mv	sp,gp
    129c:	12310663          	beq	sp,gp,0x13c8
    12a0:	0035d0b3          	srl	ra,a1,gp
    12a4:	e660d137          	lui	sp,0xe660d
    12a8:	ab2ef1b7          	lui	gp,0xab2ef
    12ac:	13f1f093          	andi	ra,gp,319
    12b0:	34988097          	auipc	ra,0x34988
    12b4:	6e60c1b7          	lui	gp,0x6e60c
    12b8:	642d6097          	auipc	ra,0x642d6
    12bc:	f120f193          	andi	gp,ra,-238
    12c0:	e1f5c193          	xori	gp,a1,-481
    12c4:	5890c013          	xori	zero,ra,1417
    12c8:	a22c80b7          	lui	ra,0xa22c8
    12cc:	a0a2e193          	ori	gp,t0,-1526
    12d0:	21c43137          	lui	sp,0x21c43
    12d4:	00203033          	snez	zero,sp
    12d8:	7ab17113          	andi	sp,sp,1963
    12dc:	2ce406b7          	lui	a3,0x2ce40
    12e0:	0000e333          	or	t1,ra,zero
    12e4:	a8717113          	andi	sp,sp,-1401
    12e8:	a5e20097          	auipc	ra,0xa5e20
    12ec:	0010d0b3          	srl	ra,ra,ra
    12f0:	0033b3b3          	sltu	t2,t2,gp
    12f4:	0013d1b3          	srl	gp,t2,ra
    12f8:	0761c193          	xori	gp,gp,118
    12fc:	00226133          	or	sp,tp,sp
    1300:	19b0f393          	andi	t2,ra,411
    1304:	001161b3          	or	gp,sp,ra
    1308:	2761c113          	xori	sp,gp,630
    130c:	01d17133          	and	sp,sp,t4
    1310:	16a4dab7          	lui	s5,0x16a4d
    1314:	f2010113          	addi	sp,sp,-224 # 0x21c42f20
    1318:	6bd18093          	addi	ra,gp,1725 # 0x6e60c6bd
    131c:	81d5d137          	lui	sp,0x81d5d
    1320:	a1fcf117          	auipc	sp,0xa1fcf
    1324:	4b673237          	lui	tp,0x4b673
    1328:	006180b3          	add	ra,gp,t1
    132c:	fa114113          	xori	sp,sp,-95
    1330:	003090b3          	sll	ra,ra,gp
    1334:	2097e113          	ori	sp,a5,521
    1338:	00018213          	mv	tp,gp
    133c:	10320a63          	beq	tp,gp,0x1450
    1340:	8e516193          	ori	gp,sp,-1819
    1344:	0032b0b3          	sltu	ra,t0,gp
    1348:	004121b3          	slt	gp,sp,tp
    134c:	a2c37397          	auipc	t2,0xa2c37
    1350:	560c2037          	lui	zero,0x560c2
    1354:	872d7117          	auipc	sp,0x872d7
    1358:	002160b3          	or	ra,sp,sp
    135c:	a13c9297          	auipc	t0,0xa13c9
    1360:	5c8a21b7          	lui	gp,0x5c8a2
    1364:	2d1e40b7          	lui	ra,0x2d1e4
    1368:	a7c18193          	addi	gp,gp,-1412 # 0x5c8a1a7c
    136c:	8ae1c213          	xori	tp,gp,-1874
    1370:	89f431b7          	lui	gp,0x89f43
    1374:	00309133          	sll	sp,ra,gp
    1378:	001180b3          	add	ra,gp,ra
    137c:	00219133          	sll	sp,gp,sp
    1380:	0011d1b3          	srl	gp,gp,ra
    1384:	eb708193          	addi	gp,ra,-329 # 0x2d1e3eb7
    1388:	403151b3          	sra	gp,sp,gp
    138c:	403054b3          	sra	s1,zero,gp
    1390:	0061f0b3          	and	ra,gp,t1
    1394:	50c30237          	lui	tp,0x50c30
    1398:	0051feb3          	and	t4,gp,t0
    139c:	0022d1b3          	srl	gp,t0,sp
    13a0:	4011d1b3          	sra	gp,gp,ra
    13a4:	006141b3          	xor	gp,sp,t1
    13a8:	dec613b7          	lui	t2,0xdec61
    13ac:	0011d1b3          	srl	gp,gp,ra
    13b0:	401381b3          	sub	gp,t2,ra
    13b4:	cc416c13          	ori	s8,sp,-828
    13b8:	402081b3          	sub	gp,ra,sp
    13bc:	85978097          	auipc	ra,0x85978
    13c0:	00f20263          	beq	tp,a5,0x13c4
    13c4:	031001ef          	jal	gp,0x1bf4
    13c8:	54d1c1b7          	lui	gp,0x54d1c
    13cc:	11a07193          	andi	gp,zero,282
    13d0:	56c70097          	auipc	ra,0x56c70
    13d4:	2742f113          	andi	sp,t0,628
    13d8:	fa61c213          	xori	tp,gp,-90
    13dc:	582bd397          	auipc	t2,0x582bd
    13e0:	0055a1b3          	slt	gp,a1,t0
    13e4:	40418333          	sub	t1,gp,tp
    13e8:	7c7cb137          	lui	sp,0x7c7cb
    13ec:	99693237          	lui	tp,0x99693
    13f0:	e8565ab7          	lui	s5,0xe8565
    13f4:	002124b3          	slt	s1,sp,sp
    13f8:	0023f1b3          	and	gp,t2,sp
    13fc:	19f0f197          	auipc	gp,0x19f0f
    1400:	006103b3          	add	t2,sp,t1
    1404:	401003b3          	neg	t2,ra
    1408:	406151b3          	sra	gp,sp,t1
    140c:	21b150b7          	lui	ra,0x21b15
    1410:	534e3137          	lui	sp,0x534e3
    1414:	003140b3          	xor	ra,sp,gp
    1418:	003260b3          	or	ra,tp,gp
    141c:	bdf08093          	addi	ra,ra,-1057 # 0x21b14bdf
    1420:	86a34113          	xori	sp,t1,-1942
    1424:	ddcf1097          	auipc	ra,0xddcf1
    1428:	003bb133          	sltu	sp,s7,gp
    142c:	cb6311b7          	lui	gp,0xcb631
    1430:	003790b3          	sll	ra,a5,gp
    1434:	0011f0b3          	and	ra,gp,ra
    1438:	0020a3b3          	slt	t2,ra,sp
    143c:	00409233          	sll	tp,ra,tp
    1440:	404051b3          	sra	gp,zero,tp
    1444:	00129133          	sll	sp,t0,ra
    1448:	10310e63          	beq	sp,gp,0x1564
    144c:	118001ef          	jal	gp,0x1564
    1450:	003050b3          	srl	ra,zero,gp
    1454:	40118133          	sub	sp,gp,ra
    1458:	124a5097          	auipc	ra,0x124a5
    145c:	3a7c1117          	auipc	sp,0x3a7c1
    1460:	d0327193          	andi	gp,tp,-765
    1464:	0011a7b3          	slt	a5,gp,ra
    1468:	ac495117          	auipc	sp,0xac495
    146c:	403206b3          	sub	a3,tp,gp
    1470:	7555e193          	ori	gp,a1,1877
    1474:	5283f137          	lui	sp,0x5283f
    1478:	18816113          	ori	sp,sp,392
    147c:	00322033          	slt	zero,tp,gp
    1480:	a7cb1197          	auipc	gp,0xa7cb1
    1484:	0021c033          	xor	zero,gp,sp
    1488:	56c10313          	addi	t1,sp,1388 # 0x5283f56c
    148c:	5df45297          	auipc	t0,0x5df45
    1490:	337ae1b7          	lui	gp,0x337ae
    1494:	0036c0b3          	xor	ra,a3,gp
    1498:	4061d0b3          	sra	ra,gp,t1
    149c:	49a17493          	andi	s1,sp,1178
    14a0:	ab138197          	auipc	gp,0xab138
    14a4:	00316033          	or	zero,sp,gp
    14a8:	0051b133          	sltu	sp,gp,t0
    14ac:	0010f0b3          	and	ra,ra,ra
    14b0:	002340b3          	xor	ra,t1,sp
    14b4:	3e9e7197          	auipc	gp,0x3e9e7
    14b8:	cbf36093          	ori	ra,t1,-833
    14bc:	a1c4b117          	auipc	sp,0xa1c4b
    14c0:	0341e113          	ori	sp,gp,52
    14c4:	d41108e3          	beq	sp,ra,0x1214
    14c8:	d4dff26f          	jal	tp,0x1214
    14cc:	99834113          	xori	sp,t1,-1640
    14d0:	5b61f113          	andi	sp,gp,1462
    14d4:	0011b3b3          	sltu	t2,gp,ra
    14d8:	8ecaa5b7          	lui	a1,0x8ecaa
    14dc:	daf37137          	lui	sp,0xdaf37
    14e0:	00448333          	add	t1,s1,tp
    14e4:	002051b3          	srl	gp,zero,sp
    14e8:	91a0f193          	andi	gp,ra,-1766
    14ec:	001c93b3          	sll	t2,s9,ra
    14f0:	00108133          	add	sp,ra,ra
    14f4:	001301b3          	add	gp,t1,ra
    14f8:	6b8e9137          	lui	sp,0x6b8e9
    14fc:	0001c2b3          	xor	t0,gp,zero
    1500:	48318113          	addi	sp,gp,1155 # 0x3e9e8937
    1504:	000143b3          	xor	t2,sp,zero
    1508:	001101b3          	add	gp,sp,ra
    150c:	321914b7          	lui	s1,0x32191
    1510:	7fda0093          	addi	ra,s4,2045 # 0x59ecc891
    1514:	2de131b7          	lui	gp,0x2de13
    1518:	b99de113          	ori	sp,s11,-1127
    151c:	0030e0b3          	or	ra,ra,gp
    1520:	75216093          	ori	ra,sp,1874
    1524:	0010a5b3          	slt	a1,ra,ra
    1528:	43142097          	auipc	ra,0x43142
    152c:	f7b24113          	xori	sp,tp,-133
    1530:	36a17113          	andi	sp,sp,874
    1534:	77c8c197          	auipc	gp,0x77c8c
    1538:	acab8097          	auipc	ra,0xacab8
    153c:	8298a297          	auipc	t0,0x8298a
    1540:	f3aec217          	auipc	tp,0xf3aec
    1544:	8a9980b7          	lui	ra,0x8a998
    1548:	d2d0c193          	xori	gp,ra,-723
    154c:	3950f193          	andi	gp,ra,917
    1550:	00f0e0b3          	or	ra,ra,a5
    1554:	2c3665b7          	lui	a1,0x2c366
    1558:	3c6ec0b7          	lui	ra,0x3c6ec
    155c:	842352e3          	bge	t1,sp,0xda0
    1560:	842340e3          	blt	t1,sp,0xda0
    1564:	302810b7          	lui	ra,0x30281
    1568:	00626133          	or	sp,tp,t1
    156c:	a1e93097          	auipc	ra,0xa1e93
    1570:	66914013          	xori	zero,sp,1641
    1574:	ca956197          	auipc	gp,0xca956
    1578:	40105133          	sra	sp,zero,ra
    157c:	7d4d8037          	lui	zero,0x7d4d8
    1580:	eadae097          	auipc	ra,0xeadae
    1584:	40115233          	sra	tp,sp,ra
    1588:	7b5a31b7          	lui	gp,0x7b5a3
    158c:	002af1b3          	and	gp,s5,sp
    1590:	00114133          	xor	sp,sp,ra
    1594:	70f1c393          	xori	t2,gp,1807
    1598:	8c2ba217          	auipc	tp,0x8c2ba
    159c:	0060b133          	sltu	sp,ra,t1
    15a0:	0072aeb3          	slt	t4,t0,t2
    15a4:	4030d133          	sra	sp,ra,gp
    15a8:	0b92e013          	ori	zero,t0,185
    15ac:	001081b3          	add	gp,ra,ra
    15b0:	971fc137          	lui	sp,0x971fc
    15b4:	27490197          	auipc	gp,0x27490
    15b8:	402081b3          	sub	gp,ra,sp
    15bc:	b55751b7          	lui	gp,0xb5575
    15c0:	4f7501b7          	lui	gp,0x4f750
    15c4:	4061d133          	sra	sp,gp,t1
    15c8:	cfc54a13          	xori	s4,a0,-772
    15cc:	feb41137          	lui	sp,0xfeb41
    15d0:	48e33197          	auipc	gp,0x48e33
    15d4:	00226133          	or	sp,tp,sp
    15d8:	be94e197          	auipc	gp,0xbe94e
    15dc:	16118113          	addi	sp,gp,353 # 0xffffffffbe94f739
    15e0:	9e218ae3          	beq	gp,sp,0xfd4
    15e4:	9f1ff0ef          	jal	ra,0xfd4
    15e8:	0012d0b3          	srl	ra,t0,ra
    15ec:	007164b3          	or	s1,sp,t2
    15f0:	b8410f93          	addi	t6,sp,-1148 # 0xfffffffffeb40b84
    15f4:	e527f2b7          	lui	t0,0xe527f
    15f8:	00b12033          	slt	zero,sp,a1
    15fc:	0021dcb3          	srl	s9,gp,sp
    1600:	0010a0b3          	slt	ra,ra,ra
    1604:	8fc890b7          	lui	ra,0x8fc89
    1608:	22a0c113          	xori	sp,ra,554
    160c:	22530097          	auipc	ra,0x22530
    1610:	613bc137          	lui	sp,0x613bc
    1614:	0062a233          	slt	tp,t0,t1
    1618:	4d604213          	xori	tp,zero,1238
    161c:	f21600b7          	lui	ra,0xf2160
    1620:	66b71117          	auipc	sp,0x66b71
    1624:	003153b3          	srl	t2,sp,gp
    1628:	401181b3          	sub	gp,gp,ra
    162c:	4c137693          	andi	a3,t1,1217
    1630:	403083b3          	sub	t2,ra,gp
    1634:	0033d0b3          	srl	ra,t2,gp
    1638:	0020a1b3          	slt	gp,ra,sp
    163c:	403180b3          	sub	ra,gp,gp
    1640:	9c21a117          	auipc	sp,0x9c21a
    1644:	d4108193          	addi	gp,ra,-703 # 0xfffffffff215fd41
    1648:	d4afa197          	auipc	gp,0xd4afa
    164c:	00330233          	add	tp,t1,gp
    1650:	0030d1b3          	srl	gp,ra,gp
    1654:	0021c0b3          	xor	ra,gp,sp
    1658:	5354b117          	auipc	sp,0x5354b
    165c:	36b1f393          	andi	t2,gp,875
    1660:	001082b3          	add	t0,ra,ra
    1664:	408183b3          	sub	t2,gp,s0
    1668:	49a31137          	lui	sp,0x49a31
    166c:	003f8263          	beq	t6,gp,0x1670
    1670:	e2cff16f          	jal	sp,0xc9c
    1674:	b359f5b7          	lui	a1,0xb359f
    1678:	1dd1c093          	xori	ra,gp,477
    167c:	ef148697          	auipc	a3,0xef148
    1680:	e0d37193          	andi	gp,t1,-499
    1684:	29b24193          	xori	gp,tp,667
    1688:	0037e0b3          	or	ra,a5,gp
    168c:	f0d27093          	andi	ra,tp,-243
    1690:	a2ab21b7          	lui	gp,0xa2ab2
    1694:	9bf15017          	auipc	zero,0x9bf15
    1698:	0f286237          	lui	tp,0xf286
    169c:	dca0c293          	xori	t0,ra,-566
    16a0:	0021c1b3          	xor	gp,gp,sp
    16a4:	402180b3          	sub	ra,gp,sp
    16a8:	005121b3          	slt	gp,sp,t0
    16ac:	005063b3          	or	t2,zero,t0
    16b0:	0010d133          	srl	sp,ra,ra
    16b4:	19116213          	ori	tp,sp,401
    16b8:	bc7f8137          	lui	sp,0xbc7f8
    16bc:	0023c0b3          	xor	ra,t2,sp
    16c0:	7b875137          	lui	sp,0x7b875
    16c4:	3e1163b7          	lui	t2,0x3e116
    16c8:	7a8791b7          	lui	gp,0x7a879
    16cc:	ece1d337          	lui	t1,0xece1d
    16d0:	0010b9b3          	sltu	s3,ra,ra
    16d4:	0012bdb3          	sltu	s11,t0,ra
    16d8:	47c1c193          	xori	gp,gp,1148
    16dc:	40910133          	sub	sp,sp,s1
    16e0:	6df50117          	auipc	sp,0x6df50
    16e4:	01a13733          	sltu	a4,sp,s10
    16e8:	4ef0e013          	ori	zero,ra,1263
    16ec:	2412d863          	bge	t0,ra,0x193c
    16f0:	2412c663          	blt	t0,ra,0x193c
    16f4:	29d52037          	lui	zero,0x29d52
    16f8:	f60dd217          	auipc	tp,0xf60dd
    16fc:	007060b3          	or	ra,zero,t2
    1700:	00213133          	sltu	sp,sp,sp
    1704:	0023e1b3          	or	gp,t2,sp
    1708:	005062b3          	or	t0,zero,t0
    170c:	3f548197          	auipc	gp,0x3f548
    1710:	8940a297          	auipc	t0,0x8940a
    1714:	0020f133          	and	sp,ra,sp
    1718:	40005233          	sra	tp,zero,zero
    171c:	3e549197          	auipc	gp,0x3e549
    1720:	5230c093          	xori	ra,ra,1315
    1724:	0100c333          	xor	t1,ra,a6
    1728:	c890b117          	auipc	sp,0xc890b
    172c:	eb7152b7          	lui	t0,0xeb715
    1730:	f39eb197          	auipc	gp,0xf39eb
    1734:	84083117          	auipc	sp,0x84083
    1738:	5f414137          	lui	sp,0x5f414
    173c:	40308133          	sub	sp,ra,gp
    1740:	c2155197          	auipc	gp,0xc2155
    1744:	1ec84117          	auipc	sp,0x1ec84
    1748:	adcde117          	auipc	sp,0xadcde
    174c:	5051f093          	andi	ra,gp,1285
    1750:	29fd0197          	auipc	gp,0x29fd0
    1754:	401100b3          	sub	ra,sp,ra
    1758:	0021f133          	and	sp,gp,sp
    175c:	4a318493          	addi	s1,gp,1187 # 0x29fd1bf3
    1760:	ac61f113          	andi	sp,gp,-1338
    1764:	66c010b7          	lui	ra,0x66c01
    1768:	43814113          	xori	sp,sp,1080
    176c:	95bbd2b7          	lui	t0,0x95bbd
    1770:	f835c337          	lui	t1,0xf835c
    1774:	8a224197          	auipc	gp,0x8a224
    1778:	1b65b0b7          	lui	ra,0x1b65b
    177c:	74fbe197          	auipc	gp,0x74fbe
    1780:	0a120063          	beq	tp,ra,0x1820
    1784:	09c0016f          	jal	sp,0x1820
    1788:	001271b3          	and	gp,tp,ra
    178c:	0013e333          	or	t1,t2,ra
    1790:	0012d1b3          	srl	gp,t0,ra
    1794:	7230c493          	xori	s1,ra,1827
    1798:	42c91297          	auipc	t0,0x42c91
    179c:	13530393          	addi	t2,t1,309 # 0xfffffffff835c135
    17a0:	000140b3          	xor	ra,sp,zero
    17a4:	100ea1b7          	lui	gp,0x100ea
    17a8:	3f6ff6b7          	lui	a3,0x3f6ff
    17ac:	d331c113          	xori	sp,gp,-717
    17b0:	3f14e0b7          	lui	ra,0x3f14e
    17b4:	00119133          	sll	sp,gp,ra
    17b8:	9da1f013          	andi	zero,gp,-1574
    17bc:	bdc3e093          	ori	ra,t2,-1060
    17c0:	0033e033          	or	zero,t2,gp
    17c4:	aa91c113          	xori	sp,gp,-1367
    17c8:	004791b3          	sll	gp,a5,tp
    17cc:	81908113          	addi	sp,ra,-2023 # 0x3f14d819
    17d0:	793e5097          	auipc	ra,0x793e5
    17d4:	e06b60b7          	lui	ra,0xe06b6
    17d8:	003171b3          	and	gp,sp,gp
    17dc:	7fbbc117          	auipc	sp,0x7fbbc
    17e0:	0021a0b3          	slt	ra,gp,sp
    17e4:	59138117          	auipc	sp,0x59138
    17e8:	001081b3          	add	gp,ra,ra
    17ec:	4400c093          	xori	ra,ra,1088
    17f0:	68c1f193          	andi	gp,gp,1676
    17f4:	e3b0e093          	ori	ra,ra,-453
    17f8:	00135133          	srl	sp,t1,ra
    17fc:	06c30013          	addi	zero,t1,108
    1800:	004182b3          	add	t0,gp,tp
    1804:	b4cb5097          	auipc	ra,0xb4cb5
    1808:	2b578093          	addi	ra,a5,693 # 0x364e2b5
    180c:	0011d133          	srl	sp,gp,ra
    1810:	2265f193          	andi	gp,a1,550
    1814:	0031e133          	or	sp,gp,gp
    1818:	00000013          	nop
    181c:	44000a63          	beqz	zero,0x1c70
    1820:	bcc9e217          	auipc	tp,0xbcc9e
    1824:	404d5197          	auipc	gp,0x404d5
    1828:	4c56a2b7          	lui	t0,0x4c56a
    182c:	6c2a8137          	lui	sp,0x6c2a8
    1830:	0036d0b7          	lui	ra,0x36d
    1834:	c6625137          	lui	sp,0xc6625
    1838:	ade932b7          	lui	t0,0xade93
    183c:	0020f1b3          	and	gp,ra,sp
    1840:	004181b3          	add	gp,gp,tp
    1844:	0030d1b3          	srl	gp,ra,gp
    1848:	40408233          	sub	tp,ra,tp
    184c:	fe80f113          	andi	sp,ra,-24
    1850:	003381b3          	add	gp,t2,gp
    1854:	14877097          	auipc	ra,0x14877
    1858:	0024d233          	srl	tp,s1,sp
    185c:	0027a133          	slt	sp,a5,sp
    1860:	400101b3          	sub	gp,sp,zero
    1864:	00118233          	add	tp,gp,ra
    1868:	17886093          	ori	ra,a6,376
    186c:	4012d1b3          	sra	gp,t0,ra
    1870:	cdb3a137          	lui	sp,0xcdb3a
    1874:	00209133          	sll	sp,ra,sp
    1878:	034a2117          	auipc	sp,0x34a2
    187c:	5c85c317          	auipc	t1,0x5c85c
    1880:	ac820193          	addi	gp,tp,-1336 # 0xffffffffbcc9f2e8
    1884:	413180b3          	sub	ra,gp,s3
    1888:	eb7e7117          	auipc	sp,0xeb7e7
    188c:	401381b3          	sub	gp,t2,ra
    1890:	695031b7          	lui	gp,0x69503
    1894:	015000b3          	add	ra,zero,s5
    1898:	0060e133          	or	sp,ra,t1
    189c:	56008e63          	beqz	ra,0x1e18
    18a0:	578001ef          	jal	gp,0x1e18
    18a4:	002200b3          	add	ra,tp,sp
    18a8:	95b1f093          	andi	ra,gp,-1701
    18ac:	005193b3          	sll	t2,gp,t0
    18b0:	c1c0fa37          	lui	s4,0xc1c0f
    18b4:	00203333          	snez	t1,sp
    18b8:	003351b3          	srl	gp,t1,gp
    18bc:	40218133          	sub	sp,gp,sp
    18c0:	0031b1b3          	sltu	gp,gp,gp
    18c4:	b9fc93b7          	lui	t2,0xb9fc9
    18c8:	f637cc37          	lui	s8,0xf637c
    18cc:	e5c641b7          	lui	gp,0xe5c64
    18d0:	75a18113          	addi	sp,gp,1882 # 0xffffffffe5c6475a
    18d4:	17d14113          	xori	sp,sp,381
    18d8:	8ce47337          	lui	t1,0x8ce47
    18dc:	006150b3          	srl	ra,sp,t1
    18e0:	00730233          	add	tp,t1,t2
    18e4:	37c1f113          	andi	sp,gp,892
    18e8:	dc318113          	addi	sp,gp,-573
    18ec:	317402b7          	lui	t0,0x31740
    18f0:	4091d0b3          	sra	ra,gp,s1
    18f4:	22316093          	ori	ra,sp,547
    18f8:	a6917113          	andi	sp,sp,-1431
    18fc:	2bd1e693          	ori	a3,gp,701
    1900:	90086093          	ori	ra,a6,-1792
    1904:	b59c6397          	auipc	t2,0xb59c6
    1908:	2fec3337          	lui	t1,0x2fec3
    190c:	6b513097          	auipc	ra,0x6b513
    1910:	327db117          	auipc	sp,0x327db
    1914:	8d694237          	lui	tp,0x8d694
    1918:	1a8240b7          	lui	ra,0x1a824
    191c:	0011f0b3          	and	ra,gp,ra
    1920:	0011f233          	and	tp,gp,ra
    1924:	0030a133          	slt	sp,ra,gp
    1928:	3fd0c193          	xori	gp,ra,1021
    192c:	3280e093          	ori	ra,ra,808
    1930:	00114333          	xor	t1,sp,ra
    1934:	00000097          	auipc	ra,0x0
    1938:	0a0081e7          	jalr	gp,160(ra) # 0x19d4
    193c:	cd016113          	ori	sp,sp,-816
    1940:	73fe60b7          	lui	ra,0x73fe6
    1944:	2a5723b7          	lui	t2,0x2a572
    1948:	00d170b3          	and	ra,sp,a3
    194c:	31ccd017          	auipc	zero,0x31ccd
    1950:	001111b3          	sll	gp,sp,ra
    1954:	4a14c317          	auipc	t1,0x4a14c
    1958:	fc41e093          	ori	ra,gp,-60
    195c:	402180b3          	sub	ra,gp,sp
    1960:	0010f133          	and	sp,ra,ra
    1964:	0033c4b3          	xor	s1,t2,gp
    1968:	40618133          	sub	sp,gp,t1
    196c:	1cd9d3b7          	lui	t2,0x1cd9d
    1970:	cf2b20b7          	lui	ra,0xcf2b2
    1974:	00216033          	or	zero,sp,sp
    1978:	002141b3          	xor	gp,sp,sp
    197c:	7d31d137          	lui	sp,0x7d31d
    1980:	3ea5c197          	auipc	gp,0x3ea5c
    1984:	1361c693          	xori	a3,gp,310
    1988:	0036e1b3          	or	gp,a3,gp
    198c:	6ce1a2b7          	lui	t0,0x6ce1a
    1990:	0020a0b3          	slt	ra,ra,sp
    1994:	c8675fb7          	lui	t6,0xc8675
    1998:	402183b3          	sub	t2,gp,sp
    199c:	abc31117          	auipc	sp,0xabc31
    19a0:	4020d1b3          	sra	gp,ra,sp
    19a4:	6a74e113          	ori	sp,s1,1703
    19a8:	3a37b197          	auipc	gp,0x3a37b
    19ac:	73820113          	addi	sp,tp,1848 # 0xffffffff8d694738
    19b0:	0e04d6b7          	lui	a3,0xe04d
    19b4:	34f50093          	addi	ra,a0,847
    19b8:	fd678b97          	auipc	s7,0xfd678
    19bc:	b5f55197          	auipc	gp,0xb5f55
    19c0:	5ab0e113          	ori	sp,ra,1451
    19c4:	504770b7          	lui	ra,0x50477
    19c8:	00569133          	sll	sp,a3,t0
    19cc:	32608663          	beq	ra,t1,0x1cf8
    19d0:	3280076f          	jal	a4,0x1cf8
    19d4:	001311b3          	sll	gp,t1,ra
    19d8:	ad718113          	addi	sp,gp,-1321 # 0xffffffffb5f56493
    19dc:	62d1c3b7          	lui	t2,0x62d1c
    19e0:	12b790b7          	lui	ra,0x12b79
    19e4:	0010f133          	and	sp,ra,ra
    19e8:	58c153b7          	lui	t2,0x58c15
    19ec:	320e6117          	auipc	sp,0x320e6
    19f0:	01780137          	lui	sp,0x1780
    19f4:	b8497197          	auipc	gp,0xb8497
    19f8:	42604117          	auipc	sp,0x42604
    19fc:	4eb1f097          	auipc	ra,0x4eb1f
    1a00:	001281b3          	add	gp,t0,ra
    1a04:	0030e0b3          	or	ra,ra,gp
    1a08:	00126133          	or	sp,tp,ra
    1a0c:	2aa08013          	addi	zero,ra,682 # 0x4eb20ca6
    1a10:	d43b3097          	auipc	ra,0xd43b3
    1a14:	daf28193          	addi	gp,t0,-593 # 0x6ce19daf
    1a18:	ce208113          	addi	sp,ra,-798 # 0xffffffffd43b46f2
    1a1c:	8c50f013          	andi	zero,ra,-1851
    1a20:	0181f0b3          	and	ra,gp,s8
    1a24:	00215133          	srl	sp,sp,sp
    1a28:	00d01133          	sll	sp,zero,a3
    1a2c:	001030b3          	snez	ra,ra
    1a30:	0030b5b3          	sltu	a1,ra,gp
    1a34:	0030a133          	slt	sp,ra,gp
    1a38:	20dd51b7          	lui	gp,0x20dd5
    1a3c:	000165b3          	or	a1,sp,zero
    1a40:	ec6a8197          	auipc	gp,0xec6a8
    1a44:	c1b1e193          	ori	gp,gp,-997
    1a48:	00b10133          	add	sp,sp,a1
    1a4c:	ec108113          	addi	sp,ra,-319
    1a50:	002110b3          	sll	ra,sp,sp
    1a54:	5bd79317          	auipc	t1,0x5bd79
    1a58:	5200c193          	xori	gp,ra,1312
    1a5c:	00000197          	auipc	gp,0x0
    1a60:	11418267          	jalr	tp,276(gp) # 0x1b70
    1a64:	53c27097          	auipc	ra,0x53c27
    1a68:	0021f133          	and	sp,gp,sp
    1a6c:	0021f1b3          	and	gp,gp,sp
    1a70:	bb620013          	addi	zero,tp,-1098 # 0xfffffffffffffbb6
    1a74:	b232d397          	auipc	t2,0xb232d
    1a78:	cd5be0b7          	lui	ra,0xcd5be
    1a7c:	c34d5137          	lui	sp,0xc34d5
    1a80:	d151e113          	ori	sp,gp,-747
    1a84:	996030b7          	lui	ra,0x99603
    1a88:	8671c113          	xori	sp,gp,-1945
    1a8c:	b1a10017          	auipc	zero,0xb1a10
    1a90:	d6808193          	addi	gp,ra,-664 # 0xffffffff99602d68
    1a94:	b9cc3037          	lui	zero,0xb9cc3
    1a98:	656b80b7          	lui	ra,0x656b8
    1a9c:	003171b3          	and	gp,sp,gp
    1aa0:	e8c0e313          	ori	t1,ra,-372
    1aa4:	505520b7          	lui	ra,0x50552
    1aa8:	00116133          	or	sp,sp,ra
    1aac:	7d40c093          	xori	ra,ra,2004
    1ab0:	0011b0b3          	sltu	ra,gp,ra
    1ab4:	da86da37          	lui	s4,0xda86d
    1ab8:	0ef6e097          	auipc	ra,0xef6e
    1abc:	0020c0b3          	xor	ra,ra,sp
    1ac0:	55ee9197          	auipc	gp,0x55ee9
    1ac4:	588a70b7          	lui	ra,0x588a7
    1ac8:	003390b3          	sll	ra,t2,gp
    1acc:	0030e1b3          	or	gp,ra,gp
    1ad0:	356e61b7          	lui	gp,0x356e6
    1ad4:	40600133          	neg	sp,t1
    1ad8:	a7568237          	lui	tp,0xa7568
    1adc:	0046c1b3          	xor	gp,a3,tp
    1ae0:	002211b3          	sll	gp,tp,sp
    1ae4:	3c208463          	beq	ra,sp,0x1eac
    1ae8:	3c4000ef          	jal	ra,0x1eac
    1aec:	00f1c4b3          	xor	s1,gp,a5
    1af0:	4021d8b3          	sra	a7,gp,sp
    1af4:	15496d97          	auipc	s11,0x15496
    1af8:	dfab51b7          	lui	gp,0xdfab5
    1afc:	a7b75e17          	auipc	t3,0xa7b75
    1b00:	3720e193          	ori	gp,ra,882
    1b04:	2dcfa3b7          	lui	t2,0x2dcfa
    1b08:	4034d1b3          	sra	gp,s1,gp
    1b0c:	dff69337          	lui	t1,0xdff69
    1b10:	0030b2b3          	sltu	t0,ra,gp
    1b14:	c80a8137          	lui	sp,0xc80a8
    1b18:	407003b3          	neg	t2,t2
    1b1c:	001144b3          	xor	s1,sp,ra
    1b20:	00309133          	sll	sp,ra,gp
    1b24:	65417113          	andi	sp,sp,1620
    1b28:	44616093          	ori	ra,sp,1094
    1b2c:	0021e0b3          	or	ra,gp,sp
    1b30:	e5625137          	lui	sp,0xe5625
    1b34:	17f1e6b7          	lui	a3,0x17f1e
    1b38:	f3b4e093          	ori	ra,s1,-197
    1b3c:	0031f0b3          	and	ra,gp,gp
    1b40:	38a8e1b7          	lui	gp,0x38a8e
    1b44:	b50fb0b7          	lui	ra,0xb50fb
    1b48:	04c31b37          	lui	s6,0x4c31
    1b4c:	002163b3          	or	t2,sp,sp
    1b50:	e655f1b7          	lui	gp,0xe655f
    1b54:	40308133          	sub	sp,ra,gp
    1b58:	002302b3          	add	t0,t1,sp
    1b5c:	4006d0b3          	sra	ra,a3,zero
    1b60:	002120b3          	slt	ra,sp,sp
    1b64:	3cab91b7          	lui	gp,0x3cab9
    1b68:	22109063          	bne	ra,ra,0x1d88
    1b6c:	20108e63          	beq	ra,ra,0x1d88
    1b70:	005241b3          	xor	gp,tp,t0
    1b74:	0010b0b3          	sltu	ra,ra,ra
    1b78:	00208233          	add	tp,ra,sp
    1b7c:	00248233          	add	tp,s1,sp
    1b80:	00101133          	sll	sp,zero,ra
    1b84:	35c10193          	addi	gp,sp,860 # 0xffffffffe562535c
    1b88:	00212cb3          	slt	s9,sp,sp
    1b8c:	6c317093          	andi	ra,sp,1731
    1b90:	b18d2137          	lui	sp,0xb18d2
    1b94:	dfd18093          	addi	ra,gp,-515 # 0x3cab8dfd
    1b98:	2914f097          	auipc	ra,0x2914f
    1b9c:	bd310317          	auipc	t1,0xbd310
    1ba0:	00338133          	add	sp,t2,gp
    1ba4:	01f1a133          	slt	sp,gp,t6
    1ba8:	b5120097          	auipc	ra,0xb5120
    1bac:	41c1e113          	ori	sp,gp,1052
    1bb0:	c1dc9197          	auipc	gp,0xc1dc9
    1bb4:	be96c117          	auipc	sp,0xbe96c
    1bb8:	00d210b3          	sll	ra,tp,a3
    1bbc:	2010c213          	xori	tp,ra,513
    1bc0:	6c8653b7          	lui	t2,0x6c865
    1bc4:	002151b3          	srl	gp,sp,sp
    1bc8:	1b218193          	addi	gp,gp,434 # 0xffffffffc1dcad62
    1bcc:	77508093          	addi	ra,ra,1909 # 0xffffffffb512231d
    1bd0:	00245133          	srl	sp,s0,sp
    1bd4:	4076d3b3          	sra	t2,a3,t2
    1bd8:	2e4c40b7          	lui	ra,0x2e4c4
    1bdc:	0011a0b3          	slt	ra,gp,ra
    1be0:	94517193          	andi	gp,sp,-1723
    1be4:	0091d133          	srl	sp,gp,s1
    1be8:	4924c113          	xori	sp,s1,1170
    1bec:	3421fa63          	bgeu	gp,sp,0x1f40
    1bf0:	3421e863          	bltu	gp,sp,0x1f40
    1bf4:	db77d037          	lui	zero,0xdb77d
    1bf8:	fe98e497          	auipc	s1,0xfe98e
    1bfc:	00410033          	add	zero,sp,tp
    1c00:	c4c1c093          	xori	ra,gp,-948
    1c04:	402202b3          	sub	t0,tp,sp
    1c08:	00013133          	sltu	sp,sp,zero
    1c0c:	006180b3          	add	ra,gp,t1
    1c10:	00630033          	add	zero,t1,t1
    1c14:	56e6dfb7          	lui	t6,0x56e6d
    1c18:	002201b3          	add	gp,tp,sp
    1c1c:	002221b3          	slt	gp,tp,sp
    1c20:	52d1e593          	ori	a1,gp,1325
    1c24:	b3d20093          	addi	ra,tp,-1219 # 0xffffffffa7567b3d
    1c28:	5b331337          	lui	t1,0x5b331
    1c2c:	57f18193          	addi	gp,gp,1407
    1c30:	13830337          	lui	t1,0x13830
    1c34:	4f326113          	ori	sp,tp,1267
    1c38:	b3d51117          	auipc	sp,0xb3d51
    1c3c:	4f73c313          	xori	t1,t2,1271
    1c40:	0031c133          	xor	sp,gp,gp
    1c44:	000020b3          	sltz	ra,zero
    1c48:	b7ca50b7          	lui	ra,0xb7ca5
    1c4c:	80d293b7          	lui	t2,0x80d29
    1c50:	40315133          	sra	sp,sp,gp
    1c54:	29573197          	auipc	gp,0x29573
    1c58:	9aa0a117          	auipc	sp,0x9aa0a
    1c5c:	fd093137          	lui	sp,0xfd093
    1c60:	41415133          	sra	sp,sp,s4
    1c64:	00323033          	sltu	zero,tp,gp
    1c68:	a03206e3          	beq	tp,gp,0x1674
    1c6c:	a09ff1ef          	jal	gp,0x1674
    1c70:	006190b3          	sll	ra,gp,t1
    1c74:	00b29133          	sll	sp,t0,a1
    1c78:	000000b3          	add	ra,zero,zero
    1c7c:	40408133          	sub	sp,ra,tp
    1c80:	e4a33097          	auipc	ra,0xe4a33
    1c84:	46b35117          	auipc	sp,0x46b35
    1c88:	2ef99117          	auipc	sp,0x2ef99
    1c8c:	406101b3          	sub	gp,sp,t1
    1c90:	140fc0b7          	lui	ra,0x140fc
    1c94:	00b0d1b3          	srl	gp,ra,a1
    1c98:	98f020b7          	lui	ra,0x98f02
    1c9c:	a513b2b7          	lui	t0,0xa513b
    1ca0:	405083b3          	sub	t2,ra,t0
    1ca4:	53b10113          	addi	sp,sp,1339 # 0x2ef9b1c3
    1ca8:	44d8a117          	auipc	sp,0x44d8a
    1cac:	16b10113          	addi	sp,sp,363 # 0x44d8be13
    1cb0:	404257b3          	sra	a5,tp,tp
    1cb4:	4021d0b3          	sra	ra,gp,sp
    1cb8:	4cf6e037          	lui	zero,0x4cf6e
    1cbc:	0031f033          	and	zero,gp,gp
    1cc0:	a826e117          	auipc	sp,0xa826e
    1cc4:	003143b3          	xor	t2,sp,gp
    1cc8:	bca20093          	addi	ra,tp,-1078 # 0xfffffffffffffbca
    1ccc:	81468113          	addi	sp,a3,-2028 # 0x17f1d814
    1cd0:	00527133          	and	sp,tp,t0
    1cd4:	847ba117          	auipc	sp,0x847ba
    1cd8:	df408293          	addi	t0,ra,-524 # 0xffffffff98f01df4
    1cdc:	964c4117          	auipc	sp,0x964c4
    1ce0:	96fd60b7          	lui	ra,0x96fd6
    1ce4:	72617113          	andi	sp,sp,1830
    1ce8:	ebe37193          	andi	gp,t1,-322
    1cec:	0022c133          	xor	sp,t0,sp
    1cf0:	2e510863          	beq	sp,t0,0x1fe0
    1cf4:	2ec000ef          	jal	ra,0x1fe0
    1cf8:	0023d333          	srl	t1,t2,sp
    1cfc:	a7e4a0b7          	lui	ra,0xa7e4a
    1d00:	40638133          	sub	sp,t2,t1
    1d04:	da422097          	auipc	ra,0xda422
    1d08:	0030e1b3          	or	gp,ra,gp
    1d0c:	d3171097          	auipc	ra,0xd3171
    1d10:	6e4ca7b7          	lui	a5,0x6e4ca
    1d14:	001210b3          	sll	ra,tp,ra
    1d18:	2dfa8097          	auipc	ra,0x2dfa8
    1d1c:	2b60e193          	ori	gp,ra,694
    1d20:	0370f093          	andi	ra,ra,55
    1d24:	79150397          	auipc	t2,0x79150
    1d28:	417181b3          	sub	gp,gp,s7
    1d2c:	da0512b7          	lui	t0,0xda051
    1d30:	1c507313          	andi	t1,zero,453
    1d34:	e7d7a0b7          	lui	ra,0xe7d7a
    1d38:	2f00c193          	xori	gp,ra,752
    1d3c:	ef4d0197          	auipc	gp,0xef4d0
    1d40:	e3429137          	lui	sp,0xe3429
    1d44:	66449117          	auipc	sp,0x66449
    1d48:	0012c133          	xor	sp,t0,ra
    1d4c:	399cc137          	lui	sp,0x399cc
    1d50:	4ed1ee93          	ori	t4,gp,1261
    1d54:	0031e8b3          	or	a7,gp,gp
    1d58:	f0a09097          	auipc	ra,0xf0a09
    1d5c:	8c90b0b7          	lui	ra,0x8c90b
    1d60:	0033dfb3          	srl	t6,t2,gp
    1d64:	bd1a6093          	ori	ra,s4,-1071
    1d68:	34216093          	ori	ra,sp,834
    1d6c:	290301b7          	lui	gp,0x29030
    1d70:	28cebdb7          	lui	s11,0x28ceb
    1d74:	001083b3          	add	t2,ra,ra
    1d78:	4070d3b3          	sra	t2,ra,t2
    1d7c:	a1260b17          	auipc	s6,0xa1260
    1d80:	2e100c63          	beq	zero,ra,0x2078
    1d84:	2f40026f          	jal	tp,0x2078
    1d88:	a0db6117          	auipc	sp,0xa0db6
    1d8c:	0021d333          	srl	t1,gp,sp
    1d90:	51f69097          	auipc	ra,0x51f69
    1d94:	0032e133          	or	sp,t0,gp
    1d98:	b2c17193          	andi	gp,sp,-1236
    1d9c:	002e00b3          	add	ra,t3,sp
    1da0:	95608193          	addi	gp,ra,-1706 # 0x51f6a6e6
    1da4:	f5cac0b7          	lui	ra,0xf5cac
    1da8:	4031d233          	sra	tp,gp,gp
    1dac:	e271e093          	ori	ra,gp,-473
    1db0:	414150b3          	sra	ra,sp,s4
    1db4:	4012d0b3          	sra	ra,t0,ra
    1db8:	ecce20b7          	lui	ra,0xecce2
    1dbc:	403100b3          	sub	ra,sp,gp
    1dc0:	3d81c093          	xori	ra,gp,984
    1dc4:	0013beb3          	sltu	t4,t2,ra
    1dc8:	00626033          	or	zero,tp,t1
    1dcc:	6da51097          	auipc	ra,0x6da51
    1dd0:	0013e133          	or	sp,t2,ra
    1dd4:	00f08133          	add	sp,ra,a5
    1dd8:	401087b3          	sub	a5,ra,ra
    1ddc:	414100b3          	sub	ra,sp,s4
    1de0:	649d40b7          	lui	ra,0x649d4
    1de4:	002080b3          	add	ra,ra,sp
    1de8:	00915033          	srl	zero,sp,s1
    1dec:	497c8137          	lui	sp,0x497c8
    1df0:	002181b3          	add	gp,gp,sp
    1df4:	007df1b3          	and	gp,s11,t2
    1df8:	483fe097          	auipc	ra,0x483fe
    1dfc:	4030d2b3          	sra	t0,ra,gp
    1e00:	43154297          	auipc	t0,0x43154
    1e04:	0023b0b3          	sltu	ra,t2,sp
    1e08:	5b10c193          	xori	gp,ra,1457
    1e0c:	1f7a4197          	auipc	gp,0x1f7a4
    1e10:	a8828ae3          	beq	t0,s0,0x18a4
    1e14:	a91ffb6f          	jal	s6,0x18a4
    1e18:	87616113          	ori	sp,sp,-1930
    1e1c:	9a85c217          	auipc	tp,0x9a85c
    1e20:	0000a133          	sltz	sp,ra
    1e24:	10381097          	auipc	ra,0x10381
    1e28:	4c972197          	auipc	gp,0x4c972
    1e2c:	0af18213          	addi	tp,gp,175 # 0x4c973ed7
    1e30:	0061d1b3          	srl	gp,gp,t1
    1e34:	0b418113          	addi	sp,gp,180
    1e38:	b50de193          	ori	gp,s11,-1200
    1e3c:	401cd133          	sra	sp,s9,ra
    1e40:	d97bd1b7          	lui	gp,0xd97bd
    1e44:	002230b3          	sltu	ra,tp,sp
    1e48:	17a1e093          	ori	ra,gp,378
    1e4c:	75b17393          	andi	t2,sp,1883
    1e50:	001243b3          	xor	t2,tp,ra
    1e54:	11214193          	xori	gp,sp,274
    1e58:	00215233          	srl	tp,sp,sp
    1e5c:	c02c90b7          	lui	ra,0xc02c9
    1e60:	0033f0b3          	and	ra,t2,gp
    1e64:	ac5a3117          	auipc	sp,0xac5a3
    1e68:	002180b3          	add	ra,gp,sp
    1e6c:	87a1c113          	xori	sp,gp,-1926
    1e70:	33ccc0b7          	lui	ra,0x33ccc
    1e74:	002101b3          	add	gp,sp,sp
    1e78:	005091b3          	sll	gp,ra,t0
    1e7c:	67b1b1b7          	lui	gp,0x67b1b
    1e80:	4a2400b7          	lui	ra,0x4a240
    1e84:	d5c16093          	ori	ra,sp,-676
    1e88:	3e51c093          	xori	ra,gp,997
    1e8c:	0453f217          	auipc	tp,0x453f
    1e90:	402151b3          	sra	gp,sp,sp
    1e94:	1bd100b7          	lui	ra,0x1bd10
    1e98:	8dcc9297          	auipc	t0,0x8dcc9
    1e9c:	0020d0b3          	srl	ra,ra,sp
    1ea0:	6e30c113          	xori	sp,ra,1763
    1ea4:	bc3100e3          	beq	sp,gp,0x1a64
    1ea8:	bbdff16f          	jal	sp,0x1a64
    1eac:	002ad1b3          	srl	gp,s5,sp
    1eb0:	0021f1b3          	and	gp,gp,sp
    1eb4:	fc827193          	andi	gp,tp,-56
    1eb8:	a4087117          	auipc	sp,0xa4087
    1ebc:	002271b3          	and	gp,tp,sp
    1ec0:	89318193          	addi	gp,gp,-1901 # 0x67b1a893
    1ec4:	006370b3          	and	ra,t1,t1
    1ec8:	eeca8137          	lui	sp,0xeeca8
    1ecc:	0060c133          	xor	sp,ra,t1
    1ed0:	6de63137          	lui	sp,0x6de63
    1ed4:	0011b0b3          	sltu	ra,gp,ra
    1ed8:	09d18313          	addi	t1,gp,157
    1edc:	0021a1b3          	slt	gp,gp,sp
    1ee0:	95ca7137          	lui	sp,0x95ca7
    1ee4:	002e51b3          	srl	gp,t3,sp
    1ee8:	ee90c213          	xori	tp,ra,-279
    1eec:	b9f550b7          	lui	ra,0xb9f55
    1ef0:	0037d133          	srl	sp,a5,gp
    1ef4:	ad4982b7          	lui	t0,0xad498
    1ef8:	00364133          	xor	sp,a2,gp
    1efc:	0051f1b3          	and	gp,gp,t0
    1f00:	0071c1b3          	xor	gp,gp,t2
    1f04:	40210eb3          	sub	t4,sp,sp
    1f08:	abddeab7          	lui	s5,0xabdde
    1f0c:	fda9f197          	auipc	gp,0xfda9f
    1f10:	0020a0b3          	slt	ra,ra,sp
    1f14:	0031e1b3          	or	gp,gp,gp
    1f18:	40318133          	sub	sp,gp,gp
    1f1c:	0021b133          	sltu	sp,gp,sp
    1f20:	cb6e71b7          	lui	gp,0xcb6e7
    1f24:	402101b3          	sub	gp,sp,sp
    1f28:	83b41137          	lui	sp,0x83b41
    1f2c:	7203b0b7          	lui	ra,0x7203b
    1f30:	a390e193          	ori	gp,ra,-1479
    1f34:	00308233          	add	tp,ra,gp
    1f38:	1a150c63          	beq	a0,ra,0x20f0
    1f3c:	1b40016f          	jal	sp,0x20f0
    1f40:	0024a0b3          	slt	ra,s1,sp
    1f44:	0000a1b3          	sltz	gp,ra
    1f48:	4030d0b3          	sra	ra,ra,gp
    1f4c:	7be3e0b7          	lui	ra,0x7be3e
    1f50:	403086b3          	sub	a3,ra,gp
    1f54:	67c351b7          	lui	gp,0x67c35
    1f58:	5c240017          	auipc	zero,0x5c240
    1f5c:	0031e0b3          	or	ra,gp,gp
    1f60:	4051d0b3          	sra	ra,gp,t0
    1f64:	0020f1b3          	and	gp,ra,sp
    1f68:	002152b3          	srl	t0,sp,sp
    1f6c:	c8bb31b7          	lui	gp,0xc8bb3
    1f70:	fcbd31b7          	lui	gp,0xfcbd3
    1f74:	50a18193          	addi	gp,gp,1290 # 0xfffffffffcbd350a
    1f78:	1510e137          	lui	sp,0x1510e
    1f7c:	cad14193          	xori	gp,sp,-851
    1f80:	bcf20313          	addi	t1,tp,-1073 # 0x4540a5b
    1f84:	8b1fe0b7          	lui	ra,0x8b1fe
    1f88:	187d2137          	lui	sp,0x187d2
    1f8c:	6180c393          	xori	t2,ra,1560
    1f90:	15914b93          	xori	s7,sp,345
    1f94:	0023a1b3          	slt	gp,t2,sp
    1f98:	bcd500b7          	lui	ra,0xbcd50
    1f9c:	002161b3          	or	gp,sp,sp
    1fa0:	4023d2b3          	sra	t0,t2,sp
    1fa4:	0011d133          	srl	sp,gp,ra
    1fa8:	004ee0b3          	or	ra,t4,tp
    1fac:	91682097          	auipc	ra,0x91682
    1fb0:	0011b3b3          	sltu	t2,gp,ra
    1fb4:	761521b7          	lui	gp,0x76152
    1fb8:	6e2ed3b7          	lui	t2,0x6e2ed
    1fbc:	e562c093          	xori	ra,t0,-426
    1fc0:	b87250b7          	lui	ra,0xb8725
    1fc4:	3d5af3b7          	lui	t2,0x3d5af
    1fc8:	00717533          	and	a0,sp,t2
    1fcc:	8471c237          	lui	tp,0x8471c
    1fd0:	003834b3          	sltu	s1,a6,gp
    1fd4:	59aa5097          	auipc	ra,0x59aa5
    1fd8:	00018263          	beqz	gp,0x1fdc
    1fdc:	f18ff0ef          	jal	ra,0x16f4
    1fe0:	6e0be197          	auipc	gp,0x6e0be
    1fe4:	6e8263b7          	lui	t2,0x6e826
    1fe8:	0011e133          	or	sp,gp,ra
    1fec:	40115233          	sra	tp,sp,ra
    1ff0:	0e978337          	lui	t1,0xe978
    1ff4:	40118133          	sub	sp,gp,ra
    1ff8:	06b8b497          	auipc	s1,0x6b8b
    1ffc:	dcf18113          	addi	sp,gp,-561 # 0x6e0bfdaf
    2000:	0cc04213          	xori	tp,zero,204
    2004:	0031bcb3          	sltu	s9,gp,gp
    2008:	400100b3          	sub	ra,sp,zero
    200c:	c82800b7          	lui	ra,0xc8280
    2010:	003171b3          	and	gp,sp,gp
    2014:	01e173b3          	and	t2,sp,t5
    2018:	7011e013          	ori	zero,gp,1793
    201c:	08ce6117          	auipc	sp,0x8ce6
    2020:	0011b2b3          	sltu	t0,gp,ra
    2024:	fd354337          	lui	t1,0xfd354
    2028:	00133133          	sltu	sp,t1,ra
    202c:	6601e113          	ori	sp,gp,1632
    2030:	24912797          	auipc	a5,0x24912
    2034:	4b70f113          	andi	sp,ra,1207
    2038:	403081b3          	sub	gp,ra,gp
    203c:	784bf6b7          	lui	a3,0x784bf
    2040:	d3b93117          	auipc	sp,0xd3b93
    2044:	005150b3          	srl	ra,sp,t0
    2048:	11b0b097          	auipc	ra,0x11b0b
    204c:	07623197          	auipc	gp,0x7623
    2050:	0040ea33          	or	s4,ra,tp
    2054:	34cab3b7          	lui	t2,0x34cab
    2058:	009190b3          	sll	ra,gp,s1
    205c:	40d14193          	xori	gp,sp,1037
    2060:	0013e1b3          	or	gp,t2,ra
    2064:	df20e013          	ori	zero,ra,-526
    2068:	d53fa097          	auipc	ra,0xd53fa
    206c:	7e60c193          	xori	gp,ra,2022
    2070:	6a410863          	beq	sp,tp,0x2720
    2074:	6ac0016f          	jal	sp,0x2720
    2078:	f9e00417          	auipc	s0,0xf9e00
    207c:	3446a1b7          	lui	gp,0x3446a
    2080:	0001e2b3          	or	t0,gp,zero
    2084:	e59830b7          	lui	ra,0xe5983
    2088:	4021d0b3          	sra	ra,gp,sp
    208c:	004070b3          	and	ra,zero,tp
    2090:	23d08093          	addi	ra,ra,573 # 0xffffffffe598323d
    2094:	0022c2b3          	xor	t0,t0,sp
    2098:	0030e033          	or	zero,ra,gp
    209c:	224bb217          	auipc	tp,0x224bb
    20a0:	00239033          	sll	zero,t2,sp
    20a4:	002330b3          	sltu	ra,t1,sp
    20a8:	0000e233          	or	tp,ra,zero
    20ac:	500ef137          	lui	sp,0x500ef
    20b0:	bfc57117          	auipc	sp,0xbfc57
    20b4:	19218117          	auipc	sp,0x19218
    20b8:	4021d9b3          	sra	s3,gp,sp
    20bc:	9483d397          	auipc	t2,0x9483d
    20c0:	c21e7037          	lui	zero,0xc21e7
    20c4:	83fc00b7          	lui	ra,0x83fc0
    20c8:	28d08193          	addi	gp,ra,653 # 0xffffffff83fc028d
    20cc:	0cee4137          	lui	sp,0xcee4
    20d0:	eb70c493          	xori	s1,ra,-329
    20d4:	d31e7197          	auipc	gp,0xd31e7
    20d8:	891a8017          	auipc	zero,0x891a8
    20dc:	4553c0b7          	lui	ra,0x4553c
    20e0:	faf3e393          	ori	t2,t2,-81
    20e4:	27a3c0b7          	lui	ra,0x27a3c
    20e8:	a03082e3          	beq	ra,gp,0x1aec
    20ec:	a01ff96f          	jal	s2,0x1aec
    20f0:	81eee137          	lui	sp,0x81eee
    20f4:	00b0f133          	and	sp,ra,a1
    20f8:	003f01b3          	add	gp,t5,gp
    20fc:	e64f6317          	auipc	t1,0xe64f6
    2100:	1141e093          	ori	ra,gp,276
    2104:	001621b3          	slt	gp,a2,ra
    2108:	17808113          	addi	sp,ra,376 # 0x27a3c178
    210c:	a0222197          	auipc	gp,0xa0222
    2110:	1cccd137          	lui	sp,0x1cccd
    2114:	50ac91b7          	lui	gp,0x50ac9
    2118:	c650f193          	andi	gp,ra,-923
    211c:	e0748c17          	auipc	s8,0xe0748
    2120:	3b714213          	xori	tp,sp,951
    2124:	007370b3          	and	ra,t1,t2
    2128:	ffa14197          	auipc	gp,0xffa14
    212c:	402080b3          	sub	ra,ra,sp
    2130:	2d500197          	auipc	gp,0x2d500
    2134:	37f323b7          	lui	t2,0x37f32
    2138:	00239133          	sll	sp,t2,sp
    213c:	9e318393          	addi	t2,gp,-1565 # 0x2d501b13
    2140:	e3fc02b7          	lui	t0,0xe3fc0
    2144:	0034e1b3          	or	gp,s1,gp
    2148:	402183b3          	sub	t2,gp,sp
    214c:	d3485117          	auipc	sp,0xd3485
    2150:	edf77137          	lui	sp,0xedf77
    2154:	393f6797          	auipc	a5,0x393f6
    2158:	0023a1b3          	slt	gp,t2,sp
    215c:	01f33237          	lui	tp,0x1f33
    2160:	a17f60b7          	lui	ra,0xa17f6
    2164:	bb6f21b7          	lui	gp,0xbb6f2
    2168:	9036e197          	auipc	gp,0x9036e
    216c:	0031e133          	or	sp,gp,gp
    2170:	f7d4c197          	auipc	gp,0xf7d4c
    2174:	afb0b237          	lui	tp,0xafb0b
    2178:	005195b3          	sll	a1,gp,t0
    217c:	00730263          	beq	t1,t2,0x2180
    2180:	e08ff16f          	jal	sp,0x1788
    2184:	c6328293          	addi	t0,t0,-925 # 0xffffffffe3fbfc63
    2188:	ac788097          	auipc	ra,0xac788
    218c:	003da0b3          	slt	ra,s11,gp
    2190:	f3cea097          	auipc	ra,0xf3cea
    2194:	6a260197          	auipc	gp,0x6a260
    2198:	006102b3          	add	t0,sp,t1
    219c:	004690b3          	sll	ra,a3,tp
    21a0:	4041d333          	sra	t1,gp,tp
    21a4:	1434b0b7          	lui	ra,0x1434b
    21a8:	3f926113          	ori	sp,tp,1017
    21ac:	ec0ae2b7          	lui	t0,0xec0ae
    21b0:	00239133          	sll	sp,t2,sp
    21b4:	fb266097          	auipc	ra,0xfb266
    21b8:	002070b3          	and	ra,zero,sp
    21bc:	001351b3          	srl	gp,t1,ra
    21c0:	474163b7          	lui	t2,0x47416
    21c4:	0415e097          	auipc	ra,0x415e
    21c8:	16927393          	andi	t2,tp,361
    21cc:	1022c113          	xori	sp,t0,258
    21d0:	0040f133          	and	sp,ra,tp
    21d4:	e34ee037          	lui	zero,0xe34ee
    21d8:	00212233          	slt	tp,sp,sp
    21dc:	dc450197          	auipc	gp,0xdc450
    21e0:	00308133          	add	sp,ra,gp
    21e4:	004161b3          	or	gp,sp,tp
    21e8:	dc44d1b7          	lui	gp,0xdc44d
    21ec:	00119133          	sll	sp,gp,ra
    21f0:	1fd1f193          	andi	gp,gp,509
    21f4:	0021e0b3          	or	ra,gp,sp
    21f8:	00f1c0b3          	xor	ra,gp,a5
    21fc:	010cb0b3          	sltu	ra,s9,a6
    2200:	0b29a137          	lui	sp,0xb29a
    2204:	00010093          	mv	ra,sp
    2208:	12208263          	beq	ra,sp,0x232c
    220c:	003355b3          	srl	a1,t1,gp
    2210:	5c41f213          	andi	tp,gp,1476
    2214:	0030c8b3          	xor	a7,ra,gp
    2218:	001561b3          	or	gp,a0,ra
    221c:	b09ee193          	ori	gp,t4,-1271
    2220:	e0e3b197          	auipc	gp,0xe0e3b
    2224:	402251b3          	sra	gp,tp,sp
    2228:	90f18193          	addi	gp,gp,-1777 # 0xffffffffe0e3cb2f
    222c:	897e81b7          	lui	gp,0x897e8
    2230:	9b278213          	addi	tp,a5,-1614 # 0x393f7b06
    2234:	000331b3          	sltu	gp,t1,zero
    2238:	31ee0137          	lui	sp,0x31ee0
    223c:	bcf1e093          	ori	ra,gp,-1073
    2240:	00515133          	srl	sp,sp,t0
    2244:	4030d3b3          	sra	t2,ra,gp
    2248:	beb76117          	auipc	sp,0xbeb76
    224c:	d690f193          	andi	gp,ra,-663
    2250:	aef4b097          	auipc	ra,0xaef4b
    2254:	4061d1b3          	sra	gp,gp,t1
    2258:	002180b3          	add	ra,gp,sp
    225c:	23dae097          	auipc	ra,0x23dae
    2260:	00313333          	sltu	t1,sp,gp
    2264:	0011c1b3          	xor	gp,gp,ra
    2268:	0b72b097          	auipc	ra,0xb72b
    226c:	002111b3          	sll	gp,sp,sp
    2270:	0025d133          	srl	sp,a1,sp
    2274:	213150b7          	lui	ra,0x21315
    2278:	52a6d1b7          	lui	gp,0x52a6d
    227c:	00316333          	or	t1,sp,gp
    2280:	49f0f0b7          	lui	ra,0x49f0f
    2284:	8ebec0b7          	lui	ra,0x8ebec
    2288:	0051c0b3          	xor	ra,gp,t0
    228c:	e318d0b7          	lui	ra,0xe318d
    2290:	002170b3          	and	ra,sp,sp
    2294:	b1310097          	auipc	ra,0xb1310
    2298:	00020093          	mv	ra,tp
    229c:	7c408263          	beq	ra,tp,0x2a60
    22a0:	c7931017          	auipc	zero,0xc7931
    22a4:	403250b3          	sra	ra,tp,gp
    22a8:	00104133          	xor	sp,zero,ra
    22ac:	4e68f117          	auipc	sp,0x4e68f
    22b0:	403101b3          	sub	gp,sp,gp
    22b4:	6120d1b7          	lui	gp,0x6120d
    22b8:	001200b3          	add	ra,tp,ra
    22bc:	e2e14113          	xori	sp,sp,-466
    22c0:	001150b3          	srl	ra,sp,ra
    22c4:	2d6e61b7          	lui	gp,0x2d6e6
    22c8:	0b09a097          	auipc	ra,0xb09a
    22cc:	a62a4117          	auipc	sp,0xa62a4
    22d0:	00410133          	add	sp,sp,tp
    22d4:	7d91b317          	auipc	t1,0x7d91b
    22d8:	b528f297          	auipc	t0,0xb528f
    22dc:	e730f113          	andi	sp,ra,-397
    22e0:	1667f197          	auipc	gp,0x1667f
    22e4:	c661f137          	lui	sp,0xc661f
    22e8:	00212033          	slt	zero,sp,sp
    22ec:	93c7e5b7          	lui	a1,0x93c7e
    22f0:	66510117          	auipc	sp,0x66510
    22f4:	5297c0b7          	lui	ra,0x5297c
    22f8:	0011f4b3          	and	s1,gp,ra
    22fc:	00215733          	srl	a4,sp,sp
    2300:	60406317          	auipc	t1,0x60406
    2304:	c3c0fd93          	andi	s11,ra,-964
    2308:	e85d5b97          	auipc	s7,0xe85d5
    230c:	90d10317          	auipc	t1,0x90d10
    2310:	0000b1b3          	sltu	gp,ra,zero
    2314:	fd9c3497          	auipc	s1,0xfd9c3
    2318:	005ee0b3          	or	ra,t4,t0
    231c:	0010b0b3          	sltu	ra,ra,ra
    2320:	d850f097          	auipc	ra,0xd850f
    2324:	ef91d4e3          	bge	gp,s9,0x220c
    2328:	ef91c2e3          	blt	gp,s9,0x220c
    232c:	ce424337          	lui	t1,0xce424
    2330:	dabddd97          	auipc	s11,0xdabdd
    2334:	68040337          	lui	t1,0x68040
    2338:	91eed1b7          	lui	gp,0x91eed
    233c:	401251b3          	sra	gp,tp,ra
    2340:	4042d0b3          	sra	ra,t0,tp
    2344:	6f9e7097          	auipc	ra,0x6f9e7
    2348:	0016b0b3          	sltu	ra,a3,ra
    234c:	00b170b3          	and	ra,sp,a1
    2350:	fa0f4397          	auipc	t2,0xfa0f4
    2354:	8d408213          	addi	tp,ra,-1836 # 0x6f9e8c18
    2358:	4d93c0b7          	lui	ra,0x4d93c
    235c:	a3dd9117          	auipc	sp,0xa3dd9
    2360:	f030a237          	lui	tp,0xf030a
    2364:	0020d0b3          	srl	ra,ra,sp
    2368:	27a131b7          	lui	gp,0x27a13
    236c:	a3fab137          	lui	sp,0xa3fab
    2370:	0021c0b3          	xor	ra,gp,sp
    2374:	6a216193          	ori	gp,sp,1698
    2378:	402180b3          	sub	ra,gp,sp
    237c:	40235333          	sra	t1,t1,sp
    2380:	287c2197          	auipc	gp,0x287c2
    2384:	80010093          	addi	ra,sp,-2048 # 0xffffffffa3faa800
    2388:	7fa83697          	auipc	a3,0x7fa83
    238c:	41208033          	sub	zero,ra,s2
    2390:	cb5b7097          	auipc	ra,0xcb5b7
    2394:	ea3681b7          	lui	gp,0xea368
    2398:	0041f133          	and	sp,gp,tp
    239c:	b38971b7          	lui	gp,0xb3897
    23a0:	14017863          	bgeu	sp,zero,0x24f0
    23a4:	14016663          	bltu	sp,zero,0x24f0
    23a8:	570e2117          	auipc	sp,0x570e2
    23ac:	ffd1a1b7          	lui	gp,0xffd1a
    23b0:	00f321b3          	slt	gp,t1,a5
    23b4:	bc8ec0b7          	lui	ra,0xbc8ec
    23b8:	0071a4b3          	slt	s1,gp,t2
    23bc:	4ac5f637          	lui	a2,0x4ac5f
    23c0:	0037e133          	or	sp,a5,gp
    23c4:	00111233          	sll	tp,sp,ra
    23c8:	afedf217          	auipc	tp,0xafedf
    23cc:	40e250b3          	sra	ra,tp,a4
    23d0:	0010b133          	sltu	sp,ra,ra
    23d4:	f7a391b7          	lui	gp,0xf7a39
    23d8:	6cc5d117          	auipc	sp,0x6cc5d
    23dc:	0c0e2197          	auipc	gp,0xc0e2
    23e0:	0010b0b3          	sltu	ra,ra,ra
    23e4:	00117933          	and	s2,sp,ra
    23e8:	a34da237          	lui	tp,0xa34da
    23ec:	007792b3          	sll	t0,a5,t2
    23f0:	4a76b1b7          	lui	gp,0x4a76b
    23f4:	0011e233          	or	tp,gp,ra
    23f8:	84b65137          	lui	sp,0x84b65
    23fc:	00212333          	slt	t1,sp,sp
    2400:	003160b3          	or	ra,sp,gp
    2404:	a470c093          	xori	ra,ra,-1465
    2408:	00109133          	sll	sp,ra,ra
    240c:	cb081317          	auipc	t1,0xcb081
    2410:	0001b0b3          	sltu	ra,gp,zero
    2414:	401000b3          	neg	ra,ra
    2418:	bcc81097          	auipc	ra,0xbcc81
    241c:	4d1cf197          	auipc	gp,0x4d1cf
    2420:	6a0ac097          	auipc	ra,0x6a0ac
    2424:	40330233          	sub	tp,t1,gp
    2428:	8150e113          	ori	sp,ra,-2027
    242c:	f4217113          	andi	sp,sp,-190
    2430:	23d3bf17          	auipc	t5,0x23d3b
    2434:	f8b30137          	lui	sp,0xf8b30
    2438:	a65c1117          	auipc	sp,0xa65c1
    243c:	00713033          	sltu	zero,sp,t2
    2440:	09ecf3b7          	lui	t2,0x9ecf
    2444:	00000193          	li	gp,0
    2448:	34018a63          	beqz	gp,0x279c
    244c:	286af097          	auipc	ra,0x286af
    2450:	003210b3          	sll	ra,tp,gp
    2454:	5f84f117          	auipc	sp,0x5f84f
    2458:	e5539137          	lui	sp,0xe5539
    245c:	007170b3          	and	ra,sp,t2
    2460:	6e816093          	ori	ra,sp,1768
    2464:	005360b3          	or	ra,t1,t0
    2468:	0061d0b3          	srl	ra,gp,t1
    246c:	879cd137          	lui	sp,0x879cd
    2470:	0012f4b3          	and	s1,t0,ra
    2474:	006091b3          	sll	gp,ra,t1
    2478:	0021f1b3          	and	gp,gp,sp
    247c:	00113333          	sltu	t1,sp,ra
    2480:	e3500313          	li	t1,-459
    2484:	5afe81b7          	lui	gp,0x5afe8
    2488:	fb73c137          	lui	sp,0xfb73c
    248c:	7641e713          	ori	a4,gp,1892
    2490:	0018f433          	and	s0,a7,ra
    2494:	a37ce137          	lui	sp,0xa37ce
    2498:	d5623137          	lui	sp,0xd5623
    249c:	8e9e51b7          	lui	gp,0x8e9e5
    24a0:	b4b5d597          	auipc	a1,0xb4b5d
    24a4:	006133b3          	sltu	t2,sp,t1
    24a8:	002110b3          	sll	ra,sp,sp
    24ac:	00314033          	xor	zero,sp,gp
    24b0:	c591c113          	xori	sp,gp,-935
    24b4:	3b714093          	xori	ra,sp,951
    24b8:	5f40f093          	andi	ra,ra,1524
    24bc:	0001a133          	sltz	sp,gp
    24c0:	c7004117          	auipc	sp,0xc7004
    24c4:	f7f32337          	lui	t1,0xf7f32
    24c8:	3861f113          	andi	sp,gp,902
    24cc:	13ace1b7          	lui	gp,0x13ace
    24d0:	b5a34113          	xori	sp,t1,-1190
    24d4:	0020b1b3          	sltu	gp,ra,sp
    24d8:	0021c0b3          	xor	ra,gp,sp
    24dc:	bf2720b7          	lui	ra,0xbf272
    24e0:	351a0337          	lui	t1,0x351a0
    24e4:	00112db3          	slt	s11,sp,ra
    24e8:	00000117          	auipc	sp,0x0
    24ec:	340100e7          	jalr	832(sp) # 0x2828
    24f0:	fefd40b7          	lui	ra,0xfefd4
    24f4:	f3dbc1b7          	lui	gp,0xf3dbc
    24f8:	0030c133          	xor	sp,ra,gp
    24fc:	6951a1b7          	lui	gp,0x6951a
    2500:	00308333          	add	t1,ra,gp
    2504:	00711133          	sll	sp,sp,t2
    2508:	4da4c1b7          	lui	gp,0x4da4c
    250c:	3c05f117          	auipc	sp,0x3c05f
    2510:	117c1317          	auipc	t1,0x117c1
    2514:	d71021b7          	lui	gp,0xd7102
    2518:	0010f2b3          	and	t0,ra,ra
    251c:	8e5c4197          	auipc	gp,0x8e5c4
    2520:	f900c113          	xori	sp,ra,-112
    2524:	54ddc097          	auipc	ra,0x54ddc
    2528:	b330a3b7          	lui	t2,0xb330a
    252c:	d3ef9197          	auipc	gp,0xd3ef9
    2530:	11d3c113          	xori	sp,t2,285
    2534:	cac481b7          	lui	gp,0xcac48
    2538:	f81b8217          	auipc	tp,0xf81b8
    253c:	09eb1137          	lui	sp,0x9eb1
    2540:	00559233          	sll	tp,a1,t0
    2544:	ca246137          	lui	sp,0xca246
    2548:	0015a7b3          	slt	a5,a1,ra
    254c:	3bf950b7          	lui	ra,0x3bf95
    2550:	bbe16093          	ori	ra,sp,-1090
    2554:	24a10013          	addi	zero,sp,586 # 0xffffffffca24624a
    2558:	4000d3b3          	sra	t2,ra,zero
    255c:	00235233          	srl	tp,t1,sp
    2560:	3b926013          	ori	zero,tp,953
    2564:	27a934b7          	lui	s1,0x27a93
    2568:	0021d1b3          	srl	gp,gp,sp
    256c:	4030d0b3          	sra	ra,ra,gp
    2570:	00111133          	sll	sp,sp,ra
    2574:	6f2c8117          	auipc	sp,0x6f2c8
    2578:	00000197          	auipc	gp,0x0
    257c:	3d4182e7          	jalr	t0,980(gp) # 0x294c
    2580:	00d16133          	or	sp,sp,a3
    2584:	00549133          	sll	sp,s1,t0
    2588:	0021f1b3          	and	gp,gp,sp
    258c:	e30fd0b7          	lui	ra,0xe30fd
    2590:	0061a0b3          	slt	ra,gp,t1
    2594:	002080b3          	add	ra,ra,sp
    2598:	403301b3          	sub	gp,t1,gp
    259c:	002110b3          	sll	ra,sp,sp
    25a0:	a569c2b7          	lui	t0,0xa569c
    25a4:	fe140337          	lui	t1,0xfe140
    25a8:	af488097          	auipc	ra,0xaf488
    25ac:	0012c1b3          	xor	gp,t0,ra
    25b0:	bbfae097          	auipc	ra,0xbbfae
    25b4:	b08b81b7          	lui	gp,0xb08b8
    25b8:	0010c133          	xor	sp,ra,ra
    25bc:	e6a5f117          	auipc	sp,0xe6a5f
    25c0:	00313db3          	sltu	s11,sp,gp
    25c4:	9eee2117          	auipc	sp,0x9eee2
    25c8:	002090b3          	sll	ra,ra,sp
    25cc:	0050b133          	sltu	sp,ra,t0
    25d0:	f3465197          	auipc	gp,0xf3465
    25d4:	00406233          	or	tp,zero,tp
    25d8:	b42d13b7          	lui	t2,0xb42d1
    25dc:	40518193          	addi	gp,gp,1029 # 0xfffffffff34679d5
    25e0:	acc29117          	auipc	sp,0xacc29
    25e4:	401384b3          	sub	s1,t2,ra
    25e8:	d825d197          	auipc	gp,0xd825d
    25ec:	0022e333          	or	t1,t0,sp
    25f0:	006063b3          	or	t2,zero,t1
    25f4:	0030a3b3          	slt	t2,ra,gp
    25f8:	d8165197          	auipc	gp,0xd8165
    25fc:	3f0b0113          	addi	sp,s6,1008 # 0xffffffffa126216c
    2600:	404151b3          	sra	gp,sp,tp
    2604:	4e118863          	beq	gp,ra,0x2af4
    2608:	4ec000ef          	jal	ra,0x2af4
    260c:	03dd2117          	auipc	sp,0x3dd2
    2610:	2c324093          	xori	ra,tp,707
    2614:	bb223137          	lui	sp,0xbb223
    2618:	fd5330b7          	lui	ra,0xfd533
    261c:	002091b3          	sll	gp,ra,sp
    2620:	0031d033          	srl	zero,gp,gp
    2624:	00f10133          	add	sp,sp,a5
    2628:	0073f3b3          	and	t2,t2,t2
    262c:	4004d0b3          	sra	ra,s1,zero
    2630:	63c5c217          	auipc	tp,0x63c5c
    2634:	782243b7          	lui	t2,0x78224
    2638:	c4fa31b7          	lui	gp,0xc4fa3
    263c:	0030a2b3          	slt	t0,ra,gp
    2640:	c480e113          	ori	sp,ra,-952
    2644:	2dd430b7          	lui	ra,0x2dd43
    2648:	18560097          	auipc	ra,0x18560
    264c:	28c1c213          	xori	tp,gp,652
    2650:	f14450b7          	lui	ra,0xf1445
    2654:	06c6f093          	andi	ra,a3,108
    2658:	789e0d37          	lui	s10,0x789e0
    265c:	001180b3          	add	ra,gp,ra
    2660:	4010d133          	sra	sp,ra,ra
    2664:	169521b7          	lui	gp,0x16952
    2668:	12f2f093          	andi	ra,t0,303
    266c:	00318233          	add	tp,gp,gp
    2670:	1a736093          	ori	ra,t1,423
    2674:	697a1137          	lui	sp,0x697a1
    2678:	f0410113          	addi	sp,sp,-252 # 0x697a0f04
    267c:	ce75e1b7          	lui	gp,0xce75e
    2680:	ef74b2b7          	lui	t0,0xef74b
    2684:	16d1c193          	xori	gp,gp,365
    2688:	0031d463          	bge	gp,gp,0x2690
    268c:	0031c263          	blt	gp,gp,0x2690
    2690:	451dd137          	lui	sp,0x451dd
    2694:	c3634193          	xori	gp,t1,-970
    2698:	7f73a6b7          	lui	a3,0x7f73a
    269c:	a63e3397          	auipc	t2,0xa63e3
    26a0:	cbf701b7          	lui	gp,0xcbf70
    26a4:	f62d6337          	lui	t1,0xf62d6
    26a8:	0041a133          	slt	sp,gp,tp
    26ac:	01a301b3          	add	gp,t1,s10
    26b0:	e049f3b7          	lui	t2,0xe049f
    26b4:	f6559297          	auipc	t0,0xf6559
    26b8:	002081b3          	add	gp,ra,sp
    26bc:	71015197          	auipc	gp,0x71015
    26c0:	40230333          	sub	t1,t1,sp
    26c4:	c5ac0097          	auipc	ra,0xc5ac0
    26c8:	1800b117          	auipc	sp,0x1800b
    26cc:	9c95f0b7          	lui	ra,0x9c95f
    26d0:	40118133          	sub	sp,gp,ra
    26d4:	0181f0b3          	and	ra,gp,s8
    26d8:	86eb4197          	auipc	gp,0x86eb4
    26dc:	e2fe8097          	auipc	ra,0xe2fe8
    26e0:	0091beb3          	sltu	t4,gp,s1
    26e4:	001141b3          	xor	gp,sp,ra
    26e8:	002071b3          	and	gp,zero,sp
    26ec:	0021f0b3          	and	ra,gp,sp
    26f0:	00211333          	sll	t1,sp,sp
    26f4:	003bc1b3          	xor	gp,s7,gp
    26f8:	50d3f297          	auipc	t0,0x50d3f
    26fc:	01936313          	ori	t1,t1,25
    2700:	0c914013          	xori	zero,sp,201
    2704:	0121c133          	xor	sp,gp,s2
    2708:	868a00b7          	lui	ra,0x868a0
    270c:	845381b7          	lui	gp,0x84538
    2710:	9ef381b7          	lui	gp,0x9ef38
    2714:	0050a0b3          	slt	ra,ra,t0
    2718:	46508663          	beq	ra,t0,0x2b84
    271c:	4680016f          	jal	sp,0x2b84
    2720:	00b10133          	add	sp,sp,a1
    2724:	3b99f0b7          	lui	ra,0x3b99f
    2728:	7710e017          	auipc	zero,0x7710e
    272c:	9a134213          	xori	tp,t1,-1631
    2730:	00314333          	xor	t1,sp,gp
    2734:	5b316113          	ori	sp,sp,1459
    2738:	d4c8b037          	lui	zero,0xd4c8b
    273c:	0030c033          	xor	zero,ra,gp
    2740:	03808193          	addi	gp,ra,56 # 0x3b99f038
    2744:	74032137          	lui	sp,0x74032
    2748:	00333033          	sltu	zero,t1,gp
    274c:	4031d1b3          	sra	gp,gp,gp
    2750:	deb1c293          	xori	t0,gp,-533
    2754:	5f5660b7          	lui	ra,0x5f566
    2758:	4061d0b3          	sra	ra,gp,t1
    275c:	d4153317          	auipc	t1,0xd4153
    2760:	003093b3          	sll	t2,ra,gp
    2764:	00d0c0b3          	xor	ra,ra,a3
    2768:	0090a233          	slt	tp,ra,s1
    276c:	003840b3          	xor	ra,a6,gp
    2770:	2e326193          	ori	gp,tp,739
    2774:	5d86e197          	auipc	gp,0x5d86e
    2778:	4319b397          	auipc	t2,0x4319b
    277c:	6258b137          	lui	sp,0x6258b
    2780:	77e0e093          	ori	ra,ra,1918
    2784:	0071e1b3          	or	gp,gp,t2
    2788:	007191b3          	sll	gp,gp,t2
    278c:	00514133          	xor	sp,sp,t0
    2790:	001162b3          	or	t0,sp,ra
    2794:	00000097          	auipc	ra,0x0
    2798:	cb8081e7          	jalr	gp,-840(ra) # 0x244c
    279c:	13617113          	andi	sp,sp,310
    27a0:	001153b3          	srl	t2,sp,ra
    27a4:	402183b3          	sub	t2,gp,sp
    27a8:	25d2f093          	andi	ra,t0,605
    27ac:	b636f097          	auipc	ra,0xb636f
    27b0:	40118133          	sub	sp,gp,ra
    27b4:	6be7c637          	lui	a2,0x6be7c
    27b8:	0011d133          	srl	sp,gp,ra
    27bc:	403301b3          	sub	gp,t1,gp
    27c0:	846d9017          	auipc	zero,0x846d9
    27c4:	f8d1c297          	auipc	t0,0xf8d1c
    27c8:	4a20f193          	andi	gp,ra,1186
    27cc:	00115133          	srl	sp,sp,ra
    27d0:	424d40b7          	lui	ra,0x424d4
    27d4:	6363a597          	auipc	a1,0x6363a
    27d8:	d419e113          	ori	sp,s3,-703
    27dc:	aaa18313          	addi	t1,gp,-1366 # 0x5d87021e
    27e0:	00313133          	sltu	sp,sp,gp
    27e4:	c9328c93          	addi	s9,t0,-877 # 0xfffffffff8d1e457
    27e8:	0023a133          	slt	sp,t2,sp
    27ec:	00113133          	sltu	sp,sp,ra
    27f0:	51110013          	addi	zero,sp,1297 # 0x6258b511
    27f4:	003090b3          	sll	ra,ra,gp
    27f8:	ce308093          	addi	ra,ra,-797 # 0x424d3ce3
    27fc:	631a30b7          	lui	ra,0x631a3
    2800:	db214093          	xori	ra,sp,-590
    2804:	3fb7b197          	auipc	gp,0x3fb7b
    2808:	4653d117          	auipc	sp,0x4653d
    280c:	fd7d4137          	lui	sp,0xfd7d4
    2810:	e3cd4097          	auipc	ra,0xe3cd4
    2814:	ce667037          	lui	zero,0xce667
    2818:	79e0ee13          	ori	t3,ra,1950
    281c:	00239233          	sll	tp,t2,sp
    2820:	3e008e63          	beqz	ra,0x2c1c
    2824:	3f80016f          	jal	sp,0x2c1c
    2828:	243981b7          	lui	gp,0x24398
    282c:	f422f093          	andi	ra,t0,-190
    2830:	67959297          	auipc	t0,0x67959
    2834:	09b1c293          	xori	t0,gp,155
    2838:	0037b0b3          	sltu	ra,a5,gp
    283c:	0bc340b7          	lui	ra,0xbc34
    2840:	003136b3          	sltu	a3,sp,gp
    2844:	00f150b3          	srl	ra,sp,a5
    2848:	cbef8217          	auipc	tp,0xcbef8
    284c:	27b65137          	lui	sp,0x27b65
    2850:	38b26013          	ori	zero,tp,907
    2854:	0000a1b3          	sltz	gp,ra
    2858:	f79df117          	auipc	sp,0xf79df
    285c:	a2218093          	addi	ra,gp,-1502 # 0x24397a22
    2860:	7bd1a097          	auipc	ra,0x7bd1a
    2864:	2ba1f113          	andi	sp,gp,698
    2868:	0030c1b3          	xor	gp,ra,gp
    286c:	be1c5117          	auipc	sp,0xbe1c5
    2870:	7434f337          	lui	t1,0x7434f
    2874:	ca93c113          	xori	sp,t2,-855
    2878:	001110b3          	sll	ra,sp,ra
    287c:	f4d1c113          	xori	sp,gp,-179
    2880:	0011f0b3          	and	ra,gp,ra
    2884:	4bf76117          	auipc	sp,0x4bf76
    2888:	e3f16313          	ori	t1,sp,-449
    288c:	c1434197          	auipc	gp,0xc1434
    2890:	0031f333          	and	t1,gp,gp
    2894:	3beaa0b7          	lui	ra,0x3beaa
    2898:	0011d6b3          	srl	a3,gp,ra
    289c:	7a3e0117          	auipc	sp,0x7a3e0
    28a0:	ab50c293          	xori	t0,ra,-1355
    28a4:	48cf4097          	auipc	ra,0x48cf4
    28a8:	00010113          	mv	sp,sp
    28ac:	d62100e3          	beq	sp,sp,0x260c
    28b0:	67d9c197          	auipc	gp,0x67d9c
    28b4:	a3d17093          	andi	ra,sp,-1475
    28b8:	ce826097          	auipc	ra,0xce826
    28bc:	4040d0b3          	sra	ra,ra,tp
    28c0:	35414793          	xori	a5,sp,852
    28c4:	9c47c097          	auipc	ra,0x9c47c
    28c8:	401e00b3          	sub	ra,t3,ra
    28cc:	0010f1b3          	and	gp,ra,ra
    28d0:	f8200197          	auipc	gp,0xf8200
    28d4:	2f61c117          	auipc	sp,0x2f61c
    28d8:	edc12097          	auipc	ra,0xedc12
    28dc:	e7f14193          	xori	gp,sp,-385
    28e0:	fb0c7197          	auipc	gp,0xfb0c7
    28e4:	001080b3          	add	ra,ra,ra
    28e8:	aac0e3b7          	lui	t2,0xaac0e
    28ec:	e9f14013          	xori	zero,sp,-353
    28f0:	33a560b7          	lui	ra,0x33a56
    28f4:	1b5b5537          	lui	a0,0x1b5b5
    28f8:	002271b3          	and	gp,tp,sp
    28fc:	0025d133          	srl	sp,a1,sp
    2900:	00131033          	sll	zero,t1,ra
    2904:	40600133          	neg	sp,t1
    2908:	19618293          	addi	t0,gp,406 # 0xfffffffffb0c9a76
    290c:	0020a333          	slt	t1,ra,sp
    2910:	002190b3          	sll	ra,gp,sp
    2914:	81ad5117          	auipc	sp,0x81ad5
    2918:	0030b233          	sltu	tp,ra,gp
    291c:	5a716393          	ori	t2,sp,1447
    2920:	0070f1b3          	and	gp,ra,t2
    2924:	09a8b337          	lui	t1,0x9a8b
    2928:	c02f6137          	lui	sp,0xc02f6
    292c:	002050b3          	srl	ra,zero,sp
    2930:	c29980b7          	lui	ra,0xc2998
    2934:	7b9b4237          	lui	tp,0x7b9b4
    2938:	6c75b297          	auipc	t0,0x6c75b
    293c:	a8d0c113          	xori	sp,ra,-1395
    2940:	00134197          	auipc	gp,0x134
    2944:	0a01d063          	bgez	gp,0x29e4
    2948:	0801ce63          	bltz	gp,0x29e4
    294c:	d4775137          	lui	sp,0xd4775
    2950:	0022a133          	slt	sp,t0,sp
    2954:	f8b401b7          	lui	gp,0xf8b40
    2958:	f57522b7          	lui	t0,0xf5752
    295c:	8d0d1097          	auipc	ra,0x8d0d1
    2960:	34798017          	auipc	zero,0x34798
    2964:	0013e133          	or	sp,t2,ra
    2968:	0154d1b3          	srl	gp,s1,s5
    296c:	caa7c113          	xori	sp,a5,-854
    2970:	7c70e0b7          	lui	ra,0x7c70e
    2974:	09434593          	xori	a1,t1,148
    2978:	00437197          	auipc	gp,0x437
    297c:	ac017113          	andi	sp,sp,-1344
    2980:	18f13437          	lui	s0,0x18f13
    2984:	b6fd1137          	lui	sp,0xb6fd1
    2988:	f249b1b7          	lui	gp,0xf249b
    298c:	406f00b3          	sub	ra,t5,t1
    2990:	3a91f093          	andi	ra,gp,937
    2994:	0020a7b3          	slt	a5,ra,sp
    2998:	839b9197          	auipc	gp,0x839b9
    299c:	33267117          	auipc	sp,0x33267
    29a0:	0010b133          	sltu	sp,ra,ra
    29a4:	9db0c0b7          	lui	ra,0x9db0c
    29a8:	6b20e113          	ori	sp,ra,1714
    29ac:	40315833          	sra	a6,sp,gp
    29b0:	70bf8197          	auipc	gp,0x70bf8
    29b4:	6c64e117          	auipc	sp,0x6c64e
    29b8:	00304133          	xor	sp,zero,gp
    29bc:	3c393397          	auipc	t2,0x3c393
    29c0:	402206b3          	sub	a3,tp,sp
    29c4:	21086037          	lui	zero,0x21086
    29c8:	229df097          	auipc	ra,0x229df
    29cc:	91afb2b7          	lui	t0,0x91afb
    29d0:	4f4b1137          	lui	sp,0x4f4b1
    29d4:	b58380b7          	lui	ra,0xb5838
    29d8:	4a3b5097          	auipc	ra,0x4a3b5
    29dc:	00000297          	auipc	t0,0x0
    29e0:	ed4281e7          	jalr	gp,-300(t0) # 0x28b0
    29e4:	4cb240b7          	lui	ra,0x4cb24
    29e8:	abb8a097          	auipc	ra,0xabb8a
    29ec:	5aa4c097          	auipc	ra,0x5aa4c
    29f0:	0021c033          	xor	zero,gp,sp
    29f4:	0021bc33          	sltu	s8,gp,sp
    29f8:	bbf358b7          	lui	a7,0xbbf35
    29fc:	003130b3          	sltu	ra,sp,gp
    2a00:	402103b3          	sub	t2,sp,sp
    2a04:	db31e293          	ori	t0,gp,-589
    2a08:	bfafb317          	auipc	t1,0xbfafb
    2a0c:	afcd2137          	lui	sp,0xafcd2
    2a10:	c9b30013          	addi	zero,t1,-869 # 0xffffffffbfafd6a3
    2a14:	475f61b7          	lui	gp,0x475f6
    2a18:	0013c4b3          	xor	s1,t2,ra
    2a1c:	c242f197          	auipc	gp,0xc242f
    2a20:	0023e133          	or	sp,t2,sp
    2a24:	401101b3          	sub	gp,sp,ra
    2a28:	7bc05237          	lui	tp,0x7bc05
    2a2c:	cc615217          	auipc	tp,0xcc615
    2a30:	40b1a217          	auipc	tp,0x40b1a
    2a34:	55e36137          	lui	sp,0x55e36
    2a38:	b89a1197          	auipc	gp,0xb89a1
    2a3c:	b901c493          	xori	s1,gp,-1136
    2a40:	003391b3          	sll	gp,t2,gp
    2a44:	009100b3          	add	ra,sp,s1
    2a48:	00103333          	snez	t1,ra
    2a4c:	4021d0b3          	sra	ra,gp,sp
    2a50:	cf148117          	auipc	sp,0xcf148
    2a54:	0ff1a097          	auipc	ra,0xff1a
    2a58:	00008193          	mv	gp,ra
    2a5c:	941186e3          	beq	gp,ra,0x23a8
    2a60:	7392b197          	auipc	gp,0x7392b
    2a64:	78254317          	auipc	t1,0x78254
    2a68:	e9f01117          	auipc	sp,0xe9f01
    2a6c:	d7cbd097          	auipc	ra,0xd7cbd
    2a70:	09960137          	lui	sp,0x9960
    2a74:	96c8f237          	lui	tp,0x96c8f
    2a78:	001291b3          	sll	gp,t0,ra
    2a7c:	3581f093          	andi	ra,gp,856
    2a80:	fc31c113          	xori	sp,gp,-61
    2a84:	1ae9f117          	auipc	sp,0x1ae9f
    2a88:	d7071117          	auipc	sp,0xd7071
    2a8c:	74b21197          	auipc	gp,0x74b21
    2a90:	ec08c0b7          	lui	ra,0xec08c
    2a94:	18070097          	auipc	ra,0x18070
    2a98:	4b034337          	lui	t1,0x4b034
    2a9c:	c1dbe1b7          	lui	gp,0xc1dbe
    2aa0:	73610113          	addi	sp,sp,1846 # 0xffffffffd70741be
    2aa4:	df7a8197          	auipc	gp,0xdf7a8
    2aa8:	1a71e193          	ori	gp,gp,423
    2aac:	819e2117          	auipc	sp,0x819e2
    2ab0:	00311133          	sll	sp,sp,gp
    2ab4:	00213333          	sltu	t1,sp,sp
    2ab8:	c24a4137          	lui	sp,0xc24a4
    2abc:	eeea6317          	auipc	t1,0xeeea6
    2ac0:	3f5cb937          	lui	s2,0x3f5cb
    2ac4:	66b2e093          	ori	ra,t0,1643
    2ac8:	b65fd117          	auipc	sp,0xb65fd
    2acc:	710910b7          	lui	ra,0x71091
    2ad0:	96ba8117          	auipc	sp,0x96ba8
    2ad4:	ac577097          	auipc	ra,0xac577
    2ad8:	54b65137          	lui	sp,0x54b65
    2adc:	00114133          	xor	sp,sp,ra
    2ae0:	ae378193          	addi	gp,a5,-1309
    2ae4:	62d14193          	xori	gp,sp,1581
    2ae8:	1684e3b7          	lui	t2,0x1684e
    2aec:	00510263          	beq	sp,t0,0x2af0
    2af0:	e94ff1ef          	jal	gp,0x2184
    2af4:	002030b3          	snez	ra,sp
    2af8:	0031c133          	xor	sp,gp,gp
    2afc:	003121b3          	slt	gp,sp,gp
    2b00:	37347237          	lui	tp,0x37347
    2b04:	0dd00117          	auipc	sp,0xdd00
    2b08:	eff0e393          	ori	t2,ra,-257
    2b0c:	a21f2197          	auipc	gp,0xa21f2
    2b10:	12de8137          	lui	sp,0x12de8
    2b14:	000331b3          	sltu	gp,t1,zero
    2b18:	44545097          	auipc	ra,0x44545
    2b1c:	402081b3          	sub	gp,ra,sp
    2b20:	b36a1297          	auipc	t0,0xb36a1
    2b24:	68289597          	auipc	a1,0x68289
    2b28:	db3b9137          	lui	sp,0xdb3b9
    2b2c:	7ae17013          	andi	zero,sp,1966
    2b30:	1500e117          	auipc	sp,0x1500e
    2b34:	47d9e217          	auipc	tp,0x47d9e
    2b38:	0033c133          	xor	sp,t2,gp
    2b3c:	00708133          	add	sp,ra,t2
    2b40:	92ebd137          	lui	sp,0x92ebd
    2b44:	04811117          	auipc	sp,0x4811
    2b48:	0031b0b3          	sltu	ra,gp,gp
    2b4c:	002471b3          	and	gp,s0,sp
    2b50:	f8bec0b7          	lui	ra,0xf8bec
    2b54:	988d1197          	auipc	gp,0x988d1
    2b58:	0010c1b3          	xor	gp,ra,ra
    2b5c:	0030c0b3          	xor	ra,ra,gp
    2b60:	63deb297          	auipc	t0,0x63deb
    2b64:	f6217113          	andi	sp,sp,-158
    2b68:	7e11f093          	andi	ra,gp,2017
    2b6c:	d321e113          	ori	sp,gp,-718
    2b70:	62ecb1b7          	lui	gp,0x62ecb
    2b74:	ed61a0b7          	lui	ra,0xed61a
    2b78:	e62df017          	auipc	zero,0xe62df
    2b7c:	00d28263          	beq	t0,a3,0x2b80
    2b80:	23d0016f          	jal	sp,0x35bc
    2b84:	61d4a197          	auipc	gp,0x61d4a
    2b88:	f0726193          	ori	gp,tp,-249
    2b8c:	0000e0b3          	or	ra,ra,zero
    2b90:	40408333          	sub	t1,ra,tp
    2b94:	4afcf397          	auipc	t2,0x4afcf
    2b98:	1ada5117          	auipc	sp,0x1ada5
    2b9c:	cb1a8097          	auipc	ra,0xcb1a8
    2ba0:	addd1117          	auipc	sp,0xaddd1
    2ba4:	004100b3          	add	ra,sp,tp
    2ba8:	7f11e093          	ori	ra,gp,2033
    2bac:	000373b3          	and	t2,t1,zero
    2bb0:	003190b3          	sll	ra,gp,gp
    2bb4:	28436e13          	ori	t3,t1,644
    2bb8:	2fd08393          	addi	t2,ra,765 # 0xffffffffcb1aae99
    2bbc:	ea99f037          	lui	zero,0xea99f
    2bc0:	00d1d2b3          	srl	t0,gp,a3
    2bc4:	003171b3          	and	gp,sp,gp
    2bc8:	9dc16093          	ori	ra,sp,-1572
    2bcc:	8d68f317          	auipc	t1,0x8d68f
    2bd0:	0070f0b3          	and	ra,ra,t2
    2bd4:	37bd3117          	auipc	sp,0x37bd3
    2bd8:	181260b7          	lui	ra,0x18126
    2bdc:	238e5197          	auipc	gp,0x238e5
    2be0:	0062e4b3          	or	s1,t0,t1
    2be4:	0010a133          	slt	sp,ra,ra
    2be8:	d0b45137          	lui	sp,0xd0b45
    2bec:	6a02c393          	xori	t2,t0,1696
    2bf0:	40c1e193          	ori	gp,gp,1036
    2bf4:	38c0f193          	andi	gp,ra,908
    2bf8:	56e10293          	addi	t0,sp,1390 # 0xffffffffd0b4556e
    2bfc:	0734b0b7          	lui	ra,0x734b
    2c00:	fee0c197          	auipc	gp,0xfee0c
    2c04:	0030d133          	srl	sp,ra,gp
    2c08:	0041b133          	sltu	sp,gp,tp
    2c0c:	9fb62097          	auipc	ra,0x9fb62
    2c10:	209b3497          	auipc	s1,0x209b3
    2c14:	00310263          	beq	sp,gp,0x2c18
    2c18:	e88ff6ef          	jal	a3,0x22a0
    2c1c:	40f15133          	sra	sp,sp,a5
    2c20:	0010e0b3          	or	ra,ra,ra
    2c24:	a697a117          	auipc	sp,0xa697a
    2c28:	26b1e093          	ori	ra,gp,619
    2c2c:	725d4137          	lui	sp,0x725d4
    2c30:	001180b3          	add	ra,gp,ra
    2c34:	0012d1b3          	srl	gp,t0,ra
    2c38:	001160b3          	or	ra,sp,ra
    2c3c:	8f7a3317          	auipc	t1,0x8f7a3
    2c40:	65c08093          	addi	ra,ra,1628 # 0xffffffff9fb65268
    2c44:	478261b7          	lui	gp,0x47826
    2c48:	001190b3          	sll	ra,gp,ra
    2c4c:	40118133          	sub	sp,gp,ra
    2c50:	0519b137          	lui	sp,0x519b
    2c54:	0031eb33          	or	s6,gp,gp
    2c58:	007370b3          	and	ra,t1,t2
    2c5c:	850ca117          	auipc	sp,0x850ca
    2c60:	2b46f137          	lui	sp,0x2b46f
    2c64:	1cd651b7          	lui	gp,0x1cd65
    2c68:	00620133          	add	sp,tp,t1
    2c6c:	405a82b3          	sub	t0,s5,t0
    2c70:	5ca2c217          	auipc	tp,0x5ca2c
    2c74:	0770e093          	ori	ra,ra,119
    2c78:	90c17193          	andi	gp,sp,-1780
    2c7c:	69b3c193          	xori	gp,t2,1691
    2c80:	0010d1b3          	srl	gp,ra,ra
    2c84:	002080b3          	add	ra,ra,sp
    2c88:	ac466213          	ori	tp,a2,-1340
    2c8c:	403053b3          	sra	t2,zero,gp
    2c90:	40f152b3          	sra	t0,sp,a5
    2c94:	40330033          	sub	zero,t1,gp
    2c98:	01d5a137          	lui	sp,0x1d5a
    2c9c:	ab4ea417          	auipc	s0,0xab4ea
    2ca0:	a0f720b7          	lui	ra,0xa0f72
    2ca4:	00b22333          	slt	t1,tp,a1
    2ca8:	9519a397          	auipc	t2,0x9519a
    2cac:	00000113          	li	sp,0
    2cb0:	8c0108e3          	beqz	sp,0x2580
    2cb4:	0011f1b3          	and	gp,gp,ra
    2cb8:	003140b3          	xor	ra,sp,gp
    2cbc:	36252037          	lui	zero,0x36252
    2cc0:	192fd1b7          	lui	gp,0x192fd
    2cc4:	707cb137          	lui	sp,0x707cb
    2cc8:	11df0097          	auipc	ra,0x11df0
    2ccc:	51934317          	auipc	t1,0x51934
    2cd0:	6cbfb0b7          	lui	ra,0x6cbfb
    2cd4:	00212133          	slt	sp,sp,sp
    2cd8:	49777197          	auipc	gp,0x49777
    2cdc:	0061d3b3          	srl	t2,gp,t1
    2ce0:	402085b3          	sub	a1,ra,sp
    2ce4:	0011e1b3          	or	gp,gp,ra
    2ce8:	ed20e193          	ori	gp,ra,-302
    2cec:	0036f133          	and	sp,a3,gp
    2cf0:	df49f0b7          	lui	ra,0xdf49f
    2cf4:	2593e117          	auipc	sp,0x2593e
    2cf8:	002191b3          	sll	gp,gp,sp
    2cfc:	0deed697          	auipc	a3,0xdeed
    2d00:	40315133          	sra	sp,sp,gp
    2d04:	400187b3          	sub	a5,gp,zero
    2d08:	9048b117          	auipc	sp,0x9048b
    2d0c:	4031d133          	sra	sp,gp,gp
    2d10:	0427a137          	lui	sp,0x427a
    2d14:	d5108093          	addi	ra,ra,-687 # 0xffffffffdf49ed51
    2d18:	cef365b7          	lui	a1,0xcef36
    2d1c:	034c1337          	lui	t1,0x34c1
    2d20:	0031a133          	slt	sp,gp,gp
    2d24:	60bbf0b7          	lui	ra,0x60bbf
    2d28:	0013b1b3          	sltu	gp,t2,ra
    2d2c:	8de46337          	lui	t1,0x8de46
    2d30:	a29ed797          	auipc	a5,0xa29ed
    2d34:	003ab9b3          	sltu	s3,s5,gp
    2d38:	e981e093          	ori	ra,gp,-360
    2d3c:	b4b779b7          	lui	s3,0xb4b77
    2d40:	001191b3          	sll	gp,gp,ra
    2d44:	0031c0b3          	xor	ra,gp,gp
    2d48:	a8518113          	addi	sp,gp,-1403 # 0x4977975d
    2d4c:	2544b1b7          	lui	gp,0x2544b
    2d50:	002341b3          	xor	gp,t1,sp
    2d54:	b677a597          	auipc	a1,0xb677a
    2d58:	aab04017          	auipc	zero,0xaab04
    2d5c:	22310063          	beq	sp,gp,0x2f7c
    2d60:	21c002ef          	jal	t0,0x2f7c
    2d64:	44127137          	lui	sp,0x44127
    2d68:	c0008113          	addi	sp,ra,-1024 # 0x60bbec00
    2d6c:	003261b3          	or	gp,tp,gp
    2d70:	d605b1b7          	lui	gp,0xd605b
    2d74:	e7904093          	xori	ra,zero,-391
    2d78:	88717093          	andi	ra,sp,-1913
    2d7c:	e4daf0b7          	lui	ra,0xe4daf
    2d80:	571be017          	auipc	zero,0x571be
    2d84:	6102e013          	ori	zero,t0,1552
    2d88:	004698b3          	sll	a7,a3,tp
    2d8c:	405251b3          	sra	gp,tp,t0
    2d90:	22617193          	andi	gp,sp,550
    2d94:	0014f0b3          	and	ra,s1,ra
    2d98:	0eaf6117          	auipc	sp,0xeaf6
    2d9c:	21d19097          	auipc	ra,0x21d19
    2da0:	93b6b197          	auipc	gp,0x93b6b
    2da4:	bf916893          	ori	a7,sp,-1031
    2da8:	9ee0c013          	xori	zero,ra,-1554
    2dac:	4042d133          	sra	sp,t0,tp
    2db0:	6e063217          	auipc	tp,0x6e063
    2db4:	4020d2b3          	sra	t0,ra,sp
    2db8:	24200117          	auipc	sp,0x24200
    2dbc:	f6add197          	auipc	gp,0xf6add
    2dc0:	0b40f097          	auipc	ra,0xb40f
    2dc4:	00714333          	xor	t1,sp,t2
    2dc8:	4c3c4137          	lui	sp,0x4c3c4
    2dcc:	0a168017          	auipc	zero,0xa168
    2dd0:	004036b3          	snez	a3,tp
    2dd4:	246c20b7          	lui	ra,0x246c2
    2dd8:	a5771237          	lui	tp,0xa5771
    2ddc:	3e916113          	ori	sp,sp,1001
    2de0:	d7d191b7          	lui	gp,0xd7d19
    2de4:	007a10b7          	lui	ra,0x7a1
    2de8:	00000193          	li	gp,0
    2dec:	12018063          	beqz	gp,0x2f0c
    2df0:	0031f0b3          	and	ra,gp,gp
    2df4:	00109033          	sll	zero,ra,ra
    2df8:	9c3041b7          	lui	gp,0x9c304
    2dfc:	bb6a0237          	lui	tp,0xbb6a0
    2e00:	00122d33          	slt	s10,tp,ra
    2e04:	50510093          	addi	ra,sp,1285 # 0x4c3c4505
    2e08:	0061a133          	slt	sp,gp,t1
    2e0c:	1a60e193          	ori	gp,ra,422
    2e10:	0021d333          	srl	t1,gp,sp
    2e14:	e9ce0197          	auipc	gp,0xe9ce0
    2e18:	76408193          	addi	gp,ra,1892 # 0x7a1764
    2e1c:	cedc8037          	lui	zero,0xcedc8
    2e20:	3d50c013          	xori	zero,ra,981
    2e24:	004130b3          	sltu	ra,sp,tp
    2e28:	404281b3          	sub	gp,t0,tp
    2e2c:	0011d0b3          	srl	ra,gp,ra
    2e30:	4be0b0b7          	lui	ra,0x4be0b
    2e34:	00236933          	or	s2,t1,sp
    2e38:	a173d1b7          	lui	gp,0xa173d
    2e3c:	002091b3          	sll	gp,ra,sp
    2e40:	403181b3          	sub	gp,gp,gp
    2e44:	55678093          	addi	ra,a5,1366 # 0xffffffffa29f0286
    2e48:	2c30c493          	xori	s1,ra,707
    2e4c:	ba2971b7          	lui	gp,0xba297
    2e50:	f90071b7          	lui	gp,0xf9007
    2e54:	1d617193          	andi	gp,sp,470
    2e58:	93162197          	auipc	gp,0x93162
    2e5c:	89c17193          	andi	gp,sp,-1892
    2e60:	0011e3b3          	or	t2,gp,ra
    2e64:	9f6fa097          	auipc	ra,0x9f6fa
    2e68:	4461c093          	xori	ra,gp,1094
    2e6c:	d7d3f213          	andi	tp,t2,-643
    2e70:	4012d1b3          	sra	gp,t0,ra
    2e74:	ac47e0b7          	lui	ra,0xac47e
    2e78:	5cd00193          	li	gp,1485
    2e7c:	eeb084e3          	beq	ra,a1,0x2d64
    2e80:	ee5ff1ef          	jal	gp,0x2d64
    2e84:	0b827093          	andi	ra,tp,184
    2e88:	003152b3          	srl	t0,sp,gp
    2e8c:	0011f1b3          	and	gp,gp,ra
    2e90:	401180b3          	sub	ra,gp,ra
    2e94:	0021e1b3          	or	gp,gp,sp
    2e98:	c4226a17          	auipc	s4,0xc4226
    2e9c:	54f0e113          	ori	sp,ra,1359
    2ea0:	cda34097          	auipc	ra,0xcda34
    2ea4:	4ca06293          	ori	t0,zero,1226
    2ea8:	2f1e9117          	auipc	sp,0x2f1e9
    2eac:	01c191b3          	sll	gp,gp,t3
    2eb0:	00012033          	sltz	zero,sp
    2eb4:	9b60c313          	xori	t1,ra,-1610
    2eb8:	095dd497          	auipc	s1,0x95dd
    2ebc:	5030f393          	andi	t2,ra,1283
    2ec0:	f1eec197          	auipc	gp,0xf1eec
    2ec4:	653890b7          	lui	ra,0x65389
    2ec8:	80ed6137          	lui	sp,0x80ed6
    2ecc:	00314333          	xor	t1,sp,gp
    2ed0:	8dee80b7          	lui	ra,0x8dee8
    2ed4:	00215133          	srl	sp,sp,sp
    2ed8:	b5b581b7          	lui	gp,0xb5b58
    2edc:	40230133          	sub	sp,t1,sp
    2ee0:	001120b3          	slt	ra,sp,ra
    2ee4:	c8e45197          	auipc	gp,0xc8e45
    2ee8:	1f0dd1b7          	lui	gp,0x1f0dd
    2eec:	65a1c213          	xori	tp,gp,1626
    2ef0:	01d0f0b3          	and	ra,ra,t4
    2ef4:	0023b133          	sltu	sp,t2,sp
    2ef8:	6a2a4117          	auipc	sp,0x6a2a4
    2efc:	00114333          	xor	t1,sp,ra
    2f00:	42aa0317          	auipc	t1,0x42aa0
    2f04:	2af11e63          	bne	sp,a5,0x31c0
    2f08:	2af10c63          	beq	sp,a5,0x31c0
    2f0c:	403081b3          	sub	gp,ra,gp
    2f10:	003081b3          	add	gp,ra,gp
    2f14:	0022d6b3          	srl	a3,t0,sp
    2f18:	0020e0b3          	or	ra,ra,sp
    2f1c:	406084b3          	sub	s1,ra,t1
    2f20:	30ba21b7          	lui	gp,0x30ba2
    2f24:	403082b3          	sub	t0,ra,gp
    2f28:	b7b0c113          	xori	sp,ra,-1157
    2f2c:	23e94397          	auipc	t2,0x23e94
    2f30:	6323e193          	ori	gp,t2,1586
    2f34:	4020d1b3          	sra	gp,ra,sp
    2f38:	de7c66b7          	lui	a3,0xde7c6
    2f3c:	da34d197          	auipc	gp,0xda34d
    2f40:	8a71f113          	andi	sp,gp,-1881
    2f44:	002c50b3          	srl	ra,s8,sp
    2f48:	003171b3          	and	gp,sp,gp
    2f4c:	96010013          	addi	zero,sp,-1696 # 0x6a2a6858
    2f50:	77310313          	addi	t1,sp,1907
    2f54:	401000b3          	neg	ra,ra
    2f58:	003130b3          	sltu	ra,sp,gp
    2f5c:	5ee19137          	lui	sp,0x5ee19
    2f60:	42185397          	auipc	t2,0x42185
    2f64:	c40441b7          	lui	gp,0xc4044
    2f68:	40210133          	sub	sp,sp,sp
    2f6c:	0041b133          	sltu	sp,gp,tp
    2f70:	fcb12397          	auipc	t2,0xfcb12
    2f74:	f02588e3          	beq	a1,sp,0x2e84
    2f78:	f0dff3ef          	jal	t2,0x2e84
    2f7c:	00316133          	or	sp,sp,gp
    2f80:	7161c213          	xori	tp,gp,1814
    2f84:	0070e033          	or	zero,ra,t2
    2f88:	0b81c113          	xori	sp,gp,184
    2f8c:	401152b3          	sra	t0,sp,ra
    2f90:	002191b3          	sll	gp,gp,sp
    2f94:	4bf8d317          	auipc	t1,0x4bf8d
    2f98:	0020d0b3          	srl	ra,ra,sp
    2f9c:	824d2097          	auipc	ra,0x824d2
    2fa0:	0031f133          	and	sp,gp,gp
    2fa4:	6d8f01b7          	lui	gp,0x6d8f0
    2fa8:	6b1f80b7          	lui	ra,0x6b1f8
    2fac:	f9759297          	auipc	t0,0xf9759
    2fb0:	222b50b7          	lui	ra,0x222b5
    2fb4:	00d0e033          	or	zero,ra,a3
    2fb8:	0010a0b3          	slt	ra,ra,ra
    2fbc:	0040d133          	srl	sp,ra,tp
    2fc0:	6d460137          	lui	sp,0x6d460
    2fc4:	a6b92097          	auipc	ra,0xa6b92
    2fc8:	00f16133          	or	sp,sp,a5
    2fcc:	0b005197          	auipc	gp,0xb005
    2fd0:	0021c0b3          	xor	ra,gp,sp
    2fd4:	fba16193          	ori	gp,sp,-70
    2fd8:	e36ac197          	auipc	gp,0xe36ac
    2fdc:	d2898117          	auipc	sp,0xd2898
    2fe0:	0050f3b3          	and	t2,ra,t0
    2fe4:	40b0d1b3          	sra	gp,ra,a1
    2fe8:	10f0b217          	auipc	tp,0x10f0b
    2fec:	a6d801b7          	lui	gp,0xa6d80
    2ff0:	003320b3          	slt	ra,t1,gp
    2ff4:	00a14237          	lui	tp,0xa14
    2ff8:	00316133          	or	sp,sp,gp
    2ffc:	ecfd0097          	auipc	ra,0xecfd0
    3000:	81568037          	lui	zero,0x81568
    3004:	0012c133          	xor	sp,t0,ra
    3008:	00030113          	mv	sp,t1
    300c:	3e610863          	beq	sp,t1,0x33fc
    3010:	8bbd9117          	auipc	sp,0x8bbd9
    3014:	002252b3          	srl	t0,tp,sp
    3018:	77e16193          	ori	gp,sp,1918
    301c:	85797137          	lui	sp,0x85797
    3020:	1c63f713          	andi	a4,t2,454
    3024:	0031a0b3          	slt	ra,gp,gp
    3028:	c6e17137          	lui	sp,0xc6e17
    302c:	001130b3          	sltu	ra,sp,ra
    3030:	0033c333          	xor	t1,t2,gp
    3034:	005381b3          	add	gp,t2,t0
    3038:	0020e0b3          	or	ra,ra,sp
    303c:	000311b3          	sll	gp,t1,zero
    3040:	40228133          	sub	sp,t0,sp
    3044:	83c07293          	andi	t0,zero,-1988
    3048:	ce00e013          	ori	zero,ra,-800
    304c:	001110b3          	sll	ra,sp,ra
    3050:	002620b3          	slt	ra,a2,sp
    3054:	d4417093          	andi	ra,sp,-700
    3058:	22412517          	auipc	a0,0x22412
    305c:	40528133          	sub	sp,t0,t0
    3060:	92fd20b7          	lui	ra,0x92fd2
    3064:	0033b2b3          	sltu	t0,t2,gp
    3068:	40f7dfb3          	sra	t6,a5,a5
    306c:	b391f213          	andi	tp,gp,-1223
    3070:	7160e093          	ori	ra,ra,1814
    3074:	80f29317          	auipc	t1,0x80f29
    3078:	29b76117          	auipc	sp,0x29b76
    307c:	bbf16193          	ori	gp,sp,-1089
    3080:	becef1b7          	lui	gp,0xbecef
    3084:	47774393          	xori	t2,a4,1143
    3088:	92508d93          	addi	s11,ra,-1755 # 0xffffffff92fd1925
    308c:	00109033          	sll	zero,ra,ra
    3090:	6d2dc197          	auipc	gp,0x6d2dc
    3094:	003170b3          	and	ra,sp,gp
    3098:	003271b3          	and	gp,tp,gp
    309c:	64418663          	beq	gp,tp,0x36e8
    30a0:	648001ef          	jal	gp,0x36e8
    30a4:	6d1ba0b7          	lui	ra,0x6d1ba
    30a8:	4ca26293          	ori	t0,tp,1226
    30ac:	d671c193          	xori	gp,gp,-665
    30b0:	0019c333          	xor	t1,s3,ra
    30b4:	a5971117          	auipc	sp,0xa5971
    30b8:	2b716193          	ori	gp,sp,695
    30bc:	0021e1b3          	or	gp,gp,sp
    30c0:	0031c4b3          	xor	s1,gp,gp
    30c4:	003130b3          	sltu	ra,sp,gp
    30c8:	2a9490b7          	lui	ra,0x2a949
    30cc:	2b2b8197          	auipc	gp,0x2b2b8
    30d0:	00218133          	add	sp,gp,sp
    30d4:	4871f013          	andi	zero,gp,1159
    30d8:	c410c393          	xori	t2,ra,-959
    30dc:	001170b3          	and	ra,sp,ra
    30e0:	944e11b7          	lui	gp,0x944e1
    30e4:	40ff7137          	lui	sp,0x40ff7
    30e8:	b9b02317          	auipc	t1,0xb9b02
    30ec:	4020d1b3          	sra	gp,ra,sp
    30f0:	001060b3          	or	ra,zero,ra
    30f4:	0021b133          	sltu	sp,gp,sp
    30f8:	69f17193          	andi	gp,sp,1695
    30fc:	b9a96137          	lui	sp,0xb9a96
    3100:	00317133          	and	sp,sp,gp
    3104:	05411397          	auipc	t2,0x5411
    3108:	2d10e213          	ori	tp,ra,721
    310c:	002150b3          	srl	ra,sp,sp
    3110:	5b2ad1b7          	lui	gp,0x5b2ad
    3114:	4031d1b3          	sra	gp,gp,gp
    3118:	8c53e213          	ori	tp,t2,-1851
    311c:	403100b3          	sub	ra,sp,gp
    3120:	3bf0e113          	ori	sp,ra,959
    3124:	00008193          	mv	gp,ra
    3128:	ee1184e3          	beq	gp,ra,0x3010
    312c:	001347b3          	xor	a5,t1,ra
    3130:	13e61137          	lui	sp,0x13e61
    3134:	01b140b3          	xor	ra,sp,s11
    3138:	4020d0b3          	sra	ra,ra,sp
    313c:	0030b3b3          	sltu	t2,ra,gp
    3140:	22d0e137          	lui	sp,0x22d0e
    3144:	09965117          	auipc	sp,0x9965
    3148:	73e16193          	ori	gp,sp,1854
    314c:	eaf5c237          	lui	tp,0xeaf5c
    3150:	00114233          	xor	tp,sp,ra
    3154:	62514093          	xori	ra,sp,1573
    3158:	6e6b0137          	lui	sp,0x6e6b0
    315c:	03b781b7          	lui	gp,0x3b78
    3160:	98424113          	xori	sp,tp,-1660
    3164:	00218133          	add	sp,gp,sp
    3168:	a796a037          	lui	zero,0xa796a
    316c:	0071a033          	slt	zero,gp,t2
    3170:	0022e133          	or	sp,t0,sp
    3174:	b262f137          	lui	sp,0xb262f
    3178:	1d6250b7          	lui	ra,0x1d625
    317c:	0020e133          	or	sp,ra,sp
    3180:	405380b3          	sub	ra,t2,t0
    3184:	31700313          	li	t1,791
    3188:	0a020093          	addi	ra,tp,160 # 0xffffffffeaf5c0a0
    318c:	276d03b7          	lui	t2,0x276d0
    3190:	13f17113          	andi	sp,sp,319
    3194:	6e317213          	andi	tp,sp,1763
    3198:	94316137          	lui	sp,0x94316
    319c:	f7ae4f97          	auipc	t6,0xf7ae4
    31a0:	7eca41b7          	lui	gp,0x7eca4
    31a4:	2b2ba197          	auipc	gp,0x2b2ba
    31a8:	00214133          	xor	sp,sp,sp
    31ac:	0022e1b3          	or	gp,t0,sp
    31b0:	40915e33          	sra	t3,sp,s1
    31b4:	407251b3          	sra	gp,tp,t2
    31b8:	00000117          	auipc	sp,0x0
    31bc:	374100e7          	jalr	884(sp) # 0x352c
    31c0:	c19be137          	lui	sp,0xc19be
    31c4:	00235333          	srl	t1,t1,sp
    31c8:	b9c17013          	andi	zero,sp,-1124
    31cc:	9f316093          	ori	ra,sp,-1549
    31d0:	69b6d0b7          	lui	ra,0x69b6d
    31d4:	b8a15117          	auipc	sp,0xb8a15
    31d8:	59c30193          	addi	gp,t1,1436 # 0xffffffffb9b05684
    31dc:	c9373097          	auipc	ra,0xc9373
    31e0:	0021f1b3          	and	gp,gp,sp
    31e4:	f9a3a297          	auipc	t0,0xf9a3a
    31e8:	007260b3          	or	ra,tp,t2
    31ec:	00311133          	sll	sp,sp,gp
    31f0:	d9fd90b7          	lui	ra,0xd9fd9
    31f4:	f1f1c013          	xori	zero,gp,-225
    31f8:	81904497          	auipc	s1,0x81904
    31fc:	0b6ae0b7          	lui	ra,0xb6ae
    3200:	b171f313          	andi	t1,gp,-1257
    3204:	00217ab3          	and	s5,sp,sp
    3208:	47f03117          	auipc	sp,0x47f03
    320c:	28a6f097          	auipc	ra,0x28a6f
    3210:	d625a1b7          	lui	gp,0xd625a
    3214:	402081b3          	sub	gp,ra,sp
    3218:	da4ed137          	lui	sp,0xda4ed
    321c:	6af1f193          	andi	gp,gp,1711
    3220:	2041f393          	andi	t2,gp,516
    3224:	001152b3          	srl	t0,sp,ra
    3228:	1cb0e3b7          	lui	t2,0x1cb0e
    322c:	3cdba197          	auipc	gp,0x3cdba
    3230:	405b81b7          	lui	gp,0x405b8
    3234:	a964a197          	auipc	gp,0xa964a
    3238:	aff89637          	lui	a2,0xaff89
    323c:	0000c133          	xor	sp,ra,zero
    3240:	3fb6e5b7          	lui	a1,0x3fb6e
    3244:	4020d863          	bge	ra,sp,0x3654
    3248:	4020c663          	blt	ra,sp,0x3654
    324c:	0020c133          	xor	sp,ra,sp
    3250:	0201f113          	andi	sp,gp,32
    3254:	5eb1c093          	xori	ra,gp,1515
    3258:	1deaf113          	andi	sp,s5,478
    325c:	c22ff117          	auipc	sp,0xc22ff
    3260:	00d3d0b3          	srl	ra,t2,a3
    3264:	a3e0e093          	ori	ra,ra,-1474
    3268:	091c8797          	auipc	a5,0x91c8
    326c:	40410133          	sub	sp,sp,tp
    3270:	8f09e1b7          	lui	gp,0x8f09e
    3274:	d7c3f093          	andi	ra,t2,-644
    3278:	7a6d3117          	auipc	sp,0x7a6d3
    327c:	cfc87097          	auipc	ra,0xcfc87
    3280:	b1a2c097          	auipc	ra,0xb1a2c
    3284:	0020b0b3          	sltu	ra,ra,sp
    3288:	99b881b7          	lui	gp,0x99b88
    328c:	00314233          	xor	tp,sp,gp
    3290:	e2ca4317          	auipc	t1,0xe2ca4
    3294:	003281b3          	add	gp,t0,gp
    3298:	c2fac0b7          	lui	ra,0xc2fac
    329c:	e8308293          	addi	t0,ra,-381 # 0xffffffffc2fabe83
    32a0:	0001c5b3          	xor	a1,gp,zero
    32a4:	48dad217          	auipc	tp,0x48dad
    32a8:	ac6be197          	auipc	gp,0xac6be
    32ac:	00310333          	add	t1,sp,gp
    32b0:	f6930093          	addi	ra,t1,-151 # 0xffffffffe2ca71f9
    32b4:	0061a133          	slt	sp,gp,t1
    32b8:	dec2f217          	auipc	tp,0xdec2f
    32bc:	28f14393          	xori	t2,sp,655
    32c0:	5ffac017          	auipc	zero,0x5ffac
    32c4:	8739f217          	auipc	tp,0x8739f
    32c8:	cde8b097          	auipc	ra,0xcde8b
    32cc:	7c714093          	xori	ra,sp,1991
    32d0:	00000117          	auipc	sp,0x0
    32d4:	1b8100e7          	jalr	440(sp) # 0x3488
    32d8:	f85061b7          	lui	gp,0xf8506
    32dc:	4020d0b3          	sra	ra,ra,sp
    32e0:	c0a1f093          	andi	ra,gp,-1014
    32e4:	7aa9d117          	auipc	sp,0x7aa9d
    32e8:	0067a2b3          	slt	t0,a5,t1
    32ec:	5380c213          	xori	tp,ra,1336
    32f0:	d4a3e1b7          	lui	gp,0xd4a3e
    32f4:	000100b3          	add	ra,sp,zero
    32f8:	0023e133          	or	sp,t2,sp
    32fc:	ccbad197          	auipc	gp,0xccbad
    3300:	ac5ff0b7          	lui	ra,0xac5ff
    3304:	8bb46097          	auipc	ra,0x8bb46
    3308:	403c50b3          	sra	ra,s8,gp
    330c:	f201e013          	ori	zero,gp,-224
    3310:	1b258117          	auipc	sp,0x1b258
    3314:	58e49317          	auipc	t1,0x58e49
    3318:	4be07037          	lui	zero,0x4be07
    331c:	401103b3          	sub	t2,sp,ra
    3320:	3592c313          	xori	t1,t0,857
    3324:	001192b3          	sll	t0,gp,ra
    3328:	00337133          	and	sp,t1,gp
    332c:	40f16213          	ori	tp,sp,1039
    3330:	92bad137          	lui	sp,0x92bad
    3334:	ba486537          	lui	a0,0xba486
    3338:	006082b3          	add	t0,ra,t1
    333c:	002340b3          	xor	ra,t1,sp
    3340:	001011b3          	sll	gp,zero,ra
    3344:	f00271b7          	lui	gp,0xf0027
    3348:	4050d133          	sra	sp,ra,t0
    334c:	0bd18493          	addi	s1,gp,189 # 0xfffffffff00270bd
    3350:	c0cd3117          	auipc	sp,0xc0cd3
    3354:	4672f313          	andi	t1,t0,1127
    3358:	306945b7          	lui	a1,0x30694
    335c:	00018463          	beqz	gp,0x3364
    3360:	0040016f          	jal	sp,0x3364
    3364:	4180c113          	xori	sp,ra,1048
    3368:	b0416197          	auipc	gp,0xb0416
    336c:	3c516013          	ori	zero,sp,965
    3370:	b385f4b7          	lui	s1,0xb385f
    3374:	1e617213          	andi	tp,sp,486
    3378:	0020f0b3          	and	ra,ra,sp
    337c:	fe714093          	xori	ra,sp,-25
    3380:	0032f133          	and	sp,t0,gp
    3384:	2d75a097          	auipc	ra,0x2d75a
    3388:	a2a27093          	andi	ra,tp,-1494
    338c:	119381b7          	lui	gp,0x11938
    3390:	c7a52117          	auipc	sp,0xc7a52
    3394:	eae76497          	auipc	s1,0xeae76
    3398:	01e0f1b3          	and	gp,ra,t5
    339c:	4035d0b3          	sra	ra,a1,gp
    33a0:	fed10193          	addi	gp,sp,-19 # 0xffffffffc7a5537d
    33a4:	84b6c217          	auipc	tp,0x84b6c
    33a8:	eedb8137          	lui	sp,0xeedb8
    33ac:	5e224113          	xori	sp,tp,1506
    33b0:	6ee08137          	lui	sp,0x6ee08
    33b4:	c161c313          	xori	t1,gp,-1002
    33b8:	2a14e193          	ori	gp,s1,673
    33bc:	002083b3          	add	t2,ra,sp
    33c0:	ede34393          	xori	t2,t1,-290
    33c4:	af914193          	xori	gp,sp,-1287
    33c8:	8f689137          	lui	sp,0x8f689
    33cc:	0030e1b3          	or	gp,ra,gp
    33d0:	578bb7b7          	lui	a5,0x578bb
    33d4:	95c3c213          	xori	tp,t2,-1700
    33d8:	00118033          	add	zero,gp,ra
    33dc:	00312d33          	slt	s10,sp,gp
    33e0:	465de117          	auipc	sp,0x465de
    33e4:	00b1a0b3          	slt	ra,gp,a1
    33e8:	f4898197          	auipc	gp,0xf4898
    33ec:	52074297          	auipc	t0,0x52074
    33f0:	4049d1b3          	sra	gp,s3,tp
    33f4:	38209063          	bne	ra,sp,0x3774
    33f8:	36208e63          	beq	ra,sp,0x3774
    33fc:	abf08193          	addi	gp,ra,-1345 # 0x2d75ce43
    3400:	0000c233          	xor	tp,ra,zero
    3404:	402182b3          	sub	t0,gp,sp
    3408:	8e7fc197          	auipc	gp,0x8e7fc
    340c:	400180b3          	sub	ra,gp,zero
    3410:	002182b3          	add	t0,gp,sp
    3414:	2a210a93          	addi	s5,sp,674 # 0x465e1682
    3418:	0060f333          	and	t1,ra,t1
    341c:	9e078337          	lui	t1,0x9e078
    3420:	00203133          	snez	sp,sp
    3424:	002170b3          	and	ra,sp,sp
    3428:	64e4f1b7          	lui	gp,0x64e4f
    342c:	e9114017          	auipc	zero,0xe9114
    3430:	283bf137          	lui	sp,0x283bf
    3434:	00213133          	sltu	sp,sp,sp
    3438:	40215933          	sra	s2,sp,sp
    343c:	f08a67b7          	lui	a5,0xf08a6
    3440:	0010d1b3          	srl	gp,ra,ra
    3444:	ad47c097          	auipc	ra,0xad47c
    3448:	00415233          	srl	tp,sp,tp
    344c:	88b10193          	addi	gp,sp,-1909 # 0x283be88b
    3450:	0031c0b3          	xor	ra,gp,gp
    3454:	013be033          	or	zero,s7,s3
    3458:	3bd0ce93          	xori	t4,ra,957
    345c:	d2963117          	auipc	sp,0xd2963
    3460:	ed568337          	lui	t1,0xed568
    3464:	48089097          	auipc	ra,0x48089
    3468:	47e2e193          	ori	gp,t0,1150
    346c:	4642f093          	andi	ra,t0,1124
    3470:	0031f2b3          	and	t0,gp,gp
    3474:	7850f193          	andi	gp,ra,1925
    3478:	25de5337          	lui	t1,0x25de5
    347c:	55a14113          	xori	sp,sp,1370
    3480:	00000317          	auipc	t1,0x0
    3484:	c24301e7          	jalr	gp,-988(t1) # 0x30a4
    3488:	533f6137          	lui	sp,0x533f6
    348c:	8baca097          	auipc	ra,0x8baca
    3490:	0021e1b3          	or	gp,gp,sp
    3494:	d413c093          	xori	ra,t2,-703
    3498:	0020c333          	xor	t1,ra,sp
    349c:	403180b3          	sub	ra,gp,gp
    34a0:	40210733          	sub	a4,sp,sp
    34a4:	0030b1b3          	sltu	gp,ra,gp
    34a8:	00318bb3          	add	s7,gp,gp
    34ac:	d2b38093          	addi	ra,t2,-725 # 0x1cb0dd2b
    34b0:	12b4c137          	lui	sp,0x12b4c
    34b4:	40310133          	sub	sp,sp,gp
    34b8:	5e2e8117          	auipc	sp,0x5e2e8
    34bc:	ea952117          	auipc	sp,0xea952
    34c0:	00215133          	srl	sp,sp,sp
    34c4:	003109b3          	add	s3,sp,gp
    34c8:	3a37b317          	auipc	t1,0x3a37b
    34cc:	e0f17093          	andi	ra,sp,-497
    34d0:	02b98197          	auipc	gp,0x2b98
    34d4:	000781b3          	add	gp,a5,zero
    34d8:	40415e33          	sra	t3,sp,tp
    34dc:	808b6117          	auipc	sp,0x808b6
    34e0:	00315333          	srl	t1,sp,gp
    34e4:	2f0ef093          	andi	ra,t4,752
    34e8:	0010b133          	sltu	sp,ra,ra
    34ec:	100191b7          	lui	gp,0x10019
    34f0:	002341b3          	xor	gp,t1,sp
    34f4:	9b4f0137          	lui	sp,0x9b4f0
    34f8:	8f97c037          	lui	zero,0x8f97c
    34fc:	6bb00193          	li	gp,1723
    3500:	5041f093          	andi	ra,gp,1284
    3504:	76145137          	lui	sp,0x76145
    3508:	400280b3          	sub	ra,t0,zero
    350c:	0040e1b3          	or	gp,ra,tp
    3510:	1f918313          	addi	t1,gp,505 # 0x100191f9
    3514:	40308033          	sub	zero,ra,gp
    3518:	77607093          	andi	ra,zero,1910
    351c:	0012d033          	srl	zero,t0,ra
    3520:	b6509297          	auipc	t0,0xb6509
    3524:	00000b17          	auipc	s6,0x0
    3528:	db4b0167          	jalr	sp,-588(s6) # 0x32d8
    352c:	aff46937          	lui	s2,0xaff46
    3530:	002131b3          	sltu	gp,sp,sp
    3534:	0060d133          	srl	sp,ra,t1
    3538:	e77de5b7          	lui	a1,0xe77de
    353c:	4d17ce93          	xori	t4,a5,1233
    3540:	70e1e113          	ori	sp,gp,1806
    3544:	e2035217          	auipc	tp,0xe2035
    3548:	0010e0b3          	or	ra,ra,ra
    354c:	5763b0b7          	lui	ra,0x5763b
    3550:	5bf1b1b7          	lui	gp,0x5bf1b
    3554:	0014b1b3          	sltu	gp,s1,ra
    3558:	6d5c3197          	auipc	gp,0x6d5c3
    355c:	82dac097          	auipc	ra,0x82dac
    3560:	4d172797          	auipc	a5,0x4d172
    3564:	3f44c193          	xori	gp,s1,1012
    3568:	5e151137          	lui	sp,0x5e151
    356c:	0020c0b3          	xor	ra,ra,sp
    3570:	c3e1f193          	andi	gp,gp,-962
    3574:	402250b3          	sra	ra,tp,sp
    3578:	4671f113          	andi	sp,gp,1127
    357c:	61e4a097          	auipc	ra,0x61e4a
    3580:	0033e0b3          	or	ra,t2,gp
    3584:	001312b3          	sll	t0,t1,ra
    3588:	dcca7117          	auipc	sp,0xdcca7
    358c:	0050c0b3          	xor	ra,ra,t0
    3590:	7075d037          	lui	zero,0x7075d
    3594:	002321b3          	slt	gp,t1,sp
    3598:	b1e16093          	ori	ra,sp,-1250
    359c:	01c0a133          	slt	sp,ra,t3
    35a0:	c3a1e113          	ori	sp,gp,-966
    35a4:	4011d1b3          	sra	gp,gp,ra
    35a8:	9d3c4a17          	auipc	s4,0x9d3c4
    35ac:	01a310b3          	sll	ra,t1,s10
    35b0:	0020c133          	xor	sp,ra,sp
    35b4:	00078193          	mv	gp,a5
    35b8:	82f18ce3          	beq	gp,a5,0x2df0
    35bc:	00617133          	and	sp,sp,t1
    35c0:	41f4c297          	auipc	t0,0x41f4c
    35c4:	70338197          	auipc	gp,0x70338
    35c8:	ae586137          	lui	sp,0xae586
    35cc:	a1208393          	addi	t2,ra,-1518 # 0x61e4cf8e
    35d0:	007151b3          	srl	gp,sp,t2
    35d4:	4570c093          	xori	ra,ra,1111
    35d8:	0017f133          	and	sp,a5,ra
    35dc:	26cf93b7          	lui	t2,0x26cf9
    35e0:	fc1e0237          	lui	tp,0xfc1e0
    35e4:	0011f0b3          	and	ra,gp,ra
    35e8:	b3020197          	auipc	gp,0xb3020
    35ec:	24065117          	auipc	sp,0x24065
    35f0:	dc40c793          	xori	a5,ra,-572
    35f4:	25aeb2b7          	lui	t0,0x25aeb
    35f8:	e1fed137          	lui	sp,0xe1fed
    35fc:	f78af697          	auipc	a3,0xf78af
    3600:	abecf0b7          	lui	ra,0xabecf
    3604:	b121e093          	ori	ra,gp,-1262
    3608:	0060c1b3          	xor	gp,ra,t1
    360c:	002371b3          	and	gp,t1,sp
    3610:	30dff1b7          	lui	gp,0x30dff
    3614:	338cc117          	auipc	sp,0x338cc
    3618:	f9918193          	addi	gp,gp,-103 # 0x30dfef99
    361c:	4032d133          	sra	sp,t0,gp
    3620:	cb10f0b7          	lui	ra,0xcb10f
    3624:	40510133          	sub	sp,sp,t0
    3628:	783331b7          	lui	gp,0x78333
    362c:	2979b097          	auipc	ra,0x2979b
    3630:	0aa2b097          	auipc	ra,0xaa2b
    3634:	0010e1b3          	or	gp,ra,ra
    3638:	0010c1b3          	xor	gp,ra,ra
    363c:	403151b3          	sra	gp,sp,gp
    3640:	ea415237          	lui	tp,0xea415
    3644:	4031d4b3          	sra	s1,gp,gp
    3648:	4020d333          	sra	t1,ra,sp
    364c:	ae1300e3          	beq	t1,ra,0x312c
    3650:	addff0ef          	jal	ra,0x312c
    3654:	40458133          	sub	sp,a1,tp
    3658:	33327117          	auipc	sp,0x33327
    365c:	c39ff317          	auipc	t1,0xc39ff
    3660:	9cc93c37          	lui	s8,0x9cc93
    3664:	00216333          	or	t1,sp,sp
    3668:	20ce2137          	lui	sp,0x20ce2
    366c:	001140b3          	xor	ra,sp,ra
    3670:	46bd41b7          	lui	gp,0x46bd4
    3674:	0031e1b3          	or	gp,gp,gp
    3678:	0071d1b3          	srl	gp,gp,t2
    367c:	a9e3e113          	ori	sp,t2,-1378
    3680:	403181b3          	sub	gp,gp,gp
    3684:	0274a197          	auipc	gp,0x274a
    3688:	0062d0b3          	srl	ra,t0,t1
    368c:	5905f0b7          	lui	ra,0x5905f
    3690:	4031d0b3          	sra	ra,gp,gp
    3694:	0011f0b3          	and	ra,gp,ra
    3698:	f4547137          	lui	sp,0xf4547
    369c:	001381b3          	add	gp,t2,ra
    36a0:	75a08193          	addi	gp,ra,1882 # 0x5905f75a
    36a4:	cbee2017          	auipc	zero,0xcbee2
    36a8:	0041f133          	and	sp,gp,tp
    36ac:	00309333          	sll	t1,ra,gp
    36b0:	0010b0b3          	sltu	ra,ra,ra
    36b4:	be918193          	addi	gp,gp,-1047 # 0x274d26d
    36b8:	df01c193          	xori	gp,gp,-528
    36bc:	f0eff097          	auipc	ra,0xf0eff
    36c0:	0000c133          	xor	sp,ra,zero
    36c4:	0030f3b3          	and	t2,ra,gp
    36c8:	40108133          	sub	sp,ra,ra
    36cc:	a45ba197          	auipc	gp,0xa45ba
    36d0:	007190b3          	sll	ra,gp,t2
    36d4:	ae916113          	ori	sp,sp,-1303
    36d8:	006190b3          	sll	ra,gp,t1
    36dc:	002170b3          	and	ra,sp,sp
    36e0:	b62406e3          	beq	s0,sp,0x324c
    36e4:	b69ff1ef          	jal	gp,0x324c
    36e8:	4030d133          	sra	sp,ra,gp
    36ec:	7931f193          	andi	gp,gp,1939
    36f0:	3a2e10b7          	lui	ra,0x3a2e1
    36f4:	36616093          	ori	ra,sp,870
    36f8:	0010b133          	sltu	sp,ra,ra
    36fc:	b0d34093          	xori	ra,t1,-1267
    3700:	c5608213          	addi	tp,ra,-938 # 0x3a2e0c56
    3704:	7410e093          	ori	ra,ra,1857
    3708:	4010d0b3          	sra	ra,ra,ra
    370c:	3a683697          	auipc	a3,0x3a683
    3710:	002170b3          	and	ra,sp,sp
    3714:	405100b3          	sub	ra,sp,t0
    3718:	0000b233          	sltu	tp,ra,zero
    371c:	0030c133          	xor	sp,ra,gp
    3720:	006351b3          	srl	gp,t1,t1
    3724:	f2466337          	lui	t1,0xf2466
    3728:	ad865117          	auipc	sp,0xad865
    372c:	73724093          	xori	ra,tp,1847
    3730:	a7f17113          	andi	sp,sp,-1409
    3734:	0031a133          	slt	sp,gp,gp
    3738:	47d06313          	ori	t1,zero,1149
    373c:	5c11e313          	ori	t1,gp,1473
    3740:	86320313          	addi	t1,tp,-1949 # 0xffffffffea414863
    3744:	ce7b8017          	auipc	zero,0xce7b8
    3748:	36008113          	addi	sp,ra,864
    374c:	88b1f293          	andi	t0,gp,-1909
    3750:	a76d42b7          	lui	t0,0xa76d4
    3754:	3aee2197          	auipc	gp,0x3aee2
    3758:	5cfc0197          	auipc	gp,0x5cfc0
    375c:	002151b3          	srl	gp,sp,sp
    3760:	0021c1b3          	xor	gp,gp,sp
    3764:	6126c213          	xori	tp,a3,1554
    3768:	0829e117          	auipc	sp,0x829e
    376c:	00000097          	auipc	ra,0x0
    3770:	3b408167          	jalr	sp,948(ra) # 0x3b20
    3774:	f3dc6317          	auipc	t1,0xf3dc6
    3778:	23447317          	auipc	t1,0x23447
    377c:	878ae3b7          	lui	t2,0x878ae
    3780:	2a30a117          	auipc	sp,0x2a30a
    3784:	963ce617          	auipc	a2,0x963ce
    3788:	aac1c113          	xori	sp,gp,-1364
    378c:	ee01f213          	andi	tp,gp,-288
    3790:	08a6f097          	auipc	ra,0x8a6f
    3794:	adebc017          	auipc	zero,0xadebc
    3798:	ed60ca37          	lui	s4,0xed60c
    379c:	00331133          	sll	sp,t1,gp
    37a0:	001132b3          	sltu	t0,sp,ra
    37a4:	0021a333          	slt	t1,gp,sp
    37a8:	40215133          	sra	sp,sp,sp
    37ac:	4030d1b3          	sra	gp,ra,gp
    37b0:	62da11b7          	lui	gp,0x62da1
    37b4:	006050b3          	srl	ra,zero,t1
    37b8:	4090d2b3          	sra	t0,ra,s1
    37bc:	13e1d097          	auipc	ra,0x13e1d
    37c0:	000133b3          	sltu	t2,sp,zero
    37c4:	a2c1d037          	lui	zero,0xa2c1d
    37c8:	402203b3          	sub	t2,tp,sp
    37cc:	41815133          	sra	sp,sp,s8
    37d0:	96416193          	ori	gp,sp,-1692
    37d4:	002071b3          	and	gp,zero,sp
    37d8:	0040d133          	srl	sp,ra,tp
    37dc:	108f9137          	lui	sp,0x108f9
    37e0:	a9d19117          	auipc	sp,0xa9d19
    37e4:	5ec17113          	andi	sp,sp,1516
    37e8:	1280e113          	ori	sp,ra,296
    37ec:	538ba197          	auipc	gp,0x538ba
    37f0:	69b5c137          	lui	sp,0x69b5c
    37f4:	7b935337          	lui	t1,0x7b935
    37f8:	00208263          	beq	ra,sp,0x37fc
    37fc:	cb8ff16f          	jal	sp,0x2cb4
    3800:	ddb28f37          	lui	t5,0xddb28
    3804:	45034097          	auipc	ra,0x45034
    3808:	fd9e6f37          	lui	t5,0xfd9e6
    380c:	44750113          	addi	sp,a0,1095 # 0xffffffffba486447
    3810:	00321133          	sll	sp,tp,gp
    3814:	0040f2b3          	and	t0,ra,tp
    3818:	000173b3          	and	t2,sp,zero
    381c:	da2e6793          	ori	a5,t3,-606
    3820:	cd3830b7          	lui	ra,0xcd383
    3824:	6ba14013          	xori	zero,sp,1722
    3828:	002291b3          	sll	gp,t0,sp
    382c:	00116133          	or	sp,sp,ra
    3830:	6fd25197          	auipc	gp,0x6fd25
    3834:	ddb1c313          	xori	t1,gp,-549
    3838:	ee40c113          	xori	sp,ra,-284
    383c:	98d00097          	auipc	ra,0x98d00
    3840:	77d0e093          	ori	ra,ra,1917
    3844:	08f17193          	andi	gp,sp,143
    3848:	f864e197          	auipc	gp,0xf864e
    384c:	ae442197          	auipc	gp,0xae442
    3850:	c4e46097          	auipc	ra,0xc4e46
    3854:	d5a030b7          	lui	ra,0xd5a03
    3858:	001361b3          	or	gp,t1,ra
    385c:	1630f193          	andi	gp,ra,355
    3860:	b68de117          	auipc	sp,0xb68de
    3864:	09e67093          	andi	ra,a2,158
    3868:	00306ab3          	or	s5,zero,gp
    386c:	25aa61b7          	lui	gp,0x25aa6
    3870:	007343b3          	xor	t2,t1,t2
    3874:	a186b197          	auipc	gp,0xa186b
    3878:	739b4117          	auipc	sp,0x739b4
    387c:	00518263          	beq	gp,t0,0x3880
    3880:	1250016f          	jal	sp,0x41a4
    3884:	00210133          	add	sp,sp,sp
    3888:	003190b3          	sll	ra,gp,gp
    388c:	fb6c7437          	lui	s0,0xfb6c7
    3890:	40cfc237          	lui	tp,0x40cfc
    3894:	000081b3          	add	gp,ra,zero
    3898:	002171b3          	and	gp,sp,sp
    389c:	00f090b3          	sll	ra,ra,a5
    38a0:	dea14193          	xori	gp,sp,-534
    38a4:	5f5d8397          	auipc	t2,0x5f5d8
    38a8:	784e01b7          	lui	gp,0x784e0
    38ac:	98b16093          	ori	ra,sp,-1653
    38b0:	b540f193          	andi	gp,ra,-1196
    38b4:	00116133          	or	sp,sp,ra
    38b8:	f8508093          	addi	ra,ra,-123 # 0xffffffffd5a02f85
    38bc:	0071e1b3          	or	gp,gp,t2
    38c0:	0012c3b3          	xor	t2,t0,ra
    38c4:	66887117          	auipc	sp,0x66887
    38c8:	001150b3          	srl	ra,sp,ra
    38cc:	0042e333          	or	t1,t0,tp
    38d0:	4021d0b3          	sra	ra,gp,sp
    38d4:	56616213          	ori	tp,sp,1382
    38d8:	4ea8f117          	auipc	sp,0x4ea8f
    38dc:	003100b3          	add	ra,sp,gp
    38e0:	93fec1b7          	lui	gp,0x93fec
    38e4:	7ee4d137          	lui	sp,0x7ee4d
    38e8:	b44b0197          	auipc	gp,0xb44b0
    38ec:	c4f53097          	auipc	ra,0xc4f53
    38f0:	001146b3          	xor	a3,sp,ra
    38f4:	40c08333          	sub	t1,ra,a2
    38f8:	fe446217          	auipc	tp,0xfe446
    38fc:	8b136193          	ori	gp,t1,-1871
    3900:	35f82197          	auipc	gp,0x35f82
    3904:	405182b3          	sub	t0,gp,t0
    3908:	0071b0b3          	sltu	ra,gp,t2
    390c:	4421f263          	bgeu	gp,sp,0x3d50
    3910:	4421e063          	bltu	gp,sp,0x3d50
    3914:	ce718293          	addi	t0,gp,-793 # 0x35f855e7
    3918:	9f4ee0b7          	lui	ra,0x9f4ee
    391c:	bc1d3317          	auipc	t1,0xbc1d3
    3920:	c031c137          	lui	sp,0xc031c
    3924:	71016193          	ori	gp,sp,1808
    3928:	c8e14113          	xori	sp,sp,-882
    392c:	dc028193          	addi	gp,t0,-576 # 0xffffffffa76d3dc0
    3930:	092a81b7          	lui	gp,0x92a8
    3934:	af337093          	andi	ra,t1,-1293
    3938:	93848317          	auipc	t1,0x93848
    393c:	0049e233          	or	tp,s3,tp
    3940:	4e083317          	auipc	t1,0x4e083
    3944:	0025c133          	xor	sp,a1,sp
    3948:	01f1f193          	andi	gp,gp,31
    394c:	0090a1b3          	slt	gp,ra,s1
    3950:	00211133          	sll	sp,sp,sp
    3954:	0031c1b3          	xor	gp,gp,gp
    3958:	7e118113          	addi	sp,gp,2017 # 0x92a87e1
    395c:	00d02433          	sgtz	s0,a3
    3960:	b6e6b2b7          	lui	t0,0xb6e6b
    3964:	dd8f42b7          	lui	t0,0xdd8f4
    3968:	cd452097          	auipc	ra,0xcd452
    396c:	004071b3          	and	gp,zero,tp
    3970:	0a828093          	addi	ra,t0,168 # 0xffffffffdd8f40a8
    3974:	40310233          	sub	tp,sp,gp
    3978:	93089197          	auipc	gp,0x93089
    397c:	0193a1b3          	slt	gp,t2,s9
    3980:	0032b133          	sltu	sp,t0,gp
    3984:	e3f0c193          	xori	gp,ra,-449
    3988:	6d053137          	lui	sp,0x6d053
    398c:	3edc60b7          	lui	ra,0x3edc6
    3990:	b05411b7          	lui	gp,0xb0541
    3994:	0011b0b3          	sltu	ra,gp,ra
    3998:	00248263          	beq	s1,sp,0x399c
    399c:	2c5001ef          	jal	gp,0x4460
    39a0:	002131b3          	sltu	gp,sp,sp
    39a4:	002091b3          	sll	gp,ra,sp
    39a8:	c5bf6097          	auipc	ra,0xc5bf6
    39ac:	002111b3          	sll	gp,sp,sp
    39b0:	906b93b7          	lui	t2,0x906b9
    39b4:	b6946097          	auipc	ra,0xb6946
    39b8:	0011a133          	slt	sp,gp,ra
    39bc:	0000d1b3          	srl	gp,ra,zero
    39c0:	4e248117          	auipc	sp,0x4e248
    39c4:	5bff01b7          	lui	gp,0x5bff0
    39c8:	90b68117          	auipc	sp,0x90b68
    39cc:	884680b7          	lui	ra,0x88468
    39d0:	005110b3          	sll	ra,sp,t0
    39d4:	ff2310b7          	lui	ra,0xff231
    39d8:	40415133          	sra	sp,sp,tp
    39dc:	39b09097          	auipc	ra,0x39b09
    39e0:	1e01e817          	auipc	a6,0x1e01e
    39e4:	018681b3          	add	gp,a3,s8
    39e8:	0060a233          	slt	tp,ra,t1
    39ec:	d2cd61b7          	lui	gp,0xd2cd6
    39f0:	95585117          	auipc	sp,0x95585
    39f4:	00518233          	add	tp,gp,t0
    39f8:	44f0f113          	andi	sp,ra,1103
    39fc:	65dd0097          	auipc	ra,0x65dd0
    3a00:	00115133          	srl	sp,sp,ra
    3a04:	20b96097          	auipc	ra,0x20b96
    3a08:	83526097          	auipc	ra,0x83526
    3a0c:	00021733          	sll	a4,tp,zero
    3a10:	003200b3          	add	ra,tp,gp
    3a14:	545d61b7          	lui	gp,0x545d6
    3a18:	7df2a197          	auipc	gp,0x7df2a
    3a1c:	0011c0b3          	xor	ra,gp,ra
    3a20:	57b30263          	beq	t1,s11,0x3f84
    3a24:	560001ef          	jal	gp,0x3f84
    3a28:	0011c133          	xor	sp,gp,ra
    3a2c:	bae65197          	auipc	gp,0xbae65
    3a30:	b82a5137          	lui	sp,0xb82a5
    3a34:	1ed51097          	auipc	ra,0x1ed51
    3a38:	0040e1b3          	or	gp,ra,tp
    3a3c:	0031b0b3          	sltu	ra,gp,gp
    3a40:	0032f333          	and	t1,t0,gp
    3a44:	780a2117          	auipc	sp,0x780a2
    3a48:	c25070b7          	lui	ra,0xc2507
    3a4c:	0015d3b3          	srl	t2,a1,ra
    3a50:	274b4637          	lui	a2,0x274b4
    3a54:	eabb61b7          	lui	gp,0xeabb6
    3a58:	16208013          	addi	zero,ra,354 # 0xffffffffc2507162
    3a5c:	b82e41b7          	lui	gp,0xb82e4
    3a60:	b9f16113          	ori	sp,sp,-1121
    3a64:	40f100b3          	sub	ra,sp,a5
    3a68:	6c01f117          	auipc	sp,0x6c01f
    3a6c:	00516633          	or	a2,sp,t0
    3a70:	0032b033          	sltu	zero,t0,gp
    3a74:	1fb2f317          	auipc	t1,0x1fb2f
    3a78:	c624d197          	auipc	gp,0xc624d
    3a7c:	0010b233          	sltu	tp,ra,ra
    3a80:	001240b3          	xor	ra,tp,ra
    3a84:	000130b3          	sltu	ra,sp,zero
    3a88:	b0e7e137          	lui	sp,0xb0e7e
    3a8c:	bf3050b7          	lui	ra,0xbf305
    3a90:	0030b0b3          	sltu	ra,ra,gp
    3a94:	00216333          	or	t1,sp,sp
    3a98:	d250e0b7          	lui	ra,0xd250e
    3a9c:	0072f133          	and	sp,t0,t2
    3aa0:	40318133          	sub	sp,gp,gp
    3aa4:	00213133          	sltu	sp,sp,sp
    3aa8:	3c115863          	bge	sp,ra,0x3e78
    3aac:	3c114663          	blt	sp,ra,0x3e78
    3ab0:	6a342137          	lui	sp,0x6a342
    3ab4:	0037a0b3          	slt	ra,a5,gp
    3ab8:	1207b037          	lui	zero,0x1207b
    3abc:	0c3251b7          	lui	gp,0xc325
    3ac0:	0041f1b3          	and	gp,gp,tp
    3ac4:	9ce1c213          	xori	tp,gp,-1586
    3ac8:	0061e0b3          	or	ra,gp,t1
    3acc:	002080b3          	add	ra,ra,sp
    3ad0:	134c2097          	auipc	ra,0x134c2
    3ad4:	08d1f113          	andi	sp,gp,141
    3ad8:	0050d1b3          	srl	gp,ra,t0
    3adc:	6b2f61b7          	lui	gp,0x6b2f6
    3ae0:	00413133          	sltu	sp,sp,tp
    3ae4:	0011c333          	xor	t1,gp,ra
    3ae8:	00138033          	add	zero,t2,ra
    3aec:	4010d133          	sra	sp,ra,ra
    3af0:	146f72b7          	lui	t0,0x146f7
    3af4:	28d1e097          	auipc	ra,0x28d1e
    3af8:	0011c3b3          	xor	t2,gp,ra
    3afc:	4ae7d097          	auipc	ra,0x4ae7d
    3b00:	1a31e313          	ori	t1,gp,419
    3b04:	9f00f193          	andi	gp,ra,-1552
    3b08:	cd5b3117          	auipc	sp,0xcd5b3
    3b0c:	2ae723b7          	lui	t2,0x2ae72
    3b10:	e40dc097          	auipc	ra,0xe40dc
    3b14:	67c16a13          	ori	s4,sp,1660
    3b18:	e84154e3          	bge	sp,tp,0x39a0
    3b1c:	e84142e3          	blt	sp,tp,0x39a0
    3b20:	b782e113          	ori	sp,t0,-1160
    3b24:	a05692b7          	lui	t0,0xa0569
    3b28:	c719e0b7          	lui	ra,0xc719e
    3b2c:	042f6017          	auipc	zero,0x42f6
    3b30:	40010133          	sub	sp,sp,zero
    3b34:	001111b3          	sll	gp,sp,ra
    3b38:	2a9dd117          	auipc	sp,0x2a9dd
    3b3c:	006131b3          	sltu	gp,sp,t1
    3b40:	04b381b7          	lui	gp,0x4b38
    3b44:	2d70c313          	xori	t1,ra,727
    3b48:	003692b3          	sll	t0,a3,gp
    3b4c:	0846d297          	auipc	t0,0x846d
    3b50:	1b5f3237          	lui	tp,0x1b5f3
    3b54:	62f0f193          	andi	gp,ra,1583
    3b58:	003120b3          	slt	ra,sp,gp
    3b5c:	84758197          	auipc	gp,0x84758
    3b60:	567a30b7          	lui	ra,0x567a3
    3b64:	42c20137          	lui	sp,0x42c20
    3b68:	a18191b7          	lui	gp,0xa1819
    3b6c:	83099097          	auipc	ra,0x83099
    3b70:	407081b3          	sub	gp,ra,t2
    3b74:	8d30f113          	andi	sp,ra,-1837
    3b78:	d8434113          	xori	sp,t1,-636
    3b7c:	c0ef50b7          	lui	ra,0xc0ef5
    3b80:	0031e2b3          	or	t0,gp,gp
    3b84:	df688337          	lui	t1,0xdf688
    3b88:	0032e033          	or	zero,t0,gp
    3b8c:	ef3031b7          	lui	gp,0xef303
    3b90:	0011a1b3          	slt	gp,gp,ra
    3b94:	9330f113          	andi	sp,ra,-1741
    3b98:	00215eb3          	srl	t4,sp,sp
    3b9c:	002121b3          	slt	gp,sp,sp
    3ba0:	093d6397          	auipc	t2,0x93d6
    3ba4:	400781b3          	sub	gp,a5,zero
    3ba8:	0020e1b3          	or	gp,ra,sp
    3bac:	0011a133          	slt	sp,gp,ra
    3bb0:	001161b3          	or	gp,sp,ra
    3bb4:	1dfd81b7          	lui	gp,0x1dfd8
    3bb8:	e61188e3          	beq	gp,ra,0x3a28
    3bbc:	e6dff16f          	jal	sp,0x3a28
    3bc0:	004147b3          	xor	a5,sp,tp
    3bc4:	9d71e813          	ori	a6,gp,-1577
    3bc8:	002361b3          	or	gp,t1,sp
    3bcc:	0090d0b3          	srl	ra,ra,s1
    3bd0:	47490193          	addi	gp,s2,1140 # 0xffffffffaff46474
    3bd4:	002170b3          	and	ra,sp,sp
    3bd8:	8d81e193          	ori	gp,gp,-1832
    3bdc:	d4da30b7          	lui	ra,0xd4da3
    3be0:	6172b1b7          	lui	gp,0x6172b
    3be4:	0020d333          	srl	t1,ra,sp
    3be8:	434a7137          	lui	sp,0x434a7
    3bec:	bb814093          	xori	ra,sp,-1096
    3bf0:	6646e313          	ori	t1,a3,1636
    3bf4:	00209133          	sll	sp,ra,sp
    3bf8:	0031a0b3          	slt	ra,gp,gp
    3bfc:	006186b3          	add	a3,gp,t1
    3c00:	0031d1b3          	srl	gp,gp,gp
    3c04:	4030d333          	sra	t1,ra,gp
    3c08:	005150b3          	srl	ra,sp,t0
    3c0c:	4b37f097          	auipc	ra,0x4b37f
    3c10:	000090b3          	sll	ra,ra,zero
    3c14:	7bdbf117          	auipc	sp,0x7bdbf
    3c18:	97718117          	auipc	sp,0x97718
    3c1c:	70604193          	xori	gp,zero,1798
    3c20:	006170b3          	and	ra,sp,t1
    3c24:	dd80c093          	xori	ra,ra,-552
    3c28:	406151b3          	sra	gp,sp,t1
    3c2c:	c3c10113          	addi	sp,sp,-964 # 0xffffffff9771b854
    3c30:	28e17313          	andi	t1,sp,654
    3c34:	0010e3b3          	or	t2,ra,ra
    3c38:	f0043117          	auipc	sp,0xf0043
    3c3c:	3ea10217          	auipc	tp,0x3ea10
    3c40:	9dbac097          	auipc	ra,0x9dbac
    3c44:	ea79f2b7          	lui	t0,0xea79f
    3c48:	00020113          	mv	sp,tp
    3c4c:	cc4104e3          	beq	sp,tp,0x3914
    3c50:	e74d4297          	auipc	t0,0xe74d4
    3c54:	003180b3          	add	ra,gp,gp
    3c58:	9120f213          	andi	tp,ra,-1774
    3c5c:	8d636193          	ori	gp,t1,-1834
    3c60:	0031f133          	and	sp,gp,gp
    3c64:	4911a197          	auipc	gp,0x4911a
    3c68:	97d17093          	andi	ra,sp,-1667
    3c6c:	2da68097          	auipc	ra,0x2da68
    3c70:	c4cf3117          	auipc	sp,0xc4cf3
    3c74:	82c0c193          	xori	gp,ra,-2004
    3c78:	00310133          	add	sp,sp,gp
    3c7c:	9a251217          	auipc	tp,0x9a251
    3c80:	c7e35737          	lui	a4,0xc7e35
    3c84:	2eb1f197          	auipc	gp,0x2eb1f
    3c88:	401100b3          	sub	ra,sp,ra
    3c8c:	0a588197          	auipc	gp,0xa588
    3c90:	a1118113          	addi	sp,gp,-1519 # 0xa58b69d
    3c94:	000340b3          	xor	ra,t1,zero
    3c98:	001151b3          	srl	gp,sp,ra
    3c9c:	67ca95b7          	lui	a1,0x67ca9
    3ca0:	75d0e093          	ori	ra,ra,1885
    3ca4:	ed60c013          	xori	zero,ra,-298
    3ca8:	7b2521b7          	lui	gp,0x7b252
    3cac:	0051a233          	slt	tp,gp,t0
    3cb0:	e721f593          	andi	a1,gp,-398
    3cb4:	e0430093          	addi	ra,t1,-508 # 0xffffffffdf687e04
    3cb8:	00008233          	add	tp,ra,zero
    3cbc:	dc7cf217          	auipc	tp,0xdc7cf
    3cc0:	12339663          	bne	t2,gp,0x3dec
    3cc4:	12338463          	beq	t2,gp,0x3dec
    3cc8:	ea404193          	xori	gp,zero,-348
    3ccc:	4062d0b3          	sra	ra,t0,t1
    3cd0:	9fc14193          	xori	gp,sp,-1540
    3cd4:	003111b3          	sll	gp,sp,gp
    3cd8:	c640f093          	andi	ra,ra,-924
    3cdc:	002793b3          	sll	t2,a5,sp
    3ce0:	1961f313          	andi	t1,gp,406
    3ce4:	403151b3          	sra	gp,sp,gp
    3ce8:	0010e0b3          	or	ra,ra,ra
    3cec:	005040b3          	xor	ra,zero,t0
    3cf0:	00317133          	and	sp,sp,gp
    3cf4:	0020c2b3          	xor	t0,ra,sp
    3cf8:	6c4b8397          	auipc	t2,0x6c4b8
    3cfc:	bb615097          	auipc	ra,0xbb615
    3d00:	cf4d10b7          	lui	ra,0xcf4d1
    3d04:	80ba9037          	lui	zero,0x80ba9
    3d08:	2e13f0b7          	lui	ra,0x2e13f
    3d0c:	3584b017          	auipc	zero,0x3584b
    3d10:	42a54097          	auipc	ra,0x42a54
    3d14:	9dae3117          	auipc	sp,0x9dae3
    3d18:	8a4c3137          	lui	sp,0x8a4c3
    3d1c:	001c3133          	sltu	sp,s8,ra
    3d20:	00918133          	add	sp,gp,s1
    3d24:	002130b3          	sltu	ra,sp,sp
    3d28:	e1a06193          	ori	gp,zero,-486
    3d2c:	00218233          	add	tp,gp,sp
    3d30:	f178f0b7          	lui	ra,0xf178f
    3d34:	80517113          	andi	sp,sp,-2043
    3d38:	00316133          	or	sp,sp,gp
    3d3c:	002001b3          	add	gp,zero,sp
    3d40:	00612133          	slt	sp,sp,t1
    3d44:	343a2297          	auipc	t0,0x343a2
    3d48:	3c301463          	bne	zero,gp,0x4110
    3d4c:	3c300263          	beq	zero,gp,0x4110
    3d50:	4020d3b3          	sra	t2,ra,sp
    3d54:	df90f113          	andi	sp,ra,-519
    3d58:	0020d1b3          	srl	gp,ra,sp
    3d5c:	00009233          	sll	tp,ra,zero
    3d60:	8b76e097          	auipc	ra,0x8b76e
    3d64:	4a0ba197          	auipc	gp,0x4a0ba
    3d68:	42b28117          	auipc	sp,0x42b28
    3d6c:	9848b217          	auipc	tp,0x9848b
    3d70:	403280b3          	sub	ra,t0,gp
    3d74:	00236333          	or	t1,t1,sp
    3d78:	10700093          	li	ra,263
    3d7c:	4c1c1117          	auipc	sp,0x4c1c1
    3d80:	b2ffe097          	auipc	ra,0xb2ffe
    3d84:	97e2f0b7          	lui	ra,0x97e2f
    3d88:	6510c093          	xori	ra,ra,1617
    3d8c:	1771e113          	ori	sp,gp,375
    3d90:	2240f317          	auipc	t1,0x2240f
    3d94:	61d2b1b7          	lui	gp,0x61d2b
    3d98:	bb210193          	addi	gp,sp,-1102 # 0x4c1c492e
    3d9c:	001100b3          	add	ra,sp,ra
    3da0:	4010d1b3          	sra	gp,ra,ra
    3da4:	a3a34093          	xori	ra,t1,-1478
    3da8:	a66c30b7          	lui	ra,0xa66c3
    3dac:	0013c333          	xor	t1,t2,ra
    3db0:	db0b31b7          	lui	gp,0xdb0b3
    3db4:	7cd08593          	addi	a1,ra,1997 # 0xffffffffa66c37cd
    3db8:	001311b3          	sll	gp,t1,ra
    3dbc:	001692b3          	sll	t0,a3,ra
    3dc0:	00313133          	sltu	sp,sp,gp
    3dc4:	aa80c193          	xori	gp,ra,-1368
    3dc8:	403106b3          	sub	a3,sp,gp
    3dcc:	8953f113          	andi	sp,t2,-1899
    3dd0:	709be393          	ori	t2,s7,1801
    3dd4:	c082f193          	andi	gp,t0,-1016
    3dd8:	9dc557b7          	lui	a5,0x9dc55
    3ddc:	af8c4317          	auipc	t1,0xaf8c4
    3de0:	ca110193          	addi	gp,sp,-863
    3de4:	00000297          	auipc	t0,0x0
    3de8:	ccc280e7          	jalr	-820(t0) # 0x3ab0
    3dec:	de9500b7          	lui	ra,0xde950
    3df0:	bb0162b7          	lui	t0,0xbb016
    3df4:	e731e193          	ori	gp,gp,-397
    3df8:	266c8797          	auipc	a5,0x266c8
    3dfc:	ad716093          	ori	ra,sp,-1321
    3e00:	00213233          	sltu	tp,sp,sp
    3e04:	0033c133          	xor	sp,t2,gp
    3e08:	00619133          	sll	sp,gp,t1
    3e0c:	96b10093          	addi	ra,sp,-1685
    3e10:	5a4012b7          	lui	t0,0x5a401
    3e14:	0031b0b3          	sltu	ra,gp,gp
    3e18:	ee2c7197          	auipc	gp,0xee2c7
    3e1c:	40318133          	sub	sp,gp,gp
    3e20:	da46d197          	auipc	gp,0xda46d
    3e24:	86d34093          	xori	ra,t1,-1939
    3e28:	9d907193          	andi	gp,zero,-1575
    3e2c:	403150b3          	sra	ra,sp,gp
    3e30:	6d982137          	lui	sp,0x6d982
    3e34:	7a51e117          	auipc	sp,0x7a51e
    3e38:	0000e4b3          	or	s1,ra,zero
    3e3c:	00013133          	sltu	sp,sp,zero
    3e40:	3523e117          	auipc	sp,0x3523e
    3e44:	11dcf137          	lui	sp,0x11dcf
    3e48:	224601b7          	lui	gp,0x22460
    3e4c:	f8b01317          	auipc	t1,0xf8b01
    3e50:	ca76e193          	ori	gp,a3,-857
    3e54:	7f96f037          	lui	zero,0x7f96f
    3e58:	18850113          	addi	sp,a0,392
    3e5c:	b4c4a097          	auipc	ra,0xb4c4a
    3e60:	016130b3          	sltu	ra,sp,s6
    3e64:	56cae017          	auipc	zero,0x56cae
    3e68:	7787b097          	auipc	ra,0x7787b
    3e6c:	48ad52b7          	lui	t0,0x48ad5
    3e70:	00018113          	mv	sp,gp
    3e74:	20310663          	beq	sp,gp,0x4080
    3e78:	0021c3b3          	xor	t2,gp,sp
    3e7c:	403101b3          	sub	gp,sp,gp
    3e80:	001140b3          	xor	ra,sp,ra
    3e84:	0003b1b3          	sltu	gp,t2,zero
    3e88:	da716137          	lui	sp,0xda716
    3e8c:	56cf6097          	auipc	ra,0x56cf6
    3e90:	6876e113          	ori	sp,a3,1671
    3e94:	c371c093          	xori	ra,gp,-969
    3e98:	ea5ab117          	auipc	sp,0xea5ab
    3e9c:	006890b3          	sll	ra,a7,t1
    3ea0:	b1c0f1b7          	lui	gp,0xb1c0f
    3ea4:	c97c1137          	lui	sp,0xc97c1
    3ea8:	00c88d33          	add	s10,a7,a2
    3eac:	0020e133          	or	sp,ra,sp
    3eb0:	c34fe017          	auipc	zero,0xc34fe
    3eb4:	0030a1b3          	slt	gp,ra,gp
    3eb8:	003d5333          	srl	t1,s10,gp
    3ebc:	509441b7          	lui	gp,0x50944
    3ec0:	000381b3          	add	gp,t2,zero
    3ec4:	004322b3          	slt	t0,t1,tp
    3ec8:	bb28c1b7          	lui	gp,0xbb28c
    3ecc:	c45cb2b7          	lui	t0,0xc45cb
    3ed0:	f65f4117          	auipc	sp,0xf65f4
    3ed4:	8bc1c193          	xori	gp,gp,-1860
    3ed8:	77f3e393          	ori	t2,t2,1919
    3edc:	0021c3b3          	xor	t2,gp,sp
    3ee0:	e9928213          	addi	tp,t0,-359 # 0xffffffffc45cae99
    3ee4:	36daa1b7          	lui	gp,0x36daa
    3ee8:	9810fee3          	bgeu	ra,ra,0x3884
    3eec:	9810ece3          	bltu	ra,ra,0x3884
    3ef0:	269af0b7          	lui	ra,0x269af
    3ef4:	d4f0e093          	ori	ra,ra,-689
    3ef8:	98b67297          	auipc	t0,0x98b67
    3efc:	3248f093          	andi	ra,a7,804
    3f00:	0020d0b3          	srl	ra,ra,sp
    3f04:	0010c1b3          	xor	gp,ra,ra
    3f08:	d4a2b137          	lui	sp,0xd4a2b
    3f0c:	00216333          	or	t1,sp,sp
    3f10:	00513133          	sltu	sp,sp,t0
    3f14:	0b9d2137          	lui	sp,0xb9d2
    3f18:	00e0f113          	andi	sp,ra,14
    3f1c:	004181b3          	add	gp,gp,tp
    3f20:	3893c293          	xori	t0,t2,905
    3f24:	110cc037          	lui	zero,0x110cc
    3f28:	ba3ff137          	lui	sp,0xba3ff
    3f2c:	949ff397          	auipc	t2,0x949ff
    3f30:	2a814193          	xori	gp,sp,680
    3f34:	001920b3          	slt	ra,s2,ra
    3f38:	7d1a4117          	auipc	sp,0x7d1a4
    3f3c:	4cf1c193          	xori	gp,gp,1231
    3f40:	00316133          	or	sp,sp,gp
    3f44:	750ef037          	lui	zero,0x750ef
    3f48:	b55ad137          	lui	sp,0xb55ad
    3f4c:	1546c197          	auipc	gp,0x1546c
    3f50:	0050e233          	or	tp,ra,t0
    3f54:	001301b3          	add	gp,t1,ra
    3f58:	26742117          	auipc	sp,0x26742
    3f5c:	007111b3          	sll	gp,sp,t2
    3f60:	0011e1b3          	or	gp,gp,ra
    3f64:	3bb27093          	andi	ra,tp,955
    3f68:	2b2f0197          	auipc	gp,0x2b2f0
    3f6c:	0041d233          	srl	tp,gp,tp
    3f70:	4030d133          	sra	sp,ra,gp
    3f74:	9073f2b7          	lui	t0,0x9073f
    3f78:	60d97097          	auipc	ra,0x60d97
    3f7c:	c42082e3          	beq	ra,sp,0x3bc0
    3f80:	c41ff5ef          	jal	a1,0x3bc0
    3f84:	b23751b7          	lui	gp,0xb2375
    3f88:	bb36a197          	auipc	gp,0xbb36a
    3f8c:	2c61c313          	xori	t1,gp,710
    3f90:	00228ab3          	add	s5,t0,sp
    3f94:	24a62137          	lui	sp,0x24a62
    3f98:	00707113          	andi	sp,zero,7
    3f9c:	407151b3          	sra	gp,sp,t2
    3fa0:	620cf117          	auipc	sp,0x620cf
    3fa4:	93714193          	xori	gp,sp,-1737
    3fa8:	003101b3          	add	gp,sp,gp
    3fac:	d263e193          	ori	gp,t2,-730
    3fb0:	94917293          	andi	t0,sp,-1719
    3fb4:	26a48197          	auipc	gp,0x26a48
    3fb8:	47d0e193          	ori	gp,ra,1149
    3fbc:	afc980b7          	lui	ra,0xafc98
    3fc0:	c1910693          	addi	a3,sp,-999 # 0x620d2bb9
    3fc4:	29f0e093          	ori	ra,ra,671
    3fc8:	523c5117          	auipc	sp,0x523c5
    3fcc:	5b435297          	auipc	t0,0x5b435
    3fd0:	c0510393          	addi	t2,sp,-1019 # 0x523c8bcd
    3fd4:	3f8c3137          	lui	sp,0x3f8c3
    3fd8:	d3036193          	ori	gp,t1,-720
    3fdc:	002171b3          	and	gp,sp,sp
    3fe0:	2a4a7097          	auipc	ra,0x2a4a7
    3fe4:	da630397          	auipc	t2,0xda630
    3fe8:	a10f9197          	auipc	gp,0xa10f9
    3fec:	25474197          	auipc	gp,0x25474
    3ff0:	4de30117          	auipc	sp,0x4de30
    3ff4:	00d11633          	sll	a2,sp,a3
    3ff8:	00b07133          	and	sp,zero,a1
    3ffc:	800182e3          	beqz	gp,0x3800
    4000:	801ff0ef          	jal	ra,0x3800
    4004:	ad6dc097          	auipc	ra,0xad6dc
    4008:	003151b3          	srl	gp,sp,gp
    400c:	33d970b7          	lui	ra,0x33d97
    4010:	00310033          	add	zero,sp,gp
    4014:	ef618197          	auipc	gp,0xef618
    4018:	464a31b7          	lui	gp,0x464a3
    401c:	0050a1b3          	slt	gp,ra,t0
    4020:	003040b3          	xor	ra,zero,gp
    4024:	b9e16193          	ori	gp,sp,-1122
    4028:	03808213          	addi	tp,ra,56 # 0x33d97038
    402c:	2b410113          	addi	sp,sp,692 # 0x4de342a4
    4030:	00336133          	or	sp,t1,gp
    4034:	007291b3          	sll	gp,t0,t2
    4038:	d3a98117          	auipc	sp,0xd3a98
    403c:	68a4b317          	auipc	t1,0x68a4b
    4040:	0010f133          	and	sp,ra,ra
    4044:	002127b3          	slt	a5,sp,sp
    4048:	0016ba33          	sltu	s4,a3,ra
    404c:	ed504013          	xori	zero,zero,-299
    4050:	00332133          	slt	sp,t1,gp
    4054:	0050c133          	xor	sp,ra,t0
    4058:	65d6b197          	auipc	gp,0x65d6b
    405c:	4010d1b3          	sra	gp,ra,ra
    4060:	4030d0b3          	sra	ra,ra,gp
    4064:	25a3ca17          	auipc	s4,0x25a3c
    4068:	001392b3          	sll	t0,t2,ra
    406c:	c4a62117          	auipc	sp,0xc4a62
    4070:	63d14093          	xori	ra,sp,1597
    4074:	78666097          	auipc	ra,0x78666
    4078:	00010093          	mv	ra,sp
    407c:	e6208ae3          	beq	ra,sp,0x3ef0
    4080:	51a75097          	auipc	ra,0x51a75
    4084:	0051d333          	srl	t1,gp,t0
    4088:	5ed3f113          	andi	sp,t2,1517
    408c:	e9293117          	auipc	sp,0xe9293
    4090:	34071197          	auipc	gp,0x34071
    4094:	00512eb3          	slt	t4,sp,t0
    4098:	0051c1b3          	xor	gp,gp,t0
    409c:	65e17997          	auipc	s3,0x65e17
    40a0:	ca35f2b7          	lui	t0,0xca35f
    40a4:	00114133          	xor	sp,sp,ra
    40a8:	31396017          	auipc	zero,0x31396
    40ac:	e3cca097          	auipc	ra,0xe3cca
    40b0:	3d60e113          	ori	sp,ra,982
    40b4:	00119233          	sll	tp,gp,ra
    40b8:	cd5ad697          	auipc	a3,0xcd5ad
    40bc:	c0b2c0b7          	lui	ra,0xc0b2c
    40c0:	57b78197          	auipc	gp,0x57b78
    40c4:	80d24093          	xori	ra,tp,-2035
    40c8:	c960c093          	xori	ra,ra,-874
    40cc:	40615333          	sra	t1,sp,t1
    40d0:	403381b3          	sub	gp,t2,gp
    40d4:	5f15c237          	lui	tp,0x5f15c
    40d8:	402101b3          	sub	gp,sp,sp
    40dc:	0020c133          	xor	sp,ra,sp
    40e0:	27cf3317          	auipc	t1,0x27cf3
    40e4:	e894a117          	auipc	sp,0xe894a
    40e8:	85d9f1b7          	lui	gp,0x85d9f
    40ec:	f3c37337          	lui	t1,0xf3c37
    40f0:	52f18193          	addi	gp,gp,1327 # 0xffffffff85d9f52f
    40f4:	9ea4fb93          	andi	s7,s1,-1558
    40f8:	9b2473b7          	lui	t2,0x9b247
    40fc:	20a0e393          	ori	t2,ra,522
    4100:	0011a1b3          	slt	gp,gp,ra
    4104:	01d180b3          	add	ra,gp,t4
    4108:	bc31f0e3          	bgeu	gp,gp,0x3cc8
    410c:	ba31eee3          	bltu	gp,gp,0x3cc8
    4110:	e9ba4217          	auipc	tp,0xe9ba4
    4114:	7c2d4697          	auipc	a3,0x7c2d4
    4118:	d7e34193          	xori	gp,t1,-642
    411c:	40215233          	sra	tp,sp,sp
    4120:	c833b097          	auipc	ra,0xc833b
    4124:	0030d0b3          	srl	ra,ra,gp
    4128:	e9263997          	auipc	s3,0xe9263
    412c:	de42c117          	auipc	sp,0xde42c
    4130:	74ede017          	auipc	zero,0x74ede
    4134:	89e00093          	li	ra,-1890
    4138:	0031f133          	and	sp,gp,gp
    413c:	73517117          	auipc	sp,0x73517
    4140:	00b1a0b3          	slt	ra,gp,a1
    4144:	001dc133          	xor	sp,s11,ra
    4148:	0023e0b3          	or	ra,t2,sp
    414c:	43876193          	ori	gp,a4,1080
    4150:	00014333          	xor	t1,sp,zero
    4154:	002101b3          	add	gp,sp,sp
    4158:	48c10193          	addi	gp,sp,1164 # 0x7351b5c8
    415c:	0837e137          	lui	sp,0x837e
    4160:	0021a1b3          	slt	gp,gp,sp
    4164:	403151b3          	sra	gp,sp,gp
    4168:	2b824293          	xori	t0,tp,696
    416c:	bda43097          	auipc	ra,0xbda43
    4170:	7760e093          	ori	ra,ra,1910
    4174:	b6ae5137          	lui	sp,0xb6ae5
    4178:	005270b3          	and	ra,tp,t0
    417c:	403181b3          	sub	gp,gp,gp
    4180:	0011e133          	or	sp,gp,ra
    4184:	e3b4d6b7          	lui	a3,0xe3b4d
    4188:	003183b3          	add	t2,gp,gp
    418c:	8fe1f113          	andi	sp,gp,-1794
    4190:	5dd970b7          	lui	ra,0x5dd97
    4194:	0061c1b3          	xor	gp,gp,t1
    4198:	003171b3          	and	gp,sp,gp
    419c:	e66094e3          	bne	ra,t1,0x4004
    41a0:	e66082e3          	beq	ra,t1,0x4004
    41a4:	4f063137          	lui	sp,0x4f063
    41a8:	719ac137          	lui	sp,0x719ac
    41ac:	afb85117          	auipc	sp,0xafb85
    41b0:	403151b3          	sra	gp,sp,gp
    41b4:	99b23117          	auipc	sp,0x99b23
    41b8:	a37c7e97          	auipc	t4,0xa37c7
    41bc:	002311b3          	sll	gp,t1,sp
    41c0:	8f70f093          	andi	ra,ra,-1801
    41c4:	0110f3b3          	and	t2,ra,a7
    41c8:	54a97297          	auipc	t0,0x54a97
    41cc:	47800193          	li	gp,1144
    41d0:	c67050b7          	lui	ra,0xc6705
    41d4:	54bfb1b7          	lui	gp,0x54bfb
    41d8:	b23dc137          	lui	sp,0xb23dc
    41dc:	2f317793          	andi	a5,sp,755
    41e0:	9a636193          	ori	gp,t1,-1626
    41e4:	df7311b7          	lui	gp,0xdf731
    41e8:	c8673137          	lui	sp,0xc8673
    41ec:	5e3fe0b7          	lui	ra,0x5e3fe
    41f0:	00210fb3          	add	t6,sp,sp
    41f4:	00331c33          	sll	s8,t1,gp
    41f8:	6878c117          	auipc	sp,0x6878c
    41fc:	4023d1b3          	sra	gp,t2,sp
    4200:	0020a0b3          	slt	ra,ra,sp
    4204:	b7926093          	ori	ra,tp,-1159
    4208:	00f1a0b3          	slt	ra,gp,a5
    420c:	c6028093          	addi	ra,t0,-928 # 0x54a9ae28
    4210:	41a35133          	sra	sp,t1,s10
    4214:	002180b3          	add	ra,gp,sp
    4218:	407150b3          	sra	ra,sp,t2
    421c:	d2b1c113          	xori	sp,gp,-725
    4220:	00028113          	mv	sp,t0
    4224:	00510263          	beq	sp,t0,0x4228
    4228:	be7ac397          	auipc	t2,0xbe7ac
    422c:	09618093          	addi	ra,gp,150 # 0xffffffffdf731096
    4230:	eb608093          	addi	ra,ra,-330 # 0x5e3fdeb6
    4234:	ba430037          	lui	zero,0xba430
    4238:	6d154137          	lui	sp,0x6d154
    423c:	16808137          	lui	sp,0x16808
    4240:	0011a133          	slt	sp,gp,ra
    4244:	17538193          	addi	gp,t2,373 # 0xffffffffbe7b039d
    4248:	cc9cf297          	auipc	t0,0xcc9cf
    424c:	43f4b317          	auipc	t1,0x43f4b
    4250:	dee73137          	lui	sp,0xdee73
    4254:	09f15a37          	lui	s4,0x9f15
    4258:	0014d133          	srl	sp,s1,ra
    425c:	0030c1b3          	xor	gp,ra,gp
    4260:	ada613b7          	lui	t2,0xada61
    4264:	5682e093          	ori	ra,t0,1384
    4268:	c28b3297          	auipc	t0,0xc28b3
    426c:	0011b333          	sltu	t1,gp,ra
    4270:	f46b9137          	lui	sp,0xf46b9
    4274:	000300b3          	add	ra,t1,zero
    4278:	893be137          	lui	sp,0x893be
    427c:	fa922137          	lui	sp,0xfa922
    4280:	a2be2197          	auipc	gp,0xa2be2
    4284:	83e10193          	addi	gp,sp,-1986 # 0xfffffffffa92183e
    4288:	dcf1f113          	andi	sp,gp,-561
    428c:	403181b3          	sub	gp,gp,gp
    4290:	225a6217          	auipc	tp,0x225a6
    4294:	3290f093          	andi	ra,ra,809
    4298:	4e90e3b7          	lui	t2,0x4e90e
    429c:	1ee3f093          	andi	ra,t2,494
    42a0:	dfe0c093          	xori	ra,ra,-514
    42a4:	3a285237          	lui	tp,0x3a285
    42a8:	9a61d4e3          	bge	gp,t1,0x3c50
    42ac:	9a61c2e3          	blt	gp,t1,0x3c50
    42b0:	002242b3          	xor	t0,tp,sp
    42b4:	211423b7          	lui	t2,0x21142
    42b8:	005140b3          	xor	ra,sp,t0
    42bc:	71bd0197          	auipc	gp,0x71bd0
    42c0:	5b934113          	xori	sp,t1,1465
    42c4:	fe804597          	auipc	a1,0xfe804
    42c8:	00316133          	or	sp,sp,gp
    42cc:	8d30f197          	auipc	gp,0x8d30f
    42d0:	14769137          	lui	sp,0x14769
    42d4:	0011a033          	slt	zero,gp,ra
    42d8:	c6778017          	auipc	zero,0xc6778
    42dc:	0000c0b3          	xor	ra,ra,zero
    42e0:	4948d137          	lui	sp,0x4948d
    42e4:	da262137          	lui	sp,0xda262
    42e8:	ab8fd4b7          	lui	s1,0xab8fd
    42ec:	40215133          	sra	sp,sp,sp
    42f0:	196f9097          	auipc	ra,0x196f9
    42f4:	4331f093          	andi	ra,gp,1075
    42f8:	003101b3          	add	gp,sp,gp
    42fc:	003090b3          	sll	ra,ra,gp
    4300:	4031d1b3          	sra	gp,gp,gp
    4304:	75e1c013          	xori	zero,gp,1886
    4308:	00311233          	sll	tp,sp,gp
    430c:	4021d133          	sra	sp,gp,sp
    4310:	186b61b7          	lui	gp,0x186b6
    4314:	923752b7          	lui	t0,0x92375
    4318:	589c1117          	auipc	sp,0x589c1
    431c:	2f2b71b7          	lui	gp,0x2f2b7
    4320:	bce76197          	auipc	gp,0xbce76
    4324:	c48f0197          	auipc	gp,0xc48f0
    4328:	002151b3          	srl	gp,sp,sp
    432c:	c46ed137          	lui	sp,0xc46ed
    4330:	f5317193          	andi	gp,sp,-173
    4334:	7e4b5317          	auipc	t1,0x7e4b5
    4338:	0011f463          	bgeu	gp,ra,0x4340
    433c:	0011e263          	bltu	gp,ra,0x4340
    4340:	4f51ce93          	xori	t4,gp,1269
    4344:	b5c471b7          	lui	gp,0xb5c47
    4348:	4011d233          	sra	tp,gp,ra
    434c:	f99b01b7          	lui	gp,0xf99b0
    4350:	40e3e197          	auipc	gp,0x40e3e
    4354:	0050f1b3          	and	gp,ra,t0
    4358:	401e8033          	sub	zero,t4,ra
    435c:	9e060197          	auipc	gp,0x9e060
    4360:	d4924137          	lui	sp,0xd4924
    4364:	3d114193          	xori	gp,sp,977
    4368:	abc0c093          	xori	ra,ra,-1348
    436c:	6e075137          	lui	sp,0x6e075
    4370:	2a77ad97          	auipc	s11,0x2a77a
    4374:	d2962137          	lui	sp,0xd2962
    4378:	bf846137          	lui	sp,0xbf846
    437c:	c149c337          	lui	t1,0xc149c
    4380:	d3508113          	addi	sp,ra,-715 # 0x196fd025
    4384:	256ed137          	lui	sp,0x256ed
    4388:	01332033          	slt	zero,t1,s3
    438c:	4e8ba297          	auipc	t0,0x4e8ba
    4390:	ace0f113          	andi	sp,ra,-1330
    4394:	001160b3          	or	ra,sp,ra
    4398:	00d0a1b3          	slt	gp,ra,a3
    439c:	ff7080b7          	lui	ra,0xff708
    43a0:	001270b3          	and	ra,tp,ra
    43a4:	401681b3          	sub	gp,a3,ra
    43a8:	0012a1b3          	slt	gp,t0,ra
    43ac:	3907b197          	auipc	gp,0x3907b
    43b0:	8791ca17          	auipc	s4,0x8791c
    43b4:	0010c033          	xor	zero,ra,ra
    43b8:	37516397          	auipc	t2,0x37516
    43bc:	cdfda1b7          	lui	gp,0xcdfda
    43c0:	f08822b7          	lui	t0,0xf0882
    43c4:	00269133          	sll	sp,a3,sp
    43c8:	00230263          	beq	t1,sp,0x43cc
    43cc:	191000ef          	jal	ra,0x4d5c
    43d0:	89d830b7          	lui	ra,0x89d83
    43d4:	b9c22217          	auipc	tp,0xb9c22
    43d8:	001301b3          	add	gp,t1,ra
    43dc:	0020e133          	or	sp,ra,sp
    43e0:	401082b3          	sub	t0,ra,ra
    43e4:	1d434117          	auipc	sp,0x1d434
    43e8:	4021d1b3          	sra	gp,gp,sp
    43ec:	4f7141b7          	lui	gp,0x4f714
    43f0:	cfa26113          	ori	sp,tp,-774
    43f4:	0020b333          	sltu	t1,ra,sp
    43f8:	23a11117          	auipc	sp,0x23a11
    43fc:	1143e097          	auipc	ra,0x1143e
    4400:	002160b3          	or	ra,sp,sp
    4404:	1e234213          	xori	tp,t1,482
    4408:	01510133          	add	sp,sp,s5
    440c:	bda26137          	lui	sp,0xbda26
    4410:	4031d0b3          	sra	ra,gp,gp
    4414:	92d2c193          	xori	gp,t0,-1747
    4418:	0071b133          	sltu	sp,gp,t2
    441c:	0182c133          	xor	sp,t0,s8
    4420:	fa45b2b7          	lui	t0,0xfa45b
    4424:	089ea0b7          	lui	ra,0x89ea
    4428:	9208d397          	auipc	t2,0x9208d
    442c:	3f147197          	auipc	gp,0x3f147
    4430:	6275c113          	xori	sp,a1,1575
    4434:	f51a3197          	auipc	gp,0xf51a3
    4438:	4021d133          	sra	sp,gp,sp
    443c:	1ab1c193          	xori	gp,gp,427
    4440:	006126b3          	slt	a3,sp,t1
    4444:	0030f133          	and	sp,ra,gp
    4448:	d510e093          	ori	ra,ra,-687
    444c:	71af4037          	lui	zero,0x71af4
    4450:	00315133          	srl	sp,sp,gp
    4454:	009045b3          	xor	a1,zero,s1
    4458:	58125e63          	bge	tp,ra,0x49f4
    445c:	58124c63          	blt	tp,ra,0x49f4
    4460:	0dc9c3b7          	lui	t2,0xdc9c
    4464:	f1b040b7          	lui	ra,0xf1b04
    4468:	c511f313          	andi	t1,gp,-943
    446c:	bf2a36b7          	lui	a3,0xbf2a3
    4470:	57b4d1b7          	lui	gp,0x57b4d
    4474:	0030f133          	and	sp,ra,gp
    4478:	7513e313          	ori	t1,t2,1873
    447c:	00213133          	sltu	sp,sp,sp
    4480:	132e0117          	auipc	sp,0x132e0
    4484:	007492b3          	sll	t0,s1,t2
    4488:	0030d7b3          	srl	a5,ra,gp
    448c:	96836137          	lui	sp,0x96836
    4490:	d8e4a0b7          	lui	ra,0xd8e4a
    4494:	3250c037          	lui	zero,0x3250c
    4498:	006161b3          	or	gp,sp,t1
    449c:	002151b3          	srl	gp,sp,sp
    44a0:	002241b3          	xor	gp,tp,sp
    44a4:	01448117          	auipc	sp,0x1448
    44a8:	a4d15017          	auipc	zero,0xa4d15
    44ac:	002c7333          	and	t1,s8,sp
    44b0:	edd27093          	andi	ra,tp,-291
    44b4:	00797233          	and	tp,s2,t2
    44b8:	402100b3          	sub	ra,sp,sp
    44bc:	00322133          	slt	sp,tp,gp
    44c0:	00016133          	or	sp,sp,zero
    44c4:	b1416093          	ori	ra,sp,-1260
    44c8:	aec611b7          	lui	gp,0xaec61
    44cc:	46b84137          	lui	sp,0x46b84
    44d0:	8613c113          	xori	sp,t2,-1951
    44d4:	ce094137          	lui	sp,0xce094
    44d8:	3a988313          	addi	t1,a7,937 # 0xffffffffbbf353a9
    44dc:	4040d3b3          	sra	t2,ra,tp
    44e0:	6f67e097          	auipc	ra,0x6f67e
    44e4:	00818093          	addi	ra,gp,8 # 0xffffffffaec61008
    44e8:	40d101b3          	sub	gp,sp,a3
    44ec:	286f91b7          	lui	gp,0x286f9
    44f0:	00000117          	auipc	sp,0x0
    44f4:	ee010267          	jalr	tp,-288(sp) # 0x43d0
    44f8:	2470c093          	xori	ra,ra,583
    44fc:	7ec63097          	auipc	ra,0x7ec63
    4500:	b8560137          	lui	sp,0xb8560
    4504:	07dbe217          	auipc	tp,0x7dbe
    4508:	930c2097          	auipc	ra,0x930c2
    450c:	402101b3          	sub	gp,sp,sp
    4510:	0013c0b3          	xor	ra,t2,ra
    4514:	2a328193          	addi	gp,t0,675 # 0xfffffffffa45b2a3
    4518:	9ce1e113          	ori	sp,gp,-1586
    451c:	0031c0b3          	xor	ra,gp,gp
    4520:	0760f213          	andi	tp,ra,118
    4524:	0022b1b3          	sltu	gp,t0,sp
    4528:	0000d133          	srl	sp,ra,zero
    452c:	d511c693          	xori	a3,gp,-687
    4530:	003960b3          	or	ra,s2,gp
    4534:	373f4117          	auipc	sp,0x373f4
    4538:	be85f117          	auipc	sp,0xbe85f
    453c:	29718e93          	addi	t4,gp,663 # 0x286f9297
    4540:	c8f1e113          	ori	sp,gp,-881
    4544:	0012b1b3          	sltu	gp,t0,ra
    4548:	0080b1b3          	sltu	gp,ra,s0
    454c:	0010d133          	srl	sp,ra,ra
    4550:	001131b3          	sltu	gp,sp,ra
    4554:	246e4097          	auipc	ra,0x246e4
    4558:	00116133          	or	sp,sp,ra
    455c:	00301133          	sll	sp,zero,gp
    4560:	6a4b9097          	auipc	ra,0x6a4b9
    4564:	ec71a337          	lui	t1,0xec71a
    4568:	001330b3          	sltu	ra,t1,ra
    456c:	7c9bd2b7          	lui	t0,0x7c9bd
    4570:	5a208e63          	beq	ra,sp,0x4b2c
    4574:	5b80016f          	jal	sp,0x4b2c
    4578:	08710193          	addi	gp,sp,135 # 0xffffffffbe8635bf
    457c:	4062d5b3          	sra	a1,t0,t1
    4580:	0031c1b3          	xor	gp,gp,gp
    4584:	aceb60b7          	lui	ra,0xaceb6
    4588:	0017f033          	and	zero,a5,ra
    458c:	7cbdc117          	auipc	sp,0x7cbdc
    4590:	003157b3          	srl	a5,sp,gp
    4594:	5520c0b7          	lui	ra,0x5520c
    4598:	0053d5b3          	srl	a1,t2,t0
    459c:	c97f7113          	andi	sp,t5,-873
    45a0:	0b217193          	andi	gp,sp,178
    45a4:	f5717013          	andi	zero,sp,-169
    45a8:	60808193          	addi	gp,ra,1544 # 0x5520c608
    45ac:	1fa14193          	xori	gp,sp,506
    45b0:	00314333          	xor	t1,sp,gp
    45b4:	001051b3          	srl	gp,zero,ra
    45b8:	0020d2b3          	srl	t0,ra,sp
    45bc:	9bfa7137          	lui	sp,0x9bfa7
    45c0:	5039f097          	auipc	ra,0x5039f
    45c4:	4f09d117          	auipc	sp,0x4f09d
    45c8:	0023e0b3          	or	ra,t2,sp
    45cc:	00211333          	sll	t1,sp,sp
    45d0:	56920113          	addi	sp,tp,1385 # 0x7dc2a6d
    45d4:	cf7d4593          	xori	a1,s10,-777
    45d8:	dd226713          	ori	a4,tp,-558
    45dc:	15f172b7          	lui	t0,0x15f17
    45e0:	e677d7b7          	lui	a5,0xe677d
    45e4:	c053f037          	lui	zero,0xc053f
    45e8:	fbb30d93          	addi	s11,t1,-69 # 0xffffffffec719fbb
    45ec:	7d95c197          	auipc	gp,0x7d95c
    45f0:	6e910113          	addi	sp,sp,1769 # 0x4f0a1cad
    45f4:	30a0f093          	andi	ra,ra,778
    45f8:	0031b3b3          	sltu	t2,gp,gp
    45fc:	001080b3          	add	ra,ra,ra
    4600:	dfc14493          	xori	s1,sp,-516
    4604:	aa516137          	lui	sp,0xaa516
    4608:	b8917593          	andi	a1,sp,-1143
    460c:	12518393          	addi	t2,gp,293 # 0x7d960711
    4610:	00000117          	auipc	sp,0x0
    4614:	23c100e7          	jalr	572(sp) # 0x484c
    4618:	2ef27113          	andi	sp,tp,751
    461c:	4873a397          	auipc	t2,0x4873a
    4620:	001c61b3          	or	gp,s8,ra
    4624:	003112b3          	sll	t0,sp,gp
    4628:	9321c113          	xori	sp,gp,-1742
    462c:	0067e3b3          	or	t2,a5,t1
    4630:	0071b133          	sltu	sp,gp,t2
    4634:	4563e013          	ori	zero,t2,1110
    4638:	5faa2117          	auipc	sp,0x5faa2
    463c:	4021d233          	sra	tp,gp,sp
    4640:	0035b033          	sltu	zero,a1,gp
    4644:	4eb0c1b7          	lui	gp,0x4eb0c
    4648:	6cd26313          	ori	t1,tp,1741
    464c:	669943b7          	lui	t2,0x66994
    4650:	0001e1b3          	or	gp,gp,zero
    4654:	00403133          	snez	sp,tp
    4658:	0d96a0b7          	lui	ra,0xd96a
    465c:	a9610097          	auipc	ra,0xa9610
    4660:	84a600b7          	lui	ra,0x84a60
    4664:	54c06817          	auipc	a6,0x54c06
    4668:	00b3a1b3          	slt	gp,t2,a1
    466c:	4dff9117          	auipc	sp,0x4dff9
    4670:	250e8117          	auipc	sp,0x250e8
    4674:	90dfe137          	lui	sp,0x90dfe
    4678:	000131b3          	sltu	gp,sp,zero
    467c:	ac3bf093          	andi	ra,s7,-1341
    4680:	005083b3          	add	t2,ra,t0
    4684:	003101b3          	add	gp,sp,gp
    4688:	01511133          	sll	sp,sp,s5
    468c:	53969137          	lui	sp,0x53969
    4690:	0021e133          	or	sp,gp,sp
    4694:	00118333          	add	t1,gp,ra
    4698:	6d07f137          	lui	sp,0x6d07f
    469c:	00325133          	srl	sp,tp,gp
    46a0:	25918593          	addi	a1,gp,601 # 0x4eb0c259
    46a4:	f4bc20b7          	lui	ra,0xf4bc2
    46a8:	00000013          	nop
    46ac:	e40006e3          	beqz	zero,0x44f8
    46b0:	593ce113          	ori	sp,s9,1427
    46b4:	623471b7          	lui	gp,0x62347
    46b8:	40318233          	sub	tp,gp,gp
    46bc:	004170b3          	and	ra,sp,tp
    46c0:	254f9197          	auipc	gp,0x254f9
    46c4:	5e8eb137          	lui	sp,0x5e8eb
    46c8:	00211033          	sll	zero,sp,sp
    46cc:	96b18113          	addi	sp,gp,-1685 # 0x254fd02b
    46d0:	4bf10113          	addi	sp,sp,1215 # 0x5e8eb4bf
    46d4:	36b9c137          	lui	sp,0x36b9c
    46d8:	0030f0b3          	and	ra,ra,gp
    46dc:	0010d233          	srl	tp,ra,ra
    46e0:	1b2da237          	lui	tp,0x1b2da
    46e4:	00a200b3          	add	ra,tp,a0
    46e8:	3dfbd137          	lui	sp,0x3dfbd
    46ec:	25ef71b7          	lui	gp,0x25ef7
    46f0:	d9616193          	ori	gp,sp,-618
    46f4:	87e14113          	xori	sp,sp,-1922
    46f8:	b9916113          	ori	sp,sp,-1127
    46fc:	00211133          	sll	sp,sp,sp
    4700:	e74650b7          	lui	ra,0xe7465
    4704:	0030f1b3          	and	gp,ra,gp
    4708:	6ea65117          	auipc	sp,0x6ea65
    470c:	001080b3          	add	ra,ra,ra
    4710:	001141b3          	xor	gp,sp,ra
    4714:	f8d60193          	addi	gp,a2,-115 # 0x274b3f8d
    4718:	0021d0b3          	srl	ra,gp,sp
    471c:	7eaa3117          	auipc	sp,0x7eaa3
    4720:	42b20093          	addi	ra,tp,1067 # 0x1b2da42b
    4724:	676add37          	lui	s10,0x676ad
    4728:	c441e113          	ori	sp,gp,-956
    472c:	002140b3          	xor	ra,sp,sp
    4730:	09d35137          	lui	sp,0x9d35
    4734:	257cd197          	auipc	gp,0x257cd
    4738:	00008093          	mv	ra,ra
    473c:	58108e63          	beq	ra,ra,0x4cd8
    4740:	f3920197          	auipc	gp,0xf3920
    4744:	40d38233          	sub	tp,t2,a3
    4748:	00186133          	or	sp,a6,ra
    474c:	00413cb3          	sltu	s9,sp,tp
    4750:	ac216093          	ori	ra,sp,-1342
    4754:	fcf2c113          	xori	sp,t0,-49
    4758:	dccef097          	auipc	ra,0xdccef
    475c:	ebecc137          	lui	sp,0xebecc
    4760:	003100b3          	add	ra,sp,gp
    4764:	7e4900b7          	lui	ra,0x7e490
    4768:	42ab5137          	lui	sp,0x42ab5
    476c:	0041d0b3          	srl	ra,gp,tp
    4770:	0042e1b3          	or	gp,t0,tp
    4774:	1490f013          	andi	zero,ra,329
    4778:	0011a3b3          	slt	t2,gp,ra
    477c:	0031c0b3          	xor	ra,gp,gp
    4780:	00320033          	add	zero,tp,gp
    4784:	4021d0b3          	sra	ra,gp,sp
    4788:	b25870b7          	lui	ra,0xb2587
    478c:	4030d1b3          	sra	gp,ra,gp
    4790:	8a0d6197          	auipc	gp,0x8a0d6
    4794:	648aa5b7          	lui	a1,0x648aa
    4798:	78147117          	auipc	sp,0x78147
    479c:	00118133          	add	sp,gp,ra
    47a0:	0020c333          	xor	t1,ra,sp
    47a4:	d8216193          	ori	gp,sp,-638
    47a8:	001082b3          	add	t0,ra,ra
    47ac:	ce0d2c17          	auipc	s8,0xce0d2
    47b0:	acac70b7          	lui	ra,0xacac7
    47b4:	7f035117          	auipc	sp,0x7f035
    47b8:	8f4620b7          	lui	ra,0x8f462
    47bc:	e283c113          	xori	sp,t2,-472
    47c0:	00000317          	auipc	t1,0x0
    47c4:	ef030167          	jalr	sp,-272(t1) # 0x46b0
    47c8:	fe825297          	auipc	t0,0xfe825
    47cc:	0030a1b3          	slt	gp,ra,gp
    47d0:	0026b0b3          	sltu	ra,a3,sp
    47d4:	3ca04097          	auipc	ra,0x3ca04
    47d8:	20344137          	lui	sp,0x20344
    47dc:	6af18113          	addi	sp,gp,1711 # 0xffffffff8a0dae3f
    47e0:	1ba6bc37          	lui	s8,0x1ba6b
    47e4:	57e4d097          	auipc	ra,0x57e4d
    47e8:	402081b3          	sub	gp,ra,sp
    47ec:	f989f097          	auipc	ra,0xf989f
    47f0:	644b31b7          	lui	gp,0x644b3
    47f4:	4cef0117          	auipc	sp,0x4cef0
    47f8:	0021c0b3          	xor	ra,gp,sp
    47fc:	9f01f113          	andi	sp,gp,-1552
    4800:	2c0f1097          	auipc	ra,0x2c0f1
    4804:	1290c1b7          	lui	gp,0x1290c
    4808:	40130133          	sub	sp,t1,ra
    480c:	b20fa097          	auipc	ra,0xb20fa
    4810:	d1fa1117          	auipc	sp,0xd1fa1
    4814:	003132b3          	sltu	t0,sp,gp
    4818:	62118113          	addi	sp,gp,1569 # 0x1290c621
    481c:	14977837          	lui	a6,0x14977
    4820:	76b30137          	lui	sp,0x76b30
    4824:	9114f293          	andi	t0,s1,-1775
    4828:	4030d133          	sra	sp,ra,gp
    482c:	0a318237          	lui	tp,0xa318
    4830:	3a894097          	auipc	ra,0x3a894
    4834:	0036e1b3          	or	gp,a3,gp
    4838:	f3207197          	auipc	gp,0xf3207
    483c:	000b83b3          	add	t2,s7,zero
    4840:	5590b6b7          	lui	a3,0x5590b
    4844:	00200263          	beq	zero,sp,0x4848
    4848:	58d003ef          	jal	t2,0x55d4
    484c:	006172b3          	and	t0,sp,t1
    4850:	ac2dc117          	auipc	sp,0xac2dc
    4854:	0020d0b3          	srl	ra,ra,sp
    4858:	5e914113          	xori	sp,sp,1513
    485c:	003180b3          	add	ra,gp,gp
    4860:	002197b3          	sll	a5,gp,sp
    4864:	af73a497          	auipc	s1,0xaf73a
    4868:	abc66697          	auipc	a3,0xabc66
    486c:	00d15133          	srl	sp,sp,a3
    4870:	6b5f4237          	lui	tp,0x6b5f4
    4874:	0010c133          	xor	sp,ra,ra
    4878:	6907d1b7          	lui	gp,0x6907d
    487c:	b6f0fa13          	andi	s4,ra,-1169
    4880:	0013a2b3          	slt	t0,t2,ra
    4884:	07a34317          	auipc	t1,0x7a34
    4888:	5558d097          	auipc	ra,0x5558d
    488c:	0040c233          	xor	tp,ra,tp
    4890:	4031d133          	sra	sp,gp,gp
    4894:	002151b3          	srl	gp,sp,sp
    4898:	00114133          	xor	sp,sp,ra
    489c:	7204f0b7          	lui	ra,0x7204f
    48a0:	40100233          	neg	tp,ra
    48a4:	c4c17193          	andi	gp,sp,-948
    48a8:	006010b3          	sll	ra,zero,t1
    48ac:	403151b3          	sra	gp,sp,gp
    48b0:	d2161337          	lui	t1,0xd2161
    48b4:	40220133          	sub	sp,tp,sp
    48b8:	2f67d317          	auipc	t1,0x2f67d
    48bc:	0021e1b3          	or	gp,gp,sp
    48c0:	fc310d93          	addi	s11,sp,-61 # 0xffffffffac2e0813
    48c4:	07bc0117          	auipc	sp,0x7bc0
    48c8:	00000193          	li	gp,0
    48cc:	08018e63          	beqz	gp,0x4968
    48d0:	b7808193          	addi	gp,ra,-1160 # 0x7204eb78
    48d4:	7f816193          	ori	gp,sp,2040
    48d8:	00109133          	sll	sp,ra,ra
    48dc:	0031c0b3          	xor	ra,gp,gp
    48e0:	0031b233          	sltu	tp,gp,gp
    48e4:	40210133          	sub	sp,sp,sp
    48e8:	0043f0b3          	and	ra,t2,tp
    48ec:	003110b3          	sll	ra,sp,gp
    48f0:	0025d1b3          	srl	gp,a1,sp
    48f4:	0031c1b3          	xor	gp,gp,gp
    48f8:	99b8d117          	auipc	sp,0x99b8d
    48fc:	a3755197          	auipc	gp,0xa3755
    4900:	e6053297          	auipc	t0,0xe6053
    4904:	d5b9f317          	auipc	t1,0xd5b9f
    4908:	0061e1b3          	or	gp,gp,t1
    490c:	ea016393          	ori	t2,sp,-352
    4910:	f86791b7          	lui	gp,0xf8679
    4914:	b00f8197          	auipc	gp,0xb00f8
    4918:	8c21e113          	ori	sp,gp,-1854
    491c:	40818137          	lui	sp,0x40818
    4920:	32808293          	addi	t0,ra,808
    4924:	cbb27213          	andi	tp,tp,-837
    4928:	55dc31b7          	lui	gp,0x55dc3
    492c:	4c25f037          	lui	zero,0x4c25f
    4930:	29a980b7          	lui	ra,0x29a98
    4934:	0021f1b3          	and	gp,gp,sp
    4938:	0030b3b3          	sltu	t2,ra,gp
    493c:	00259133          	sll	sp,a1,sp
    4940:	a308b037          	lui	zero,0xa308b
    4944:	0032b1b3          	sltu	gp,t0,gp
    4948:	43f08113          	addi	sp,ra,1087 # 0x29a9843f
    494c:	503996b7          	lui	a3,0x50399
    4950:	0030f0b3          	and	ra,ra,gp
    4954:	002190b3          	sll	ra,gp,sp
    4958:	401300b3          	sub	ra,t1,ra
    495c:	1ca2c2b7          	lui	t0,0x1ca2c
    4960:	00008213          	mv	tp,ra
    4964:	2e120663          	beq	tp,ra,0x4c50
    4968:	d4ae6bb7          	lui	s7,0xd4ae6
    496c:	0033c1b3          	xor	gp,t2,gp
    4970:	0010f133          	and	sp,ra,ra
    4974:	9d35e097          	auipc	ra,0x9d35e
    4978:	000161b3          	or	gp,sp,zero
    497c:	792a0097          	auipc	ra,0x792a0
    4980:	d491e193          	ori	gp,gp,-695
    4984:	0020d0b3          	srl	ra,ra,sp
    4988:	0031d333          	srl	t1,gp,gp
    498c:	0c808013          	addi	zero,ra,200 # 0x792a4a44
    4990:	0010b1b3          	sltu	gp,ra,ra
    4994:	d9cdf137          	lui	sp,0xd9cdf
    4998:	40210333          	sub	t1,sp,sp
    499c:	00334ab3          	xor	s5,t1,gp
    49a0:	c8514d93          	xori	s11,sp,-891
    49a4:	4b809237          	lui	tp,0x4b809
    49a8:	0001f133          	and	sp,gp,zero
    49ac:	17e28193          	addi	gp,t0,382 # 0x1ca2c17e
    49b0:	403152b3          	sra	t0,sp,gp
    49b4:	0010c0b3          	xor	ra,ra,ra
    49b8:	4012d233          	sra	tp,t0,ra
    49bc:	0010c133          	xor	sp,ra,ra
    49c0:	6961c593          	xori	a1,gp,1686
    49c4:	2afda1b7          	lui	gp,0x2afda
    49c8:	b3273197          	auipc	gp,0xb3273
    49cc:	06f4c097          	auipc	ra,0x6f4c
    49d0:	00219133          	sll	sp,gp,sp
    49d4:	13078617          	auipc	a2,0x13078
    49d8:	86b44417          	auipc	s0,0x86b44
    49dc:	0001d133          	srl	sp,gp,zero
    49e0:	4529df17          	auipc	t5,0x4529d
    49e4:	401151b3          	sra	gp,sp,ra
    49e8:	9ccd70b7          	lui	ra,0x9ccd7
    49ec:	dc317ee3          	bgeu	sp,gp,0x47c8
    49f0:	dc316ce3          	bltu	sp,gp,0x47c8
    49f4:	65c17093          	andi	ra,sp,1628
    49f8:	e6c460b7          	lui	ra,0xe6c46
    49fc:	b811c237          	lui	tp,0xb811c
    4a00:	49e3e1b7          	lui	gp,0x49e3e
    4a04:	001ce1b3          	or	gp,s9,ra
    4a08:	40308133          	sub	sp,ra,gp
    4a0c:	4f0c13b7          	lui	t2,0x4f0c1
    4a10:	40278333          	sub	t1,a5,sp
    4a14:	8e3db017          	auipc	zero,0x8e3db
    4a18:	d8184337          	lui	t1,0xd8184
    4a1c:	0031f133          	and	sp,gp,gp
    4a20:	402481b3          	sub	gp,s1,sp
    4a24:	cd93f193          	andi	gp,t2,-807
    4a28:	93151117          	auipc	sp,0x93151
    4a2c:	eae0aa37          	lui	s4,0xeae0a
    4a30:	57ba6337          	lui	t1,0x57ba6
    4a34:	fdd1e693          	ori	a3,gp,-35
    4a38:	16a14113          	xori	sp,sp,362
    4a3c:	3aee71b7          	lui	gp,0x3aee7
    4a40:	4020d0b3          	sra	ra,ra,sp
    4a44:	002130b3          	sltu	ra,sp,sp
    4a48:	cf75b4b7          	lui	s1,0xcf75b
    4a4c:	0033b1b3          	sltu	gp,t2,gp
    4a50:	f0e0e193          	ori	gp,ra,-242
    4a54:	ec300113          	li	sp,-317
    4a58:	ce364137          	lui	sp,0xce364
    4a5c:	0010f0b3          	and	ra,ra,ra
    4a60:	2761f193          	andi	gp,gp,630
    4a64:	43f14093          	xori	ra,sp,1087
    4a68:	00308133          	add	sp,ra,gp
    4a6c:	1fc0c093          	xori	ra,ra,508
    4a70:	17134137          	lui	sp,0x17134
    4a74:	5f6d80b7          	lui	ra,0x5f6d8
    4a78:	8f0eb0b7          	lui	ra,0x8f0eb
    4a7c:	b787f217          	auipc	tp,0xb787f
    4a80:	0001c0b3          	xor	ra,gp,zero
    4a84:	82d8d1b7          	lui	gp,0x82d8d
    4a88:	ac24a137          	lui	sp,0xac24a
    4a8c:	401103b3          	sub	t2,sp,ra
    4a90:	b240f793          	andi	a5,ra,-1244
    4a94:	0010f463          	bgeu	ra,ra,0x4a9c
    4a98:	0010e263          	bltu	ra,ra,0x4a9c
    4a9c:	612fa1b7          	lui	gp,0x612fa
    4aa0:	ab606793          	ori	a5,zero,-1354
    4aa4:	6b966097          	auipc	ra,0x6b966
    4aa8:	fed56197          	auipc	gp,0xfed56
    4aac:	79414093          	xori	ra,sp,1940
    4ab0:	612b8117          	auipc	sp,0x612b8
    4ab4:	2ef7b4b7          	lui	s1,0x2ef7b
    4ab8:	3fd43037          	lui	zero,0x3fd43
    4abc:	47c10193          	addi	gp,sp,1148 # 0x612bcf2c
    4ac0:	35c0c193          	xori	gp,ra,860
    4ac4:	60f55397          	auipc	t2,0x60f55
    4ac8:	22a4a197          	auipc	gp,0x22a4a
    4acc:	f392a017          	auipc	zero,0xf392a
    4ad0:	622b1037          	lui	zero,0x622b1
    4ad4:	0d228117          	auipc	sp,0xd228
    4ad8:	0030a0b3          	slt	ra,ra,gp
    4adc:	168eb097          	auipc	ra,0x168eb
    4ae0:	81c18013          	addi	zero,gp,-2020 # 0x22a4e2e4
    4ae4:	0062c1b3          	xor	gp,t0,t1
    4ae8:	a6316193          	ori	gp,sp,-1437
    4aec:	0001b333          	sltu	t1,gp,zero
    4af0:	00103133          	snez	sp,ra
    4af4:	bd1cf017          	auipc	zero,0xbd1cf
    4af8:	0141deb3          	srl	t4,gp,s4
    4afc:	40110033          	sub	zero,sp,ra
    4b00:	0011a1b3          	slt	gp,gp,ra
    4b04:	50173197          	auipc	gp,0x50173
    4b08:	0011c333          	xor	t1,gp,ra
    4b0c:	002111b3          	sll	gp,sp,sp
    4b10:	310321b7          	lui	gp,0x31032
    4b14:	b4cb3117          	auipc	sp,0xb4cb3
    4b18:	4071d233          	sra	tp,gp,t2
    4b1c:	76818113          	addi	sp,gp,1896 # 0x31032768
    4b20:	e081c193          	xori	gp,gp,-504
    4b24:	00000097          	auipc	ra,0x0
    4b28:	0a0081e7          	jalr	gp,160(ra) # 0x4bc4
    4b2c:	dc430113          	addi	sp,t1,-572 # 0x57ba5dc4
    4b30:	50f201b7          	lui	gp,0x50f20
    4b34:	a4654197          	auipc	gp,0xa4654
    4b38:	40015133          	sra	sp,sp,zero
    4b3c:	40408133          	sub	sp,ra,tp
    4b40:	0011f2b3          	and	t0,gp,ra
    4b44:	5542f097          	auipc	ra,0x5542f
    4b48:	51428113          	addi	sp,t0,1300
    4b4c:	006092b3          	sll	t0,ra,t1
    4b50:	88e17193          	andi	gp,sp,-1906
    4b54:	ef4b40b7          	lui	ra,0xef4b4
    4b58:	0011c133          	xor	sp,gp,ra
    4b5c:	af8ccbb7          	lui	s7,0xaf8cc
    4b60:	87d14193          	xori	gp,sp,-1923
    4b64:	fc10e193          	ori	gp,ra,-63
    4b68:	4010d133          	sra	sp,ra,ra
    4b6c:	b1e6d197          	auipc	gp,0xb1e6d
    4b70:	40318433          	sub	s0,gp,gp
    4b74:	406253b3          	sra	t2,tp,t1
    4b78:	5821d1b7          	lui	gp,0x5821d
    4b7c:	007180b3          	add	ra,gp,t2
    4b80:	12d9c417          	auipc	s0,0x12d9c
    4b84:	fbbbf197          	auipc	gp,0xfbbbf
    4b88:	7a10f493          	andi	s1,ra,1953
    4b8c:	40408c33          	sub	s8,ra,tp
    4b90:	0053a1b3          	slt	gp,t2,t0
    4b94:	00317133          	and	sp,sp,gp
    4b98:	a681a337          	lui	t1,0xa681a
    4b9c:	e8117113          	andi	sp,sp,-383
    4ba0:	4017d133          	sra	sp,a5,ra
    4ba4:	000101b3          	add	gp,sp,zero
    4ba8:	894a6337          	lui	t1,0x894a6
    4bac:	7d7ec037          	lui	zero,0x7d7ec
    4bb0:	40108133          	sub	sp,ra,ra
    4bb4:	b8f20097          	auipc	ra,0xb8f20
    4bb8:	8d424137          	lui	sp,0x8d424
    4bbc:	9a215ee3          	bge	sp,sp,0x4578
    4bc0:	9a214ce3          	blt	sp,sp,0x4578
    4bc4:	00313333          	sltu	t1,sp,gp
    4bc8:	001101b3          	add	gp,sp,ra
    4bcc:	12ca9117          	auipc	sp,0x12ca9
    4bd0:	403151b3          	sra	gp,sp,gp
    4bd4:	054d7117          	auipc	sp,0x54d7
    4bd8:	65118293          	addi	t0,gp,1617 # 0xfffffffffbbc41d5
    4bdc:	403180b3          	sub	ra,gp,gp
    4be0:	2ddc31b7          	lui	gp,0x2ddc3
    4be4:	feaa4193          	xori	gp,s4,-22
    4be8:	6d141197          	auipc	gp,0x6d141
    4bec:	b6310193          	addi	gp,sp,-1181 # 0x54db737
    4bf0:	0033b1b3          	sltu	gp,t2,gp
    4bf4:	00b0b133          	sltu	sp,ra,a1
    4bf8:	007320b3          	slt	ra,t1,t2
    4bfc:	0110c233          	xor	tp,ra,a7
    4c00:	003980b3          	add	ra,s3,gp
    4c04:	001111b3          	sll	gp,sp,ra
    4c08:	c64c6137          	lui	sp,0xc64c6
    4c0c:	4b67f093          	andi	ra,a5,1206
    4c10:	d61e20b7          	lui	ra,0xd61e2
    4c14:	4022d1b3          	sra	gp,t0,sp
    4c18:	00c0b0b3          	sltu	ra,ra,a2
    4c1c:	3cbbd097          	auipc	ra,0x3cbbd
    4c20:	c7317113          	andi	sp,sp,-909
    4c24:	da404317          	auipc	t1,0xda404
    4c28:	f355a097          	auipc	ra,0xf355a
    4c2c:	403cf137          	lui	sp,0x403cf
    4c30:	4571e193          	ori	gp,gp,1111
    4c34:	0010d1b3          	srl	gp,ra,ra
    4c38:	26c98097          	auipc	ra,0x26c98
    4c3c:	0020f0b3          	and	ra,ra,sp
    4c40:	0b511197          	auipc	gp,0xb511
    4c44:	0060e5b3          	or	a1,ra,t1
    4c48:	00030193          	mv	gp,t1
    4c4c:	c86182e3          	beq	gp,t1,0x48d0
    4c50:	eb90c093          	xori	ra,ra,-327
    4c54:	415153b3          	sra	t2,sp,s5
    4c58:	001180b3          	add	ra,gp,ra
    4c5c:	3d72c113          	xori	sp,t0,983
    4c60:	001126b3          	slt	a3,sp,ra
    4c64:	e270c193          	xori	gp,ra,-473
    4c68:	00119133          	sll	sp,gp,ra
    4c6c:	70c291b7          	lui	gp,0x70c29
    4c70:	00219233          	sll	tp,gp,sp
    4c74:	002072b3          	and	t0,zero,sp
    4c78:	6894a217          	auipc	tp,0x6894a
    4c7c:	bc24d117          	auipc	sp,0xbc24d
    4c80:	b563e1b7          	lui	gp,0xb563e
    4c84:	9ff9c117          	auipc	sp,0x9ff9c
    4c88:	00114333          	xor	t1,sp,ra
    4c8c:	70cd7113          	andi	sp,s10,1804
    4c90:	02b16113          	ori	sp,sp,43
    4c94:	9366b197          	auipc	gp,0x9366b
    4c98:	2e2b92b7          	lui	t0,0x2e2b9
    4c9c:	004151b3          	srl	gp,sp,tp
    4ca0:	00118133          	add	sp,gp,ra
    4ca4:	0c271097          	auipc	ra,0xc271
    4ca8:	0030f1b3          	and	gp,ra,gp
    4cac:	b9b14093          	xori	ra,sp,-1125
    4cb0:	0025b033          	sltu	zero,a1,sp
    4cb4:	4307d6b7          	lui	a3,0x4307d
    4cb8:	40a481b3          	sub	gp,s1,a0
    4cbc:	00119133          	sll	sp,gp,ra
    4cc0:	003271b3          	and	gp,tp,gp
    4cc4:	007010b3          	sll	ra,zero,t2
    4cc8:	00219133          	sll	sp,gp,sp
    4ccc:	6ca17093          	andi	ra,sp,1738
    4cd0:	00178263          	beq	a5,ra,0x4cd4
    4cd4:	ddcff66f          	jal	a2,0x42b0
    4cd8:	eb50c097          	auipc	ra,0xeb50c
    4cdc:	b8a30113          	addi	sp,t1,-1142 # 0xffffffffda4087ae
    4ce0:	a8cab1b7          	lui	gp,0xa8cab
    4ce4:	4011d0b3          	sra	ra,gp,ra
    4ce8:	402100b3          	sub	ra,sp,sp
    4cec:	08e1c097          	auipc	ra,0x8e1c
    4cf0:	0031f133          	and	sp,gp,gp
    4cf4:	0032a0b3          	slt	ra,t0,gp
    4cf8:	0031d0b3          	srl	ra,gp,gp
    4cfc:	6dd14193          	xori	gp,sp,1757
    4d00:	bead7097          	auipc	ra,0xbead7
    4d04:	0c058137          	lui	sp,0xc058
    4d08:	001380b3          	add	ra,t2,ra
    4d0c:	e4949117          	auipc	sp,0xe4949
    4d10:	00017133          	and	sp,sp,zero
    4d14:	0061f1b3          	and	gp,gp,t1
    4d18:	af224137          	lui	sp,0xaf224
    4d1c:	f51160b7          	lui	ra,0xf5116
    4d20:	00119133          	sll	sp,gp,ra
    4d24:	df30c093          	xori	ra,ra,-525
    4d28:	7c1d1137          	lui	sp,0x7c1d1
    4d2c:	e26aa197          	auipc	gp,0xe26aa
    4d30:	e9df0237          	lui	tp,0xe9df0
    4d34:	8fcbe337          	lui	t1,0x8fcbe
    4d38:	003320b3          	slt	ra,t1,gp
    4d3c:	50814193          	xori	gp,sp,1288
    4d40:	7f191d97          	auipc	s11,0x7f191
    4d44:	5a2a4137          	lui	sp,0x5a2a4
    4d48:	4011d1b3          	sra	gp,gp,ra
    4d4c:	94db53b7          	lui	t2,0x94db5
    4d50:	8dc8f0b7          	lui	ra,0x8dc8f
    4d54:	8c2172e3          	bgeu	sp,sp,0x4618
    4d58:	8c2160e3          	bltu	sp,sp,0x4618
    4d5c:	e9c28093          	addi	ra,t0,-356 # 0x2e2b8e9c
    4d60:	99614093          	xori	ra,sp,-1642
    4d64:	0051c1b3          	xor	gp,gp,t0
    4d68:	403102b3          	sub	t0,sp,gp
    4d6c:	c86c5117          	auipc	sp,0xc86c5
    4d70:	9a696117          	auipc	sp,0x9a696
    4d74:	0061e1b3          	or	gp,gp,t1
    4d78:	33a1c193          	xori	gp,gp,826
    4d7c:	002697b3          	sll	a5,a3,sp
    4d80:	a47d9e17          	auipc	t3,0xa47d9
    4d84:	bc707213          	andi	tp,zero,-1081
    4d88:	004001b3          	add	gp,zero,tp
    4d8c:	00028333          	add	t1,t0,zero
    4d90:	9520f117          	auipc	sp,0x9520f
    4d94:	000090b3          	sll	ra,ra,zero
    4d98:	fb6d5337          	lui	t1,0xfb6d5
    4d9c:	0001c0b3          	xor	ra,gp,zero
    4da0:	402388b3          	sub	a7,t2,sp
    4da4:	6d5a91b7          	lui	gp,0x6d5a9
    4da8:	8fb1f393          	andi	t2,gp,-1797
    4dac:	40130033          	sub	zero,t1,ra
    4db0:	47f08113          	addi	sp,ra,1151 # 0xffffffff8dc8f47f
    4db4:	79f1e313          	ori	t1,gp,1951
    4db8:	403080b3          	sub	ra,ra,gp
    4dbc:	f5da1137          	lui	sp,0xf5da1
    4dc0:	44350097          	auipc	ra,0x44350
    4dc4:	f6895197          	auipc	gp,0xf6895
    4dc8:	90014113          	xori	sp,sp,-1792
    4dcc:	772130b7          	lui	ra,0x77213
    4dd0:	19f16193          	ori	gp,sp,415
    4dd4:	4b516197          	auipc	gp,0x4b516
    4dd8:	961104e3          	beq	sp,ra,0x4740
    4ddc:	965ff1ef          	jal	gp,0x4740
    4de0:	4ac73117          	auipc	sp,0x4ac73
    4de4:	5e016193          	ori	gp,sp,1504
    4de8:	8fee03b7          	lui	t2,0x8fee0
    4dec:	003130b3          	sltu	ra,sp,gp
    4df0:	402152b3          	sra	t0,sp,sp
    4df4:	4021d233          	sra	tp,gp,sp
    4df8:	406100b3          	sub	ra,sp,t1
    4dfc:	92ca00b7          	lui	ra,0x92ca0
    4e00:	6f1d1137          	lui	sp,0x6f1d1
    4e04:	b2c5f117          	auipc	sp,0xb2c5f
    4e08:	0f7661b7          	lui	gp,0xf766
    4e0c:	08718293          	addi	t0,gp,135 # 0xf766087
    4e10:	0020a0b3          	slt	ra,ra,sp
    4e14:	00114533          	xor	a0,sp,ra
    4e18:	405a00b3          	sub	ra,s4,t0
    4e1c:	00317133          	and	sp,sp,gp
    4e20:	4031d0b3          	sra	ra,gp,gp
    4e24:	c7652997          	auipc	s3,0xc7652
    4e28:	9b41f113          	andi	sp,gp,-1612
    4e2c:	8aa32137          	lui	sp,0x8aa32
    4e30:	b49191b7          	lui	gp,0xb4919
    4e34:	40205133          	sra	sp,zero,sp
    4e38:	e390c193          	xori	gp,ra,-455
    4e3c:	0061a133          	slt	sp,gp,t1
    4e40:	4060d1b3          	sra	gp,ra,t1
    4e44:	d351c237          	lui	tp,0xd351c
    4e48:	08c11037          	lui	zero,0x8c11
    4e4c:	401151b3          	sra	gp,sp,ra
    4e50:	7daa00b7          	lui	ra,0x7daa0
    4e54:	86197217          	auipc	tp,0x86197
    4e58:	00317133          	and	sp,sp,gp
    4e5c:	47833197          	auipc	gp,0x47833
    4e60:	1580b337          	lui	t1,0x1580b
    4e64:	0878a0b7          	lui	ra,0x878a
    4e68:	64038863          	beqz	t2,0x54b8
    4e6c:	64c001ef          	jal	gp,0x54b8
    4e70:	2ab57117          	auipc	sp,0x2ab57
    4e74:	dab08513          	addi	a0,ra,-597 # 0x8789dab
    4e78:	40310133          	sub	sp,sp,gp
    4e7c:	38bd0117          	auipc	sp,0x38bd0
    4e80:	0001ffb3          	and	t6,gp,zero
    4e84:	c7a16193          	ori	gp,sp,-902
    4e88:	f1daa237          	lui	tp,0xf1daa
    4e8c:	019adab3          	srl	s5,s5,s9
    4e90:	1970c193          	xori	gp,ra,407
    4e94:	c3814193          	xori	gp,sp,-968
    4e98:	1a69e137          	lui	sp,0x1a69e
    4e9c:	9332c1b7          	lui	gp,0x9332c
    4ea0:	0001f033          	and	zero,gp,zero
    4ea4:	f850e113          	ori	sp,ra,-123
    4ea8:	7dd56017          	auipc	zero,0x7dd56
    4eac:	00d0e7b3          	or	a5,ra,a3
    4eb0:	41a7b1b7          	lui	gp,0x41a7b
    4eb4:	0043d133          	srl	sp,t2,tp
    4eb8:	4d32f1b7          	lui	gp,0x4d32f
    4ebc:	5c0a5197          	auipc	gp,0x5c0a5
    4ec0:	b9f08193          	addi	gp,ra,-1121
    4ec4:	f5d4f037          	lui	zero,0xf5d4f
    4ec8:	b6f68193          	addi	gp,a3,-1169 # 0x4307cb6f
    4ecc:	ce5040b7          	lui	ra,0xce504
    4ed0:	0150e1b3          	or	gp,ra,s5
    4ed4:	a02ec117          	auipc	sp,0xa02ec
    4ed8:	001140b3          	xor	ra,sp,ra
    4edc:	ec91c593          	xori	a1,gp,-311
    4ee0:	00109233          	sll	tp,ra,ra
    4ee4:	c7e1f193          	andi	gp,gp,-898
    4ee8:	00203233          	snez	tp,sp
    4eec:	1bf22137          	lui	sp,0x1bf22
    4ef0:	0011a4b3          	slt	s1,gp,ra
    4ef4:	98b17293          	andi	t0,sp,-1653
    4ef8:	7e278c63          	beq	a5,sp,0x56f0
    4efc:	7f4001ef          	jal	gp,0x56f0
    4f00:	d9de1117          	auipc	sp,0xd9de1
    4f04:	c5c49137          	lui	sp,0xc5c49
    4f08:	42f9c097          	auipc	ra,0x42f9c
    4f0c:	002130b3          	sltu	ra,sp,sp
    4f10:	402151b3          	sra	gp,sp,sp
    4f14:	003197b3          	sll	a5,gp,gp
    4f18:	d2507097          	auipc	ra,0xd2507
    4f1c:	a543d2b7          	lui	t0,0xa543d
    4f20:	47336113          	ori	sp,t1,1139
    4f24:	402580b3          	sub	ra,a1,sp
    4f28:	a6d51237          	lui	tp,0xa6d51
    4f2c:	40408233          	sub	tp,ra,tp
    4f30:	13189097          	auipc	ra,0x13189
    4f34:	07b45237          	lui	tp,0x7b45
    4f38:	b8810137          	lui	sp,0xb8810
    4f3c:	38214213          	xori	tp,sp,898
    4f40:	40d10133          	sub	sp,sp,a3
    4f44:	5a4c8317          	auipc	t1,0x5a4c8
    4f48:	40430333          	sub	t1,t1,tp
    4f4c:	003191b3          	sll	gp,gp,gp
    4f50:	00d120b3          	slt	ra,sp,a3
    4f54:	4030d1b3          	sra	gp,ra,gp
    4f58:	00f0e0b3          	or	ra,ra,a5
    4f5c:	1181c113          	xori	sp,gp,280
    4f60:	0030c133          	xor	sp,ra,gp
    4f64:	64a04093          	xori	ra,zero,1610
    4f68:	01709133          	sll	sp,ra,s7
    4f6c:	066b3097          	auipc	ra,0x66b3
    4f70:	4067d1b3          	sra	gp,a5,t1
    4f74:	00009133          	sll	sp,ra,zero
    4f78:	fd2ef217          	auipc	tp,0xfd2ef
    4f7c:	f6073197          	auipc	gp,0xf6073
    4f80:	0190b233          	sltu	tp,ra,s9
    4f84:	fc210393          	addi	t2,sp,-62 # 0xffffffffb880ffc2
    4f88:	0001f0b3          	and	ra,gp,zero
    4f8c:	5bf0a1b7          	lui	gp,0x5bf0a
    4f90:	00008313          	mv	t1,ra
    4f94:	26130063          	beq	t1,ra,0x51f4
    4f98:	0010e0b3          	or	ra,ra,ra
    4f9c:	b6a34197          	auipc	gp,0xb6a34
    4fa0:	f79bd237          	lui	tp,0xf79bd
    4fa4:	8d46e197          	auipc	gp,0x8d46e
    4fa8:	13914093          	xori	ra,sp,313
    4fac:	35a51137          	lui	sp,0x35a51
    4fb0:	00219133          	sll	sp,gp,sp
    4fb4:	6f49d197          	auipc	gp,0x6f49d
    4fb8:	403180b3          	sub	ra,gp,gp
    4fbc:	7e5cd217          	auipc	tp,0x7e5cd
    4fc0:	00018833          	add	a6,gp,zero
    4fc4:	002171b3          	and	gp,sp,sp
    4fc8:	3bd08093          	addi	ra,ra,957 # 0x66b8329
    4fcc:	6d45a117          	auipc	sp,0x6d45a
    4fd0:	5f2b9117          	auipc	sp,0x5f2b9
    4fd4:	ce00e293          	ori	t0,ra,-800
    4fd8:	00311333          	sll	t1,sp,gp
    4fdc:	a74ad0b7          	lui	ra,0xa74ad
    4fe0:	4010d133          	sra	sp,ra,ra
    4fe4:	002150b3          	srl	ra,sp,sp
    4fe8:	9cc1f093          	andi	ra,gp,-1588
    4fec:	025747b7          	lui	a5,0x2574
    4ff0:	00c15133          	srl	sp,sp,a2
    4ff4:	0001d0b3          	srl	ra,gp,zero
    4ff8:	17bc83b7          	lui	t2,0x17bc8
    4ffc:	18e880b7          	lui	ra,0x18e88
    5000:	d38e4137          	lui	sp,0xd38e4
    5004:	01aa9337          	lui	t1,0x1aa9
    5008:	58634393          	xori	t2,t1,1414
    500c:	40518333          	sub	t1,gp,t0
    5010:	a720f113          	andi	sp,ra,-1422
    5014:	c0914113          	xori	sp,sp,-1015
    5018:	89010193          	addi	gp,sp,-1904 # 0xffffffffd38e3890
    501c:	e199d0b7          	lui	ra,0xe199d
    5020:	87920293          	addi	t0,tp,-1927 # 0x7e5d1835
    5024:	0011d1b3          	srl	gp,gp,ra
    5028:	001152b3          	srl	t0,sp,ra
    502c:	00200263          	beq	zero,sp,0x5030
    5030:	7b1000ef          	jal	ra,0x5fe0
    5034:	fecb6797          	auipc	a5,0xfecb6
    5038:	005191b3          	sll	gp,gp,t0
    503c:	91cd3317          	auipc	t1,0x91cd3
    5040:	00116133          	or	sp,sp,ra
    5044:	41f37097          	auipc	ra,0x41f37
    5048:	5eb08193          	addi	gp,ra,1515 # 0x41f3c62f
    504c:	98bcf293          	andi	t0,s9,-1653
    5050:	9c2172b7          	lui	t0,0x9c217
    5054:	40418133          	sub	sp,gp,tp
    5058:	b1415117          	auipc	sp,0xb1415
    505c:	51da7237          	lui	tp,0x51da7
    5060:	cbc87017          	auipc	zero,0xcbc87
    5064:	2a82f393          	andi	t2,t0,680
    5068:	a1d13197          	auipc	gp,0xa1d13
    506c:	49e52137          	lui	sp,0x49e52
    5070:	e001e093          	ori	ra,gp,-512
    5074:	7ecce137          	lui	sp,0x7ecce
    5078:	b531c113          	xori	sp,gp,-1197
    507c:	8665c017          	auipc	zero,0x8665c
    5080:	003471b3          	and	gp,s0,gp
    5084:	0341c193          	xori	gp,gp,52
    5088:	a0b51237          	lui	tp,0xa0b51
    508c:	67c100b7          	lui	ra,0x67c10
    5090:	49416193          	ori	gp,sp,1172
    5094:	0d406117          	auipc	sp,0xd406
    5098:	e870f093          	andi	ra,ra,-377
    509c:	f7081097          	auipc	ra,0xf7081
    50a0:	0046d133          	srl	sp,a3,tp
    50a4:	4f5390b7          	lui	ra,0x4f539
    50a8:	526d7117          	auipc	sp,0x526d7
    50ac:	5362c097          	auipc	ra,0x5362c
    50b0:	0052a2b3          	slt	t0,t0,t0
    50b4:	d22086e3          	beq	ra,sp,0x4de0
    50b8:	d29ff1ef          	jal	gp,0x4de0
    50bc:	001090b3          	sll	ra,ra,ra
    50c0:	23327137          	lui	sp,0x23327
    50c4:	98f0f097          	auipc	ra,0x98f0f
    50c8:	0021a5b3          	slt	a1,gp,sp
    50cc:	d2f0c193          	xori	gp,ra,-721
    50d0:	b4406237          	lui	tp,0xb4406
    50d4:	0021a1b3          	slt	gp,gp,sp
    50d8:	007130b3          	sltu	ra,sp,t2
    50dc:	401088b3          	sub	a7,ra,ra
    50e0:	97bba337          	lui	t1,0x97bba
    50e4:	006190b3          	sll	ra,gp,t1
    50e8:	003081b3          	add	gp,ra,gp
    50ec:	4011d133          	sra	sp,gp,ra
    50f0:	00627133          	and	sp,tp,t1
    50f4:	e31ec0b7          	lui	ra,0xe31ec
    50f8:	699460b7          	lui	ra,0x69946
    50fc:	001200b3          	add	ra,tp,ra
    5100:	c8de02b7          	lui	t0,0xc8de0
    5104:	0013b1b3          	sltu	gp,t2,ra
    5108:	00213333          	sltu	t1,sp,sp
    510c:	0011f4b3          	and	s1,gp,ra
    5110:	e8a6e097          	auipc	ra,0xe8a6e
    5114:	a9be3137          	lui	sp,0xa9be3
    5118:	27106093          	ori	ra,zero,625
    511c:	de53f293          	andi	t0,t2,-539
    5120:	007021b3          	sgtz	gp,t2
    5124:	0036f133          	and	sp,a3,gp
    5128:	00222133          	slt	sp,tp,sp
    512c:	ca31e237          	lui	tp,0xca31e
    5130:	0061b1b3          	sltu	gp,gp,t1
    5134:	e852e113          	ori	sp,t0,-379
    5138:	75afd1b7          	lui	gp,0x75afd
    513c:	8f426137          	lui	sp,0x8f426
    5140:	6157a117          	auipc	sp,0x6157a
    5144:	007373b3          	and	t2,t1,t2
    5148:	27003197          	auipc	gp,0x27003
    514c:	00000113          	li	sp,0
    5150:	62010863          	beqz	sp,0x5780
    5154:	1f424213          	xori	tp,tp,500
    5158:	e00be2b7          	lui	t0,0xe00be
    515c:	4031d6b3          	sra	a3,gp,gp
    5160:	4011d133          	sra	sp,gp,ra
    5164:	01610133          	add	sp,sp,s6
    5168:	e3b18093          	addi	ra,gp,-453 # 0x27007f83
    516c:	0b515337          	lui	t1,0xb515
    5170:	00133033          	sltu	zero,t1,ra
    5174:	5f880097          	auipc	ra,0x5f880
    5178:	0011d333          	srl	t1,gp,ra
    517c:	fcb90237          	lui	tp,0xfcb90
    5180:	01426133          	or	sp,tp,s4
    5184:	30707097          	auipc	ra,0x30707
    5188:	a39a11b7          	lui	gp,0xa39a1
    518c:	0052e333          	or	t1,t0,t0
    5190:	0011a233          	slt	tp,gp,ra
    5194:	004093b3          	sll	t2,ra,tp
    5198:	002371b3          	and	gp,t1,sp
    519c:	44ded117          	auipc	sp,0x44ded
    51a0:	1ecee097          	auipc	ra,0x1ecee
    51a4:	e1088197          	auipc	gp,0xe1088
    51a8:	a5e69217          	auipc	tp,0xa5e69
    51ac:	845b4137          	lui	sp,0x845b4
    51b0:	2211f213          	andi	tp,gp,545
    51b4:	0001c033          	xor	zero,gp,zero
    51b8:	3436f237          	lui	tp,0x3436f
    51bc:	04dc4197          	auipc	gp,0x4dc4
    51c0:	17da3117          	auipc	sp,0x17da3
    51c4:	2c6f7197          	auipc	gp,0x2c6f7
    51c8:	0020b133          	sltu	sp,ra,sp
    51cc:	988f71b7          	lui	gp,0x988f7
    51d0:	da933137          	lui	sp,0xda933
    51d4:	09e22117          	auipc	sp,0x9e22
    51d8:	a271c113          	xori	sp,gp,-1497
    51dc:	82686197          	auipc	gp,0x82686
    51e0:	0020e1b3          	or	gp,ra,sp
    51e4:	0021f6b3          	and	a3,gp,sp
    51e8:	18a0c113          	xori	sp,ra,394
    51ec:	00000597          	auipc	a1,0x0
    51f0:	350580e7          	jalr	848(a1) # 0x553c
    51f4:	8e01c393          	xori	t2,gp,-1824
    51f8:	2fb07037          	lui	zero,0x2fb07
    51fc:	b650f113          	andi	sp,ra,-1179
    5200:	6160c193          	xori	gp,ra,1558
    5204:	338d40b7          	lui	ra,0x338d4
    5208:	97f88117          	auipc	sp,0x97f88
    520c:	50fca397          	auipc	t2,0x50fca
    5210:	92014213          	xori	tp,sp,-1760
    5214:	0000c1b3          	xor	gp,ra,zero
    5218:	599130b7          	lui	ra,0x59913
    521c:	7a31e397          	auipc	t2,0x7a31e
    5220:	fce7a0b7          	lui	ra,0xfce7a
    5224:	0032f133          	and	sp,t0,gp
    5228:	11606237          	lui	tp,0x11606
    522c:	ca00e193          	ori	gp,ra,-864
    5230:	b093c513          	xori	a0,t2,-1271
    5234:	5b0111b7          	lui	gp,0x5b011
    5238:	00126333          	or	t1,tp,ra
    523c:	a77a7337          	lui	t1,0xa77a7
    5240:	31bea037          	lui	zero,0x31bea
    5244:	0dc38093          	addi	ra,t2,220 # 0x7a3232f8
    5248:	00518133          	add	sp,gp,t0
    524c:	a53661b7          	lui	gp,0xa5366
    5250:	40725533          	sra	a0,tp,t2
    5254:	4030d0b3          	sra	ra,ra,gp
    5258:	0062a1b3          	slt	gp,t0,t1
    525c:	bc23a037          	lui	zero,0xbc23a
    5260:	16b490b7          	lui	ra,0x16b49
    5264:	b36c7037          	lui	zero,0xb36c7
    5268:	4010d1b3          	sra	gp,ra,ra
    526c:	91e92197          	auipc	gp,0x91e92
    5270:	0020a2b3          	slt	t0,ra,sp
    5274:	0021b1b3          	sltu	gp,gp,sp
    5278:	0190b0b3          	sltu	ra,ra,s9
    527c:	f0e5a197          	auipc	gp,0xf0e5a
    5280:	f1d1c413          	xori	s0,gp,-227
    5284:	51417113          	andi	sp,sp,1300
    5288:	0032d3b3          	srl	t2,t0,gp
    528c:	00018293          	mv	t0,gp
    5290:	be3280e3          	beq	t0,gp,0x4e70
    5294:	36c3e297          	auipc	t0,0x36c3e
    5298:	ba393097          	auipc	ra,0xba393
    529c:	1df10393          	addi	t2,sp,479 # 0xffffffff97f8d3e7
    52a0:	74719117          	auipc	sp,0x74719
    52a4:	ebff06b7          	lui	a3,0xebff0
    52a8:	69cbd097          	auipc	ra,0x69cbd
    52ac:	b1570237          	lui	tp,0xb1570
    52b0:	0071b1b3          	sltu	gp,gp,t2
    52b4:	f4736013          	ori	zero,t1,-185
    52b8:	0020c1b3          	xor	gp,ra,sp
    52bc:	285a51b7          	lui	gp,0x285a5
    52c0:	24337113          	andi	sp,t1,579
    52c4:	6dcdc097          	auipc	ra,0x6dcdc
    52c8:	1509b0b7          	lui	ra,0x1509b
    52cc:	40308333          	sub	t1,ra,gp
    52d0:	60c16193          	ori	gp,sp,1548
    52d4:	74513197          	auipc	gp,0x74513
    52d8:	0032b0b3          	sltu	ra,t0,gp
    52dc:	902ec497          	auipc	s1,0x902ec
    52e0:	0021a033          	slt	zero,gp,sp
    52e4:	0031a333          	slt	t1,gp,gp
    52e8:	0021b1b3          	sltu	gp,gp,sp
    52ec:	c98820b7          	lui	ra,0xc9882
    52f0:	2361a237          	lui	tp,0x2361a
    52f4:	b5823117          	auipc	sp,0xb5823
    52f8:	5961c113          	xori	sp,gp,1430
    52fc:	21c9c137          	lui	sp,0x21c9c
    5300:	00044133          	xor	sp,s0,zero
    5304:	0023d033          	srl	zero,t2,sp
    5308:	8bc46137          	lui	sp,0x8bc46
    530c:	00218133          	add	sp,gp,sp
    5310:	000131b3          	sltu	gp,sp,zero
    5314:	0021d0b3          	srl	ra,gp,sp
    5318:	34315863          	bge	sp,gp,0x5668
    531c:	34314663          	blt	sp,gp,0x5668
    5320:	cf46d1b7          	lui	gp,0xcf46d
    5324:	3c41c193          	xori	gp,gp,964
    5328:	0282d097          	auipc	ra,0x282d
    532c:	0d207213          	andi	tp,zero,210
    5330:	768ad297          	auipc	t0,0x768ad
    5334:	50830213          	addi	tp,t1,1288 # 0xffffffffa77a7508
    5338:	0181a1b3          	slt	gp,gp,s8
    533c:	0017f0b3          	and	ra,a5,ra
    5340:	390d0137          	lui	sp,0x390d0
    5344:	00219333          	sll	t1,gp,sp
    5348:	5ad1e193          	ori	gp,gp,1453
    534c:	0461c113          	xori	sp,gp,70
    5350:	0091d7b3          	srl	a5,gp,s1
    5354:	002181b3          	add	gp,gp,sp
    5358:	002120b3          	slt	ra,sp,sp
    535c:	33d9a097          	auipc	ra,0x33d9a
    5360:	00113b33          	sltu	s6,sp,ra
    5364:	4e545197          	auipc	gp,0x4e545
    5368:	006281b3          	add	gp,t0,t1
    536c:	0073d333          	srl	t1,t2,t2
    5370:	39e821b7          	lui	gp,0x39e82
    5374:	0010b4b3          	sltu	s1,ra,ra
    5378:	c460c193          	xori	gp,ra,-954
    537c:	50928c13          	addi	s8,t0,1289 # 0x768b2839
    5380:	40208333          	sub	t1,ra,sp
    5384:	4021d133          	sra	sp,gp,sp
    5388:	01a11133          	sll	sp,sp,s10
    538c:	419080b3          	sub	ra,ra,s9
    5390:	8618c117          	auipc	sp,0x8618c
    5394:	4021d133          	sra	sp,gp,sp
    5398:	401181b3          	sub	gp,gp,ra
    539c:	0010fb33          	and	s6,ra,ra
    53a0:	be258ce3          	beq	a1,sp,0x4f98
    53a4:	bf5ff26f          	jal	tp,0x4f98
    53a8:	e00bd117          	auipc	sp,0xe00bd
    53ac:	a301c113          	xori	sp,gp,-1488
    53b0:	00215333          	srl	t1,sp,sp
    53b4:	02b0c193          	xori	gp,ra,43
    53b8:	d998b117          	auipc	sp,0xd998b
    53bc:	008510b7          	lui	ra,0x851
    53c0:	84f0c093          	xori	ra,ra,-1969
    53c4:	4010d133          	sra	sp,ra,ra
    53c8:	001210b3          	sll	ra,tp,ra
    53cc:	eb61c013          	xori	zero,gp,-330
    53d0:	dbadf113          	andi	sp,s11,-582
    53d4:	6141e193          	ori	gp,gp,1556
    53d8:	0021d1b3          	srl	gp,gp,sp
    53dc:	b9d75197          	auipc	gp,0xb9d75
    53e0:	bb70c113          	xori	sp,ra,-1097
    53e4:	006141b3          	xor	gp,sp,t1
    53e8:	0071d133          	srl	sp,gp,t2
    53ec:	0021b0b3          	sltu	ra,gp,sp
    53f0:	43516093          	ori	ra,sp,1077
    53f4:	5f32c393          	xori	t2,t0,1523
    53f8:	4cf7c197          	auipc	gp,0x4cf7c
    53fc:	cd1ed197          	auipc	gp,0xcd1ed
    5400:	938e22b7          	lui	t0,0x938e2
    5404:	002bd1b3          	srl	gp,s7,sp
    5408:	5b638093          	addi	ra,t2,1462
    540c:	0021a0b3          	slt	ra,gp,sp
    5410:	0030f1b3          	and	gp,ra,gp
    5414:	000b2133          	sltz	sp,s6
    5418:	6e59b117          	auipc	sp,0x6e59b
    541c:	00117133          	and	sp,sp,ra
    5420:	005264b3          	or	s1,tp,t0
    5424:	0031a1b3          	slt	gp,gp,gp
    5428:	ac218ce3          	beq	gp,sp,0x4f00
    542c:	ad5ff16f          	jal	sp,0x4f00
    5430:	0010c233          	xor	tp,ra,ra
    5434:	14996117          	auipc	sp,0x14996
    5438:	0070e3b3          	or	t2,ra,t2
    543c:	ae00ecb7          	lui	s9,0xae00e
    5440:	95ab3097          	auipc	ra,0x95ab3
    5444:	089a50b7          	lui	ra,0x89a5
    5448:	003151b3          	srl	gp,sp,gp
    544c:	403280b3          	sub	ra,t0,gp
    5450:	0000d0b3          	srl	ra,ra,zero
    5454:	28339237          	lui	tp,0x28339
    5458:	007043b3          	xor	t2,zero,t2
    545c:	577e1037          	lui	zero,0x577e1
    5460:	b6cad197          	auipc	gp,0xb6cad
    5464:	128020b7          	lui	ra,0x12802
    5468:	66d6c393          	xori	t2,a3,1645
    546c:	002131b3          	sltu	gp,sp,sp
    5470:	8c9ed0b7          	lui	ra,0x8c9ed
    5474:	0021e333          	or	t1,gp,sp
    5478:	001151b3          	srl	gp,sp,ra
    547c:	a342e097          	auipc	ra,0xa342e
    5480:	11d0f913          	andi	s2,ra,285
    5484:	b914d3b7          	lui	t2,0xb914d
    5488:	2de43137          	lui	sp,0x2de43
    548c:	12e98117          	auipc	sp,0x12e98
    5490:	4045d233          	sra	tp,a1,tp
    5494:	b4218213          	addi	tp,gp,-1214 # 0xffffffffb6cb1fa2
    5498:	70c62197          	auipc	gp,0x70c62
    549c:	84cfe113          	ori	sp,t6,-1972
    54a0:	00213633          	sltu	a2,sp,sp
    54a4:	99c95117          	auipc	sp,0x99c95
    54a8:	5b758017          	auipc	zero,0x5b758
    54ac:	0011f0b3          	and	ra,gp,ra
    54b0:	00000397          	auipc	t2,0x0
    54b4:	3ec38167          	jalr	sp,1004(t2) # 0x589c
    54b8:	0020d0b3          	srl	ra,ra,sp
    54bc:	0021d0b3          	srl	ra,gp,sp
    54c0:	c4eea297          	auipc	t0,0xc4eea
    54c4:	0021e1b3          	or	gp,gp,sp
    54c8:	e7f10193          	addi	gp,sp,-385 # 0xffffffff99c9a323
    54cc:	003090b3          	sll	ra,ra,gp
    54d0:	2e808193          	addi	gp,ra,744 # 0xffffffffa3433764
    54d4:	fed48117          	auipc	sp,0xfed48
    54d8:	cac090b7          	lui	ra,0xcac09
    54dc:	001141b3          	xor	gp,sp,ra
    54e0:	00310033          	add	zero,sp,gp
    54e4:	55176097          	auipc	ra,0x55176
    54e8:	f06dd0b7          	lui	ra,0xf06dd
    54ec:	00604133          	xor	sp,zero,t1
    54f0:	0011eeb3          	or	t4,gp,ra
    54f4:	0161a0b3          	slt	ra,gp,s6
    54f8:	bc9fd137          	lui	sp,0xbc9fd
    54fc:	0072c2b3          	xor	t0,t0,t2
    5500:	c1018193          	addi	gp,gp,-1008 # 0x70c670a8
    5504:	62d14213          	xori	tp,sp,1581
    5508:	425e7097          	auipc	ra,0x425e7
    550c:	edddb037          	lui	zero,0xedddb
    5510:	3d517213          	andi	tp,sp,981
    5514:	45369037          	lui	zero,0x45369
    5518:	401081b3          	sub	gp,ra,ra
    551c:	e5720093          	addi	ra,tp,-425 # 0x28338e57
    5520:	00108133          	add	sp,ra,ra
    5524:	0061dab3          	srl	s5,gp,t1
    5528:	0030e0b3          	or	ra,ra,gp
    552c:	d55b90b7          	lui	ra,0xd55b9
    5530:	00112133          	slt	sp,sp,ra
    5534:	c22300e3          	beq	t1,sp,0x5154
    5538:	c1dff16f          	jal	sp,0x5154
    553c:	57918313          	addi	t1,gp,1401
    5540:	004180b3          	add	ra,gp,tp
    5544:	be408113          	addi	sp,ra,-1052 # 0xffffffffd55b8be4
    5548:	3b2bf113          	andi	sp,s7,946
    554c:	003083b3          	add	t2,ra,gp
    5550:	0023b0b3          	sltu	ra,t2,sp
    5554:	0031f133          	and	sp,gp,gp
    5558:	001140b3          	xor	ra,sp,ra
    555c:	bd46e293          	ori	t0,a3,-1068
    5560:	af3451b7          	lui	gp,0xaf345
    5564:	006331b3          	sltu	gp,t1,t1
    5568:	0d648197          	auipc	gp,0xd648
    556c:	0023c0b3          	xor	ra,t2,sp
    5570:	002110b3          	sll	ra,sp,sp
    5574:	007091b3          	sll	gp,ra,t2
    5578:	401480b3          	sub	ra,s1,ra
    557c:	2d0360b7          	lui	ra,0x2d036
    5580:	0011a133          	slt	sp,gp,ra
    5584:	40310333          	sub	t1,sp,gp
    5588:	006150b3          	srl	ra,sp,t1
    558c:	003170b3          	and	ra,sp,gp
    5590:	006b0033          	add	zero,s6,t1
    5594:	0030a233          	slt	tp,ra,gp
    5598:	189581b7          	lui	gp,0x18958
    559c:	0002f033          	and	zero,t0,zero
    55a0:	00319133          	sll	sp,gp,gp
    55a4:	00fa0117          	auipc	sp,0xfa0
    55a8:	002151b3          	srl	gp,sp,sp
    55ac:	003341b3          	xor	gp,t1,gp
    55b0:	001f41b3          	xor	gp,t5,ra
    55b4:	0032d3b3          	srl	t2,t0,gp
    55b8:	9af2e137          	lui	sp,0x9af2e
    55bc:	0031d1b3          	srl	gp,gp,gp
    55c0:	80784217          	auipc	tp,0x80784
    55c4:	997ad1b7          	lui	gp,0x997ad
    55c8:	3d2e8137          	lui	sp,0x3d2e8
    55cc:	00010113          	mv	sp,sp
    55d0:	22210c63          	beq	sp,sp,0x5808
    55d4:	c0530313          	addi	t1,t1,-1019
    55d8:	002151b3          	srl	gp,sp,sp
    55dc:	40218db3          	sub	s11,gp,sp
    55e0:	40435133          	sra	sp,t1,tp
    55e4:	d0a630b7          	lui	ra,0xd0a63
    55e8:	0a806137          	lui	sp,0xa806
    55ec:	0007b1b3          	sltu	gp,a5,zero
    55f0:	00109f33          	sll	t5,ra,ra
    55f4:	00638133          	add	sp,t2,t1
    55f8:	ee130113          	addi	sp,t1,-287
    55fc:	00315133          	srl	sp,sp,gp
    5600:	005471b3          	and	gp,s0,t0
    5604:	646bc097          	auipc	ra,0x646bc
    5608:	18e97097          	auipc	ra,0x18e97
    560c:	f3d32097          	auipc	ra,0xf3d32
    5610:	3f710113          	addi	sp,sp,1015 # 0xa8063f7
    5614:	0005a0b3          	sltz	ra,a1
    5618:	1987c137          	lui	sp,0x1987c
    561c:	b2a1c193          	xori	gp,gp,-1238
    5620:	0021d0b3          	srl	ra,gp,sp
    5624:	4093d333          	sra	t1,t2,s1
    5628:	e651e493          	ori	s1,gp,-411
    562c:	4030d133          	sra	sp,ra,gp
    5630:	da55e117          	auipc	sp,0xda55e
    5634:	16eb12b7          	lui	t0,0x16eb1
    5638:	2ba491b7          	lui	gp,0x2ba49
    563c:	00515133          	srl	sp,sp,t0
    5640:	1ac82c97          	auipc	s9,0x1ac82
    5644:	4a524093          	xori	ra,tp,1189
    5648:	4022d133          	sra	sp,t0,sp
    564c:	2f71e297          	auipc	t0,0x2f71e
    5650:	a7e14393          	xori	t2,sp,-1410
    5654:	00fee297          	auipc	t0,0xfee
    5658:	401150b3          	sra	ra,sp,ra
    565c:	00308333          	add	t1,ra,gp
    5660:	00010293          	mv	t0,sp
    5664:	a4228ce3          	beq	t0,sp,0x50bc
    5668:	cc210193          	addi	gp,sp,-830 # 0xffffffffda5632f2
    566c:	7fa3e093          	ori	ra,t2,2042
    5670:	003691b3          	sll	gp,a3,gp
    5674:	9df02597          	auipc	a1,0x9df02
    5678:	92800113          	li	sp,-1752
    567c:	0021f0b3          	and	ra,gp,sp
    5680:	0030c233          	xor	tp,ra,gp
    5684:	84ba5017          	auipc	zero,0x84ba5
    5688:	469f4137          	lui	sp,0x469f4
    568c:	006094b3          	sll	s1,ra,t1
    5690:	d5ddb137          	lui	sp,0xd5ddb
    5694:	0030b133          	sltu	sp,ra,gp
    5698:	7f7c7337          	lui	t1,0x7f7c7
    569c:	91c1f113          	andi	sp,gp,-1764
    56a0:	003131b3          	sltu	gp,sp,gp
    56a4:	001130b3          	sltu	ra,sp,ra
    56a8:	0033b1b3          	sltu	gp,t2,gp
    56ac:	d8c08193          	addi	gp,ra,-628 # 0xfffffffff3d37398
    56b0:	002170b3          	and	ra,sp,sp
    56b4:	003311b3          	sll	gp,t1,gp
    56b8:	6e7e0137          	lui	sp,0x6e7e0
    56bc:	b5e20313          	addi	t1,tp,-1186 # 0xffffffff8078911e
    56c0:	001221b3          	slt	gp,tp,ra
    56c4:	01e09233          	sll	tp,ra,t5
    56c8:	6fbf10b7          	lui	ra,0x6fbf1
    56cc:	f940f1b7          	lui	gp,0xf940f
    56d0:	fc180f17          	auipc	t5,0xfc180
    56d4:	0031f0b3          	and	ra,gp,gp
    56d8:	a4e0f293          	andi	t0,ra,-1458
    56dc:	79a3b117          	auipc	sp,0x79a3b
    56e0:	38a18093          	addi	ra,gp,906 # 0xfffffffff940f38a
    56e4:	c082f117          	auipc	sp,0xc082f
    56e8:	d42274e3          	bgeu	tp,sp,0x5430
    56ec:	d42262e3          	bltu	tp,sp,0x5430
    56f0:	409101b3          	sub	gp,sp,s1
    56f4:	9fab3097          	auipc	ra,0x9fab3
    56f8:	4072c037          	lui	zero,0x4072c
    56fc:	26b3f093          	andi	ra,t2,619
    5700:	b08d8117          	auipc	sp,0xb08d8
    5704:	7e30f193          	andi	gp,ra,2019
    5708:	d7824317          	auipc	t1,0xd7824
    570c:	00211233          	sll	tp,sp,sp
    5710:	229e30b7          	lui	ra,0x229e3
    5714:	15c0c193          	xori	gp,ra,348
    5718:	00637133          	and	sp,t1,t1
    571c:	40208133          	sub	sp,ra,sp
    5720:	00212133          	slt	sp,sp,sp
    5724:	2c50c193          	xori	gp,ra,709
    5728:	0052a333          	slt	t1,t0,t0
    572c:	bd7351b7          	lui	gp,0xbd735
    5730:	401180b3          	sub	ra,gp,ra
    5734:	40f1d1b3          	sra	gp,gp,a5
    5738:	5dd1f213          	andi	tp,gp,1501
    573c:	3d9c0337          	lui	t1,0x3d9c0
    5740:	4030d233          	sra	tp,ra,gp
    5744:	0030e3b3          	or	t2,ra,gp
    5748:	0020a433          	slt	s0,ra,sp
    574c:	32579097          	auipc	ra,0x32579
    5750:	02b18093          	addi	ra,gp,43 # 0xffffffffbd73502b
    5754:	47121137          	lui	sp,0x47121
    5758:	0001c133          	xor	sp,gp,zero
    575c:	40108133          	sub	sp,ra,ra
    5760:	00221133          	sll	sp,tp,sp
    5764:	6bf3f117          	auipc	sp,0x6bf3f
    5768:	00318133          	add	sp,gp,gp
    576c:	0011d0b3          	srl	ra,gp,ra
    5770:	4c23f117          	auipc	sp,0x4c23f
    5774:	9b6f6697          	auipc	a3,0x9b6f6
    5778:	b021fee3          	bgeu	gp,sp,0x5294
    577c:	b021ece3          	bltu	gp,sp,0x5294
    5780:	87016113          	ori	sp,sp,-1936
    5784:	0010a233          	slt	tp,ra,ra
    5788:	402350b3          	sra	ra,t1,sp
    578c:	0011a1b3          	slt	gp,gp,ra
    5790:	400182b3          	sub	t0,gp,zero
    5794:	342b5137          	lui	sp,0x342b5
    5798:	62e0e013          	ori	zero,ra,1582
    579c:	14d40197          	auipc	gp,0x14d40
    57a0:	404180b3          	sub	ra,gp,tp
    57a4:	001d9317          	auipc	t1,0x1d9
    57a8:	3bae91b7          	lui	gp,0x3bae9
    57ac:	791be1b7          	lui	gp,0x791be
    57b0:	00111ab3          	sll	s5,sp,ra
    57b4:	fb37e137          	lui	sp,0xfb37e
    57b8:	2fba9197          	auipc	gp,0x2fba9
    57bc:	0070e0b3          	or	ra,ra,t2
    57c0:	47193137          	lui	sp,0x47193
    57c4:	75c17193          	andi	gp,sp,1884
    57c8:	f8808093          	addi	ra,ra,-120 # 0x3257e6d4
    57cc:	554d87b7          	lui	a5,0x554d8
    57d0:	15837017          	auipc	zero,0x15837
    57d4:	14110193          	addi	gp,sp,321 # 0x47193141
    57d8:	001171b3          	and	gp,sp,ra
    57dc:	f1a36137          	lui	sp,0xf1a36
    57e0:	00722133          	slt	sp,tp,t2
    57e4:	eea9f137          	lui	sp,0xeea9f
    57e8:	f83301b7          	lui	gp,0xf8330
    57ec:	003171b3          	and	gp,sp,gp
    57f0:	0050a1b3          	slt	gp,ra,t0
    57f4:	00315133          	srl	sp,sp,gp
    57f8:	0002a333          	sltz	t1,t0
    57fc:	c4196197          	auipc	gp,0xc4196
    5800:	82320ae3          	beq	tp,gp,0x5034
    5804:	831ff26f          	jal	tp,0x5034
    5808:	402182b3          	sub	t0,gp,sp
    580c:	37b1c693          	xori	a3,gp,891
    5810:	3bf62497          	auipc	s1,0x3bf62
    5814:	4023d1b3          	sra	gp,t2,sp
    5818:	0061b0b3          	sltu	ra,gp,t1
    581c:	0171c033          	xor	zero,gp,s7
    5820:	1d3a3197          	auipc	gp,0x1d3a3
    5824:	c5ad1137          	lui	sp,0xc5ad1
    5828:	d19312b7          	lui	t0,0xd1931
    582c:	cb5851b7          	lui	gp,0xcb585
    5830:	23c10293          	addi	t0,sp,572 # 0xffffffffc5ad123c
    5834:	00115333          	srl	t1,sp,ra
    5838:	82a721b7          	lui	gp,0x82a72
    583c:	b98b0117          	auipc	sp,0xb98b0
    5840:	402001b3          	neg	gp,sp
    5844:	12c700b7          	lui	ra,0x12c70
    5848:	f69780b7          	lui	ra,0xf6978
    584c:	ee3e71b7          	lui	gp,0xee3e7
    5850:	ccbb0517          	auipc	a0,0xccbb0
    5854:	b80aa197          	auipc	gp,0xb80aa
    5858:	46320013          	addi	zero,tp,1123 # 0x463
    585c:	746baeb7          	lui	t4,0x746ba
    5860:	c1a40217          	auipc	tp,0xc1a40
    5864:	dee81137          	lui	sp,0xdee81
    5868:	00116333          	or	t1,sp,ra
    586c:	40058133          	sub	sp,a1,zero
    5870:	0031e0b3          	or	ra,gp,gp
    5874:	146041b7          	lui	gp,0x14604
    5878:	002213b3          	sll	t2,tp,sp
    587c:	f082f113          	andi	sp,t0,-248
    5880:	c3841117          	auipc	sp,0xc3841
    5884:	00228033          	add	zero,t0,sp
    5888:	4ad07137          	lui	sp,0x4ad07
    588c:	92a5e0b7          	lui	ra,0x92a5e
    5890:	403301b3          	sub	gp,t1,gp
    5894:	b010fae3          	bgeu	ra,ra,0x53a8
    5898:	b010e8e3          	bltu	ra,ra,0x53a8
    589c:	d34b4197          	auipc	gp,0xd34b4
    58a0:	0e926e37          	lui	t3,0xe926
    58a4:	70f150b7          	lui	ra,0x70f15
    58a8:	07340397          	auipc	t2,0x7340
    58ac:	62b5b297          	auipc	t0,0x62b5b
    58b0:	0010e0b3          	or	ra,ra,ra
    58b4:	1381c117          	auipc	sp,0x1381c
    58b8:	001091b3          	sll	gp,ra,ra
    58bc:	f3eb1137          	lui	sp,0xf3eb1
    58c0:	00414133          	xor	sp,sp,tp
    58c4:	403050b3          	sra	ra,zero,gp
    58c8:	e793f293          	andi	t0,t2,-391
    58cc:	45695137          	lui	sp,0x45695
    58d0:	15d6b217          	auipc	tp,0x15d6b
    58d4:	405181b3          	sub	gp,gp,t0
    58d8:	00611033          	sll	zero,sp,t1
    58dc:	004151b3          	srl	gp,sp,tp
    58e0:	00314133          	xor	sp,sp,gp
    58e4:	0000c1b3          	xor	gp,ra,zero
    58e8:	6e5f11b7          	lui	gp,0x6e5f1
    58ec:	0010a133          	slt	sp,ra,ra
    58f0:	66214193          	xori	gp,sp,1634
    58f4:	3520e513          	ori	a0,ra,850
    58f8:	001091b3          	sll	gp,ra,ra
    58fc:	127ed117          	auipc	sp,0x127ed
    5900:	cc048113          	addi	sp,s1,-832 # 0x3bf674d0
    5904:	00318233          	add	tp,gp,gp
    5908:	dd41f193          	andi	gp,gp,-556
    590c:	e2c75217          	auipc	tp,0xe2c75
    5910:	51717213          	andi	tp,sp,1303
    5914:	480f61b7          	lui	gp,0x480f6
    5918:	0020a133          	slt	sp,ra,sp
    591c:	003170b3          	and	ra,sp,gp
    5920:	0021d1b3          	srl	gp,gp,sp
    5924:	762971b7          	lui	gp,0x76297
    5928:	5d643097          	auipc	ra,0x5d643
    592c:	9f7d0ae3          	beq	s10,s7,0x5320
    5930:	9f1ff0ef          	jal	ra,0x5320
    5934:	0036c0b3          	xor	ra,a3,gp
    5938:	89516313          	ori	t1,sp,-1899
    593c:	61726313          	ori	t1,tp,1559
    5940:	001276b3          	and	a3,tp,ra
    5944:	cf385037          	lui	zero,0xcf385
    5948:	a2b72117          	auipc	sp,0xa2b72
    594c:	d0e18193          	addi	gp,gp,-754 # 0x76296d0e
    5950:	8d41c193          	xori	gp,gp,-1836
    5954:	8ceea0b7          	lui	ra,0x8ceea
    5958:	4046a237          	lui	tp,0x4046a
    595c:	40514113          	xori	sp,sp,1029
    5960:	0021f133          	and	sp,gp,sp
    5964:	003190b3          	sll	ra,gp,gp
    5968:	7e9a50b7          	lui	ra,0x7e9a5
    596c:	0f9790b7          	lui	ra,0xf979
    5970:	002131b3          	sltu	gp,sp,sp
    5974:	0011f0b3          	and	ra,gp,ra
    5978:	4a31c093          	xori	ra,gp,1187
    597c:	03aea197          	auipc	gp,0x3aea
    5980:	b9c51197          	auipc	gp,0xb9c51
    5984:	9300b117          	auipc	sp,0x9300b
    5988:	124be297          	auipc	t0,0x124be
    598c:	28708193          	addi	gp,ra,647 # 0xf979287
    5990:	d937a237          	lui	tp,0xd937a
    5994:	0000c133          	xor	sp,ra,zero
    5998:	b621c293          	xori	t0,gp,-1182
    599c:	cee03137          	lui	sp,0xcee03
    59a0:	2074f093          	andi	ra,s1,519
    59a4:	92729097          	auipc	ra,0x92729
    59a8:	6c2f20b7          	lui	ra,0x6c2f2
    59ac:	003a11b3          	sll	gp,s4,gp
    59b0:	40218233          	sub	tp,gp,sp
    59b4:	0042f133          	and	sp,t0,tp
    59b8:	5849f097          	auipc	ra,0x5849f
    59bc:	a98d6097          	auipc	ra,0xa98d6
    59c0:	00118263          	beq	gp,ra,0x59c4
    59c4:	101001ef          	jal	gp,0x62c4
    59c8:	5ce1c193          	xori	gp,gp,1486
    59cc:	a6b45117          	auipc	sp,0xa6b45
    59d0:	4df47317          	auipc	t1,0x4df47
    59d4:	0011c1b3          	xor	gp,gp,ra
    59d8:	993ee297          	auipc	t0,0x993ee
    59dc:	ca2f80b7          	lui	ra,0xca2f8
    59e0:	9de22197          	auipc	gp,0x9de22
    59e4:	02663117          	auipc	sp,0x2663
    59e8:	4043d833          	sra	a6,t2,tp
    59ec:	1a482717          	auipc	a4,0x1a482
    59f0:	00213033          	sltu	zero,sp,sp
    59f4:	4326d1b7          	lui	gp,0x4326d
    59f8:	001093b3          	sll	t2,ra,ra
    59fc:	0021b0b3          	sltu	ra,gp,sp
    5a00:	c2f0e113          	ori	sp,ra,-977
    5a04:	002350b3          	srl	ra,t1,sp
    5a08:	1f31e393          	ori	t2,gp,499
    5a0c:	3ecf0017          	auipc	zero,0x3ecf0
    5a10:	8063c197          	auipc	gp,0x8063c
    5a14:	0062c233          	xor	tp,t0,t1
    5a18:	4010d333          	sra	t1,ra,ra
    5a1c:	62aa8037          	lui	zero,0x62aa8
    5a20:	9583f193          	andi	gp,t2,-1704
    5a24:	eec75097          	auipc	ra,0xeec75
    5a28:	0021d133          	srl	sp,gp,sp
    5a2c:	8a3470b7          	lui	ra,0x8a347
    5a30:	15947017          	auipc	zero,0x15947
    5a34:	21330293          	addi	t0,t1,531 # 0x4df4cbe3
    5a38:	00519133          	sll	sp,gp,t0
    5a3c:	3221c093          	xori	ra,gp,802
    5a40:	6df14213          	xori	tp,sp,1759
    5a44:	0fb14093          	xori	ra,sp,251
    5a48:	403153b3          	sra	t2,sp,gp
    5a4c:	00000013          	nop
    5a50:	00000263          	beqz	zero,0x5a54
    5a54:	0031c133          	xor	sp,gp,gp
    5a58:	e86e3317          	auipc	t1,0xe86e3
    5a5c:	b971f493          	andi	s1,gp,-1129
    5a60:	e7007113          	andi	sp,zero,-400
    5a64:	f8c0f393          	andi	t2,ra,-116
    5a68:	cd11b117          	auipc	sp,0xcd11b
    5a6c:	ab9d8117          	auipc	sp,0xab9d8
    5a70:	c0f66137          	lui	sp,0xc0f66
    5a74:	d55ce1b7          	lui	gp,0xd55ce
    5a78:	2ac08193          	addi	gp,ra,684 # 0xffffffff8a3472ac
    5a7c:	5fd30113          	addi	sp,t1,1533 # 0xffffffffe86e9055
    5a80:	76448113          	addi	sp,s1,1892
    5a84:	c04f9237          	lui	tp,0xc04f9
    5a88:	d7817093          	andi	ra,sp,-648
    5a8c:	00211133          	sll	sp,sp,sp
    5a90:	5d216093          	ori	ra,sp,1490
    5a94:	007ec0b3          	xor	ra,t4,t2
    5a98:	00227cb3          	and	s9,tp,sp
    5a9c:	002131b3          	sltu	gp,sp,sp
    5aa0:	40318133          	sub	sp,gp,gp
    5aa4:	0010d1b3          	srl	gp,ra,ra
    5aa8:	4052d6b3          	sra	a3,t0,t0
    5aac:	2f8b8197          	auipc	gp,0x2f8b8
    5ab0:	17ab0137          	lui	sp,0x17ab0
    5ab4:	004081b3          	add	gp,ra,tp
    5ab8:	36e0b1b7          	lui	gp,0x36e0b
    5abc:	d657c137          	lui	sp,0xd657c
    5ac0:	03123117          	auipc	sp,0x3123
    5ac4:	401080b3          	sub	ra,ra,ra
    5ac8:	bdda7297          	auipc	t0,0xbdda7
    5acc:	0be49217          	auipc	tp,0xbe49
    5ad0:	c9ead137          	lui	sp,0xc9ead
    5ad4:	0051d133          	srl	sp,gp,t0
    5ad8:	001191b3          	sll	gp,gp,ra
    5adc:	58c3b097          	auipc	ra,0x58c3b
    5ae0:	74131863          	bne	t1,ra,0x6230
    5ae4:	74130663          	beq	t1,ra,0x6230
    5ae8:	510556b7          	lui	a3,0x51055
    5aec:	4080d333          	sra	t1,ra,s0
    5af0:	91463497          	auipc	s1,0x91463
    5af4:	ada0a317          	auipc	t1,0xada0a
    5af8:	005121b3          	slt	gp,sp,t0
    5afc:	00014133          	xor	sp,sp,zero
    5b00:	41bba1b7          	lui	gp,0x41bba
    5b04:	0001a133          	sltz	sp,gp
    5b08:	6a02e313          	ori	t1,t0,1696
    5b0c:	0021a333          	slt	t1,gp,sp
    5b10:	403053b3          	sra	t2,zero,gp
    5b14:	64530093          	addi	ra,t1,1605 # 0xffffffffada10139
    5b18:	1d527013          	andi	zero,tp,469
    5b1c:	86e6a2b7          	lui	t0,0x86e6a
    5b20:	00526133          	or	sp,tp,t0
    5b24:	a2c4f0b7          	lui	ra,0xa2c4f
    5b28:	0031b0b3          	sltu	ra,gp,gp
    5b2c:	0b318193          	addi	gp,gp,179 # 0x41bba0b3
    5b30:	734e2137          	lui	sp,0x734e2
    5b34:	01f1e133          	or	sp,gp,t6
    5b38:	2e31e593          	ori	a1,gp,739
    5b3c:	00b1d133          	srl	sp,gp,a1
    5b40:	a0c3e1b7          	lui	gp,0xa0c3e
    5b44:	009832b7          	lui	t0,0x983
    5b48:	001001b3          	add	gp,zero,ra
    5b4c:	4030d133          	sra	sp,ra,gp
    5b50:	6e0f8017          	auipc	zero,0x6e0f8
    5b54:	9781c113          	xori	sp,gp,-1672
    5b58:	50e6c193          	xori	gp,a3,1294
    5b5c:	0078b1b3          	sltu	gp,a7,t2
    5b60:	0031c1b3          	xor	gp,gp,gp
    5b64:	86a46093          	ori	ra,s0,-1942
    5b68:	00f0f6b3          	and	a3,ra,a5
    5b6c:	d5b30093          	addi	ra,t1,-677
    5b70:	7c3d5197          	auipc	gp,0x7c3d5
    5b74:	40125033          	sra	zero,tp,ra
    5b78:	22914313          	xori	t1,sp,553
    5b7c:	00000197          	auipc	gp,0x0
    5b80:	3ec181e7          	jalr	gp,1004(gp) # 0x5f68
    5b84:	c86cb4b7          	lui	s1,0xc86cb
    5b88:	abed8117          	auipc	sp,0xabed8
    5b8c:	ec134113          	xori	sp,t1,-319
    5b90:	005681b3          	add	gp,a3,t0
    5b94:	2b9571b7          	lui	gp,0x2b957
    5b98:	0021a133          	slt	sp,gp,sp
    5b9c:	a22bc397          	auipc	t2,0xa22bc
    5ba0:	0070c0b3          	xor	ra,ra,t2
    5ba4:	bf31e113          	ori	sp,gp,-1037
    5ba8:	55eb5117          	auipc	sp,0x55eb5
    5bac:	94424113          	xori	sp,tp,-1724
    5bb0:	0071e133          	or	sp,gp,t2
    5bb4:	f55281b7          	lui	gp,0xf5528
    5bb8:	00d111b3          	sll	gp,sp,a3
    5bbc:	00103133          	snez	sp,ra
    5bc0:	6c40f193          	andi	gp,ra,1732
    5bc4:	0020a0b3          	slt	ra,ra,sp
    5bc8:	31eb7097          	auipc	ra,0x31eb7
    5bcc:	51e1c193          	xori	gp,gp,1310
    5bd0:	98636193          	ori	gp,t1,-1658
    5bd4:	02217097          	auipc	ra,0x2217
    5bd8:	b20c4137          	lui	sp,0xb20c4
    5bdc:	41f000b3          	neg	ra,t6
    5be0:	002091b3          	sll	gp,ra,sp
    5be4:	00d181b3          	add	gp,gp,a3
    5be8:	b5506117          	auipc	sp,0xb5506
    5bec:	76008863          	beqz	ra,0x635c
    5bf0:	76c007ef          	jal	a5,0x635c
    5bf4:	44da80b7          	lui	ra,0x44da8
    5bf8:	00127133          	and	sp,tp,ra
    5bfc:	8af6f117          	auipc	sp,0x8af6f
    5c00:	c2d7b0b7          	lui	ra,0xc2d7b
    5c04:	00214133          	xor	sp,sp,sp
    5c08:	01a06013          	ori	zero,zero,26
    5c0c:	0021c1b3          	xor	gp,gp,sp
    5c10:	01e0e0b3          	or	ra,ra,t5
    5c14:	fc84a197          	auipc	gp,0xfc84a
    5c18:	716ad0b7          	lui	ra,0x716ad
    5c1c:	e971c213          	xori	tp,gp,-361
    5c20:	1b59d317          	auipc	t1,0x1b59d
    5c24:	8ea470b7          	lui	ra,0x8ea47
    5c28:	0039f1b3          	and	gp,s3,gp
    5c2c:	90aa8097          	auipc	ra,0x90aa8
    5c30:	007320b3          	slt	ra,t1,t2
    5c34:	812e1117          	auipc	sp,0x812e1
    5c38:	95de0117          	auipc	sp,0x95de0
    5c3c:	0031a0b3          	slt	ra,gp,gp
    5c40:	40b1d1b3          	sra	gp,gp,a1
    5c44:	bbe08213          	addi	tp,ra,-1090 # 0xffffffff90aad7ea
    5c48:	6640c093          	xori	ra,ra,1636
    5c4c:	edb9c197          	auipc	gp,0xedb9c
    5c50:	4c51f093          	andi	ra,gp,1221
    5c54:	ecc42997          	auipc	s3,0xecc42
    5c58:	406150b3          	sra	ra,sp,t1
    5c5c:	1fa60117          	auipc	sp,0x1fa60
    5c60:	0032a133          	slt	sp,t0,gp
    5c64:	0010c333          	xor	t1,ra,ra
    5c68:	002093b3          	sll	t2,ra,sp
    5c6c:	1d47b097          	auipc	ra,0x1d47b
    5c70:	0027f133          	and	sp,a5,sp
    5c74:	15000193          	li	gp,336
    5c78:	435b8113          	addi	sp,s7,1077 # 0xffffffffaf8cc435
    5c7c:	24315c63          	bge	sp,gp,0x5ed4
    5c80:	24314a63          	blt	sp,gp,0x5ed4
    5c84:	f5722097          	auipc	ra,0xf5722
    5c88:	00100133          	add	sp,zero,ra
    5c8c:	09812e97          	auipc	t4,0x9812
    5c90:	c65a4097          	auipc	ra,0xc65a4
    5c94:	bd404197          	auipc	gp,0xbd404
    5c98:	b941a037          	lui	zero,0xb941a
    5c9c:	a9319197          	auipc	gp,0xa9319
    5ca0:	407200b3          	sub	ra,tp,t2
    5ca4:	9ff0f693          	andi	a3,ra,-1537
    5ca8:	002ed0b3          	srl	ra,t4,sp
    5cac:	d003c293          	xori	t0,t2,-768
    5cb0:	cb7e50b7          	lui	ra,0xcb7e5
    5cb4:	a7624197          	auipc	gp,0xa7624
    5cb8:	27eed097          	auipc	ra,0x27eed
    5cbc:	0030a6b3          	slt	a3,ra,gp
    5cc0:	75cd70b7          	lui	ra,0x75cd7
    5cc4:	001190b3          	sll	ra,gp,ra
    5cc8:	1ac0f193          	andi	gp,ra,428
    5ccc:	002070b3          	and	ra,zero,sp
    5cd0:	0011d3b3          	srl	t2,gp,ra
    5cd4:	7ff34093          	xori	ra,t1,2047
    5cd8:	bae48113          	addi	sp,s1,-1106 # 0xffffffffc86cabae
    5cdc:	dbb5d197          	auipc	gp,0xdbb5d
    5ce0:	401080b3          	sub	ra,ra,ra
    5ce4:	004141b3          	xor	gp,sp,tp
    5ce8:	c815b397          	auipc	t2,0xc815b
    5cec:	0031d2b3          	srl	t0,gp,gp
    5cf0:	9af67097          	auipc	ra,0x9af67
    5cf4:	77f65117          	auipc	sp,0x77f65
    5cf8:	cb17f093          	andi	ra,a5,-847
    5cfc:	201c41b7          	lui	gp,0x201c4
    5d00:	0071d8b3          	srl	a7,gp,t2
    5d04:	2620c197          	auipc	gp,0x2620c
    5d08:	0003e0b3          	or	ra,t2,zero
    5d0c:	0021c2b3          	xor	t0,gp,sp
    5d10:	49d56197          	auipc	gp,0x49d56
    5d14:	0899b217          	auipc	tp,0x899b
    5d18:	4011d233          	sra	tp,gp,ra
    5d1c:	4020d1b3          	sra	gp,ra,sp
    5d20:	a4314013          	xori	zero,sp,-1469
    5d24:	00000097          	auipc	ra,0x0
    5d28:	33c080e7          	jalr	828(ra) # 0x6060
    5d2c:	00314333          	xor	t1,sp,gp
    5d30:	001281b3          	add	gp,t0,ra
    5d34:	c7037137          	lui	sp,0xc7037
    5d38:	1f8f4817          	auipc	a6,0x1f8f4
    5d3c:	4fb17093          	andi	ra,sp,1275
    5d40:	4133e117          	auipc	sp,0x4133e
    5d44:	1a17bd37          	lui	s10,0x1a17b
    5d48:	00712133          	slt	sp,sp,t2
    5d4c:	94a28317          	auipc	t1,0x94a28
    5d50:	6de14093          	xori	ra,sp,1758
    5d54:	406d8133          	sub	sp,s11,t1
    5d58:	7f0e3097          	auipc	ra,0x7f0e3
    5d5c:	f8b1f193          	andi	gp,gp,-117
    5d60:	003153b3          	srl	t2,sp,gp
    5d64:	003361b3          	or	gp,t1,gp
    5d68:	bdb20493          	addi	s1,tp,-1061 # 0x89a08ef
    5d6c:	f5aca137          	lui	sp,0xf5aca
    5d70:	01209133          	sll	sp,ra,s2
    5d74:	27e1c193          	xori	gp,gp,638
    5d78:	6d86f117          	auipc	sp,0x6d86f
    5d7c:	00509233          	sll	tp,ra,t0
    5d80:	c0b1c113          	xori	sp,gp,-1013
    5d84:	a4ed6097          	auipc	ra,0xa4ed6
    5d88:	e75e1017          	auipc	zero,0xe75e1
    5d8c:	00109133          	sll	sp,ra,ra
    5d90:	4a830493          	addi	s1,t1,1192 # 0xffffffff94a2e1f4
    5d94:	55b07113          	andi	sp,zero,1371
    5d98:	8d217093          	andi	ra,sp,-1838
    5d9c:	45fa8297          	auipc	t0,0x45fa8
    5da0:	00322233          	slt	tp,tp,gp
    5da4:	923cbe37          	lui	t3,0x923cb
    5da8:	76850117          	auipc	sp,0x76850
    5dac:	002140b3          	xor	ra,sp,sp
    5db0:	00000097          	auipc	ra,0x0
    5db4:	ed4080e7          	jalr	-300(ra) # 0x5c84
    5db8:	dc58f117          	auipc	sp,0xdc58f
    5dbc:	9103c213          	xori	tp,t2,-1776
    5dc0:	9eca1237          	lui	tp,0x9eca1
    5dc4:	585da297          	auipc	t0,0x585da
    5dc8:	007361b3          	or	gp,t1,t2
    5dcc:	001114b3          	sll	s1,sp,ra
    5dd0:	e5401097          	auipc	ra,0xe5401
    5dd4:	2245b1b7          	lui	gp,0x2245b
    5dd8:	405051b3          	sra	gp,zero,t0
    5ddc:	e4a1c013          	xori	zero,gp,-438
    5de0:	5cfcc0b7          	lui	ra,0x5cfcc
    5de4:	9840e093          	ori	ra,ra,-1660
    5de8:	c2408193          	addi	gp,ra,-988 # 0x5cfcbc24
    5dec:	0040c133          	xor	sp,ra,tp
    5df0:	412020b7          	lui	ra,0x41202
    5df4:	a0a16093          	ori	ra,sp,-1526
    5df8:	003193b3          	sll	t2,gp,gp
    5dfc:	00303333          	snez	t1,gp
    5e00:	e976b397          	auipc	t2,0xe976b
    5e04:	00f1d1b3          	srl	gp,gp,a5
    5e08:	fa0ea097          	auipc	ra,0xfa0ea
    5e0c:	0020d1b3          	srl	gp,ra,sp
    5e10:	968f1137          	lui	sp,0x968f1
    5e14:	acc27117          	auipc	sp,0xacc27
    5e18:	262e5197          	auipc	gp,0x262e5
    5e1c:	403181b3          	sub	gp,gp,gp
    5e20:	0011d7b3          	srl	a5,gp,ra
    5e24:	0030c0b3          	xor	ra,ra,gp
    5e28:	4b016393          	ori	t2,sp,1200
    5e2c:	f0ff9117          	auipc	sp,0xf0ff9
    5e30:	b8310ce3          	beq	sp,gp,0x59c8
    5e34:	b95ff16f          	jal	sp,0x59c8
    5e38:	794a2bb7          	lui	s7,0x794a2
    5e3c:	402107b3          	sub	a5,sp,sp
    5e40:	0011e2b3          	or	t0,gp,ra
    5e44:	1808a197          	auipc	gp,0x1808a
    5e48:	4e87d117          	auipc	sp,0x4e87d
    5e4c:	00511033          	sll	zero,sp,t0
    5e50:	0031d133          	srl	sp,gp,gp
    5e54:	2d30c293          	xori	t0,ra,723
    5e58:	00419333          	sll	t1,gp,tp
    5e5c:	fdbc1197          	auipc	gp,0xfdbc1
    5e60:	3f2f2197          	auipc	gp,0x3f2f2
    5e64:	12942217          	auipc	tp,0x12942
    5e68:	64379317          	auipc	t1,0x64379
    5e6c:	006a0133          	add	sp,s4,t1
    5e70:	00313233          	sltu	tp,sp,gp
    5e74:	0022e033          	or	zero,t0,sp
    5e78:	e007f217          	auipc	tp,0xe007f
    5e7c:	0026e1b3          	or	gp,a3,sp
    5e80:	aa5f4117          	auipc	sp,0xaa5f4
    5e84:	0021b133          	sltu	sp,gp,sp
    5e88:	681e7017          	auipc	zero,0x681e7
    5e8c:	403180b3          	sub	ra,gp,gp
    5e90:	de727117          	auipc	sp,0xde727
    5e94:	cab3f097          	auipc	ra,0xcab3f
    5e98:	ca7a2297          	auipc	t0,0xca7a2
    5e9c:	0060b2b3          	sltu	t0,ra,t1
    5ea0:	b81f1037          	lui	zero,0xb81f1
    5ea4:	c6008137          	lui	sp,0xc6008
    5ea8:	0000f2b3          	and	t0,ra,zero
    5eac:	00d1d0b3          	srl	ra,gp,a3
    5eb0:	8fa0e393          	ori	t2,ra,-1798
    5eb4:	0070fbb3          	and	s7,ra,t2
    5eb8:	0012f1b3          	and	gp,t0,ra
    5ebc:	001051b3          	srl	gp,zero,ra
    5ec0:	ff915197          	auipc	gp,0xff915
    5ec4:	001103b3          	add	t2,sp,ra
    5ec8:	0031e1b3          	or	gp,gp,gp
    5ecc:	00000013          	nop
    5ed0:	e4000ee3          	beqz	zero,0x5d2c
    5ed4:	a2e3f793          	andi	a5,t2,-1490
    5ed8:	b99bc0b7          	lui	ra,0xb99bc
    5edc:	2ea680b7          	lui	ra,0x2ea68
    5ee0:	14e5b0b7          	lui	ra,0x14e5b
    5ee4:	7f6e0117          	auipc	sp,0x7f6e0
    5ee8:	b0ab0317          	auipc	t1,0xb0ab0
    5eec:	35da0097          	auipc	ra,0x35da0
    5ef0:	00f3f0b3          	and	ra,t2,a5
    5ef4:	ee1a6093          	ori	ra,s4,-287
    5ef8:	801491b7          	lui	gp,0x80149
    5efc:	40315133          	sra	sp,sp,gp
    5f00:	5c116313          	ori	t1,sp,1473
    5f04:	002020b3          	sgtz	ra,sp
    5f08:	0b90ef97          	auipc	t6,0xb90e
    5f0c:	ddf1f993          	andi	s3,gp,-545
    5f10:	377df137          	lui	sp,0x377df
    5f14:	4017d0b3          	sra	ra,a5,ra
    5f18:	ff91f193          	andi	gp,gp,-7
    5f1c:	00117233          	and	tp,sp,ra
    5f20:	003121b3          	slt	gp,sp,gp
    5f24:	bfbac097          	auipc	ra,0xbfbac
    5f28:	efa9c397          	auipc	t2,0xefa9c
    5f2c:	0061b333          	sltu	t1,gp,t1
    5f30:	e2227213          	andi	tp,tp,-478
    5f34:	fb735197          	auipc	gp,0xfb735
    5f38:	0010b3b3          	sltu	t2,ra,ra
    5f3c:	002690b3          	sll	ra,a3,sp
    5f40:	106c01b7          	lui	gp,0x106c0
    5f44:	007170b3          	and	ra,sp,t2
    5f48:	d0857117          	auipc	sp,0xd0857
    5f4c:	0011f333          	and	t1,gp,ra
    5f50:	01c7b1b3          	sltu	gp,a5,t3
    5f54:	c8222317          	auipc	t1,0xc8222
    5f58:	40d181b3          	sub	gp,gp,a3
    5f5c:	a584d1b7          	lui	gp,0xa584d
    5f60:	62228063          	beq	t0,sp,0x6580
    5f64:	61c001ef          	jal	gp,0x6580
    5f68:	1a2ec037          	lui	zero,0x1a2ec
    5f6c:	002080b3          	add	ra,ra,sp
    5f70:	6e316113          	ori	sp,sp,1763
    5f74:	b048a097          	auipc	ra,0xb048a
    5f78:	9091e093          	ori	ra,gp,-1783
    5f7c:	00316033          	or	zero,sp,gp
    5f80:	0045c6b3          	xor	a3,a1,tp
    5f84:	9710a137          	lui	sp,0x9710a
    5f88:	9b11f397          	auipc	t2,0x9b11f
    5f8c:	00ec8097          	auipc	ra,0xec8
    5f90:	0101e033          	or	zero,gp,a6
    5f94:	003181b3          	add	gp,gp,gp
    5f98:	001003b3          	add	t2,zero,ra
    5f9c:	059cf097          	auipc	ra,0x59cf
    5fa0:	0033e1b3          	or	gp,t2,gp
    5fa4:	0291c113          	xori	sp,gp,41
    5fa8:	73093117          	auipc	sp,0x73093
    5fac:	1f8f6193          	ori	gp,t5,504
    5fb0:	14a16113          	ori	sp,sp,330
    5fb4:	85306093          	ori	ra,zero,-1965
    5fb8:	6a037093          	andi	ra,t1,1696
    5fbc:	40c0f193          	andi	gp,ra,1036
    5fc0:	51ee90b7          	lui	ra,0x51ee9
    5fc4:	00734133          	xor	sp,t1,t2
    5fc8:	ef629197          	auipc	gp,0xef629
    5fcc:	f029f3b7          	lui	t2,0xf029f
    5fd0:	001191b3          	sll	gp,gp,ra
    5fd4:	6609ec97          	auipc	s9,0x6609e
    5fd8:	e63170e3          	bgeu	sp,gp,0x5e38
    5fdc:	e4316ee3          	bltu	sp,gp,0x5e38
    5fe0:	2f68c0b7          	lui	ra,0x2f68c
    5fe4:	045d0097          	auipc	ra,0x45d0
    5fe8:	54537313          	andi	t1,t1,1349
    5fec:	7d908193          	addi	gp,ra,2009 # 0x45d67bd
    5ff0:	26e20393          	addi	t2,tp,622 # 0xffffffffe00850e6
    5ff4:	12eb2117          	auipc	sp,0x12eb2
    5ff8:	0f314397          	auipc	t2,0xf314
    5ffc:	68b4e097          	auipc	ra,0x68b4e
    6000:	aa843097          	auipc	ra,0xaa843
    6004:	0050b1b3          	sltu	gp,ra,t0
    6008:	77ffe097          	auipc	ra,0x77ffe
    600c:	40115633          	sra	a2,sp,ra
    6010:	00036333          	or	t1,t1,zero
    6014:	002161b3          	or	gp,sp,sp
    6018:	bc00f117          	auipc	sp,0xbc00f
    601c:	b5878037          	lui	zero,0xb5878
    6020:	4030d1b3          	sra	gp,ra,gp
    6024:	45a0e093          	ori	ra,ra,1114
    6028:	a643d137          	lui	sp,0xa643d
    602c:	403102b3          	sub	t0,sp,gp
    6030:	4d9b2237          	lui	tp,0x4d9b2
    6034:	0033a3b3          	slt	t2,t2,gp
    6038:	0020a133          	slt	sp,ra,sp
    603c:	003151b3          	srl	gp,sp,gp
    6040:	003081b3          	add	gp,ra,gp
    6044:	29033197          	auipc	gp,0x29033
    6048:	0030e133          	or	sp,ra,gp
    604c:	0001e0b3          	or	ra,gp,zero
    6050:	0032a133          	slt	sp,t0,gp
    6054:	00213133          	sltu	sp,sp,sp
    6058:	1431f263          	bgeu	gp,gp,0x619c
    605c:	1431e063          	bltu	gp,gp,0x619c
    6060:	8541f213          	andi	tp,gp,-1964
    6064:	004081b3          	add	gp,ra,tp
    6068:	3d41e293          	ori	t0,gp,980
    606c:	002161b3          	or	gp,sp,sp
    6070:	08147317          	auipc	t1,0x8147
    6074:	00216133          	or	sp,sp,sp
    6078:	000100b3          	add	ra,sp,zero
    607c:	003080b3          	add	ra,ra,gp
    6080:	000120b3          	sltz	ra,sp
    6084:	45985317          	auipc	t1,0x45985
    6088:	0061a6b3          	slt	a3,gp,t1
    608c:	a20bec97          	auipc	s9,0xa20be
    6090:	064250b7          	lui	ra,0x6425
    6094:	000e51b3          	srl	gp,t3,zero
    6098:	a9c33137          	lui	sp,0xa9c33
    609c:	0f61e793          	ori	a5,gp,246
    60a0:	d469c137          	lui	sp,0xd469c
    60a4:	00336133          	or	sp,t1,gp
    60a8:	0131b4b3          	sltu	s1,gp,s3
    60ac:	0020f0b3          	and	ra,ra,sp
    60b0:	c68490b7          	lui	ra,0xc6849
    60b4:	0033c0b3          	xor	ra,t2,gp
    60b8:	a3f1f093          	andi	ra,gp,-1473
    60bc:	00249133          	sll	sp,s1,sp
    60c0:	001170b3          	and	ra,sp,ra
    60c4:	eb1ed197          	auipc	gp,0xeb1ed
    60c8:	4bb151b7          	lui	gp,0x4bb15
    60cc:	c9216113          	ori	sp,sp,-878
    60d0:	00211133          	sll	sp,sp,sp
    60d4:	31c2e893          	ori	a7,t0,796
    60d8:	0011a0b3          	slt	ra,gp,ra
    60dc:	0040e5b3          	or	a1,ra,tp
    60e0:	00312133          	slt	sp,sp,gp
    60e4:	0f9830b7          	lui	ra,0xf983
    60e8:	a8208ee3          	beq	ra,sp,0x5b84
    60ec:	a99ff0ef          	jal	ra,0x5b84
    60f0:	003070b3          	and	ra,zero,gp
    60f4:	b0514193          	xori	gp,sp,-1275
    60f8:	003100b3          	add	ra,sp,gp
    60fc:	00104133          	xor	sp,zero,ra
    6100:	00414133          	xor	sp,sp,tp
    6104:	402181b3          	sub	gp,gp,sp
    6108:	89317093          	andi	ra,sp,-1901
    610c:	00214133          	xor	sp,sp,sp
    6110:	202ce0b7          	lui	ra,0x202ce
    6114:	403151b3          	sra	gp,sp,gp
    6118:	150f5117          	auipc	sp,0x150f5
    611c:	818b7097          	auipc	ra,0x818b7
    6120:	6c018093          	addi	ra,gp,1728 # 0x4bb156c0
    6124:	edf53037          	lui	zero,0xedf53
    6128:	1a89f497          	auipc	s1,0x1a89f
    612c:	47d96197          	auipc	gp,0x47d96
    6130:	0014b433          	sltu	s0,s1,ra
    6134:	17b16693          	ori	a3,sp,379
    6138:	6c03f193          	andi	gp,t2,1728
    613c:	51c16213          	ori	tp,sp,1308
    6140:	00316133          	or	sp,sp,gp
    6144:	df7451b7          	lui	gp,0xdf745
    6148:	0040a0b3          	slt	ra,ra,tp
    614c:	7f8901b7          	lui	gp,0x7f890
    6150:	2b46f0b7          	lui	ra,0x2b46f
    6154:	0033f0b3          	and	ra,t2,gp
    6158:	4030d233          	sra	tp,ra,gp
    615c:	7a29e137          	lui	sp,0x7a29e
    6160:	0011d0b3          	srl	ra,gp,ra
    6164:	4041d1b3          	sra	gp,gp,tp
    6168:	004092b3          	sll	t0,ra,tp
    616c:	31c07117          	auipc	sp,0x31c07
    6170:	4010d0b3          	sra	ra,ra,ra
    6174:	b6695337          	lui	t1,0xb6695
    6178:	e7319397          	auipc	t2,0xe7319
    617c:	a89cc137          	lui	sp,0xa89cc
    6180:	0030d233          	srl	tp,ra,gp
    6184:	6f90f193          	andi	gp,ra,1785
    6188:	f470f197          	auipc	gp,0xf470f
    618c:	ada10e13          	addi	t3,sp,-1318 # 0xffffffffa89cbada
    6190:	0033b1b3          	sltu	gp,t2,gp
    6194:	00020093          	mv	ra,tp
    6198:	a4408ee3          	beq	ra,tp,0x5bf4
    619c:	90471337          	lui	t1,0x90471
    61a0:	bb138093          	addi	ra,t2,-1103 # 0xffffffffe731ed29
    61a4:	19b17613          	andi	a2,sp,411
    61a8:	75b47113          	andi	sp,s0,1883
    61ac:	a0714193          	xori	gp,sp,-1529
    61b0:	00514e33          	xor	t3,sp,t0
    61b4:	003172b3          	and	t0,sp,gp
    61b8:	001110b3          	sll	ra,sp,ra
    61bc:	0010a033          	slt	zero,ra,ra
    61c0:	1aab7217          	auipc	tp,0x1aab7
    61c4:	bca1e213          	ori	tp,gp,-1078
    61c8:	003071b3          	and	gp,zero,gp
    61cc:	c9e18293          	addi	t0,gp,-866 # 0xfffffffff4714e26
    61d0:	00624233          	xor	tp,tp,t1
    61d4:	83b3e293          	ori	t0,t2,-1989
    61d8:	0010e1b3          	or	gp,ra,ra
    61dc:	0011e1b3          	or	gp,gp,ra
    61e0:	004121b3          	slt	gp,sp,tp
    61e4:	001071b3          	and	gp,zero,ra
    61e8:	6dd56037          	lui	zero,0x6dd56
    61ec:	b642b0b7          	lui	ra,0xb642b
    61f0:	0010c133          	xor	sp,ra,ra
    61f4:	10c3f093          	andi	ra,t2,268
    61f8:	0030d133          	srl	sp,ra,gp
    61fc:	ece2e593          	ori	a1,t0,-306
    6200:	07620113          	addi	sp,tp,118 # 0x1aabd236
    6204:	574a11b7          	lui	gp,0x574a1
    6208:	92210293          	addi	t0,sp,-1758
    620c:	1f0c5117          	auipc	sp,0x1f0c5
    6210:	4133d133          	sra	sp,t2,s3
    6214:	2d427113          	andi	sp,tp,724
    6218:	9b50c113          	xori	sp,ra,-1611
    621c:	002100b3          	add	ra,sp,sp
    6220:	003201b3          	add	gp,tp,gp
    6224:	00259333          	sll	t1,a1,sp
    6228:	00100263          	beq	zero,ra,0x622c
    622c:	f08ff1ef          	jal	gp,0x5934
    6230:	14c39297          	auipc	t0,0x14c39
    6234:	010241b3          	xor	gp,tp,a6
    6238:	0041a1b3          	slt	gp,gp,tp
    623c:	c9d0a0b7          	lui	ra,0xc9d0a
    6240:	c690c113          	xori	sp,ra,-919
    6244:	cb7c2117          	auipc	sp,0xcb7c2
    6248:	32e34197          	auipc	gp,0x32e34
    624c:	e8c6c313          	xori	t1,a3,-372
    6250:	00171133          	sll	sp,a4,ra
    6254:	cf710493          	addi	s1,sp,-777 # 0xffffffffcb7c7f3b
    6258:	0031d0b3          	srl	ra,gp,gp
    625c:	001150b3          	srl	ra,sp,ra
    6260:	0031e2b3          	or	t0,gp,gp
    6264:	34f52197          	auipc	gp,0x34f52
    6268:	778570b7          	lui	ra,0x77857
    626c:	3e172097          	auipc	ra,0x3e172
    6270:	10d0e093          	ori	ra,ra,269
    6274:	0d482197          	auipc	gp,0xd482
    6278:	40315233          	sra	tp,sp,gp
    627c:	1bb750b7          	lui	ra,0x1bb75
    6280:	124f8117          	auipc	sp,0x124f8
    6284:	b5a99097          	auipc	ra,0xb5a99
    6288:	0150d5b3          	srl	a1,ra,s5
    628c:	e4c30193          	addi	gp,t1,-436 # 0xffffffff90470e4c
    6290:	1bf0e197          	auipc	gp,0x1bf0e
    6294:	bbc27113          	andi	sp,tp,-1092
    6298:	a1534113          	xori	sp,t1,-1515
    629c:	00309133          	sll	sp,ra,gp
    62a0:	402151b3          	sra	gp,sp,sp
    62a4:	6f0c3337          	lui	t1,0x6f0c3
    62a8:	002199b3          	sll	s3,gp,sp
    62ac:	8e6ed1b7          	lui	gp,0x8e6ed
    62b0:	221080b7          	lui	ra,0x22108
    62b4:	003361b3          	or	gp,t1,gp
    62b8:	002dc033          	xor	zero,s11,sp
    62bc:	00048193          	mv	gp,s1
    62c0:	829184e3          	beq	gp,s1,0x5ae8
    62c4:	133aa4b7          	lui	s1,0x133aa
    62c8:	00935133          	srl	sp,t1,s1
    62cc:	0015b0b3          	sltu	ra,a1,ra
    62d0:	8d1ce213          	ori	tp,s9,-1839
    62d4:	40615233          	sra	tp,sp,t1
    62d8:	01025133          	srl	sp,tp,a6
    62dc:	001130b3          	sltu	ra,sp,ra
    62e0:	953f31b7          	lui	gp,0x953f3
    62e4:	aa308017          	auipc	zero,0xaa308
    62e8:	0030a1b3          	slt	gp,ra,gp
    62ec:	2f382137          	lui	sp,0x2f382
    62f0:	2d1af217          	auipc	tp,0x2d1af
    62f4:	0011f1b3          	and	gp,gp,ra
    62f8:	0023f133          	and	sp,t2,sp
    62fc:	0011d0b3          	srl	ra,gp,ra
    6300:	f991f093          	andi	ra,gp,-103
    6304:	7d9f7197          	auipc	gp,0x7d9f7
    6308:	f03ab0b7          	lui	ra,0xf03ab
    630c:	7e814193          	xori	gp,sp,2024
    6310:	00f1f1b3          	and	gp,gp,a5
    6314:	0020c0b3          	xor	ra,ra,sp
    6318:	3650c093          	xori	ra,ra,869
    631c:	0011a133          	slt	sp,gp,ra
    6320:	005201b3          	add	gp,tp,t0
    6324:	00315133          	srl	sp,sp,gp
    6328:	2b93eeb7          	lui	t4,0x2b93e
    632c:	403351b3          	sra	gp,t1,gp
    6330:	405150b3          	sra	ra,sp,t0
    6334:	0021d1b3          	srl	gp,gp,sp
    6338:	401151b3          	sra	gp,sp,ra
    633c:	40308133          	sub	sp,ra,gp
    6340:	40408133          	sub	sp,ra,tp
    6344:	c400f6b7          	lui	a3,0xc400f
    6348:	064062b7          	lui	t0,0x6406
    634c:	00228133          	add	sp,t0,sp
    6350:	0030f0b3          	and	ra,ra,gp
    6354:	a61182e3          	beq	gp,ra,0x5db8
    6358:	a61ff1ef          	jal	gp,0x5db8
    635c:	00321db3          	sll	s11,tp,gp
    6360:	002c12b3          	sll	t0,s8,sp
    6364:	59a56297          	auipc	t0,0x59a56
    6368:	003122b3          	slt	t0,sp,gp
    636c:	93356137          	lui	sp,0x93356
    6370:	af452e17          	auipc	t3,0xaf452
    6374:	414ec397          	auipc	t2,0x414ec
    6378:	2ebf72b7          	lui	t0,0x2ebf7
    637c:	a8208e93          	addi	t4,ra,-1406 # 0xfffffffff03aaa82
    6380:	b33e8197          	auipc	gp,0xb33e8
    6384:	099d8117          	auipc	sp,0x99d8
    6388:	3ef1e113          	ori	sp,gp,1007
    638c:	00115133          	srl	sp,sp,ra
    6390:	65849697          	auipc	a3,0x65849
    6394:	003381b3          	add	gp,t2,gp
    6398:	001182b3          	add	t0,gp,ra
    639c:	28775117          	auipc	sp,0x28775
    63a0:	ab185117          	auipc	sp,0xab185
    63a4:	fa045337          	lui	t1,0xfa045
    63a8:	00210133          	add	sp,sp,sp
    63ac:	40330233          	sub	tp,t1,gp
    63b0:	5ad0e113          	ori	sp,ra,1453
    63b4:	b0d22397          	auipc	t2,0xb0d22
    63b8:	58664137          	lui	sp,0x58664
    63bc:	0030d233          	srl	tp,ra,gp
    63c0:	fa508113          	addi	sp,ra,-91
    63c4:	e4a05197          	auipc	gp,0xe4a05
    63c8:	0071a0b3          	slt	ra,gp,t2
    63cc:	91227293          	andi	t0,tp,-1774
    63d0:	0021f133          	and	sp,gp,sp
    63d4:	003089b3          	add	s3,ra,gp
    63d8:	002083b3          	add	t2,ra,sp
    63dc:	70e61cb7          	lui	s9,0x70e61
    63e0:	0f37e117          	auipc	sp,0xf37e
    63e4:	00000117          	auipc	sp,0x0
    63e8:	008107e7          	jalr	a5,8(sp) # 0x63ec
    63ec:	4020d133          	sra	sp,ra,sp
    63f0:	d4016113          	ori	sp,sp,-704
    63f4:	31cf5197          	auipc	gp,0x31cf5
    63f8:	36a0c213          	xori	tp,ra,874
    63fc:	40408033          	sub	zero,ra,tp
    6400:	338f3117          	auipc	sp,0x338f3
    6404:	aae18113          	addi	sp,gp,-1362 # 0x31cfaea2
    6408:	8b774097          	auipc	ra,0x8b774
    640c:	da4f01b7          	lui	gp,0xda4f0
    6410:	d2788317          	auipc	t1,0xd2788
    6414:	bbf20113          	addi	sp,tp,-1089 # 0x2d1b4eaf
    6418:	001161b3          	or	gp,sp,ra
    641c:	e27ae0b7          	lui	ra,0xe27ae
    6420:	26b570b7          	lui	ra,0x26b57
    6424:	0010d0b3          	srl	ra,ra,ra
    6428:	00314133          	xor	sp,sp,gp
    642c:	69692197          	auipc	gp,0x69692
    6430:	f4c24097          	auipc	ra,0xf4c24
    6434:	46e1c193          	xori	gp,gp,1134
    6438:	f881d3b7          	lui	t2,0xf881d
    643c:	b7f0f293          	andi	t0,ra,-1153
    6440:	0050b0b3          	sltu	ra,ra,t0
    6444:	003160b3          	or	ra,sp,gp
    6448:	17714117          	auipc	sp,0x17714
    644c:	cdd791b7          	lui	gp,0xcdd79
    6450:	007162b3          	or	t0,sp,t2
    6454:	6e0fc097          	auipc	ra,0x6e0fc
    6458:	0030c1b3          	xor	gp,ra,gp
    645c:	a806d097          	auipc	ra,0xa806d
    6460:	001132b3          	sltu	t0,sp,ra
    6464:	cf9671b7          	lui	gp,0xcf967
    6468:	8b276113          	ori	sp,a4,-1870
    646c:	00018213          	mv	tp,gp
    6470:	c83200e3          	beq	tp,gp,0x60f0
    6474:	27fae137          	lui	sp,0x27fae
    6478:	0015a1b3          	slt	gp,a1,ra
    647c:	2d514b13          	xori	s6,sp,725
    6480:	42330113          	addi	sp,t1,1059 # 0xffffffffd278e833
    6484:	afa48193          	addi	gp,s1,-1286 # 0x133a9afa
    6488:	b5961297          	auipc	t0,0xb5961
    648c:	0050f1b3          	and	gp,ra,t0
    6490:	4cfeb137          	lui	sp,0x4cfeb
    6494:	53316093          	ori	ra,sp,1331
    6498:	0040a233          	slt	tp,ra,tp
    649c:	002170b3          	and	ra,sp,sp
    64a0:	4007d133          	sra	sp,a5,zero
    64a4:	6a453117          	auipc	sp,0x6a453
    64a8:	002301b3          	add	gp,t1,sp
    64ac:	0060a233          	slt	tp,ra,t1
    64b0:	006151b3          	srl	gp,sp,t1
    64b4:	26b20193          	addi	gp,tp,619 # 0x26b
    64b8:	6f108313          	addi	t1,ra,1777 # 0xffffffffa8073b4d
    64bc:	62e2c197          	auipc	gp,0x62e2c
    64c0:	6dd07113          	andi	sp,zero,1757
    64c4:	419082b3          	sub	t0,ra,s9
    64c8:	003243b3          	xor	t2,tp,gp
    64cc:	1a718113          	addi	sp,gp,423 # 0x62e32663
    64d0:	00310133          	add	sp,sp,gp
    64d4:	83bc81b7          	lui	gp,0x83bc8
    64d8:	0061b133          	sltu	sp,gp,t1
    64dc:	e00fc097          	auipc	ra,0xe00fc
    64e0:	0008b233          	sltu	tp,a7,zero
    64e4:	4011d0b3          	sra	ra,gp,ra
    64e8:	007121b3          	slt	gp,sp,t2
    64ec:	00310263          	beq	sp,gp,0x64f0
    64f0:	7090016f          	jal	sp,0x73f8
    64f4:	1257c1b7          	lui	gp,0x1257c
    64f8:	e986c2b7          	lui	t0,0xe986c
    64fc:	00711233          	sll	tp,sp,t2
    6500:	498f21b7          	lui	gp,0x498f2
    6504:	00526133          	or	sp,tp,t0
    6508:	e47ba197          	auipc	gp,0xe47ba
    650c:	849492b7          	lui	t0,0x84949
    6510:	b15611b7          	lui	gp,0xb1561
    6514:	8d816313          	ori	t1,sp,-1832
    6518:	fab7a0b7          	lui	ra,0xfab7a
    651c:	1b71a397          	auipc	t2,0x1b71a
    6520:	0051f1b3          	and	gp,gp,t0
    6524:	0030a1b3          	slt	gp,ra,gp
    6528:	4041d133          	sra	sp,gp,tp
    652c:	000d51b3          	srl	gp,s10,zero
    6530:	defd8197          	auipc	gp,0xdefd8
    6534:	b8468113          	addi	sp,a3,-1148 # 0x6584ef14
    6538:	5b103217          	auipc	tp,0x5b103
    653c:	4eb131b7          	lui	gp,0x4eb13
    6540:	6f410393          	addi	t2,sp,1780 # 0x6a459b98
    6544:	000073b3          	and	t2,zero,zero
    6548:	0031f1b3          	and	gp,gp,gp
    654c:	0061b0b3          	sltu	ra,gp,t1
    6550:	aee10093          	addi	ra,sp,-1298
    6554:	99e86217          	auipc	tp,0x99e86
    6558:	0020d3b3          	srl	t2,ra,sp
    655c:	696d3137          	lui	sp,0x696d3
    6560:	774df117          	auipc	sp,0x774df
    6564:	f521b117          	auipc	sp,0xf521b
    6568:	f61c5217          	auipc	tp,0xf61c5
    656c:	79b19137          	lui	sp,0x79b19
    6570:	21906193          	ori	gp,zero,537
    6574:	003171b3          	and	gp,sp,gp
    6578:	2e200063          	beq	zero,sp,0x6858
    657c:	2dc0016f          	jal	sp,0x6858
    6580:	84a0e113          	ori	sp,ra,-1974
    6584:	b8edc117          	auipc	sp,0xb8edc
    6588:	51117193          	andi	gp,sp,1297
    658c:	fbd9d017          	auipc	zero,0xfbd9d
    6590:	40210133          	sub	sp,sp,sp
    6594:	00619033          	sll	zero,gp,t1
    6598:	db21e213          	ori	tp,gp,-590
    659c:	a1a14c13          	xori	s8,sp,-1510
    65a0:	68f56093          	ori	ra,a0,1679
    65a4:	ddc980b7          	lui	ra,0xddc98
    65a8:	1c9f5237          	lui	tp,0x1c9f5
    65ac:	433f5137          	lui	sp,0x433f5
    65b0:	401284b3          	sub	s1,t0,ra
    65b4:	e9608193          	addi	gp,ra,-362 # 0xffffffffddc97e96
    65b8:	f04b0197          	auipc	gp,0xf04b0
    65bc:	f6cd0197          	auipc	gp,0xf6cd0
    65c0:	400250b3          	sra	ra,tp,zero
    65c4:	bb94b097          	auipc	ra,0xbb94b
    65c8:	e0b27393          	andi	t2,tp,-501
    65cc:	00217133          	and	sp,sp,sp
    65d0:	f7d10013          	addi	zero,sp,-131 # 0x433f4f7d
    65d4:	000187b3          	add	a5,gp,zero
    65d8:	50e68293          	addi	t0,a3,1294
    65dc:	402e01b3          	sub	gp,t3,sp
    65e0:	c471e093          	ori	ra,gp,-953
    65e4:	003093b3          	sll	t2,ra,gp
    65e8:	ec410193          	addi	gp,sp,-316
    65ec:	4020d333          	sra	t1,ra,sp
    65f0:	0191f097          	auipc	ra,0x191f
    65f4:	006852b7          	lui	t0,0x685
    65f8:	9ffdb097          	auipc	ra,0x9ffdb
    65fc:	3b4f1117          	auipc	sp,0x3b4f1
    6600:	8b385017          	auipc	zero,0x8b385
    6604:	14c38097          	auipc	ra,0x14c38
    6608:	00114333          	xor	t1,sp,ra
    660c:	0024e0b3          	or	ra,s1,sp
    6610:	2c510a63          	beq	sp,t0,0x68e4
    6614:	2d0000ef          	jal	ra,0x68e4
    6618:	00723db3          	sltu	s11,tp,t2
    661c:	00317333          	and	t1,sp,gp
    6620:	46e38137          	lui	sp,0x46e38
    6624:	274d02b7          	lui	t0,0x274d0
    6628:	832b6113          	ori	sp,s6,-1998
    662c:	01b0c133          	xor	sp,ra,s11
    6630:	e7d16213          	ori	tp,sp,-387
    6634:	00172133          	slt	sp,a4,ra
    6638:	28817113          	andi	sp,sp,648
    663c:	0033c1b3          	xor	gp,t2,gp
    6640:	00318033          	add	zero,gp,gp
    6644:	67d0c093          	xori	ra,ra,1661
    6648:	0021a1b3          	slt	gp,gp,sp
    664c:	4020d1b3          	sra	gp,ra,sp
    6650:	09936097          	auipc	ra,0x9936
    6654:	0011b2b3          	sltu	t0,gp,ra
    6658:	00106333          	or	t1,zero,ra
    665c:	b21341b7          	lui	gp,0xb2134
    6660:	00215133          	srl	sp,sp,sp
    6664:	8207a097          	auipc	ra,0x8207a
    6668:	3c4562b7          	lui	t0,0x3c456
    666c:	82719197          	auipc	gp,0x82719
    6670:	001081b3          	add	gp,ra,ra
    6674:	002092b3          	sll	t0,ra,sp
    6678:	437e81b7          	lui	gp,0x437e8
    667c:	008130b3          	sltu	ra,sp,s0
    6680:	b2136293          	ori	t0,t1,-1247
    6684:	0054c0b3          	xor	ra,s1,t0
    6688:	bb4f2137          	lui	sp,0xbb4f2
    668c:	fc8912b7          	lui	t0,0xfc891
    6690:	4012d0b3          	sra	ra,t0,ra
    6694:	404000b3          	neg	ra,tp
    6698:	004171b3          	and	gp,sp,tp
    669c:	0030c2b3          	xor	t0,ra,gp
    66a0:	00310263          	beq	sp,gp,0x66a4
    66a4:	061005ef          	jal	a1,0x6f04
    66a8:	4031d0b3          	sra	ra,gp,gp
    66ac:	00300133          	add	sp,zero,gp
    66b0:	276ae197          	auipc	gp,0x276ae
    66b4:	3fe061b7          	lui	gp,0x3fe06
    66b8:	5fac31b7          	lui	gp,0x5fac3
    66bc:	6de1b137          	lui	sp,0x6de1b
    66c0:	2371e093          	ori	ra,gp,567
    66c4:	001090b3          	sll	ra,ra,ra
    66c8:	331a0197          	auipc	gp,0x331a0
    66cc:	c85aa237          	lui	tp,0xc85aa
    66d0:	c1ca1137          	lui	sp,0xc1ca1
    66d4:	87e8d097          	auipc	ra,0x87e8d
    66d8:	5e316613          	ori	a2,sp,1507
    66dc:	dff595b7          	lui	a1,0xdff59
    66e0:	4020d1b3          	sra	gp,ra,sp
    66e4:	003300b3          	add	ra,t1,gp
    66e8:	5ccd6217          	auipc	tp,0x5ccd6
    66ec:	00634233          	xor	tp,t1,t1
    66f0:	55ce90b7          	lui	ra,0x55ce9
    66f4:	001141b3          	xor	gp,sp,ra
    66f8:	92e60e17          	auipc	t3,0x92e60
    66fc:	3b61e193          	ori	gp,gp,950
    6700:	bb808193          	addi	gp,ra,-1096 # 0x55ce8bb8
    6704:	0040a133          	slt	sp,ra,tp
    6708:	00311133          	sll	sp,sp,gp
    670c:	1d81c113          	xori	sp,gp,472
    6710:	0040d0b3          	srl	ra,ra,tp
    6714:	004211b3          	sll	gp,tp,tp
    6718:	0020e0b3          	or	ra,ra,sp
    671c:	56065197          	auipc	gp,0x56065
    6720:	f2e10217          	auipc	tp,0xf2e10
    6724:	643af197          	auipc	gp,0x643af
    6728:	1d517137          	lui	sp,0x1d517
    672c:	40318133          	sub	sp,gp,gp
    6730:	0012b133          	sltu	sp,t0,ra
    6734:	013580b3          	add	ra,a1,s3
    6738:	003242b3          	xor	t0,tp,gp
    673c:	0f7040b7          	lui	ra,0xf704
    6740:	00000197          	auipc	gp,0x0
    6744:	db418167          	jalr	sp,-588(gp) # 0x64f4
    6748:	40218433          	sub	s0,gp,sp
    674c:	82ea5217          	auipc	tp,0x82ea5
    6750:	833991b7          	lui	gp,0x83399
    6754:	401101b3          	sub	gp,sp,ra
    6758:	403103b3          	sub	t2,sp,gp
    675c:	000221b3          	sltz	gp,tp
    6760:	001381b3          	add	gp,t2,ra
    6764:	54988217          	auipc	tp,0x54988
    6768:	0030c1b3          	xor	gp,ra,gp
    676c:	00317133          	and	sp,sp,gp
    6770:	a62d0117          	auipc	sp,0xa62d0
    6774:	225dd097          	auipc	ra,0x225dd
    6778:	15308193          	addi	gp,ra,339 # 0x225e38c7
    677c:	1c744697          	auipc	a3,0x1c744
    6780:	0021c1b3          	xor	gp,gp,sp
    6784:	40310033          	sub	zero,sp,gp
    6788:	0021a3b3          	slt	t2,gp,sp
    678c:	00415233          	srl	tp,sp,tp
    6790:	4ecb7217          	auipc	tp,0x4ecb7
    6794:	40c10133          	sub	sp,sp,a2
    6798:	0102c0b3          	xor	ra,t0,a6
    679c:	0010d1b3          	srl	gp,ra,ra
    67a0:	88920193          	addi	gp,tp,-1911 # 0x4ecbd019
    67a4:	002111b3          	sll	gp,sp,sp
    67a8:	c20630b7          	lui	ra,0xc2063
    67ac:	0fb08113          	addi	sp,ra,251 # 0xffffffffc20630fb
    67b0:	2f006113          	ori	sp,zero,752
    67b4:	00428133          	add	sp,t0,tp
    67b8:	aaa10113          	addi	sp,sp,-1366 # 0xffffffffa62d621a
    67bc:	0022b0b3          	sltu	ra,t0,sp
    67c0:	98ea1117          	auipc	sp,0x98ea1
    67c4:	6a218463          	beq	gp,sp,0x6e6c
    67c8:	6a4003ef          	jal	t2,0x6e6c
    67cc:	6f41e113          	ori	sp,gp,1780
    67d0:	f42283b7          	lui	t2,0xf4228
    67d4:	1ff490b7          	lui	ra,0x1ff49
    67d8:	e05e8097          	auipc	ra,0xe05e8
    67dc:	0020d1b3          	srl	gp,ra,sp
    67e0:	000141b3          	xor	gp,sp,zero
    67e4:	6a131197          	auipc	gp,0x6a131
    67e8:	efcd1217          	auipc	tp,0xefcd1
    67ec:	b22db097          	auipc	ra,0xb22db
    67f0:	5a50c193          	xori	gp,ra,1445
    67f4:	607b9137          	lui	sp,0x607b9
    67f8:	031b6197          	auipc	gp,0x31b6
    67fc:	40d181b3          	sub	gp,gp,a3
    6800:	401153b3          	sra	t2,sp,ra
    6804:	df617013          	andi	zero,sp,-522
    6808:	407150b3          	sra	ra,sp,t2
    680c:	fc9790b7          	lui	ra,0xfc979
    6810:	31210113          	addi	sp,sp,786 # 0x607b9312
    6814:	7600c117          	auipc	sp,0x7600c
    6818:	f971e193          	ori	gp,gp,-105
    681c:	0021d1b3          	srl	gp,gp,sp
    6820:	0011d0b3          	srl	ra,gp,ra
    6824:	3e1760b7          	lui	ra,0x3e176
    6828:	8a5ba3b7          	lui	t2,0x8a5ba
    682c:	40508033          	sub	zero,ra,t0
    6830:	58ed6137          	lui	sp,0x58ed6
    6834:	aa35d137          	lui	sp,0xaa35d
    6838:	92e780b7          	lui	ra,0x92e78
    683c:	dd5400b7          	lui	ra,0xdd540
    6840:	de83f113          	andi	sp,t2,-536
    6844:	4020d1b3          	sra	gp,ra,sp
    6848:	04bf6197          	auipc	gp,0x4bf6
    684c:	566c3297          	auipc	t0,0x566c3
    6850:	47038663          	beq	t2,a6,0x6cbc
    6854:	468001ef          	jal	gp,0x6cbc
    6858:	c630c793          	xori	a5,ra,-925
    685c:	d4747137          	lui	sp,0xd4747
    6860:	61b710b7          	lui	ra,0x61b71
    6864:	5d9e7097          	auipc	ra,0x5d9e7
    6868:	0171e1b3          	or	gp,gp,s7
    686c:	400150b3          	sra	ra,sp,zero
    6870:	22527193          	andi	gp,tp,549
    6874:	001191b3          	sll	gp,gp,ra
    6878:	00512133          	slt	sp,sp,t0
    687c:	40b102b3          	sub	t0,sp,a1
    6880:	1217c0b7          	lui	ra,0x1217c
    6884:	05cb6397          	auipc	t2,0x5cb6
    6888:	1362e393          	ori	t2,t0,310
    688c:	d675c137          	lui	sp,0xd675c
    6890:	325ff097          	auipc	ra,0x325ff
    6894:	3de0c013          	xori	zero,ra,990
    6898:	0070d0b3          	srl	ra,ra,t2
    689c:	6d03f193          	andi	gp,t2,1744
    68a0:	65d14317          	auipc	t1,0x65d14
    68a4:	711280b7          	lui	ra,0x71128
    68a8:	0033c233          	xor	tp,t2,gp
    68ac:	002080b3          	add	ra,ra,sp
    68b0:	bd401097          	auipc	ra,0xbd401
    68b4:	6150e393          	ori	t2,ra,1557
    68b8:	0020d133          	srl	sp,ra,sp
    68bc:	7db06c13          	ori	s8,zero,2011
    68c0:	fcb14113          	xori	sp,sp,-53
    68c4:	12877317          	auipc	t1,0x12877
    68c8:	a300d0b7          	lui	ra,0xa300d
    68cc:	403100b3          	sub	ra,sp,gp
    68d0:	000080b3          	add	ra,ra,zero
    68d4:	002131b3          	sltu	gp,sp,sp
    68d8:	404081b3          	sub	gp,ra,tp
    68dc:	00070193          	mv	gp,a4
    68e0:	b8e18ae3          	beq	gp,a4,0x6474
    68e4:	00b1a0b3          	slt	ra,gp,a1
    68e8:	a1541117          	auipc	sp,0xa1541
    68ec:	fc939237          	lui	tp,0xfc939
    68f0:	17c89117          	auipc	sp,0x17c89
    68f4:	401182b3          	sub	t0,gp,ra
    68f8:	ca409197          	auipc	gp,0xca409
    68fc:	1d5d9137          	lui	sp,0x1d5d9
    6900:	160be097          	auipc	ra,0x160be
    6904:	e401c393          	xori	t2,gp,-448
    6908:	0011d0b3          	srl	ra,gp,ra
    690c:	24a471b7          	lui	gp,0x24a47
    6910:	8c42a197          	auipc	gp,0x8c42a
    6914:	000210b3          	sll	ra,tp,zero
    6918:	b7bc7137          	lui	sp,0xb7bc7
    691c:	5e8de237          	lui	tp,0x5e8de
    6920:	b4010113          	addi	sp,sp,-1216 # 0xffffffffb7bc6b40
    6924:	12ba6097          	auipc	ra,0x12ba6
    6928:	47c17693          	andi	a3,sp,1148
    692c:	c25a6197          	auipc	gp,0xc25a6
    6930:	1600c313          	xori	t1,ra,352
    6934:	0073b133          	sltu	sp,t2,t2
    6938:	c3d7e117          	auipc	sp,0xc3d7e
    693c:	0298b197          	auipc	gp,0x298b
    6940:	004350b3          	srl	ra,t1,tp
    6944:	b76b30b7          	lui	ra,0xb76b3
    6948:	005160b3          	or	ra,sp,t0
    694c:	001251b3          	srl	gp,tp,ra
    6950:	6d074097          	auipc	ra,0x6d074
    6954:	f7e2e037          	lui	zero,0xf7e2e
    6958:	0031a0b3          	slt	ra,gp,gp
    695c:	4523e117          	auipc	sp,0x4523e
    6960:	0020e133          	or	sp,ra,sp
    6964:	00122233          	slt	tp,tp,ra
    6968:	5a1c7037          	lui	zero,0x5a1c7
    696c:	dc037ee3          	bgeu	t1,zero,0x6748
    6970:	dc036ce3          	bltu	t1,zero,0x6748
    6974:	a1606237          	lui	tp,0xa1606
    6978:	14e4b1b7          	lui	gp,0x14e4b
    697c:	fbeb5197          	auipc	gp,0xfbeb5
    6980:	abcb9137          	lui	sp,0xabcb9
    6984:	40430333          	sub	t1,t1,tp
    6988:	69d32137          	lui	sp,0x69d32
    698c:	00214033          	xor	zero,sp,sp
    6990:	5c510137          	lui	sp,0x5c510
    6994:	7671f393          	andi	t2,gp,1895
    6998:	407383b3          	sub	t2,t2,t2
    699c:	46c1c393          	xori	t2,gp,1132
    69a0:	0301d217          	auipc	tp,0x301d
    69a4:	75447097          	auipc	ra,0x75447
    69a8:	0061c133          	xor	sp,gp,t1
    69ac:	c7010093          	addi	ra,sp,-912 # 0x5c50fc70
    69b0:	007122b3          	slt	t0,sp,t2
    69b4:	253490b7          	lui	ra,0x25349
    69b8:	000190b3          	sll	ra,gp,zero
    69bc:	00238133          	add	sp,t2,sp
    69c0:	002131b3          	sltu	gp,sp,sp
    69c4:	407380b3          	sub	ra,t2,t2
    69c8:	277552b7          	lui	t0,0x27755
    69cc:	002340b3          	xor	ra,t1,sp
    69d0:	04d19097          	auipc	ra,0x4d19
    69d4:	002211b3          	sll	gp,tp,sp
    69d8:	0020d1b3          	srl	gp,ra,sp
    69dc:	e7f1f093          	andi	ra,gp,-385
    69e0:	785d4137          	lui	sp,0x785d4
    69e4:	0061b1b3          	sltu	gp,gp,t1
    69e8:	80910093          	addi	ra,sp,-2039 # 0x785d3809
    69ec:	00020213          	mv	tp,tp
    69f0:	1a420663          	beq	tp,tp,0x6b9c
    69f4:	0021b133          	sltu	sp,gp,sp
    69f8:	a029d3b7          	lui	t2,0xa029d
    69fc:	00909133          	sll	sp,ra,s1
    6a00:	21fdf113          	andi	sp,s11,543
    6a04:	c320f293          	andi	t0,ra,-974
    6a08:	b8f0c113          	xori	sp,ra,-1137
    6a0c:	f5def397          	auipc	t2,0xf5def
    6a10:	002220b3          	slt	ra,tp,sp
    6a14:	0035f1b3          	and	gp,a1,gp
    6a18:	c9923197          	auipc	gp,0xc9923
    6a1c:	401b51b3          	sra	gp,s6,ra
    6a20:	001045b3          	xor	a1,zero,ra
    6a24:	8b4af097          	auipc	ra,0x8b4af
    6a28:	a046b197          	auipc	gp,0xa046b
    6a2c:	b571e093          	ori	ra,gp,-1193
    6a30:	4131f113          	andi	sp,gp,1043
    6a34:	0013d0b3          	srl	ra,t2,ra
    6a38:	401100b3          	sub	ra,sp,ra
    6a3c:	bd00f0b7          	lui	ra,0xbd00f
    6a40:	0065b133          	sltu	sp,a1,t1
    6a44:	ac634093          	xori	ra,t1,-1338
    6a48:	39591197          	auipc	gp,0x39591
    6a4c:	8b01c113          	xori	sp,gp,-1872
    6a50:	0011f333          	and	t1,gp,ra
    6a54:	001036b3          	snez	a3,ra
    6a58:	2ea10197          	auipc	gp,0x2ea10
    6a5c:	003121b3          	slt	gp,sp,gp
    6a60:	262710b7          	lui	ra,0x26271
    6a64:	daab2117          	auipc	sp,0xdaab2
    6a68:	003240b3          	xor	ra,tp,gp
    6a6c:	0060a133          	slt	sp,ra,t1
    6a70:	405000b3          	neg	ra,t0
    6a74:	cdcb6117          	auipc	sp,0xcdcb6
    6a78:	00028113          	mv	sp,t0
    6a7c:	08510a63          	beq	sp,t0,0x6b10
    6a80:	00121033          	sll	zero,tp,ra
    6a84:	403181b3          	sub	gp,gp,gp
    6a88:	fda1e093          	ori	ra,gp,-38
    6a8c:	6911f193          	andi	gp,gp,1681
    6a90:	4a31e493          	ori	s1,gp,1187
    6a94:	0013a3b3          	slt	t2,t2,ra
    6a98:	00321133          	sll	sp,tp,gp
    6a9c:	1eb31197          	auipc	gp,0x1eb31
    6aa0:	0181f0b3          	and	ra,gp,s8
    6aa4:	30d110b7          	lui	ra,0x30d11
    6aa8:	e8d89197          	auipc	gp,0xe8d89
    6aac:	abd0d1b7          	lui	gp,0xabd0d
    6ab0:	8d21f293          	andi	t0,gp,-1838
    6ab4:	0000c1b3          	xor	gp,ra,zero
    6ab8:	6496e197          	auipc	gp,0x6496e
    6abc:	190fb1b7          	lui	gp,0x190fb
    6ac0:	00dca0b3          	slt	ra,s9,a3
    6ac4:	fc522117          	auipc	sp,0xfc522
    6ac8:	0016a133          	slt	sp,a3,ra
    6acc:	418581b3          	sub	gp,a1,s8
    6ad0:	403151b3          	sra	gp,sp,gp
    6ad4:	00117133          	and	sp,sp,ra
    6ad8:	002012b3          	sll	t0,zero,sp
    6adc:	2e3f70b7          	lui	ra,0x2e3f7
    6ae0:	00212133          	slt	sp,sp,sp
    6ae4:	02c18113          	addi	sp,gp,44 # 0x190fb02c
    6ae8:	d8010013          	addi	zero,sp,-640 # 0xfffffffffc528844
    6aec:	89b27193          	andi	gp,tp,-1893
    6af0:	6d737313          	andi	t1,t1,1751
    6af4:	0051a1b3          	slt	gp,gp,t0
    6af8:	523fe237          	lui	tp,0x523fe
    6afc:	52b50097          	auipc	ra,0x52b50
    6b00:	42d38113          	addi	sp,t2,1069 # 0xfffffffff5df5e39
    6b04:	00108133          	add	sp,ra,ra
    6b08:	00028513          	mv	a0,t0
    6b0c:	ee5504e3          	beq	a0,t0,0x69f4
    6b10:	5dee22b7          	lui	t0,0x5dee2
    6b14:	0041b6b3          	sltu	a3,gp,tp
    6b18:	002171b3          	and	gp,sp,sp
    6b1c:	b97315b7          	lui	a1,0xb9731
    6b20:	001100b3          	add	ra,sp,ra
    6b24:	0023f133          	and	sp,t2,sp
    6b28:	27916193          	ori	gp,sp,633
    6b2c:	fc0931b7          	lui	gp,0xfc093
    6b30:	406100b3          	sub	ra,sp,t1
    6b34:	4a008313          	addi	t1,ra,1184 # 0x52b56f9c
    6b38:	8c30e113          	ori	sp,ra,-1853
    6b3c:	3261e113          	ori	sp,gp,806
    6b40:	fe1ac397          	auipc	t2,0xfe1ac
    6b44:	670cb2b7          	lui	t0,0x670cb
    6b48:	0004f1b3          	and	gp,s1,zero
    6b4c:	c127feb7          	lui	t4,0xc127f
    6b50:	00f33233          	sltu	tp,t1,a5
    6b54:	5f05b197          	auipc	gp,0x5f05b
    6b58:	c7106193          	ori	gp,zero,-911
    6b5c:	b2d3c0b7          	lui	ra,0xb2d3c
    6b60:	7482c117          	auipc	sp,0x7482c
    6b64:	401183b3          	sub	t2,gp,ra
    6b68:	e3abb117          	auipc	sp,0xe3abb
    6b6c:	00b14233          	xor	tp,sp,a1
    6b70:	2ceb9197          	auipc	gp,0x2ceb9
    6b74:	bc848097          	auipc	ra,0xbc848
    6b78:	0102f137          	lui	sp,0x102f
    6b7c:	f3318113          	addi	sp,gp,-205 # 0x2cebfaa3
    6b80:	26910113          	addi	sp,sp,617 # 0x102f269
    6b84:	cfc0f193          	andi	gp,ra,-772
    6b88:	1381e113          	ori	sp,gp,312
    6b8c:	00208133          	add	sp,ra,sp
    6b90:	2bd17093          	andi	ra,sp,701
    6b94:	00000117          	auipc	sp,0x0
    6b98:	c3810167          	jalr	sp,-968(sp) # 0x67cc
    6b9c:	004331b3          	sltu	gp,t1,tp
    6ba0:	c00290b7          	lui	ra,0xc0029
    6ba4:	00312033          	slt	zero,sp,gp
    6ba8:	5bc34117          	auipc	sp,0x5bc34
    6bac:	001351b3          	srl	gp,t1,ra
    6bb0:	89c02697          	auipc	a3,0x89c02
    6bb4:	e4c1e193          	ori	gp,gp,-436
    6bb8:	32a751b7          	lui	gp,0x32a75
    6bbc:	4787c197          	auipc	gp,0x4787c
    6bc0:	010230b3          	sltu	ra,tp,a6
    6bc4:	33b411b7          	lui	gp,0x33b41
    6bc8:	c06ce117          	auipc	sp,0xc06ce
    6bcc:	001110b3          	sll	ra,sp,ra
    6bd0:	00207133          	and	sp,zero,sp
    6bd4:	00319133          	sll	sp,gp,gp
    6bd8:	f6504193          	xori	gp,zero,-155
    6bdc:	4ae14093          	xori	ra,sp,1198
    6be0:	003391b3          	sll	gp,t2,gp
    6be4:	401151b3          	sra	gp,sp,ra
    6be8:	6b57f117          	auipc	sp,0x6b57f
    6bec:	b911e093          	ori	ra,gp,-1135
    6bf0:	4022d2b3          	sra	t0,t0,sp
    6bf4:	5115f337          	lui	t1,0x5115f
    6bf8:	401257b3          	sra	a5,tp,ra
    6bfc:	aaeba097          	auipc	ra,0xaaeba
    6c00:	0060e1b3          	or	gp,ra,t1
    6c04:	53d18093          	addi	ra,gp,1341 # 0x33b4153d
    6c08:	8af65437          	lui	s0,0x8af65
    6c0c:	b3d0f093          	andi	ra,ra,-1219
    6c10:	83426493          	ori	s1,tp,-1996
    6c14:	003161b3          	or	gp,sp,gp
    6c18:	003342b3          	xor	t0,t1,gp
    6c1c:	438ba017          	auipc	zero,0x438ba
    6c20:	82417093          	andi	ra,sp,-2012
    6c24:	4041d1b3          	sra	gp,gp,tp
    6c28:	0030f1b3          	and	gp,ra,gp
    6c2c:	a6e10ee3          	beq	sp,a4,0x66a8
    6c30:	a79ff0ef          	jal	ra,0x66a8
    6c34:	00316133          	or	sp,sp,gp
    6c38:	402180b3          	sub	ra,gp,sp
    6c3c:	3d918193          	addi	gp,gp,985
    6c40:	0021d0b3          	srl	ra,gp,sp
    6c44:	402d7397          	auipc	t2,0x402d7
    6c48:	0010f033          	and	zero,ra,ra
    6c4c:	b817f097          	auipc	ra,0xb817f
    6c50:	532b2197          	auipc	gp,0x532b2
    6c54:	7eb87117          	auipc	sp,0x7eb87
    6c58:	4030d1b3          	sra	gp,ra,gp
    6c5c:	ed408113          	addi	sp,ra,-300 # 0xffffffffb8185b20
    6c60:	0019c033          	xor	zero,s3,ra
    6c64:	001967b3          	or	a5,s2,ra
    6c68:	00316133          	or	sp,sp,gp
    6c6c:	a7e1a117          	auipc	sp,0xa7e1a
    6c70:	435bb197          	auipc	gp,0x435bb
    6c74:	2a40e037          	lui	zero,0x2a40e
    6c78:	dc43f197          	auipc	gp,0xdc43f
    6c7c:	40208133          	sub	sp,ra,sp
    6c80:	9ee8f317          	auipc	t1,0x9ee8f
    6c84:	001120b3          	slt	ra,sp,ra
    6c88:	0010a0b3          	slt	ra,ra,ra
    6c8c:	4d337f13          	andi	t5,t1,1235
    6c90:	cb112197          	auipc	gp,0xcb112
    6c94:	7ffe6097          	auipc	ra,0x7ffe6
    6c98:	0030a1b3          	slt	gp,ra,gp
    6c9c:	0027f233          	and	tp,a5,sp
    6ca0:	6e19d037          	lui	zero,0x6e19d
    6ca4:	5901a097          	auipc	ra,0x5901a
    6ca8:	f57860b7          	lui	ra,0xf5786
    6cac:	003011b3          	sll	gp,zero,gp
    6cb0:	00216033          	or	zero,sp,sp
    6cb4:	00028093          	mv	ra,t0
    6cb8:	08508a63          	beq	ra,t0,0x6d4c
    6cbc:	401101b3          	sub	gp,sp,ra
    6cc0:	a188c597          	auipc	a1,0xa188c
    6cc4:	006131b3          	sltu	gp,sp,t1
    6cc8:	003241b3          	xor	gp,tp,gp
    6ccc:	001140b3          	xor	ra,sp,ra
    6cd0:	405151b3          	sra	gp,sp,t0
    6cd4:	23916113          	ori	sp,sp,569
    6cd8:	602c51b7          	lui	gp,0x602c5
    6cdc:	c9dab197          	auipc	gp,0xc9dab
    6ce0:	0011c0b3          	xor	ra,gp,ra
    6ce4:	8b21c093          	xori	ra,gp,-1870
    6ce8:	e9e2f113          	andi	sp,t0,-354
    6cec:	9b21e393          	ori	t2,gp,-1614
    6cf0:	fc3eb737          	lui	a4,0xfc3eb
    6cf4:	401185b3          	sub	a1,gp,ra
    6cf8:	003191b3          	sll	gp,gp,gp
    6cfc:	eb2f0097          	auipc	ra,0xeb2f0
    6d00:	036ba197          	auipc	gp,0x36ba
    6d04:	e4501437          	lui	s0,0xe4501
    6d08:	aa01c393          	xori	t2,gp,-1376
    6d0c:	000332b3          	sltu	t0,t1,zero
    6d10:	c526b117          	auipc	sp,0xc526b
    6d14:	0023b2b3          	sltu	t0,t2,sp
    6d18:	0020a133          	slt	sp,ra,sp
    6d1c:	403151b3          	sra	gp,sp,gp
    6d20:	001090b3          	sll	ra,ra,ra
    6d24:	0020a1b3          	slt	gp,ra,sp
    6d28:	001e40b3          	xor	ra,t3,ra
    6d2c:	29908393          	addi	t2,ra,665 # 0xffffffffeb2f6f95
    6d30:	3c11f093          	andi	ra,gp,961
    6d34:	44227293          	andi	t0,tp,1090
    6d38:	d7f7f397          	auipc	t2,0xd7f7f
    6d3c:	a2b14113          	xori	sp,sp,-1493
    6d40:	fd1c63b7          	lui	t2,0xfd1c6
    6d44:	8c127ae3          	bgeu	tp,ra,0x6618
    6d48:	8c1268e3          	bltu	tp,ra,0x6618
    6d4c:	a2da5117          	auipc	sp,0xa2da5
    6d50:	404150b3          	sra	ra,sp,tp
    6d54:	f2ba3117          	auipc	sp,0xf2ba3
    6d58:	003091b3          	sll	gp,ra,gp
    6d5c:	0023f033          	and	zero,t2,sp
    6d60:	9920e013          	ori	zero,ra,-1646
    6d64:	67d19597          	auipc	a1,0x67d19
    6d68:	0111e1b3          	or	gp,gp,a7
    6d6c:	36f9a117          	auipc	sp,0x36f9a
    6d70:	2d0f32b7          	lui	t0,0x2d0f3
    6d74:	dfe17093          	andi	ra,sp,-514
    6d78:	15b16113          	ori	sp,sp,347
    6d7c:	3d64c1b7          	lui	gp,0x3d64c
    6d80:	294ade37          	lui	t3,0x294ad
    6d84:	0020f1b3          	and	gp,ra,sp
    6d88:	16b9a0b7          	lui	ra,0x16b9a
    6d8c:	2377e217          	auipc	tp,0x2377e
    6d90:	cb7e9117          	auipc	sp,0xcb7e9
    6d94:	ace1f193          	andi	gp,gp,-1330
    6d98:	0030e0b3          	or	ra,ra,gp
    6d9c:	ebf530b7          	lui	ra,0xebf53
    6da0:	b5a00393          	li	t2,-1190
    6da4:	21be71b7          	lui	gp,0x21be7
    6da8:	0020c0b3          	xor	ra,ra,sp
    6dac:	00b0a0b3          	slt	ra,ra,a1
    6db0:	5fa1b097          	auipc	ra,0x5fa1b
    6db4:	4011d3b3          	sra	t2,gp,ra
    6db8:	7d718313          	addi	t1,gp,2007 # 0x21be77d7
    6dbc:	f9aba117          	auipc	sp,0xf9aba
    6dc0:	01a1c633          	xor	a2,gp,s10
    6dc4:	d6cf1217          	auipc	tp,0xd6cf1
    6dc8:	d0614037          	lui	zero,0xd0614
    6dcc:	569650b7          	lui	ra,0x56965
    6dd0:	53b04193          	xori	gp,zero,1339
    6dd4:	00010093          	mv	ra,sp
    6dd8:	00208263          	beq	ra,sp,0x6ddc
    6ddc:	0021a0b3          	slt	ra,gp,sp
    6de0:	40708233          	sub	tp,ra,t2
    6de4:	d602a117          	auipc	sp,0xd602a
    6de8:	406380b3          	sub	ra,t2,t1
    6dec:	001003b3          	add	t2,zero,ra
    6df0:	ec71b5b7          	lui	a1,0xec71b
    6df4:	00311133          	sll	sp,sp,gp
    6df8:	5c817113          	andi	sp,sp,1480
    6dfc:	874260b7          	lui	ra,0x87426
    6e00:	0020f1b3          	and	gp,ra,sp
    6e04:	c666b117          	auipc	sp,0xc666b
    6e08:	d0f10197          	auipc	gp,0xd0f10
    6e0c:	00221133          	sll	sp,tp,sp
    6e10:	8dc20113          	addi	sp,tp,-1828 # 0xffffffffd6cf76a0
    6e14:	7d8811b7          	lui	gp,0x7d881
    6e18:	903821b7          	lui	gp,0x90382
    6e1c:	00623233          	sltu	tp,tp,t1
    6e20:	78aa30b7          	lui	ra,0x78aa3
    6e24:	5c5cc1b7          	lui	gp,0x5c5cc
    6e28:	5930c193          	xori	gp,ra,1427
    6e2c:	40035333          	sra	t1,t1,zero
    6e30:	403350b3          	sra	ra,t1,gp
    6e34:	d7a18093          	addi	ra,gp,-646 # 0x5c5cbd7a
    6e38:	59e3a117          	auipc	sp,0x59e3a
    6e3c:	01f114b3          	sll	s1,sp,t6
    6e40:	7710e113          	ori	sp,ra,1905
    6e44:	017371b3          	and	gp,t1,s7
    6e48:	7691c193          	xori	gp,gp,1897
    6e4c:	4030d0b3          	sra	ra,ra,gp
    6e50:	47530197          	auipc	gp,0x47530
    6e54:	4ad09f17          	auipc	t5,0x4ad09
    6e58:	0020e0b3          	or	ra,ra,sp
    6e5c:	003190b3          	sll	ra,gp,gp
    6e60:	7943e117          	auipc	sp,0x7943e
    6e64:	00038093          	mv	ra,t2
    6e68:	c0708ce3          	beq	ra,t2,0x6a80
    6e6c:	198ff137          	lui	sp,0x198ff
    6e70:	0031e0b3          	or	ra,gp,gp
    6e74:	00193133          	sltu	sp,s2,ra
    6e78:	0066d133          	srl	sp,a3,t1
    6e7c:	00126133          	or	sp,tp,ra
    6e80:	628071b7          	lui	gp,0x62807
    6e84:	001110b3          	sll	ra,sp,ra
    6e88:	002113b3          	sll	t2,sp,sp
    6e8c:	e77b9117          	auipc	sp,0xe77b9
    6e90:	0020e333          	or	t1,ra,sp
    6e94:	8bea5117          	auipc	sp,0x8bea5
    6e98:	bac36213          	ori	tp,t1,-1108
    6e9c:	952cec17          	auipc	s8,0x952ce
    6ea0:	030db217          	auipc	tp,0x30db
    6ea4:	c2427337          	lui	t1,0xc2427
    6ea8:	0011e1b3          	or	gp,gp,ra
    6eac:	401081b3          	sub	gp,ra,ra
    6eb0:	001133b3          	sltu	t2,sp,ra
    6eb4:	fa917593          	andi	a1,sp,-87
    6eb8:	0050d1b3          	srl	gp,ra,t0
    6ebc:	99e1f113          	andi	sp,gp,-1634
    6ec0:	0011e1b3          	or	gp,gp,ra
    6ec4:	0031e1b3          	or	gp,gp,gp
    6ec8:	15f08093          	addi	ra,ra,351 # 0x78aa315f
    6ecc:	0020e133          	or	sp,ra,sp
    6ed0:	fd4d0093          	addi	ra,s10,-44 # 0x1a17afd4
    6ed4:	0011d0b3          	srl	ra,gp,ra
    6ed8:	fa5bb1b7          	lui	gp,0xfa5bb
    6edc:	67661097          	auipc	ra,0x67661
    6ee0:	bb738117          	auipc	sp,0xbb738
    6ee4:	1a971197          	auipc	gp,0x1a971
    6ee8:	00008333          	add	t1,ra,zero
    6eec:	8c494197          	auipc	gp,0x8c494
    6ef0:	1d73b137          	lui	sp,0x1d73b
    6ef4:	c9003197          	auipc	gp,0xc9003
    6ef8:	003110b3          	sll	ra,sp,gp
    6efc:	d2310ce3          	beq	sp,gp,0x6c34
    6f00:	d35ff0ef          	jal	ra,0x6c34
    6f04:	6310f117          	auipc	sp,0x6310f
    6f08:	a6217113          	andi	sp,sp,-1438
    6f0c:	019140b3          	xor	ra,sp,s9
    6f10:	ad6aa097          	auipc	ra,0xad6aa
    6f14:	12b01137          	lui	sp,0x12b01
    6f18:	8e8071b7          	lui	gp,0x8e807
    6f1c:	84d26193          	ori	gp,tp,-1971
    6f20:	875231b7          	lui	gp,0x87523
    6f24:	e076f117          	auipc	sp,0xe076f
    6f28:	f3d251b7          	lui	gp,0xf3d25
    6f2c:	401380b3          	sub	ra,t2,ra
    6f30:	0072d133          	srl	sp,t0,t2
    6f34:	58cca1b7          	lui	gp,0x58cca
    6f38:	019391b3          	sll	gp,t2,s9
    6f3c:	eb495197          	auipc	gp,0xeb495
    6f40:	403101b3          	sub	gp,sp,gp
    6f44:	0022ebb3          	or	s7,t0,sp
    6f48:	4011d1b3          	sra	gp,gp,ra
    6f4c:	6232f0b7          	lui	ra,0x6232f
    6f50:	7800e093          	ori	ra,ra,1920
    6f54:	57d68113          	addi	sp,a3,1405 # 0xffffffff89c0912d
    6f58:	00325c33          	srl	s8,tp,gp
    6f5c:	9ecd4117          	auipc	sp,0x9ecd4
    6f60:	91311397          	auipc	t2,0x91311
    6f64:	2c43f693          	andi	a3,t2,708
    6f68:	003061b3          	or	gp,zero,gp
    6f6c:	6ab74197          	auipc	gp,0x6ab74
    6f70:	3c543097          	auipc	ra,0x3c543
    6f74:	b4492237          	lui	tp,0xb4492
    6f78:	0045f1b3          	and	gp,a1,tp
    6f7c:	b5025037          	lui	zero,0xb5025
    6f80:	4031d133          	sra	sp,gp,gp
    6f84:	00000013          	nop
    6f88:	9e0006e3          	beqz	zero,0x6974
    6f8c:	007181b3          	add	gp,gp,t2
    6f90:	9b97c117          	auipc	sp,0x9b97c
    6f94:	40505133          	sra	sp,zero,t0
    6f98:	ca1aa0b7          	lui	ra,0xca1aa
    6f9c:	001090b3          	sll	ra,ra,ra
    6fa0:	004153b3          	srl	t2,sp,tp
    6fa4:	b041c313          	xori	t1,gp,-1276
    6fa8:	d0c80117          	auipc	sp,0xd0c80
    6fac:	84a16193          	ori	gp,sp,-1974
    6fb0:	000120b3          	sltz	ra,sp
    6fb4:	9031f093          	andi	ra,gp,-1789
    6fb8:	403100b3          	sub	ra,sp,gp
    6fbc:	0000f3b3          	and	t2,ra,zero
    6fc0:	82073237          	lui	tp,0x82073
    6fc4:	f4129597          	auipc	a1,0xf4129
    6fc8:	6f3f5097          	auipc	ra,0x6f3f5
    6fcc:	e918e117          	auipc	sp,0xe918e
    6fd0:	01a26093          	ori	ra,tp,26
    6fd4:	00e560b7          	lui	ra,0xe56
    6fd8:	5a0c22b7          	lui	t0,0x5a0c2
    6fdc:	b2b9b137          	lui	sp,0xb2b9b
    6fe0:	00b25133          	srl	sp,tp,a1
    6fe4:	0030c1b3          	xor	gp,ra,gp
    6fe8:	0012b0b3          	sltu	ra,t0,ra
    6fec:	7df43137          	lui	sp,0x7df43
    6ff0:	006270b3          	and	ra,tp,t1
    6ff4:	836ca217          	auipc	tp,0x836ca
    6ff8:	001081b3          	add	gp,ra,ra
    6ffc:	12217863          	bgeu	sp,sp,0x712c
    7000:	12216663          	bltu	sp,sp,0x712c
    7004:	0550c013          	xori	zero,ra,85
    7008:	0091f0b3          	and	ra,gp,s1
    700c:	0011b1b3          	sltu	gp,gp,ra
    7010:	00323133          	sltu	sp,tp,gp
    7014:	4040d133          	sra	sp,ra,tp
    7018:	0010c0b3          	xor	ra,ra,ra
    701c:	2f91c293          	xori	t0,gp,761
    7020:	75d18313          	addi	t1,gp,1885 # 0x6ab7b6c9
    7024:	aab3ebb7          	lui	s7,0xaab3e
    7028:	0031d1b3          	srl	gp,gp,gp
    702c:	6be2d217          	auipc	tp,0x6be2d
    7030:	25518113          	addi	sp,gp,597
    7034:	82bca037          	lui	zero,0x82bca
    7038:	5eb0f113          	andi	sp,ra,1515
    703c:	12e16093          	ori	ra,sp,302
    7040:	e6b1e193          	ori	gp,gp,-405
    7044:	00419033          	sll	zero,gp,tp
    7048:	73b9c1b7          	lui	gp,0x73b9c
    704c:	69d76137          	lui	sp,0x69d76
    7050:	b210e113          	ori	sp,ra,-1247
    7054:	ae06a117          	auipc	sp,0xae06a
    7058:	0121f113          	andi	sp,gp,18
    705c:	67c00193          	li	gp,1660
    7060:	bf1d3137          	lui	sp,0xbf1d3
    7064:	dff9b237          	lui	tp,0xdff9b
    7068:	1eaeb117          	auipc	sp,0x1eaeb
    706c:	6bf08113          	addi	sp,ra,1727 # 0xe566bf
    7070:	0021a233          	slt	tp,gp,sp
    7074:	4326e137          	lui	sp,0x4326e
    7078:	05a89097          	auipc	ra,0x5a89
    707c:	48a3d217          	auipc	tp,0x48a3d
    7080:	000161b3          	or	gp,sp,zero
    7084:	b5124113          	xori	sp,tp,-1199
    7088:	10536137          	lui	sp,0x10536
    708c:	1805a1b7          	lui	gp,0x1805a
    7090:	a7118193          	addi	gp,gp,-1423 # 0x18059a71
    7094:	00000197          	auipc	gp,0x0
    7098:	250187e7          	jalr	a5,592(gp) # 0x72e4
    709c:	7e6f8117          	auipc	sp,0x7e6f8
    70a0:	1d1b51b7          	lui	gp,0x1d1b5
    70a4:	0031f633          	and	a2,gp,gp
    70a8:	1c5f6197          	auipc	gp,0x1c5f6
    70ac:	00211133          	sll	sp,sp,sp
    70b0:	013133b3          	sltu	t2,sp,s3
    70b4:	407080b3          	sub	ra,ra,t2
    70b8:	ea82e193          	ori	gp,t0,-344
    70bc:	9e51c093          	xori	ra,gp,-1563
    70c0:	ad718293          	addi	t0,gp,-1321 # 0x1c5fcb7f
    70c4:	40d08333          	sub	t1,ra,a3
    70c8:	00214db3          	xor	s11,sp,sp
    70cc:	c6c94137          	lui	sp,0xc6c94
    70d0:	dc5fd137          	lui	sp,0xdc5fd
    70d4:	29683137          	lui	sp,0x29683
    70d8:	a9133117          	auipc	sp,0xa9133
    70dc:	11f9b117          	auipc	sp,0x11f9b
    70e0:	00213033          	sltu	zero,sp,sp
    70e4:	15918e13          	addi	t3,gp,345
    70e8:	0010b0b3          	sltu	ra,ra,ra
    70ec:	e0676097          	auipc	ra,0xe0676
    70f0:	001097b3          	sll	a5,ra,ra
    70f4:	68b08093          	addi	ra,ra,1675 # 0xffffffffe067d777
    70f8:	b5e17137          	lui	sp,0xb5e17
    70fc:	c68c1237          	lui	tp,0xc68c1
    7100:	4e53f3b7          	lui	t2,0x4e53f
    7104:	98018193          	addi	gp,gp,-1664
    7108:	a0944237          	lui	tp,0xa0944
    710c:	1690e093          	ori	ra,ra,361
    7110:	32bf4117          	auipc	sp,0x32bf4
    7114:	00116db3          	or	s11,sp,ra
    7118:	f8e26293          	ori	t0,tp,-114
    711c:	001220b3          	slt	ra,tp,ra
    7120:	0030c133          	xor	sp,ra,gp
    7124:	00138263          	beq	t2,ra,0x7128
    7128:	290010ef          	jal	ra,0x83b8
    712c:	0000c2b3          	xor	t0,ra,zero
    7130:	00316333          	or	t1,sp,gp
    7134:	5b45f313          	andi	t1,a1,1460
    7138:	00213033          	sltu	zero,sp,sp
    713c:	402082b3          	sub	t0,ra,sp
    7140:	fdafd097          	auipc	ra,0xfdafd
    7144:	2140c013          	xori	zero,ra,532
    7148:	8c6a13b7          	lui	t2,0x8c6a1
    714c:	001101b3          	add	gp,sp,ra
    7150:	d4aac197          	auipc	gp,0xd4aac
    7154:	2bf14193          	xori	gp,sp,703
    7158:	c6153197          	auipc	gp,0xc6153
    715c:	402150b3          	sra	ra,sp,sp
    7160:	002127b3          	slt	a5,sp,sp
    7164:	00b07133          	and	sp,zero,a1
    7168:	402100b3          	sub	ra,sp,sp
    716c:	0012f133          	and	sp,t0,ra
    7170:	58fa7037          	lui	zero,0x58fa7
    7174:	35d0e397          	auipc	t2,0x35d0e
    7178:	73632097          	auipc	ra,0x73632
    717c:	0050e1b3          	or	gp,ra,t0
    7180:	003150b3          	srl	ra,sp,gp
    7184:	2d8dc097          	auipc	ra,0x2d8dc
    7188:	5dcef093          	andi	ra,t4,1500
    718c:	0021d0b3          	srl	ra,gp,sp
    7190:	001260b3          	or	ra,tp,ra
    7194:	386d90b7          	lui	ra,0x386d9
    7198:	4020d133          	sra	sp,ra,sp
    719c:	00211133          	sll	sp,sp,sp
    71a0:	3e43c213          	xori	tp,t2,996
    71a4:	003201b3          	add	gp,tp,gp
    71a8:	2b616193          	ori	gp,sp,694
    71ac:	ca2010b7          	lui	ra,0xca201
    71b0:	60118e63          	beq	gp,ra,0x77cc
    71b4:	6180026f          	jal	tp,0x77cc
    71b8:	001054b3          	srl	s1,zero,ra
    71bc:	0032f0b3          	and	ra,t0,gp
    71c0:	31f0e213          	ori	tp,ra,799
    71c4:	e393f213          	andi	tp,t2,-455
    71c8:	5ce2e0b7          	lui	ra,0x5ce2e
    71cc:	32216013          	ori	zero,sp,802
    71d0:	0010c233          	xor	tp,ra,ra
    71d4:	005100b3          	add	ra,sp,t0
    71d8:	96b17093          	andi	ra,sp,-1685
    71dc:	0030f133          	and	sp,ra,gp
    71e0:	403100b3          	sub	ra,sp,gp
    71e4:	001280b3          	add	ra,t0,ra
    71e8:	d94ba1b7          	lui	gp,0xd94ba
    71ec:	f98ccb37          	lui	s6,0xf98cc
    71f0:	1f863197          	auipc	gp,0x1f863
    71f4:	00d1c2b3          	xor	t0,gp,a3
    71f8:	96291117          	auipc	sp,0x96291
    71fc:	00317133          	and	sp,sp,gp
    7200:	0090d133          	srl	sp,ra,s1
    7204:	0010d0b3          	srl	ra,ra,ra
    7208:	4c21a897          	auipc	a7,0x4c21a
    720c:	40330bb3          	sub	s7,t1,gp
    7210:	0091e733          	or	a4,gp,s1
    7214:	001121b3          	slt	gp,sp,ra
    7218:	40305133          	sra	sp,zero,gp
    721c:	a6e1f093          	andi	ra,gp,-1426
    7220:	a477e217          	auipc	tp,0xa477e
    7224:	35c1e113          	ori	sp,gp,860
    7228:	8ca3d137          	lui	sp,0x8ca3d
    722c:	7296f117          	auipc	sp,0x7296f
    7230:	00219133          	sll	sp,gp,sp
    7234:	6aa05fb7          	lui	t6,0x6aa05
    7238:	50e18113          	addi	sp,gp,1294 # 0x1f86a6fe
    723c:	5ae1d197          	auipc	gp,0x5ae1d
    7240:	46418c63          	beq	gp,tp,0x76b8
    7244:	474000ef          	jal	ra,0x76b8
    7248:	48e0c393          	xori	t2,ra,1166
    724c:	70a43117          	auipc	sp,0x70a43
    7250:	c5f89197          	auipc	gp,0xc5f89
    7254:	0013a1b3          	slt	gp,t2,ra
    7258:	003020b3          	sgtz	ra,gp
    725c:	dad0c193          	xori	gp,ra,-595
    7260:	90b1c113          	xori	sp,gp,-1781
    7264:	0ef16217          	auipc	tp,0xef16
    7268:	e5617113          	andi	sp,sp,-426
    726c:	4073d333          	sra	t1,t2,t2
    7270:	00229133          	sll	sp,t0,sp
    7274:	8c1bd3b7          	lui	t2,0x8c1bd
    7278:	00122133          	slt	sp,tp,ra
    727c:	4181d0b3          	sra	ra,gp,s8
    7280:	c5687017          	auipc	zero,0xc5687
    7284:	6ab68297          	auipc	t0,0x6ab68
    7288:	01b37133          	and	sp,t1,s11
    728c:	3230f113          	andi	sp,ra,803
    7290:	00218133          	add	sp,gp,sp
    7294:	0030d1b3          	srl	gp,ra,gp
    7298:	9cb34193          	xori	gp,t1,-1589
    729c:	4020d0b3          	sra	ra,ra,sp
    72a0:	401180b3          	sub	ra,gp,ra
    72a4:	4b722117          	auipc	sp,0x4b722
    72a8:	84a3b337          	lui	t1,0x84a3b
    72ac:	4020d333          	sra	t1,ra,sp
    72b0:	00b05133          	srl	sp,zero,a1
    72b4:	96726093          	ori	ra,tp,-1689
    72b8:	40220333          	sub	t1,tp,sp
    72bc:	abc08013          	addi	zero,ra,-1348 # 0x5ce2dabc
    72c0:	edc4e017          	auipc	zero,0xedc4e
    72c4:	7c0c81b7          	lui	gp,0x7c0c8
    72c8:	5e1b7117          	auipc	sp,0x5e1b7
    72cc:	4244c093          	xori	ra,s1,1060
    72d0:	f3b2c093          	xori	ra,t0,-197
    72d4:	48260017          	auipc	zero,0x48260
    72d8:	405150b3          	sra	ra,sp,t0
    72dc:	cab108e3          	beq	sp,a1,0x6f8c
    72e0:	cadff6ef          	jal	a3,0x6f8c
    72e4:	0012a7b3          	slt	a5,t0,ra
    72e8:	98b400b7          	lui	ra,0x98b40
    72ec:	40118333          	sub	t1,gp,ra
    72f0:	c7017137          	lui	sp,0xc7017
    72f4:	0033a0b3          	slt	ra,t2,gp
    72f8:	d0a12117          	auipc	sp,0xd0a12
    72fc:	0071f0b3          	and	ra,gp,t2
    7300:	581bc2b7          	lui	t0,0x581bc
    7304:	e773c113          	xori	sp,t2,-393
    7308:	0011f0b3          	and	ra,gp,ra
    730c:	4bd4c1b7          	lui	gp,0x4bd4c
    7310:	01d0f0b3          	and	ra,ra,t4
    7314:	c3117193          	andi	gp,sp,-975
    7318:	15414113          	xori	sp,sp,340
    731c:	406301b3          	sub	gp,t1,t1
    7320:	5ef7b237          	lui	tp,0x5ef7b
    7324:	001011b3          	sll	gp,zero,ra
    7328:	002081b3          	add	gp,ra,sp
    732c:	01e5f1b3          	and	gp,a1,t5
    7330:	0011d2b3          	srl	t0,gp,ra
    7334:	3fe2b217          	auipc	tp,0x3fe2b
    7338:	8ad17093          	andi	ra,sp,-1875
    733c:	007170b3          	and	ra,sp,t2
    7340:	4030d0b3          	sra	ra,ra,gp
    7344:	40310333          	sub	t1,sp,gp
    7348:	002101b3          	add	gp,sp,sp
    734c:	1cff6097          	auipc	ra,0x1cff6
    7350:	00030a13          	mv	s4,t1
    7354:	ee6a0ae3          	beq	s4,t1,0x7248
    7358:	0021a8b3          	slt	a7,gp,sp
    735c:	8780c013          	xori	zero,ra,-1928
    7360:	0081d133          	srl	sp,gp,s0
    7364:	000150b3          	srl	ra,sp,zero
    7368:	0030f133          	and	sp,ra,gp
    736c:	48b7b117          	auipc	sp,0x48b7b
    7370:	3cf17193          	andi	gp,sp,975
    7374:	0032c0b3          	xor	ra,t0,gp
    7378:	f72240b7          	lui	ra,0xf7224
    737c:	00314133          	xor	sp,sp,gp
    7380:	e185a037          	lui	zero,0xe185a
    7384:	a74190b7          	lui	ra,0xa7419
    7388:	f7807113          	andi	sp,zero,-136
    738c:	4df08193          	addi	gp,ra,1247 # 0xffffffffa74194df
    7390:	0010a433          	slt	s0,ra,ra
    7394:	0010c0b3          	xor	ra,ra,ra
    7398:	00211133          	sll	sp,sp,sp
    739c:	00520233          	add	tp,tp,t0
    73a0:	002120b3          	slt	ra,sp,sp
    73a4:	004090b3          	sll	ra,ra,tp
    73a8:	9a81f2b7          	lui	t0,0x9a81f
    73ac:	93a4e197          	auipc	gp,0x93a4e
    73b0:	20b30193          	addi	gp,t1,523 # 0xffffffff84a3b20b
    73b4:	22c611b7          	lui	gp,0x22c61
    73b8:	b21dd097          	auipc	ra,0xb21dd
    73bc:	00314233          	xor	tp,sp,gp
    73c0:	0000a2b3          	sltz	t0,ra
    73c4:	21b1f593          	andi	a1,gp,539
    73c8:	0010e0b3          	or	ra,ra,ra
    73cc:	70a630b7          	lui	ra,0x70a63
    73d0:	003765b3          	or	a1,a4,gp
    73d4:	7cb26113          	ori	sp,tp,1995
    73d8:	7eff5097          	auipc	ra,0x7eff5
    73dc:	a2854817          	auipc	a6,0xa2854
    73e0:	004270b3          	and	ra,tp,tp
    73e4:	dc6fb0b7          	lui	ra,0xdc6fb
    73e8:	47d38317          	auipc	t1,0x47d38
    73ec:	002333b3          	sltu	t2,t1,sp
    73f0:	00000197          	auipc	gp,0x0
    73f4:	094180e7          	jalr	148(gp) # 0x7484
    73f8:	f96fe197          	auipc	gp,0xf96fe
    73fc:	1e614193          	xori	gp,sp,486
    7400:	404e51b3          	sra	gp,t3,tp
    7404:	00209333          	sll	t1,ra,sp
    7408:	001180b3          	add	ra,gp,ra
    740c:	2e2d2097          	auipc	ra,0x2e2d2
    7410:	003032b3          	snez	t0,gp
    7414:	dff14113          	xori	sp,sp,-513
    7418:	002241b3          	xor	gp,tp,sp
    741c:	90a04193          	xori	gp,zero,-1782
    7420:	002151b3          	srl	gp,sp,sp
    7424:	ca327113          	andi	sp,tp,-861
    7428:	0031c1b3          	xor	gp,gp,gp
    742c:	0011f133          	and	sp,gp,ra
    7430:	6d59b1b7          	lui	gp,0x6d59b
    7434:	4040d0b3          	sra	ra,ra,tp
    7438:	0032d2b3          	srl	t0,t0,gp
    743c:	0020e133          	or	sp,ra,sp
    7440:	e2d6f017          	auipc	zero,0xe2d6f
    7444:	cd36e397          	auipc	t2,0xcd36e
    7448:	001ba133          	slt	sp,s7,ra
    744c:	92176217          	auipc	tp,0x92176
    7450:	0040f1b3          	and	gp,ra,tp
    7454:	002093b3          	sll	t2,ra,sp
    7458:	0011b0b3          	sltu	ra,gp,ra
    745c:	0021f433          	and	s0,gp,sp
    7460:	863f01b7          	lui	gp,0x863f0
    7464:	2e417113          	andi	sp,sp,740
    7468:	31ca20b7          	lui	ra,0x31ca2
    746c:	b529a117          	auipc	sp,0xb529a
    7470:	e3610193          	addi	gp,sp,-458 # 0xffffffffb52a12a2
    7474:	8a8ea117          	auipc	sp,0x8a8ea
    7478:	002090b3          	sll	ra,ra,sp
    747c:	ec608ee3          	beq	ra,t1,0x7358
    7480:	ed9ff0ef          	jal	ra,0x7358
    7484:	007222b3          	slt	t0,tp,t2
    7488:	401101b3          	sub	gp,sp,ra
    748c:	ca5ce137          	lui	sp,0xca5ce
    7490:	6c678137          	lui	sp,0x6c678
    7494:	7191b2b7          	lui	t0,0x7191b
    7498:	0021c1b3          	xor	gp,gp,sp
    749c:	002171b3          	and	gp,sp,sp
    74a0:	ac7ff1b7          	lui	gp,0xac7ff
    74a4:	00109133          	sll	sp,ra,ra
    74a8:	a3626197          	auipc	gp,0xa3626
    74ac:	00114133          	xor	sp,sp,ra
    74b0:	d440f097          	auipc	ra,0xd440f
    74b4:	002332b3          	sltu	t0,t1,sp
    74b8:	a4558317          	auipc	t1,0xa4558
    74bc:	00135333          	srl	t1,t1,ra
    74c0:	e4245097          	auipc	ra,0xe4245
    74c4:	0010b1b3          	sltu	gp,ra,ra
    74c8:	69217193          	andi	gp,sp,1682
    74cc:	00328133          	add	sp,t0,gp
    74d0:	2ebd30b7          	lui	ra,0x2ebd3
    74d4:	0fc14493          	xori	s1,sp,252
    74d8:	7e1c3117          	auipc	sp,0x7e1c3
    74dc:	bb857117          	auipc	sp,0xbb857
    74e0:	001ad133          	srl	sp,s5,ra
    74e4:	9320f693          	andi	a3,ra,-1742
    74e8:	158fe097          	auipc	ra,0x158fe
    74ec:	345cb097          	auipc	ra,0x345cb
    74f0:	3dd00213          	li	tp,989
    74f4:	40618133          	sub	sp,gp,t1
    74f8:	4051d0b3          	sra	ra,gp,t0
    74fc:	00325133          	srl	sp,tp,gp
    7500:	7f4f8137          	lui	sp,0x7f4f8
    7504:	b0d67197          	auipc	gp,0xb0d67
    7508:	00b140b3          	xor	ra,sp,a1
    750c:	0105b333          	sltu	t1,a1,a6
    7510:	12111063          	bne	sp,ra,0x7630
    7514:	10110e63          	beq	sp,ra,0x7630
    7518:	4403b097          	auipc	ra,0x4403b
    751c:	841d7017          	auipc	zero,0x841d7
    7520:	2c83f193          	andi	gp,t2,712
    7524:	00b100b3          	add	ra,sp,a1
    7528:	d1dc90b7          	lui	ra,0xd1dc9
    752c:	f79d81b7          	lui	gp,0xf79d8
    7530:	6c526197          	auipc	gp,0x6c526
    7534:	8db2c237          	lui	tp,0x8db2c
    7538:	fb854137          	lui	sp,0xfb854
    753c:	cc211017          	auipc	zero,0xcc211
    7540:	0004a3b3          	sltz	t2,s1
    7544:	00771133          	sll	sp,a4,t2
    7548:	003080b3          	add	ra,ra,gp
    754c:	402101b3          	sub	gp,sp,sp
    7550:	00308133          	add	sp,ra,gp
    7554:	00310133          	add	sp,sp,gp
    7558:	b991e0b7          	lui	ra,0xb991e
    755c:	40208233          	sub	tp,ra,sp
    7560:	bc616093          	ori	ra,sp,-1082
    7564:	00113133          	sltu	sp,sp,ra
    7568:	0021d0b3          	srl	ra,gp,sp
    756c:	f4d1f113          	andi	sp,gp,-179
    7570:	41e0d0b3          	sra	ra,ra,t5
    7574:	403151b3          	sra	gp,sp,gp
    7578:	0010c2b3          	xor	t0,ra,ra
    757c:	00311133          	sll	sp,sp,gp
    7580:	c39371b7          	lui	gp,0xc3937
    7584:	402353b3          	sra	t2,t1,sp
    7588:	cc41e397          	auipc	t2,0xcc41e
    758c:	98bae117          	auipc	sp,0x98bae
    7590:	7c41c113          	xori	sp,gp,1988
    7594:	48710c63          	beq	sp,t2,0x7a2c
    7598:	494001ef          	jal	gp,0x7a2c
    759c:	7881e113          	ori	sp,gp,1928
    75a0:	00111033          	sll	zero,sp,ra
    75a4:	00334133          	xor	sp,t1,gp
    75a8:	403180b3          	sub	ra,gp,gp
    75ac:	1ee230b7          	lui	ra,0x1ee23
    75b0:	1a118013          	addi	zero,gp,417 # 0xffffffffc39371a1
    75b4:	84929697          	auipc	a3,0x84929
    75b8:	7d597137          	lui	sp,0x7d597
    75bc:	0051e133          	or	sp,gp,t0
    75c0:	0002f133          	and	sp,t0,zero
    75c4:	00f130b3          	sltu	ra,sp,a5
    75c8:	5bcbb1b7          	lui	gp,0x5bcbb
    75cc:	00210333          	add	t1,sp,sp
    75d0:	40f151b3          	sra	gp,sp,a5
    75d4:	93a6c137          	lui	sp,0x93a6c
    75d8:	6961c193          	xori	gp,gp,1686
    75dc:	0deeb1b7          	lui	gp,0xdeeb
    75e0:	0052d133          	srl	sp,t0,t0
    75e4:	003062b3          	or	t0,zero,gp
    75e8:	ec8da137          	lui	sp,0xec8da
    75ec:	405080b3          	sub	ra,ra,t0
    75f0:	0050c0b3          	xor	ra,ra,t0
    75f4:	2ab2b117          	auipc	sp,0x2ab2b
    75f8:	29956197          	auipc	gp,0x29956
    75fc:	0011a1b3          	slt	gp,gp,ra
    7600:	00732133          	slt	sp,t1,t2
    7604:	006101b3          	add	gp,sp,t1
    7608:	c5420193          	addi	gp,tp,-940 # 0xffffffff8db2bc54
    760c:	ad518193          	addi	gp,gp,-1323 # 0x2995d0cd
    7610:	0020e233          	or	tp,ra,sp
    7614:	cb841197          	auipc	gp,0xcb841
    7618:	2719f0b7          	lui	ra,0x2719f
    761c:	bbf1f113          	andi	sp,gp,-1089
    7620:	21600e17          	auipc	t3,0x21600
    7624:	0011b133          	sltu	sp,gp,ra
    7628:	9c510ee3          	beq	sp,t0,0x7004
    762c:	9d9ff0ef          	jal	ra,0x7004
    7630:	deece137          	lui	sp,0xdeece
    7634:	c3dbb197          	auipc	gp,0xc3dbb
    7638:	0032e1b3          	or	gp,t0,gp
    763c:	c5f14093          	xori	ra,sp,-929
    7640:	c2e17113          	andi	sp,sp,-978
    7644:	76a5b197          	auipc	gp,0x76a5b
    7648:	fe948097          	auipc	ra,0xfe948
    764c:	30e049b7          	lui	s3,0x30e04
    7650:	84607113          	andi	sp,zero,-1978
    7654:	8fab9097          	auipc	ra,0x8fab9
    7658:	3b11d1b7          	lui	gp,0x3b11d
    765c:	2181c393          	xori	t2,gp,536
    7660:	5fc73137          	lui	sp,0x5fc73
    7664:	1b8911b7          	lui	gp,0x1b891
    7668:	5507a1b7          	lui	gp,0x5507a
    766c:	0021f1b3          	and	gp,gp,sp
    7670:	0031b0b3          	sltu	ra,gp,gp
    7674:	a5d1a7b7          	lui	a5,0xa5d1a
    7678:	b5e96117          	auipc	sp,0xb5e96
    767c:	00324033          	xor	zero,tp,gp
    7680:	001150b3          	srl	ra,sp,ra
    7684:	09649137          	lui	sp,0x9649
    7688:	001080b3          	add	ra,ra,ra
    768c:	003121b3          	slt	gp,sp,gp
    7690:	50290117          	auipc	sp,0x50290
    7694:	a95eb337          	lui	t1,0xa95eb
    7698:	a0d34193          	xori	gp,t1,-1523
    769c:	0111c3b3          	xor	t2,gp,a7
    76a0:	d87ae0b7          	lui	ra,0xd87ae
    76a4:	49c16193          	ori	gp,sp,1180
    76a8:	e70e00b7          	lui	ra,0xe70e0
    76ac:	da90e093          	ori	ra,ra,-599
    76b0:	00000093          	li	ra,0
    76b4:	e60082e3          	beqz	ra,0x7518
    76b8:	0030f333          	and	t1,ra,gp
    76bc:	1b216093          	ori	ra,sp,434
    76c0:	0042e1b3          	or	gp,t0,tp
    76c4:	cdb1d2b7          	lui	t0,0xcdb1d
    76c8:	ebd18113          	addi	sp,gp,-323 # 0x55079ebd
    76cc:	001111b3          	sll	gp,sp,ra
    76d0:	00f19133          	sll	sp,gp,a5
    76d4:	1840c313          	xori	t1,ra,388
    76d8:	8a41b1b7          	lui	gp,0x8a41b
    76dc:	0070d133          	srl	sp,ra,t2
    76e0:	89fa41b7          	lui	gp,0x89fa4
    76e4:	0012a0b3          	slt	ra,t0,ra
    76e8:	4a30cc93          	xori	s9,ra,1187
    76ec:	a4ba0097          	auipc	ra,0xa4ba0
    76f0:	bbb17113          	andi	sp,sp,-1093
    76f4:	86ad6137          	lui	sp,0x86ad6
    76f8:	43a13397          	auipc	t2,0x43a13
    76fc:	6dfb5237          	lui	tp,0x6dfb5
    7700:	94287337          	lui	t1,0x94287
    7704:	002100b3          	add	ra,sp,sp
    7708:	dda8d317          	auipc	t1,0xdda8d
    770c:	00210033          	add	zero,sp,sp
    7710:	e8034137          	lui	sp,0xe8034
    7714:	2ed1c313          	xori	t1,gp,749
    7718:	45208313          	addi	t1,ra,1106 # 0xffffffffa4ba7b3e
    771c:	e19ab197          	auipc	gp,0xe19ab
    7720:	48426197          	auipc	gp,0x48426
    7724:	db217093          	andi	ra,sp,-590
    7728:	4b1c41b7          	lui	gp,0x4b1c4
    772c:	1a804113          	xori	sp,zero,424
    7730:	4016d333          	sra	t1,a3,ra
    7734:	7817d197          	auipc	gp,0x7817d
    7738:	1270d463          	bge	ra,t2,0x7860
    773c:	1270c263          	blt	ra,t2,0x7860
    7740:	3971b097          	auipc	ra,0x3971b
    7744:	69114193          	xori	gp,sp,1681
    7748:	9c81c093          	xori	ra,gp,-1592
    774c:	ee449097          	auipc	ra,0xee449
    7750:	00215133          	srl	sp,sp,sp
    7754:	0c835597          	auipc	a1,0xc835
    7758:	5c71c293          	xori	t0,gp,1479
    775c:	0073e1b3          	or	gp,t2,t2
    7760:	d5530113          	addi	sp,t1,-683 # 0xffffffffdda9445d
    7764:	00100db3          	add	s11,zero,ra
    7768:	0061c0b3          	xor	ra,gp,t1
    776c:	73190797          	auipc	a5,0x73190
    7770:	ad40e093          	ori	ra,ra,-1324
    7774:	003ec0b3          	xor	ra,t4,gp
    7778:	d7256117          	auipc	sp,0xd7256
    777c:	e1c1e093          	ori	ra,gp,-484
    7780:	009050b3          	srl	ra,zero,s1
    7784:	8026e1b7          	lui	gp,0x8026e
    7788:	472500b7          	lui	ra,0x47250
    778c:	cf50c313          	xori	t1,ra,-779
    7790:	314532b7          	lui	t0,0x31453
    7794:	00217133          	and	sp,sp,sp
    7798:	0012f1b3          	and	gp,t0,ra
    779c:	001931b3          	sltu	gp,s2,ra
    77a0:	e311f193          	andi	gp,gp,-463
    77a4:	1fe08113          	addi	sp,ra,510 # 0x472501fe
    77a8:	3c2c3117          	auipc	sp,0x3c2c3
    77ac:	ffd4a197          	auipc	gp,0xffd4a
    77b0:	002120b3          	slt	ra,sp,sp
    77b4:	5315d1b7          	lui	gp,0x5315d
    77b8:	003111b3          	sll	gp,sp,gp
    77bc:	003090b3          	sll	ra,ra,gp
    77c0:	c350c193          	xori	gp,ra,-971
    77c4:	00000197          	auipc	gp,0x0
    77c8:	dd818367          	jalr	t1,-552(gp) # 0x759c
    77cc:	7c73b297          	auipc	t0,0x7c73b
    77d0:	0051e133          	or	sp,gp,t0
    77d4:	97a26313          	ori	t1,tp,-1670
    77d8:	1911e0b7          	lui	ra,0x1911e
    77dc:	00108133          	add	sp,ra,ra
    77e0:	40b15133          	sra	sp,sp,a1
    77e4:	00612fb3          	slt	t6,sp,t1
    77e8:	401080b3          	sub	ra,ra,ra
    77ec:	13fef013          	andi	zero,t4,319
    77f0:	0000d1b3          	srl	gp,ra,zero
    77f4:	16717297          	auipc	t0,0x16717
    77f8:	004121b3          	slt	gp,sp,tp
    77fc:	6165c397          	auipc	t2,0x6165c
    7800:	31624117          	auipc	sp,0x31624
    7804:	00126133          	or	sp,tp,ra
    7808:	00214133          	xor	sp,sp,sp
    780c:	00311133          	sll	sp,sp,gp
    7810:	38f65297          	auipc	t0,0x38f65
    7814:	c2624093          	xori	ra,tp,-986
    7818:	17310193          	addi	gp,sp,371 # 0x3162b973
    781c:	22a9aa97          	auipc	s5,0x22a9a
    7820:	00118133          	add	sp,gp,ra
    7824:	00314333          	xor	t1,sp,gp
    7828:	00233133          	sltu	sp,t1,sp
    782c:	0002c233          	xor	tp,t0,zero
    7830:	76000093          	li	ra,1888
    7834:	aa910213          	addi	tp,sp,-1367
    7838:	0010a1b3          	slt	gp,ra,ra
    783c:	d36fa1b7          	lui	gp,0xd36fa
    7840:	0061c333          	xor	t1,gp,t1
    7844:	6829d1b7          	lui	gp,0x6829d
    7848:	f8e08093          	addi	ra,ra,-114 # 0x1911df8e
    784c:	0072e1b3          	or	gp,t0,t2
    7850:	ab410113          	addi	sp,sp,-1356
    7854:	fc6012b7          	lui	t0,0xfc601
    7858:	962080e3          	beq	ra,sp,0x71b8
    785c:	95dff06f          	j	0x71b8
    7860:	000161b3          	or	gp,sp,zero
    7864:	00122133          	slt	sp,tp,ra
    7868:	4e993337          	lui	t1,0x4e993
    786c:	8e8bd197          	auipc	gp,0x8e8bd
    7870:	00d170b3          	and	ra,sp,a3
    7874:	9ea5c0b7          	lui	ra,0x9ea5c
    7878:	40208633          	sub	a2,ra,sp
    787c:	0140d333          	srl	t1,ra,s4
    7880:	00618133          	add	sp,gp,t1
    7884:	01b071b3          	and	gp,zero,s11
    7888:	ec61e193          	ori	gp,gp,-314
    788c:	70ab9117          	auipc	sp,0x70ab9
    7890:	004300b3          	add	ra,t1,tp
    7894:	6df1e113          	ori	sp,gp,1759
    7898:	f9e06193          	ori	gp,zero,-98
    789c:	35b4e217          	auipc	tp,0x35b4e
    78a0:	9f668197          	auipc	gp,0x9f668
    78a4:	1880e093          	ori	ra,ra,392
    78a8:	6a28b1b7          	lui	gp,0x6a28b
    78ac:	b3f10297          	auipc	t0,0xb3f10
    78b0:	188071b7          	lui	gp,0x18807
    78b4:	39d70237          	lui	tp,0x39d70
    78b8:	3afd4137          	lui	sp,0x3afd4
    78bc:	453b6017          	auipc	zero,0x453b6
    78c0:	003120b3          	slt	ra,sp,gp
    78c4:	fd0ba117          	auipc	sp,0xfd0ba
    78c8:	f2b6e117          	auipc	sp,0xf2b6e
    78cc:	0051c133          	xor	sp,gp,t0
    78d0:	0021a0b3          	slt	ra,gp,sp
    78d4:	0011e1b3          	or	gp,gp,ra
    78d8:	000082b3          	add	t0,ra,zero
    78dc:	001315b3          	sll	a1,t1,ra
    78e0:	93cc6037          	lui	zero,0x93cc6
    78e4:	0030f233          	and	tp,ra,gp
    78e8:	9740c0b7          	lui	ra,0x9740c
    78ec:	4051d5b3          	sra	a1,gp,t0
    78f0:	00010263          	beqz	sp,0x78f4
    78f4:	fa8ff1ef          	jal	gp,0x709c
    78f8:	2b71fe93          	andi	t4,gp,695
    78fc:	0011b2b3          	sltu	t0,gp,ra
    7900:	d08f6317          	auipc	t1,0xd08f6
    7904:	9b00c113          	xori	sp,ra,-1616
    7908:	0061a133          	slt	sp,gp,t1
    790c:	6c928193          	addi	gp,t0,1737 # 0xffffffffb3f17f75
    7910:	003351b3          	srl	gp,t1,gp
    7914:	0040a0b3          	slt	ra,ra,tp
    7918:	30ae8093          	addi	ra,t4,778 # 0xffffffffc127f30a
    791c:	73027293          	andi	t0,tp,1840
    7920:	abbfc317          	auipc	t1,0xabbfc
    7924:	003520b3          	slt	ra,a0,gp
    7928:	00337133          	and	sp,t1,gp
    792c:	df21e293          	ori	t0,gp,-526
    7930:	0031c1b3          	xor	gp,gp,gp
    7934:	0011a133          	slt	sp,gp,ra
    7938:	bb81f113          	andi	sp,gp,-1096
    793c:	4d258097          	auipc	ra,0x4d258
    7940:	69e04193          	xori	gp,zero,1694
    7944:	40725333          	sra	t1,tp,t2
    7948:	0000b133          	sltu	sp,ra,zero
    794c:	4040c093          	xori	ra,ra,1028
    7950:	8a3bd137          	lui	sp,0x8a3bd
    7954:	857fe697          	auipc	a3,0x857fe
    7958:	04c08113          	addi	sp,ra,76 # 0x4d25f988
    795c:	003160b3          	or	ra,sp,gp
    7960:	6e69d397          	auipc	t2,0x6e69d
    7964:	0021b0b3          	sltu	ra,gp,sp
    7968:	50838393          	addi	t2,t2,1288 # 0x6e6a4e68
    796c:	bc608113          	addi	sp,ra,-1082
    7970:	cc16d197          	auipc	gp,0xcc16d
    7974:	00312633          	slt	a2,sp,gp
    7978:	003184b3          	add	s1,gp,gp
    797c:	23518093          	addi	ra,gp,565 # 0xffffffffcc174ba5
    7980:	0030d133          	srl	sp,ra,gp
    7984:	ed01e113          	ori	sp,gp,-304
    7988:	e431f317          	auipc	t1,0xe431f
    798c:	f653f313          	andi	t1,t2,-155
    7990:	00020213          	mv	tp,tp
    7994:	da4206e3          	beq	tp,tp,0x7740
    7998:	60b020b7          	lui	ra,0x60b02
    799c:	ff33c093          	xori	ra,t2,-13
    79a0:	0011ce33          	xor	t3,gp,ra
    79a4:	003ab133          	sltu	sp,s5,gp
    79a8:	0040f0b3          	and	ra,ra,tp
    79ac:	0050a333          	slt	t1,ra,t0
    79b0:	4021d133          	sra	sp,gp,sp
    79b4:	206a01b7          	lui	gp,0x206a0
    79b8:	001b7133          	and	sp,s6,ra
    79bc:	673a7097          	auipc	ra,0x673a7
    79c0:	000100b3          	add	ra,sp,zero
    79c4:	003183b3          	add	t2,gp,gp
    79c8:	0036a1b3          	slt	gp,a3,gp
    79cc:	0032a133          	slt	sp,t0,gp
    79d0:	cb91e093          	ori	ra,gp,-839
    79d4:	002341b3          	xor	gp,t1,sp
    79d8:	75431197          	auipc	gp,0x75431
    79dc:	0030f133          	and	sp,ra,gp
    79e0:	9a545097          	auipc	ra,0x9a545
    79e4:	002054b3          	srl	s1,zero,sp
    79e8:	3c62b0b7          	lui	ra,0x3c62b
    79ec:	3440c293          	xori	t0,ra,836
    79f0:	60217013          	andi	zero,sp,1538
    79f4:	0021a133          	slt	sp,gp,sp
    79f8:	007270b3          	and	ra,tp,t2
    79fc:	002103b3          	add	t2,sp,sp
    7a00:	0000d1b3          	srl	gp,ra,zero
    7a04:	003380b3          	add	ra,t2,gp
    7a08:	002de1b3          	or	gp,s11,sp
    7a0c:	b3b08993          	addi	s3,ra,-1221 # 0x3c62ab3b
    7a10:	93036193          	ori	gp,t1,-1744
    7a14:	0021c133          	xor	sp,gp,sp
    7a18:	e47ad197          	auipc	gp,0xe47ad
    7a1c:	003320b3          	slt	ra,t1,gp
    7a20:	479750b7          	lui	ra,0x47975
    7a24:	ec217ae3          	bgeu	sp,sp,0x78f8
    7a28:	ec2168e3          	bltu	sp,sp,0x78f8
    7a2c:	0013b133          	sltu	sp,t2,ra
    7a30:	0010a1b3          	slt	gp,ra,ra
    7a34:	0040d1b3          	srl	gp,ra,tp
    7a38:	00212233          	slt	tp,sp,sp
    7a3c:	d080c193          	xori	gp,ra,-760
    7a40:	73937013          	andi	zero,t1,1849
    7a44:	00218033          	add	zero,gp,sp
    7a48:	cf6ed117          	auipc	sp,0xcf6ed
    7a4c:	003112b3          	sll	t0,sp,gp
    7a50:	0011e1b3          	or	gp,gp,ra
    7a54:	9d5c4097          	auipc	ra,0x9d5c4
    7a58:	006251b3          	srl	gp,tp,t1
    7a5c:	4372e113          	ori	sp,t0,1079
    7a60:	0011c133          	xor	sp,gp,ra
    7a64:	00414133          	xor	sp,sp,tp
    7a68:	0070c333          	xor	t1,ra,t2
    7a6c:	009151b3          	srl	gp,sp,s1
    7a70:	c50e70b7          	lui	ra,0xc50e7
    7a74:	00c0a0b3          	slt	ra,ra,a2
    7a78:	d0108693          	addi	a3,ra,-767 # 0xffffffffc50e6d01
    7a7c:	1bc34193          	xori	gp,t1,444
    7a80:	e4a08193          	addi	gp,ra,-438
    7a84:	402151b3          	sra	gp,sp,sp
    7a88:	401180b3          	sub	ra,gp,ra
    7a8c:	de967117          	auipc	sp,0xde967
    7a90:	007170b3          	and	ra,sp,t2
    7a94:	4031d133          	sra	sp,gp,gp
    7a98:	fad9b1b7          	lui	gp,0xfad9b
    7a9c:	0011b333          	sltu	t1,gp,ra
    7aa0:	70067337          	lui	t1,0x70067
    7aa4:	e9210193          	addi	gp,sp,-366 # 0xffffffffde96e91e
    7aa8:	0020b1b3          	sltu	gp,ra,sp
    7aac:	4020d1b3          	sra	gp,ra,sp
    7ab0:	00319133          	sll	sp,gp,gp
    7ab4:	00312133          	slt	sp,sp,gp
    7ab8:	00308133          	add	sp,ra,gp
    7abc:	0013f133          	and	sp,t2,ra
    7ac0:	ec100ce3          	beq	zero,ra,0x7998
    7ac4:	ed5ff06f          	j	0x7998
    7ac8:	8ddc70b7          	lui	ra,0x8ddc7
    7acc:	cfb45817          	auipc	a6,0xcfb45
    7ad0:	f0945197          	auipc	gp,0xf0945
    7ad4:	003dd0b3          	srl	ra,s11,gp
    7ad8:	4090d233          	sra	tp,ra,s1
    7adc:	0039e0b3          	or	ra,s3,gp
    7ae0:	004110b3          	sll	ra,sp,tp
    7ae4:	40608033          	sub	zero,ra,t1
    7ae8:	0060b0b3          	sltu	ra,ra,t1
    7aec:	90998237          	lui	tp,0x90998
    7af0:	00300033          	add	zero,zero,gp
    7af4:	3d2b0137          	lui	sp,0x3d2b0
    7af8:	35a90117          	auipc	sp,0x35a90
    7afc:	50f0e013          	ori	zero,ra,1295
    7b00:	84520193          	addi	gp,tp,-1979 # 0xffffffff90997845
    7b04:	0095c3b3          	xor	t2,a1,s1
    7b08:	574c8197          	auipc	gp,0x574c8
    7b0c:	0030f133          	and	sp,ra,gp
    7b10:	9ca9f197          	auipc	gp,0x9ca9f
    7b14:	00122133          	slt	sp,tp,ra
    7b18:	899ec1b7          	lui	gp,0x899ec
    7b1c:	00609333          	sll	t1,ra,t1
    7b20:	6585c137          	lui	sp,0x6585c
    7b24:	f3616113          	ori	sp,sp,-202
    7b28:	055a8137          	lui	sp,0x55a8
    7b2c:	99221097          	auipc	ra,0x99221
    7b30:	741b6817          	auipc	a6,0x741b6
    7b34:	00000397          	auipc	t2,0x0
    7b38:	1bc384e7          	jalr	s1,444(t2) # 0x7cf0
    7b3c:	c77ff0b7          	lui	ra,0xc77ff
    7b40:	bfab00b7          	lui	ra,0xbfab0
    7b44:	1d5c70b7          	lui	ra,0x1d5c7
    7b48:	00311333          	sll	t1,sp,gp
    7b4c:	0031e0b3          	or	ra,gp,gp
    7b50:	0002aab3          	sltz	s5,t0
    7b54:	f20a4097          	auipc	ra,0xf20a4
    7b58:	50714493          	xori	s1,sp,1287
    7b5c:	6cf04193          	xori	gp,zero,1743
    7b60:	002161b3          	or	gp,sp,sp
    7b64:	0033a0b3          	slt	ra,t2,gp
    7b68:	5e514113          	xori	sp,sp,1509
    7b6c:	b96893b7          	lui	t2,0xb9689
    7b70:	38738197          	auipc	gp,0x38738
    7b74:	cf7901b7          	lui	gp,0xcf790
    7b78:	96634117          	auipc	sp,0x96634
    7b7c:	001257b3          	srl	a5,tp,ra
    7b80:	411150b3          	sra	ra,sp,a7
    7b84:	0042b233          	sltu	tp,t0,tp
    7b88:	9f9c20b7          	lui	ra,0x9f9c2
    7b8c:	003660b3          	or	ra,a2,gp
    7b90:	004151b3          	srl	gp,sp,tp
    7b94:	018e0237          	lui	tp,0x18e0
    7b98:	5b838013          	addi	zero,t2,1464 # 0xffffffffb96895b8
    7b9c:	c08ca137          	lui	sp,0xc08ca
    7ba0:	a25d8117          	auipc	sp,0xa25d8
    7ba4:	8fc4d797          	auipc	a5,0x8fc4d
    7ba8:	95592317          	auipc	t1,0x95592
    7bac:	011371b3          	and	gp,t1,a7
    7bb0:	e2968097          	auipc	ra,0xe2968
    7bb4:	40310333          	sub	t1,sp,gp
    7bb8:	003111b3          	sll	gp,sp,gp
    7bbc:	4f0c4117          	auipc	sp,0x4f0c4
    7bc0:	0021f633          	and	a2,gp,sp
    7bc4:	74118c63          	beq	gp,ra,0x831c
    7bc8:	7540016f          	jal	sp,0x831c
    7bcc:	3e325117          	auipc	sp,0x3e325
    7bd0:	0023e133          	or	sp,t2,sp
    7bd4:	89b36037          	lui	zero,0x89b36
    7bd8:	9ae60197          	auipc	gp,0x9ae60
    7bdc:	40305133          	sra	sp,zero,gp
    7be0:	d60190b7          	lui	ra,0xd6019
    7be4:	75adf097          	auipc	ra,0x75adf
    7be8:	003110b3          	sll	ra,sp,gp
    7bec:	006081b3          	add	gp,ra,t1
    7bf0:	08818313          	addi	t1,gp,136 # 0xffffffff9ae67c60
    7bf4:	e5d0f313          	andi	t1,ra,-419
    7bf8:	0021a3b3          	slt	t2,gp,sp
    7bfc:	4f75a137          	lui	sp,0x4f75a
    7c00:	c9177117          	auipc	sp,0xc9177
    7c04:	928df037          	lui	zero,0x928df
    7c08:	00614133          	xor	sp,sp,t1
    7c0c:	76f66117          	auipc	sp,0x76f66
    7c10:	0011e0b3          	or	ra,gp,ra
    7c14:	00505133          	srl	sp,zero,t0
    7c18:	002171b3          	and	gp,sp,sp
    7c1c:	0071f1b3          	and	gp,gp,t2
    7c20:	401151b3          	sra	gp,sp,ra
    7c24:	68458197          	auipc	gp,0x68458
    7c28:	0000a1b3          	sltz	gp,ra
    7c2c:	06b3e113          	ori	sp,t2,107
    7c30:	009141b3          	xor	gp,sp,s1
    7c34:	0061c333          	xor	t1,gp,t1
    7c38:	fd804093          	xori	ra,zero,-40
    7c3c:	002327b3          	slt	a5,t1,sp
    7c40:	00223133          	sltu	sp,tp,sp
    7c44:	dc334193          	xori	gp,t1,-573
    7c48:	5ab45097          	auipc	ra,0x5ab45
    7c4c:	003081b3          	add	gp,ra,gp
    7c50:	74f411b7          	lui	gp,0x74f41
    7c54:	0028d0b3          	srl	ra,a7,sp
    7c58:	36128463          	beq	t0,ra,0x7fc0
    7c5c:	364001ef          	jal	gp,0x7fc0
    7c60:	ca67b117          	auipc	sp,0xca67b
    7c64:	9e450037          	lui	zero,0x9e450
    7c68:	003203b3          	add	t2,tp,gp
    7c6c:	0fb17013          	andi	zero,sp,251
    7c70:	9460bab7          	lui	s5,0x9460b
    7c74:	0070a2b3          	slt	t0,ra,t2
    7c78:	0030e233          	or	tp,ra,gp
    7c7c:	0020fcb3          	and	s9,ra,sp
    7c80:	0030a333          	slt	t1,ra,gp
    7c84:	009150b3          	srl	ra,sp,s1
    7c88:	0d516013          	ori	zero,sp,213
    7c8c:	bf408593          	addi	a1,ra,-1036 # 0x5ab4c83c
    7c90:	ed807117          	auipc	sp,0xed807
    7c94:	ec621317          	auipc	t1,0xec621
    7c98:	b6023017          	auipc	zero,0xb6023
    7c9c:	00316133          	or	sp,sp,gp
    7ca0:	c9d60197          	auipc	gp,0xc9d60
    7ca4:	8d6e3197          	auipc	gp,0x8d6e3
    7ca8:	0032f133          	and	sp,t0,gp
    7cac:	ac2571b7          	lui	gp,0xac257
    7cb0:	dd163117          	auipc	sp,0xdd163
    7cb4:	0061a0b3          	slt	ra,gp,t1
    7cb8:	00221133          	sll	sp,tp,sp
    7cbc:	ca58f197          	auipc	gp,0xca58f
    7cc0:	43df0917          	auipc	s2,0x43df0
    7cc4:	94fea197          	auipc	gp,0x94fea
    7cc8:	db614093          	xori	ra,sp,-586
    7ccc:	49003297          	auipc	t0,0x49003
    7cd0:	01077097          	auipc	ra,0x1077
    7cd4:	00215133          	srl	sp,sp,sp
    7cd8:	4670f193          	andi	gp,ra,1127
    7cdc:	00715133          	srl	sp,sp,t2
    7ce0:	61f3f097          	auipc	ra,0x61f3f
    7ce4:	003220b3          	slt	ra,tp,gp
    7ce8:	48200263          	beq	zero,sp,0x816c
    7cec:	4800036f          	jal	t1,0x816c
    7cf0:	51be5197          	auipc	gp,0x51be5
    7cf4:	651d00b7          	lui	ra,0x651d0
    7cf8:	0a1cd237          	lui	tp,0xa1cd
    7cfc:	93b14413          	xori	s0,sp,-1733
    7d00:	26c310b7          	lui	ra,0x26c31
    7d04:	001120b3          	slt	ra,sp,ra
    7d08:	01908033          	add	zero,ra,s9
    7d0c:	ff9b9217          	auipc	tp,0xff9b9
    7d10:	0011e1b3          	or	gp,gp,ra
    7d14:	e291ce13          	xori	t3,gp,-471
    7d18:	1f810093          	addi	ra,sp,504 # 0xffffffffdd16aea8
    7d1c:	1a0560b7          	lui	ra,0x1a056
    7d20:	7b010293          	addi	t0,sp,1968
    7d24:	7a125117          	auipc	sp,0x7a125
    7d28:	0b996117          	auipc	sp,0xb996
    7d2c:	0021f133          	and	sp,gp,sp
    7d30:	001191b3          	sll	gp,gp,ra
    7d34:	0060e0b3          	or	ra,ra,t1
    7d38:	40215133          	sra	sp,sp,sp
    7d3c:	55a17193          	andi	gp,sp,1370
    7d40:	40d18033          	sub	zero,gp,a3
    7d44:	004191b3          	sll	gp,gp,tp
    7d48:	a4e1c093          	xori	ra,gp,-1458
    7d4c:	4de7c093          	xori	ra,a5,1246
    7d50:	2fcaf1b7          	lui	gp,0x2fcaf
    7d54:	402151b3          	sra	gp,sp,sp
    7d58:	aa665197          	auipc	gp,0xaa665
    7d5c:	4020d133          	sra	sp,ra,sp
    7d60:	4060dab3          	sra	s5,ra,t1
    7d64:	00320cb3          	add	s9,tp,gp
    7d68:	2b916113          	ori	sp,sp,697
    7d6c:	0dcd71b7          	lui	gp,0xdcd7
    7d70:	0010c0b3          	xor	ra,ra,ra
    7d74:	0031b3b3          	sltu	t2,gp,gp
    7d78:	d56f1017          	auipc	zero,0xd56f1
    7d7c:	14dc97b7          	lui	a5,0x14dc9
    7d80:	7e30f263          	bgeu	ra,gp,0x8564
    7d84:	7e30e063          	bltu	ra,gp,0x8564
    7d88:	e03370b7          	lui	ra,0xe0337
    7d8c:	0011c1b3          	xor	gp,gp,ra
    7d90:	00222333          	slt	t1,tp,sp
    7d94:	0035f1b3          	and	gp,a1,gp
    7d98:	0031d633          	srl	a2,gp,gp
    7d9c:	4064d233          	sra	tp,s1,t1
    7da0:	28e49597          	auipc	a1,0x28e49
    7da4:	04f18093          	addi	ra,gp,79 # 0xdcd704f
    7da8:	1d819bb7          	lui	s7,0x1d819
    7dac:	0021fb33          	and	s6,gp,sp
    7db0:	0031a033          	slt	zero,gp,gp
    7db4:	401159b3          	sra	s3,sp,ra
    7db8:	6432f193          	andi	gp,t0,1603
    7dbc:	6040b117          	auipc	sp,0x6040b
    7dc0:	0023d133          	srl	sp,t2,sp
    7dc4:	b0d08113          	addi	sp,ra,-1267 # 0xffffffffe0336b0d
    7dc8:	40308233          	sub	tp,ra,gp
    7dcc:	401181b3          	sub	gp,gp,ra
    7dd0:	00733f33          	sltu	t5,t1,t2
    7dd4:	f7beb137          	lui	sp,0xf7beb
    7dd8:	0070a633          	slt	a2,ra,t2
    7ddc:	3050f213          	andi	tp,ra,773
    7de0:	fc6f2297          	auipc	t0,0xfc6f2
    7de4:	00305233          	srl	tp,zero,gp
    7de8:	e0c1c113          	xori	sp,gp,-500
    7dec:	000791b3          	sll	gp,a5,zero
    7df0:	0020a133          	slt	sp,ra,sp
    7df4:	0011f233          	and	tp,gp,ra
    7df8:	afb21097          	auipc	ra,0xafb21
    7dfc:	0033efb3          	or	t6,t2,gp
    7e00:	00610463          	beq	sp,t1,0x7e08
    7e04:	0040016f          	jal	sp,0x7e08
    7e08:	000087b3          	add	a5,ra,zero
    7e0c:	0021b133          	sltu	sp,gp,sp
    7e10:	72ec7117          	auipc	sp,0x72ec7
    7e14:	c7c930b7          	lui	ra,0xc7c93
    7e18:	20d94017          	auipc	zero,0x20d94
    7e1c:	0160a1b3          	slt	gp,ra,s6
    7e20:	402101b3          	sub	gp,sp,sp
    7e24:	00209133          	sll	sp,ra,sp
    7e28:	001120b3          	slt	ra,sp,ra
    7e2c:	54126993          	ori	s3,tp,1345
    7e30:	086d5197          	auipc	gp,0x86d5
    7e34:	b6c821b7          	lui	gp,0xb6c82
    7e38:	f3a28117          	auipc	sp,0xf3a28
    7e3c:	5e5fd137          	lui	sp,0x5e5fd
    7e40:	5d860113          	addi	sp,a2,1496 # 0x1307cfac
    7e44:	10fe9bb7          	lui	s7,0x10fe9
    7e48:	402209b3          	sub	s3,tp,sp
    7e4c:	00222033          	slt	zero,tp,sp
    7e50:	006001b3          	add	gp,zero,t1
    7e54:	3df0f313          	andi	t1,ra,991
    7e58:	002161b3          	or	gp,sp,sp
    7e5c:	a8058213          	addi	tp,a1,-1408 # 0x28e50820
    7e60:	003142b3          	xor	t0,sp,gp
    7e64:	f63c21b7          	lui	gp,0xf63c2
    7e68:	fb9fd117          	auipc	sp,0xfb9fd
    7e6c:	4031d0b3          	sra	ra,gp,gp
    7e70:	53e8c037          	lui	zero,0x53e8c
    7e74:	621fb097          	auipc	ra,0x621fb
    7e78:	0000c133          	xor	sp,ra,zero
    7e7c:	fa35a297          	auipc	t0,0xfa35a
    7e80:	21c3e313          	ori	t1,t2,540
    7e84:	9c85b197          	auipc	gp,0x9c85b
    7e88:	0011c033          	xor	zero,gp,ra
    7e8c:	5c7980b7          	lui	ra,0x5c798
    7e90:	00b1a133          	slt	sp,gp,a1
    7e94:	27b2d137          	lui	sp,0x27b2d
    7e98:	18817297          	auipc	t0,0x18817
    7e9c:	cca1e237          	lui	tp,0xcca1e
    7ea0:	6877f093          	andi	ra,a5,1671
    7ea4:	1a310663          	beq	sp,gp,0x8050
    7ea8:	1a8000ef          	jal	ra,0x8050
    7eac:	36431297          	auipc	t0,0x36431
    7eb0:	61008193          	addi	gp,ra,1552 # 0x5c798610
    7eb4:	4011d1b3          	sra	gp,gp,ra
    7eb8:	0010e2b3          	or	t0,ra,ra
    7ebc:	355e51b7          	lui	gp,0x355e5
    7ec0:	b2358013          	addi	zero,a1,-1245
    7ec4:	0020b233          	sltu	tp,ra,sp
    7ec8:	6f576db7          	lui	s11,0x6f576
    7ecc:	5c2d7093          	andi	ra,s10,1474
    7ed0:	2c0f8197          	auipc	gp,0x2c0f8
    7ed4:	4051d0b3          	sra	ra,gp,t0
    7ed8:	2870f213          	andi	tp,ra,647
    7edc:	7b271137          	lui	sp,0x7b271
    7ee0:	0000d5b3          	srl	a1,ra,zero
    7ee4:	003104b3          	add	s1,sp,gp
    7ee8:	642f81b7          	lui	gp,0x642f8
    7eec:	55f59337          	lui	t1,0x55f59
    7ef0:	4f01e113          	ori	sp,gp,1264
    7ef4:	e5817093          	andi	ra,sp,-424
    7ef8:	40310133          	sub	sp,sp,gp
    7efc:	40228133          	sub	sp,t0,sp
    7f00:	94f390b7          	lui	ra,0x94f39
    7f04:	09800193          	li	gp,152
    7f08:	78eae1b7          	lui	gp,0x78eae
    7f0c:	d30d5117          	auipc	sp,0xd30d5
    7f10:	0030a633          	slt	a2,ra,gp
    7f14:	76703197          	auipc	gp,0x76703
    7f18:	0060c033          	xor	zero,ra,t1
    7f1c:	00314133          	xor	sp,sp,gp
    7f20:	eea14393          	xori	t2,sp,-278
    7f24:	6ed34093          	xori	ra,t1,1773
    7f28:	f8fae037          	lui	zero,0xf8fae
    7f2c:	1a01f113          	andi	sp,gp,416
    7f30:	0031c1b3          	xor	gp,gp,gp
    7f34:	0023b8b3          	sltu	a7,t2,sp
    7f38:	e4d188e3          	beq	gp,a3,0x7d88
    7f3c:	e4dff26f          	jal	tp,0x7d88
    7f40:	b4ed5bb7          	lui	s7,0xb4ed5
    7f44:	00331eb3          	sll	t4,t1,gp
    7f48:	0a110113          	addi	sp,sp,161 # 0xffffffffd30dcfad
    7f4c:	8954e013          	ori	zero,s1,-1899
    7f50:	c77a51b7          	lui	gp,0xc77a5
    7f54:	3ecb1117          	auipc	sp,0x3ecb1
    7f58:	0012d0b3          	srl	ra,t0,ra
    7f5c:	005111b3          	sll	gp,sp,t0
    7f60:	6e7eb197          	auipc	gp,0x6e7eb
    7f64:	56917593          	andi	a1,sp,1385
    7f68:	0021e333          	or	t1,gp,sp
    7f6c:	14e9f0b7          	lui	ra,0x14e9f
    7f70:	a3e17e93          	andi	t4,sp,-1474
    7f74:	1950c113          	xori	sp,ra,405
    7f78:	201411b7          	lui	gp,0x20141
    7f7c:	001137b3          	sltu	a5,sp,ra
    7f80:	a3e2e193          	ori	gp,t0,-1474
    7f84:	002010b3          	sll	ra,zero,sp
    7f88:	001240b3          	xor	ra,tp,ra
    7f8c:	40178133          	sub	sp,a5,ra
    7f90:	2e6891b7          	lui	gp,0x2e689
    7f94:	06234197          	auipc	gp,0x6234
    7f98:	cdd08213          	addi	tp,ra,-803 # 0x14e9ecdd
    7f9c:	dab6e597          	auipc	a1,0xdab6e
    7fa0:	40135033          	sra	zero,t1,ra
    7fa4:	0b41a1b7          	lui	gp,0xb41a
    7fa8:	589d3337          	lui	t1,0x589d3
    7fac:	79c03197          	auipc	gp,0x79c03
    7fb0:	c1614393          	xori	t2,sp,-1002
    7fb4:	59038c13          	addi	s8,t2,1424
    7fb8:	00008193          	mv	gp,ra
    7fbc:	c01188e3          	beq	gp,ra,0x7bcc
    7fc0:	003221b3          	slt	gp,tp,gp
    7fc4:	14a10093          	addi	ra,sp,330 # 0x3ecb909e
    7fc8:	5214d197          	auipc	gp,0x5214d
    7fcc:	1820b0b7          	lui	ra,0x1820b
    7fd0:	001380b3          	add	ra,t2,ra
    7fd4:	0051e1b3          	or	gp,gp,t0
    7fd8:	003361b3          	or	gp,t1,gp
    7fdc:	38c10093          	addi	ra,sp,908
    7fe0:	007301b3          	add	gp,t1,t2
    7fe4:	40438333          	sub	t1,t2,tp
    7fe8:	00216133          	or	sp,sp,sp
    7fec:	74a1c813          	xori	a6,gp,1866
    7ff0:	001010b3          	sll	ra,zero,ra
    7ff4:	257ab237          	lui	tp,0x257ab
    7ff8:	0031d133          	srl	sp,gp,gp
    7ffc:	a190e093          	ori	ra,ra,-1511
    8000:	c6c2d097          	auipc	ra,0xc6c2d
    8004:	d1f24193          	xori	gp,tp,-737
    8008:	9e33b017          	auipc	zero,0x9e33b
    800c:	00d13333          	sltu	t1,sp,a3
    8010:	0043d0b3          	srl	ra,t2,tp
    8014:	0022e1b3          	or	gp,t0,sp
    8018:	a1b170b7          	lui	ra,0xa1b17
    801c:	f254d197          	auipc	gp,0xf254d
    8020:	00118133          	add	sp,gp,ra
    8024:	a2b12117          	auipc	sp,0xa2b12
    8028:	77c2e093          	ori	ra,t0,1916
    802c:	981de1b7          	lui	gp,0x981de
    8030:	3fb95197          	auipc	gp,0x3fb95
    8034:	003c23b3          	slt	t2,s8,gp
    8038:	40335133          	sra	sp,t1,gp
    803c:	0010f133          	and	sp,ra,ra
    8040:	00d100b3          	add	ra,sp,a3
    8044:	001190b3          	sll	ra,gp,ra
    8048:	00008193          	mv	gp,ra
    804c:	48118263          	beq	gp,ra,0x84d0
    8050:	b4523097          	auipc	ra,0xb4523
    8054:	7064b1b7          	lui	gp,0x7064b
    8058:	2c71e193          	ori	gp,gp,711
    805c:	e4da2117          	auipc	sp,0xe4da2
    8060:	8671f013          	andi	zero,gp,-1945
    8064:	002053b3          	srl	t2,zero,sp
    8068:	bb14a1b7          	lui	gp,0xbb14a
    806c:	01d0c033          	xor	zero,ra,t4
    8070:	12f30013          	addi	zero,t1,303 # 0x589d312f
    8074:	00314bb3          	xor	s7,sp,gp
    8078:	002130b3          	sltu	ra,sp,sp
    807c:	0011a0b3          	slt	ra,gp,ra
    8080:	3c2be093          	ori	ra,s7,962
    8084:	402101b3          	sub	gp,sp,sp
    8088:	002100b3          	add	ra,sp,sp
    808c:	0012e233          	or	tp,t0,ra
    8090:	bb0616b7          	lui	a3,0xbb061
    8094:	99cd7197          	auipc	gp,0x99cd7
    8098:	0011a133          	slt	sp,gp,ra
    809c:	00127133          	and	sp,tp,ra
    80a0:	749b01b7          	lui	gp,0x749b0
    80a4:	26a17193          	andi	gp,sp,618
    80a8:	00214333          	xor	t1,sp,sp
    80ac:	0090e233          	or	tp,ra,s1
    80b0:	002e3133          	sltu	sp,t3,sp
    80b4:	98310113          	addi	sp,sp,-1661 # 0xffffffffe4da99df
    80b8:	222f5117          	auipc	sp,0x222f5
    80bc:	171a2137          	lui	sp,0x171a2
    80c0:	7159d017          	auipc	zero,0x7159d
    80c4:	71518093          	addi	ra,gp,1813 # 0x749b0715
    80c8:	e6b26293          	ori	t0,tp,-405
    80cc:	9e110ee3          	beq	sp,ra,0x7ac8
    80d0:	9f9ff36f          	jal	t1,0x7ac8
    80d4:	9fd44297          	auipc	t0,0x9fd44
    80d8:	c8790097          	auipc	ra,0xc8790
    80dc:	4000d1b3          	sra	gp,ra,zero
    80e0:	ed20f093          	andi	ra,ra,-302
    80e4:	d08e41b7          	lui	gp,0xd08e4
    80e8:	d41df2b7          	lui	t0,0xd41df
    80ec:	0031f133          	and	sp,gp,gp
    80f0:	cc80e0b7          	lui	ra,0xcc80e
    80f4:	00f12133          	slt	sp,sp,a5
    80f8:	0040f1b3          	and	gp,ra,tp
    80fc:	9e257297          	auipc	t0,0x9e257
    8100:	02d3f013          	andi	zero,t2,45
    8104:	009244b3          	xor	s1,tp,s1
    8108:	405100b3          	sub	ra,sp,t0
    810c:	0020a233          	slt	tp,ra,sp
    8110:	dbd16393          	ori	t2,sp,-579
    8114:	33d1a117          	auipc	sp,0x33d1a
    8118:	3a614193          	xori	gp,sp,934
    811c:	401280b3          	sub	ra,t0,ra
    8120:	00217133          	and	sp,sp,sp
    8124:	0030f133          	and	sp,ra,gp
    8128:	00d200b3          	add	ra,tp,a3
    812c:	0001f3b3          	and	t2,gp,zero
    8130:	9bbfe117          	auipc	sp,0x9bbfe
    8134:	a9d5c313          	xori	t1,a1,-1379
    8138:	4031d133          	sra	sp,gp,gp
    813c:	6a9ba137          	lui	sp,0x6a9ba
    8140:	002111b3          	sll	gp,sp,sp
    8144:	40118133          	sub	sp,gp,ra
    8148:	1fb30093          	addi	ra,t1,507
    814c:	00e3b133          	sltu	sp,t2,a4
    8150:	00317133          	and	sp,sp,gp
    8154:	0020a233          	slt	tp,ra,sp
    8158:	67714113          	xori	sp,sp,1655
    815c:	0010f0b3          	and	ra,ra,ra
    8160:	0060e1b3          	or	gp,ra,t1
    8164:	00010293          	mv	t0,sp
    8168:	9c228ae3          	beq	t0,sp,0x7b3c
    816c:	bdab1937          	lui	s2,0xbdab1
    8170:	4051d1b3          	sra	gp,gp,t0
    8174:	0031ec33          	or	s8,gp,gp
    8178:	a5fb5097          	auipc	ra,0xa5fb5
    817c:	4000d0b3          	sra	ra,ra,zero
    8180:	9df46097          	auipc	ra,0x9df46
    8184:	40278133          	sub	sp,a5,sp
    8188:	0010e3b3          	or	t2,ra,ra
    818c:	003336b3          	sltu	a3,t1,gp
    8190:	8ab7f117          	auipc	sp,0x8ab7f
    8194:	0021d133          	srl	sp,gp,sp
    8198:	29336213          	ori	tp,t1,659
    819c:	6bfbd337          	lui	t1,0x6bfbd
    81a0:	a671f313          	andi	t1,gp,-1433
    81a4:	004152b3          	srl	t0,sp,tp
    81a8:	003161b3          	or	gp,sp,gp
    81ac:	0a1781b7          	lui	gp,0xa178
    81b0:	64d40237          	lui	tp,0x64d40
    81b4:	d4b3f193          	andi	gp,t2,-693
    81b8:	002161b3          	or	gp,sp,sp
    81bc:	6ff5d137          	lui	sp,0x6ff5d
    81c0:	8ac17493          	andi	s1,sp,-1876
    81c4:	7ff98137          	lui	sp,0x7ff98
    81c8:	04906217          	auipc	tp,0x4906
    81cc:	4c0ae4b7          	lui	s1,0x4c0ae
    81d0:	278133b7          	lui	t2,0x27813
    81d4:	00536133          	or	sp,t1,t0
    81d8:	c670f313          	andi	t1,ra,-921
    81dc:	402252b3          	sra	t0,tp,sp
    81e0:	005190b3          	sll	ra,gp,t0
    81e4:	b1156137          	lui	sp,0xb1156
    81e8:	7d0e5cb7          	lui	s9,0x7d0e5
    81ec:	00f06133          	or	sp,zero,a5
    81f0:	48a75097          	auipc	ra,0x48a75
    81f4:	4f710113          	addi	sp,sp,1271 # 0xffffffffb11564f7
    81f8:	0021b1b3          	sltu	gp,gp,sp
    81fc:	00000197          	auipc	gp,0x0
    8200:	d4418fe7          	jalr	t6,-700(gp) # 0x7f40
    8204:	188c2217          	auipc	tp,0x188c2
    8208:	403100b3          	sub	ra,sp,gp
    820c:	292bf093          	andi	ra,s7,658
    8210:	0020f0b3          	and	ra,ra,sp
    8214:	54482117          	auipc	sp,0x54482
    8218:	00208833          	add	a6,ra,sp
    821c:	22362137          	lui	sp,0x22362
    8220:	00139033          	sll	zero,t2,ra
    8224:	882641b7          	lui	gp,0x88264
    8228:	3db6d137          	lui	sp,0x3db6d
    822c:	d1910293          	addi	t0,sp,-743 # 0x3db6cd19
    8230:	edb56117          	auipc	sp,0xedb56
    8234:	0012d1b3          	srl	gp,t0,ra
    8238:	40218133          	sub	sp,gp,sp
    823c:	002110b3          	sll	ra,sp,sp
    8240:	0022e0b3          	or	ra,t0,sp
    8244:	401283b3          	sub	t2,t0,ra
    8248:	c86f2097          	auipc	ra,0xc86f2
    824c:	01f133b3          	sltu	t2,sp,t6
    8250:	402906b3          	sub	a3,s2,sp
    8254:	00018133          	add	sp,gp,zero
    8258:	b099d137          	lui	sp,0xb099d
    825c:	002121b3          	slt	gp,sp,sp
    8260:	27108093          	addi	ra,ra,625 # 0xffffffffc86fa4b9
    8264:	412ceb97          	auipc	s7,0x412ce
    8268:	756ed117          	auipc	sp,0x756ed
    826c:	004131b3          	sltu	gp,sp,tp
    8270:	0051b133          	sltu	sp,gp,t0
    8274:	b06a7197          	auipc	gp,0xb06a7
    8278:	238c5117          	auipc	sp,0x238c5
    827c:	28736213          	ori	tp,t1,647
    8280:	34010293          	addi	t0,sp,832 # 0x238cd5b8
    8284:	c3702097          	auipc	ra,0xc3702
    8288:	d8dd6117          	auipc	sp,0xd8dd6
    828c:	0031c133          	xor	sp,gp,gp
    8290:	0030f463          	bgeu	ra,gp,0x8298
    8294:	0030e263          	bltu	ra,gp,0x8298
    8298:	401101b3          	sub	gp,sp,ra
    829c:	4020d133          	sra	sp,ra,sp
    82a0:	a6536313          	ori	t1,t1,-1435
    82a4:	409080b3          	sub	ra,ra,s1
    82a8:	cd1cf317          	auipc	t1,0xcd1cf
    82ac:	400100b3          	sub	ra,sp,zero
    82b0:	ffd17093          	andi	ra,sp,-3
    82b4:	002101b3          	add	gp,sp,sp
    82b8:	40138133          	sub	sp,t2,ra
    82bc:	f1773097          	auipc	ra,0xf1773
    82c0:	00b110b3          	sll	ra,sp,a1
    82c4:	659e6193          	ori	gp,t3,1625
    82c8:	a223a137          	lui	sp,0xa223a
    82cc:	fa6bf037          	lui	zero,0xfa6bf
    82d0:	79f52097          	auipc	ra,0x79f52
    82d4:	00d05133          	srl	sp,zero,a3
    82d8:	a2a57197          	auipc	gp,0xa2a57
    82dc:	00212bb3          	slt	s7,sp,sp
    82e0:	2a1c9097          	auipc	ra,0x2a1c9
    82e4:	03d24113          	xori	sp,tp,61
    82e8:	32444117          	auipc	sp,0x32444
    82ec:	7a712097          	auipc	ra,0x7a712
    82f0:	79d27113          	andi	sp,tp,1949
    82f4:	e7c08193          	addi	gp,ra,-388 # 0x7a71a168
    82f8:	0100e033          	or	zero,ra,a6
    82fc:	417f7237          	lui	tp,0x417f7
    8300:	63a18093          	addi	ra,gp,1594 # 0xffffffffa2a5f912
    8304:	9854c037          	lui	zero,0x9854c
    8308:	44114013          	xori	zero,sp,1089
    830c:	22d1c093          	xori	ra,gp,557
    8310:	4172f197          	auipc	gp,0x4172f
    8314:	941106e3          	beq	sp,ra,0x7c60
    8318:	949ff2ef          	jal	t0,0x7c60
    831c:	0061f3b3          	and	t2,gp,t1
    8320:	002090b3          	sll	ra,ra,sp
    8324:	98e34093          	xori	ra,t1,-1650
    8328:	001130b3          	sltu	ra,sp,ra
    832c:	003f01b3          	add	gp,t5,gp
    8330:	40108033          	sub	zero,ra,ra
    8334:	8d7cb2b7          	lui	t0,0x8d7cb
    8338:	2088d7b7          	lui	a5,0x2088d
    833c:	4025d5b3          	sra	a1,a1,sp
    8340:	003222b3          	slt	t0,tp,gp
    8344:	1d836193          	ori	gp,t1,472
    8348:	002121b3          	slt	gp,sp,sp
    834c:	db420393          	addi	t2,tp,-588 # 0x417f6db4
    8350:	aa05ad17          	auipc	s10,0xaa05a
    8354:	0037b1b3          	sltu	gp,a5,gp
    8358:	26c10113          	addi	sp,sp,620 # 0x3244c554
    835c:	001181b3          	add	gp,gp,ra
    8360:	745fa0b7          	lui	ra,0x745fa
    8364:	d87230b7          	lui	ra,0xd8723
    8368:	12238113          	addi	sp,t2,290 # 0x27813122
    836c:	40315133          	sra	sp,sp,gp
    8370:	f883e0b7          	lui	ra,0xf883e
    8374:	47367337          	lui	t1,0x47367
    8378:	419b1197          	auipc	gp,0x419b1
    837c:	e0971097          	auipc	ra,0xe0971
    8380:	56610113          	addi	sp,sp,1382
    8384:	a5fae137          	lui	sp,0xa5fae
    8388:	00426fb3          	or	t6,tp,tp
    838c:	0030c1b3          	xor	gp,ra,gp
    8390:	e237c117          	auipc	sp,0xe237c
    8394:	bcb460b7          	lui	ra,0xbcb46
    8398:	001111b3          	sll	gp,sp,ra
    839c:	a709c0b7          	lui	ra,0xa709c
    83a0:	1e74b037          	lui	zero,0x1e74b
    83a4:	2e7f3137          	lui	sp,0x2e7f3
    83a8:	67d0f193          	andi	gp,ra,1661
    83ac:	0031b133          	sltu	sp,gp,gp
    83b0:	00008113          	mv	sp,ra
    83b4:	08110263          	beq	sp,ra,0x8438
    83b8:	a17a5117          	auipc	sp,0xa17a5
    83bc:	3136b097          	auipc	ra,0x3136b
    83c0:	5c526193          	ori	gp,tp,1477
    83c4:	001141b3          	xor	gp,sp,ra
    83c8:	0021b133          	sltu	sp,gp,sp
    83cc:	2b490597          	auipc	a1,0x2b490
    83d0:	40210133          	sub	sp,sp,sp
    83d4:	8eb11017          	auipc	zero,0x8eb11
    83d8:	450c6317          	auipc	t1,0x450c6
    83dc:	4f3a7117          	auipc	sp,0x4f3a7
    83e0:	02f9d9b7          	lui	s3,0x2f9d
    83e4:	d78fe117          	auipc	sp,0xd78fe
    83e8:	63a2a097          	auipc	ra,0x63a2a
    83ec:	02d1c313          	xori	t1,gp,45
    83f0:	9293c317          	auipc	t1,0x9293c
    83f4:	f3df4097          	auipc	ra,0xf3df4
    83f8:	cc7cb0b7          	lui	ra,0xcc7cb
    83fc:	f5bcf097          	auipc	ra,0xf5bcf
    8400:	7390e393          	ori	t2,ra,1849
    8404:	1c510113          	addi	sp,sp,453 # 0xffffffffd79065a9
    8408:	f4930793          	addi	a5,t1,-183 # 0xffffffff92944339
    840c:	a94b4117          	auipc	sp,0xa94b4
    8410:	0026b1b3          	sltu	gp,a3,sp
    8414:	f276c193          	xori	gp,a3,-217
    8418:	ffb63117          	auipc	sp,0xffb63
    841c:	00f9f133          	and	sp,s3,a5
    8420:	10e62297          	auipc	t0,0x10e62
    8424:	7fb3e197          	auipc	gp,0x7fb3e
    8428:	fc8f7337          	lui	t1,0xfc8f7
    842c:	fa475317          	auipc	t1,0xfa475
    8430:	a6130ee3          	beq	t1,ra,0x7eac
    8434:	a79ff1ef          	jal	gp,0x7eac
    8438:	e921e193          	ori	gp,gp,-366
    843c:	402253b3          	sra	t2,tp,sp
    8440:	7f517093          	andi	ra,sp,2037
    8444:	003007b3          	add	a5,zero,gp
    8448:	42be3037          	lui	zero,0x42be3
    844c:	e8177137          	lui	sp,0xe8177
    8450:	b644d337          	lui	t1,0xb644d
    8454:	642f3197          	auipc	gp,0x642f3
    8458:	001130b3          	sltu	ra,sp,ra
    845c:	8a9d5197          	auipc	gp,0x8a9d5
    8460:	475f3097          	auipc	ra,0x475f3
    8464:	bf4141b7          	lui	gp,0xbf414
    8468:	6d097197          	auipc	gp,0x6d097
    846c:	9bf94093          	xori	ra,s2,-1601
    8470:	400ad0b3          	sra	ra,s5,zero
    8474:	47b14693          	xori	a3,sp,1147
    8478:	e197a1b7          	lui	gp,0xe197a
    847c:	26a1f193          	andi	gp,gp,618
    8480:	9d5d4137          	lui	sp,0x9d5d4
    8484:	ad6d51b7          	lui	gp,0xad6d5
    8488:	f480c193          	xori	gp,ra,-184
    848c:	0030c0b3          	xor	ra,ra,gp
    8490:	86b5c193          	xori	gp,a1,-1941
    8494:	e2037117          	auipc	sp,0xe2037
    8498:	002b6033          	or	zero,s6,sp
    849c:	403180b3          	sub	ra,gp,gp
    84a0:	4030d133          	sra	sp,ra,gp
    84a4:	7d33f113          	andi	sp,t2,2003
    84a8:	e1a08093          	addi	ra,ra,-486 # 0x475fb27a
    84ac:	52251097          	auipc	ra,0x52251
    84b0:	00417133          	and	sp,sp,tp
    84b4:	0011b0b3          	sltu	ra,gp,ra
    84b8:	72624293          	xori	t0,tp,1830
    84bc:	400157b3          	sra	a5,sp,zero
    84c0:	0aeb8117          	auipc	sp,0xaeb8
    84c4:	002a8237          	lui	tp,0x2a8
    84c8:	00178263          	beq	a5,ra,0x84cc
    84cc:	24d0016f          	jal	sp,0x8f18
    84d0:	4030d133          	sra	sp,ra,gp
    84d4:	a3c14313          	xori	t1,sp,-1476
    84d8:	6b40c113          	xori	sp,ra,1716
    84dc:	80828193          	addi	gp,t0,-2040 # 0x10e69c28
    84e0:	02096097          	auipc	ra,0x2096
    84e4:	7bf860b7          	lui	ra,0x7bf86
    84e8:	4013d133          	sra	sp,t2,ra
    84ec:	055d01b7          	lui	gp,0x55d0
    84f0:	40116093          	ori	ra,sp,1025
    84f4:	0030e6b3          	or	a3,ra,gp
    84f8:	0047a233          	slt	tp,a5,tp
    84fc:	5d6c0137          	lui	sp,0x5d6c0
    8500:	0070f333          	and	t1,ra,t2
    8504:	2910f137          	lui	sp,0x2910f
    8508:	c91df117          	auipc	sp,0xc91df
    850c:	4061d0b3          	sra	ra,gp,t1
    8510:	9711e093          	ori	ra,gp,-1679
    8514:	11010193          	addi	gp,sp,272 # 0xffffffffc91e7618
    8518:	ab3ce0b7          	lui	ra,0xab3ce
    851c:	002173b3          	and	t2,sp,sp
    8520:	ac920193          	addi	gp,tp,-1335 # 0x2a7ac9
    8524:	de910213          	addi	tp,sp,-535
    8528:	b06a3137          	lui	sp,0xb06a3
    852c:	00311033          	sll	zero,sp,gp
    8530:	f3def597          	auipc	a1,0xf3def
    8534:	4f9377b7          	lui	a5,0x4f937
    8538:	402180b3          	sub	ra,gp,sp
    853c:	10d4f113          	andi	sp,s1,269
    8540:	9973c113          	xori	sp,t2,-1641
    8544:	658dc797          	auipc	a5,0x658dc
    8548:	a6315197          	auipc	gp,0xa6315
    854c:	da51c113          	xori	sp,gp,-603
    8550:	4011d133          	sra	sp,gp,ra
    8554:	b61e7197          	auipc	gp,0xb61e7
    8558:	001c6197          	auipc	gp,0x1c6
    855c:	b6008ce3          	beqz	ra,0x80d4
    8560:	b75ff1ef          	jal	gp,0x80d4
    8564:	00509233          	sll	tp,ra,t0
    8568:	243c03b7          	lui	t2,0x243c0
    856c:	00108133          	add	sp,ra,ra
    8570:	81a892b7          	lui	t0,0x81a89
    8574:	002170b3          	and	ra,sp,sp
    8578:	00411333          	sll	t1,sp,tp
    857c:	d08a7137          	lui	sp,0xd08a7
    8580:	f8569117          	auipc	sp,0xf8569
    8584:	effba297          	auipc	t0,0xeffba
    8588:	0426f1b7          	lui	gp,0x426f
    858c:	402151b3          	sra	gp,sp,sp
    8590:	0133d1b3          	srl	gp,t2,s3
    8594:	00223133          	sltu	sp,tp,sp
    8598:	00117d33          	and	s10,sp,ra
    859c:	00310d33          	add	s10,sp,gp
    85a0:	0070c2b3          	xor	t0,ra,t2
    85a4:	26db1197          	auipc	gp,0x26db1
    85a8:	865290b7          	lui	ra,0x86529
    85ac:	32b0f193          	andi	gp,ra,811
    85b0:	76b2c193          	xori	gp,t0,1899
    85b4:	001001b3          	add	gp,zero,ra
    85b8:	d1635717          	auipc	a4,0xd1635
    85bc:	9c5f4017          	auipc	zero,0x9c5f4
    85c0:	0011a333          	slt	t1,gp,ra
    85c4:	003310b3          	sll	ra,t1,gp
    85c8:	401200b3          	sub	ra,tp,ra
    85cc:	6a850297          	auipc	t0,0x6a850
    85d0:	e5729197          	auipc	gp,0xe5729
    85d4:	66ae52b7          	lui	t0,0x66ae5
    85d8:	a2c69237          	lui	tp,0xa2c69
    85dc:	002160b3          	or	ra,sp,sp
    85e0:	023e4193          	xori	gp,t3,35
    85e4:	70dd10b7          	lui	ra,0x70dd1
    85e8:	f8c3c293          	xori	t0,t2,-116
    85ec:	c0128ce3          	beq	t0,ra,0x8204
    85f0:	c15ff1ef          	jal	gp,0x8204
    85f4:	fd26e093          	ori	ra,a3,-46
    85f8:	8e7da2b7          	lui	t0,0x8e7da
    85fc:	0010f1b3          	and	gp,ra,ra
    8600:	00215133          	srl	sp,sp,sp
    8604:	4e727093          	andi	ra,tp,1255
    8608:	ef564097          	auipc	ra,0xef564
    860c:	001311b3          	sll	gp,t1,ra
    8610:	0013d1b3          	srl	gp,t2,ra
    8614:	002091b3          	sll	gp,ra,sp
    8618:	f727d1b7          	lui	gp,0xf727d
    861c:	002111b3          	sll	gp,sp,sp
    8620:	839221b7          	lui	gp,0x83922
    8624:	b92280b7          	lui	ra,0xb9228
    8628:	0030f133          	and	sp,ra,gp
    862c:	0024a1b3          	slt	gp,s1,sp
    8630:	85d620b7          	lui	ra,0x85d62
    8634:	812f6393          	ori	t2,t5,-2030
    8638:	b12ee097          	auipc	ra,0xb12ee
    863c:	3f151097          	auipc	ra,0x3f151
    8640:	0d64a197          	auipc	gp,0xd64a
    8644:	ca11b217          	auipc	tp,0xca11b
    8648:	40208133          	sub	sp,ra,sp
    864c:	0021c133          	xor	sp,gp,sp
    8650:	5fb6f7b7          	lui	a5,0x5fb6f
    8654:	97426137          	lui	sp,0x97426
    8658:	40300c33          	neg	s8,gp
    865c:	00301033          	sll	zero,zero,gp
    8660:	f7bf30b7          	lui	ra,0xf7bf3
    8664:	dc2fe137          	lui	sp,0xdc2fe
    8668:	c1e3c097          	auipc	ra,0xc1e3c
    866c:	003171b3          	and	gp,sp,gp
    8670:	5c2fe1b7          	lui	gp,0x5c2fe
    8674:	40555033          	sra	zero,a0,t0
    8678:	402088b3          	sub	a7,ra,sp
    867c:	01917133          	and	sp,sp,s9
    8680:	00000113          	li	sp,0
    8684:	5a010863          	beqz	sp,0x8c34
    8688:	003190b3          	sll	ra,gp,gp
    868c:	401080b3          	sub	ra,ra,ra
    8690:	0070d033          	srl	zero,ra,t2
    8694:	91380197          	auipc	gp,0x91380
    8698:	74cca297          	auipc	t0,0x74cca
    869c:	c7a510b7          	lui	ra,0xc7a51
    86a0:	0044e3b3          	or	t2,s1,tp
    86a4:	d17ea397          	auipc	t2,0xd17ea
    86a8:	006081b3          	add	gp,ra,t1
    86ac:	00107033          	and	zero,zero,ra
    86b0:	dad82017          	auipc	zero,0xdad82
    86b4:	6bd14093          	xori	ra,sp,1725
    86b8:	8e2db097          	auipc	ra,0x8e2db
    86bc:	881a0397          	auipc	t2,0x881a0
    86c0:	37b1f193          	andi	gp,gp,891
    86c4:	0031a333          	slt	t1,gp,gp
    86c8:	00207133          	and	sp,zero,sp
    86cc:	9b9aa037          	lui	zero,0x9b9aa
    86d0:	22810113          	addi	sp,sp,552 # 0xffffffffdc2fe228
    86d4:	401081b3          	sub	gp,ra,ra
    86d8:	a9476097          	auipc	ra,0xa9476
    86dc:	0040c333          	xor	t1,ra,tp
    86e0:	00116133          	or	sp,sp,ra
    86e4:	afd14193          	xori	gp,sp,-1283
    86e8:	00117333          	and	t1,sp,ra
    86ec:	403c0133          	sub	sp,s8,gp
    86f0:	003191b3          	sll	gp,gp,gp
    86f4:	9fc17113          	andi	sp,sp,-1540
    86f8:	003160b3          	or	ra,sp,gp
    86fc:	6db10213          	addi	tp,sp,1755
    8700:	40108333          	sub	t1,ra,ra
    8704:	c4ad8397          	auipc	t2,0xc4ad8
    8708:	0091d133          	srl	sp,gp,s1
    870c:	56d2c497          	auipc	s1,0x56d2c
    8710:	40118133          	sub	sp,gp,ra
    8714:	fd18a1b7          	lui	gp,0xfd18a
    8718:	ee858017          	auipc	zero,0xee858
    871c:	50e010b7          	lui	ra,0x50e01
    8720:	36110c63          	beq	sp,ra,0x8a98
    8724:	3740026f          	jal	tp,0x8a98
    8728:	d5681137          	lui	sp,0xd5681
    872c:	4002d4b3          	sra	s1,t0,zero
    8730:	8650c113          	xori	sp,ra,-1947
    8734:	001fb1b3          	sltu	gp,t6,ra
    8738:	0021e2b3          	or	t0,gp,sp
    873c:	40120133          	sub	sp,tp,ra
    8740:	0027a0b3          	slt	ra,a5,sp
    8744:	007111b3          	sll	gp,sp,t2
    8748:	ca4cb1b7          	lui	gp,0xca4cb
    874c:	516de1b7          	lui	gp,0x516de
    8750:	923ae117          	auipc	sp,0x923ae
    8754:	9531c113          	xori	sp,gp,-1709
    8758:	29290097          	auipc	ra,0x29290
    875c:	75da9017          	auipc	zero,0x75da9
    8760:	9b05a117          	auipc	sp,0x9b05a
    8764:	9887b397          	auipc	t2,0x9887b
    8768:	00118133          	add	sp,gp,ra
    876c:	002130b3          	sltu	ra,sp,sp
    8770:	3937e197          	auipc	gp,0x3937e
    8774:	8381b1b7          	lui	gp,0x8381b
    8778:	712b5197          	auipc	gp,0x712b5
    877c:	48644197          	auipc	gp,0x48644
    8780:	299c7137          	lui	sp,0x299c7
    8784:	bc732397          	auipc	t2,0xbc732
    8788:	bf208293          	addi	t0,ra,-1038 # 0x2929834a
    878c:	f971c113          	xori	sp,gp,-105
    8790:	002091b3          	sll	gp,ra,sp
    8794:	87171097          	auipc	ra,0x87171
    8798:	c840f113          	andi	sp,ra,-892
    879c:	002100b3          	add	ra,sp,sp
    87a0:	0021a133          	slt	sp,gp,sp
    87a4:	0011d133          	srl	sp,gp,ra
    87a8:	006370b3          	and	ra,t1,t1
    87ac:	002083b3          	add	t2,ra,sp
    87b0:	06343097          	auipc	ra,0x6343
    87b4:	0050d1b3          	srl	gp,ra,t0
    87b8:	602652b7          	lui	t0,0x60265
    87bc:	62308263          	beq	ra,gp,0x8de0
    87c0:	620000ef          	jal	ra,0x8de0
    87c4:	efcf8237          	lui	tp,0xefcf8
    87c8:	0171f0b3          	and	ra,gp,s7
    87cc:	6c9e10b7          	lui	ra,0x6c9e1
    87d0:	0022b1b3          	sltu	gp,t0,sp
    87d4:	dcf20393          	addi	t2,tp,-561 # 0xffffffffefcf7dcf
    87d8:	b850c0b7          	lui	ra,0xb850c
    87dc:	7e2a65b7          	lui	a1,0x7e2a6
    87e0:	001151b3          	srl	gp,sp,ra
    87e4:	7d21e117          	auipc	sp,0x7d21e
    87e8:	ffc7eb97          	auipc	s7,0xffc7e
    87ec:	44bb8117          	auipc	sp,0x44bb8
    87f0:	9e69d197          	auipc	gp,0x9e69d
    87f4:	005143b3          	xor	t2,sp,t0
    87f8:	d365e117          	auipc	sp,0xd365e
    87fc:	19307113          	andi	sp,zero,403
    8800:	402180b3          	sub	ra,gp,sp
    8804:	78514113          	xori	sp,sp,1925
    8808:	97014113          	xori	sp,sp,-1680
    880c:	40326113          	ori	sp,tp,1027
    8810:	c5144797          	auipc	a5,0xc5144
    8814:	deb5c093          	xori	ra,a1,-533
    8818:	2f516113          	ori	sp,sp,757
    881c:	4020d033          	sra	zero,ra,sp
    8820:	00231433          	sll	s0,t1,sp
    8824:	7706d297          	auipc	t0,0x7706d
    8828:	0012e933          	or	s2,t0,ra
    882c:	405151b3          	sra	gp,sp,t0
    8830:	53816293          	ori	t0,sp,1336
    8834:	5560f193          	andi	gp,ra,1366
    8838:	1501fa93          	andi	s5,gp,336
    883c:	0030c1b3          	xor	gp,ra,gp
    8840:	003340b3          	xor	ra,t1,gp
    8844:	9b784097          	auipc	ra,0x9b784
    8848:	0041a0b3          	slt	ra,gp,tp
    884c:	00118263          	beq	gp,ra,0x8850
    8850:	19d0016f          	jal	sp,0x91ec
    8854:	00139133          	sll	sp,t2,ra
    8858:	21a14113          	xori	sp,sp,538
    885c:	001043b3          	xor	t2,zero,ra
    8860:	0021d7b3          	srl	a5,gp,sp
    8864:	0031b0b3          	sltu	ra,gp,gp
    8868:	0032a0b3          	slt	ra,t0,gp
    886c:	00115333          	srl	t1,sp,ra
    8870:	78d5c397          	auipc	t2,0x78d5c
    8874:	00408133          	add	sp,ra,tp
    8878:	08944097          	auipc	ra,0x8944
    887c:	0031a333          	slt	t1,gp,gp
    8880:	c810e213          	ori	tp,ra,-895
    8884:	402180b3          	sub	ra,gp,sp
    8888:	9e03f213          	andi	tp,t2,-1568
    888c:	002120b3          	slt	ra,sp,sp
    8890:	a4173017          	auipc	zero,0xa4173
    8894:	a5039197          	auipc	gp,0xa5039
    8898:	4061d0b3          	sra	ra,gp,t1
    889c:	7d706313          	ori	t1,zero,2007
    88a0:	00310a33          	add	s4,sp,gp
    88a4:	00f1c133          	xor	sp,gp,a5
    88a8:	0031d0b3          	srl	ra,gp,gp
    88ac:	0050a0b3          	slt	ra,ra,t0
    88b0:	16f98117          	auipc	sp,0x16f98
    88b4:	0033d133          	srl	sp,t2,gp
    88b8:	845fe197          	auipc	gp,0x845fe
    88bc:	0040b1b3          	sltu	gp,ra,tp
    88c0:	404200b3          	sub	ra,tp,tp
    88c4:	4060d333          	sra	t1,ra,t1
    88c8:	00329333          	sll	t1,t0,gp
    88cc:	fceab137          	lui	sp,0xfceab
    88d0:	00719333          	sll	t1,gp,t2
    88d4:	0011b133          	sltu	sp,gp,ra
    88d8:	b26a31b7          	lui	gp,0xb26a3
    88dc:	2c80e013          	ori	zero,ra,712
    88e0:	0050e1b3          	or	gp,ra,t0
    88e4:	e41182e3          	beq	gp,ra,0x8728
    88e8:	e41ff06f          	j	0x8728
    88ec:	9e366317          	auipc	t1,0x9e366
    88f0:	ceab9097          	auipc	ra,0xceab9
    88f4:	005160b3          	or	ra,sp,t0
    88f8:	6df200b7          	lui	ra,0x6df20
    88fc:	45a08193          	addi	gp,ra,1114 # 0x6df2045a
    8900:	cf317193          	andi	gp,sp,-781
    8904:	8b067197          	auipc	gp,0x8b067
    8908:	ba71e113          	ori	sp,gp,-1113
    890c:	796a5117          	auipc	sp,0x796a5
    8910:	118f41b7          	lui	gp,0x118f4
    8914:	aae12597          	auipc	a1,0xaae12
    8918:	c9e0f113          	andi	sp,ra,-866
    891c:	2b7130b7          	lui	ra,0x2b713
    8920:	656d70b7          	lui	ra,0x656d7
    8924:	99418193          	addi	gp,gp,-1644 # 0x118f3994
    8928:	e361e193          	ori	gp,gp,-458
    892c:	0020f0b3          	and	ra,ra,sp
    8930:	0021b4b3          	sltu	s1,gp,sp
    8934:	b31f4337          	lui	t1,0xb31f4
    8938:	4032d0b3          	sra	ra,t0,gp
    893c:	782a70b7          	lui	ra,0x782a7
    8940:	310cf197          	auipc	gp,0x310cf
    8944:	000122b3          	sltz	t0,sp
    8948:	01991097          	auipc	ra,0x1991
    894c:	00319333          	sll	t1,gp,gp
    8950:	1aa8e317          	auipc	t1,0x1aa8e
    8954:	0031d3b3          	srl	t2,gp,gp
    8958:	56735317          	auipc	t1,0x56735
    895c:	26c19117          	auipc	sp,0x26c19
    8960:	0021c133          	xor	sp,gp,sp
    8964:	f6112197          	auipc	gp,0xf6112
    8968:	6c129863          	bne	t0,ra,0x9038
    896c:	6c128663          	beq	t0,ra,0x9038
    8970:	0011e0b3          	or	ra,gp,ra
    8974:	0091f1b3          	and	gp,gp,s1
    8978:	8c00c293          	xori	t0,ra,-1856
    897c:	65c0e313          	ori	t1,ra,1628
    8980:	c901c293          	xori	t0,gp,-880
    8984:	d5537193          	andi	gp,t1,-683
    8988:	69637313          	andi	t1,t1,1686
    898c:	56d82117          	auipc	sp,0x56d82
    8990:	dc641097          	auipc	ra,0xdc641
    8994:	77614213          	xori	tp,sp,1910
    8998:	0021e133          	or	sp,gp,sp
    899c:	1d666237          	lui	tp,0x1d666
    89a0:	ee73f113          	andi	sp,t2,-281
    89a4:	00312c33          	slt	s8,sp,gp
    89a8:	00019233          	sll	tp,gp,zero
    89ac:	001390b3          	sll	ra,t2,ra
    89b0:	3e504293          	xori	t0,zero,997
    89b4:	002db133          	sltu	sp,s11,sp
    89b8:	403080b3          	sub	ra,ra,gp
    89bc:	0010b1b3          	sltu	gp,ra,ra
    89c0:	4fc04197          	auipc	gp,0x4fc04
    89c4:	ae157237          	lui	tp,0xae157
    89c8:	5a3f9197          	auipc	gp,0x5a3f9
    89cc:	43952237          	lui	tp,0x43952
    89d0:	1ad89c37          	lui	s8,0x1ad89
    89d4:	2f1613b7          	lui	t2,0x2f161
    89d8:	00354233          	xor	tp,a0,gp
    89dc:	0011e133          	or	sp,gp,ra
    89e0:	b322a0b7          	lui	ra,0xb322a
    89e4:	4010d0b3          	sra	ra,ra,ra
    89e8:	9886f197          	auipc	gp,0x9886f
    89ec:	7e577097          	auipc	ra,0x7e577
    89f0:	b6261697          	auipc	a3,0xb6261
    89f4:	40854037          	lui	zero,0x40854
    89f8:	61116093          	ori	ra,sp,1553
    89fc:	63246097          	auipc	ra,0x63246
    8a00:	e471fae3          	bgeu	gp,t2,0x8854
    8a04:	e471e8e3          	bltu	gp,t2,0x8854
    8a08:	00115133          	srl	sp,sp,ra
    8a0c:	963ff0b7          	lui	ra,0x963ff
    8a10:	007090b3          	sll	ra,ra,t2
    8a14:	48d2c393          	xori	t2,t0,1165
    8a18:	cae9e037          	lui	zero,0xcae9e
    8a1c:	00318133          	add	sp,gp,gp
    8a20:	ea2ab037          	lui	zero,0xea2ab
    8a24:	001131b3          	sltu	gp,sp,ra
    8a28:	bacff493          	andi	s1,t6,-1108
    8a2c:	00432133          	slt	sp,t1,tp
    8a30:	abb8b097          	auipc	ra,0xabb8b
    8a34:	1bc03117          	auipc	sp,0x1bc03
    8a38:	005000b3          	add	ra,zero,t0
    8a3c:	b49910b7          	lui	ra,0xb4991
    8a40:	5cc0f197          	auipc	gp,0x5cc0f
    8a44:	86da5097          	auipc	ra,0x86da5
    8a48:	0021b1b3          	sltu	gp,gp,sp
    8a4c:	0167f1b7          	lui	gp,0x167f
    8a50:	bbb7c397          	auipc	t2,0xbbb7c
    8a54:	002141b3          	xor	gp,sp,sp
    8a58:	e2d8f297          	auipc	t0,0xe2d8f
    8a5c:	c0aa4137          	lui	sp,0xc0aa4
    8a60:	0001c3b3          	xor	t2,gp,zero
    8a64:	eab1f093          	andi	ra,gp,-341
    8a68:	d69991b7          	lui	gp,0xd6999
    8a6c:	70d721b7          	lui	gp,0x70d72
    8a70:	9b70f113          	andi	sp,ra,-1609
    8a74:	017127b3          	slt	a5,sp,s7
    8a78:	2b737217          	auipc	tp,0x2b737
    8a7c:	76f14093          	xori	ra,sp,1903
    8a80:	003150b3          	srl	ra,sp,gp
    8a84:	e4977197          	auipc	gp,0xe4977
    8a88:	5884e113          	ori	sp,s1,1416
    8a8c:	130e4393          	xori	t2,t3,304
    8a90:	00000013          	nop
    8a94:	08000863          	beqz	zero,0x8b24
    8a98:	1fe2f237          	lui	tp,0x1fe2f
    8a9c:	404080b3          	sub	ra,ra,tp
    8aa0:	13360093          	addi	ra,a2,307
    8aa4:	56286217          	auipc	tp,0x56286
    8aa8:	a3317613          	andi	a2,sp,-1485
    8aac:	15d14093          	xori	ra,sp,349
    8ab0:	40425133          	sra	sp,tp,tp
    8ab4:	0021b333          	sltu	t1,gp,sp
    8ab8:	d0e20113          	addi	sp,tp,-754 # 0x5628e7b2
    8abc:	2ef6d0b7          	lui	ra,0x2ef6d
    8ac0:	0041c0b3          	xor	ra,gp,tp
    8ac4:	5901c113          	xori	sp,gp,1424
    8ac8:	02e5d097          	auipc	ra,0x2e5d
    8acc:	0021a333          	slt	t1,gp,sp
    8ad0:	40305033          	sra	zero,zero,gp
    8ad4:	a1a04197          	auipc	gp,0xa1a04
    8ad8:	3241c193          	xori	gp,gp,804
    8adc:	4147d233          	sra	tp,a5,s4
    8ae0:	03c0f193          	andi	gp,ra,60
    8ae4:	001110b3          	sll	ra,sp,ra
    8ae8:	00214333          	xor	t1,sp,sp
    8aec:	002150b3          	srl	ra,sp,sp
    8af0:	114ba1b7          	lui	gp,0x114ba
    8af4:	2390f193          	andi	gp,ra,569
    8af8:	67e1e137          	lui	sp,0x67e1e
    8afc:	003080b3          	add	ra,ra,gp
    8b00:	0021d133          	srl	sp,gp,sp
    8b04:	0060e333          	or	t1,ra,t1
    8b08:	44014013          	xori	zero,sp,1088
    8b0c:	70679597          	auipc	a1,0x70679
    8b10:	25caa237          	lui	tp,0x25caa
    8b14:	49707193          	andi	gp,zero,1175
    8b18:	8c0592b7          	lui	t0,0x8c059
    8b1c:	00028093          	mv	ra,t0
    8b20:	1a508063          	beq	ra,t0,0x8cc0
    8b24:	11e822b7          	lui	t0,0x11e82
    8b28:	0022fdb3          	and	s11,t0,sp
    8b2c:	4038d133          	sra	sp,a7,gp
    8b30:	75f30097          	auipc	ra,0x75f30
    8b34:	cae54317          	auipc	t1,0xcae54
    8b38:	d8fc3217          	auipc	tp,0xd8fc3
    8b3c:	00014333          	xor	t1,sp,zero
    8b40:	ab418193          	addi	gp,gp,-1356 # 0x114b9ab4
    8b44:	b7110113          	addi	sp,sp,-1167 # 0x67e1db71
    8b48:	c6408093          	addi	ra,ra,-924 # 0x75f38794
    8b4c:	6ace9137          	lui	sp,0x6ace9
    8b50:	003130b3          	sltu	ra,sp,gp
    8b54:	001131b3          	sltu	gp,sp,ra
    8b58:	402105b3          	sub	a1,sp,sp
    8b5c:	00109133          	sll	sp,ra,ra
    8b60:	0609c097          	auipc	ra,0x609c
    8b64:	a618a1b7          	lui	gp,0xa618a
    8b68:	9cf3e097          	auipc	ra,0x9cf3e
    8b6c:	37936293          	ori	t0,t1,889
    8b70:	00119233          	sll	tp,gp,ra
    8b74:	1101e113          	ori	sp,gp,272
    8b78:	bc826237          	lui	tp,0xbc826
    8b7c:	63e27137          	lui	sp,0x63e27
    8b80:	41c18113          	addi	sp,gp,1052 # 0xffffffffa618a41c
    8b84:	0020d0b3          	srl	ra,ra,sp
    8b88:	0000d0b3          	srl	ra,ra,zero
    8b8c:	9c19a097          	auipc	ra,0x9c19a
    8b90:	aa92d037          	lui	zero,0xaa92d
    8b94:	6f306113          	ori	sp,zero,1779
    8b98:	aa43d117          	auipc	sp,0xaa43d
    8b9c:	0031a1b3          	slt	gp,gp,gp
    8ba0:	87593097          	auipc	ra,0x87593
    8ba4:	65010213          	addi	tp,sp,1616 # 0xffffffffaa4461e8
    8ba8:	a2f7d0b7          	lui	ra,0xa2f7d
    8bac:	1a07f663          	bgeu	a5,zero,0x8d58
    8bb0:	1a07e463          	bltu	a5,zero,0x8d58
    8bb4:	55321297          	auipc	t0,0x55321
    8bb8:	79c18017          	auipc	zero,0x79c18
    8bbc:	000202b3          	add	t0,tp,zero
    8bc0:	2b01c013          	xori	zero,gp,688
    8bc4:	001131b3          	sltu	gp,sp,ra
    8bc8:	0a626113          	ori	sp,tp,166
    8bcc:	e7e8d137          	lui	sp,0xe7e8d
    8bd0:	401081b3          	sub	gp,ra,ra
    8bd4:	0010d2b3          	srl	t0,ra,ra
    8bd8:	36df4137          	lui	sp,0x36df4
    8bdc:	6e50c793          	xori	a5,ra,1765
    8be0:	5ab84117          	auipc	sp,0x5ab84
    8be4:	23423317          	auipc	t1,0x23423
    8be8:	019120b3          	slt	ra,sp,s9
    8bec:	6bd00213          	li	tp,1725
    8bf0:	004083b3          	add	t2,ra,tp
    8bf4:	00315133          	srl	sp,sp,gp
    8bf8:	d7617113          	andi	sp,sp,-650
    8bfc:	0060c0b3          	xor	ra,ra,t1
    8c00:	2ce1c193          	xori	gp,gp,718
    8c04:	223a8193          	addi	gp,s5,547 # 0xffffffff9460b223
    8c08:	44d14a13          	xori	s4,sp,1101
    8c0c:	00208133          	add	sp,ra,sp
    8c10:	e170f293          	andi	t0,ra,-489
    8c14:	001aa3b3          	slt	t2,s5,ra
    8c18:	c681f6b7          	lui	a3,0xc681f
    8c1c:	0035f6b3          	and	a3,a1,gp
    8c20:	c8a6b1b7          	lui	gp,0xc8a6b
    8c24:	e032f3b7          	lui	t2,0xe032f
    8c28:	b48060b7          	lui	ra,0xb4806
    8c2c:	cc1090e3          	bne	ra,ra,0x88ec
    8c30:	ca108ee3          	beq	ra,ra,0x88ec
    8c34:	005208b3          	add	a7,tp,t0
    8c38:	45114093          	xori	ra,sp,1105
    8c3c:	400100b3          	sub	ra,sp,zero
    8c40:	15167117          	auipc	sp,0x15167
    8c44:	0010b0b3          	sltu	ra,ra,ra
    8c48:	924bb017          	auipc	zero,0x924bb
    8c4c:	0031d1b3          	srl	gp,gp,gp
    8c50:	000091b3          	sll	gp,ra,zero
    8c54:	3a4cb797          	auipc	a5,0x3a4cb
    8c58:	c0de1237          	lui	tp,0xc0de1
    8c5c:	5b0a3297          	auipc	t0,0x5b0a3
    8c60:	8b0f71b7          	lui	gp,0x8b0f7
    8c64:	a10cf137          	lui	sp,0xa10cf
    8c68:	915c9117          	auipc	sp,0x915c9
    8c6c:	3c84ff93          	andi	t6,s1,968
    8c70:	fc8b2097          	auipc	ra,0xfc8b2
    8c74:	0823f093          	andi	ra,t2,130
    8c78:	0021b1b3          	sltu	gp,gp,sp
    8c7c:	1b96c117          	auipc	sp,0x1b96c
    8c80:	00108133          	add	sp,ra,ra
    8c84:	00312233          	slt	tp,sp,gp
    8c88:	40540097          	auipc	ra,0x40540
    8c8c:	ec199097          	auipc	ra,0xec199
    8c90:	ce204097          	auipc	ra,0xce204
    8c94:	9eb391b7          	lui	gp,0x9eb39
    8c98:	0020a233          	slt	tp,ra,sp
    8c9c:	0021f133          	and	sp,gp,sp
    8ca0:	e3a5d137          	lui	sp,0xe3a5d
    8ca4:	d79030b7          	lui	ra,0xd7903
    8ca8:	2cfbf117          	auipc	sp,0x2cfbf
    8cac:	010260b3          	or	ra,tp,a6
    8cb0:	001340b3          	xor	ra,t1,ra
    8cb4:	003111b3          	sll	gp,sp,gp
    8cb8:	00008113          	mv	sp,ra
    8cbc:	d41106e3          	beq	sp,ra,0x8a08
    8cc0:	3e0dc097          	auipc	ra,0x3e0dc
    8cc4:	ebb07493          	andi	s1,zero,-325
    8cc8:	017bb137          	lui	sp,0x17bb
    8ccc:	28bda397          	auipc	t2,0x28bda
    8cd0:	3ec8a217          	auipc	tp,0x3ec8a
    8cd4:	5b6070b7          	lui	ra,0x5b607
    8cd8:	0000e0b3          	or	ra,ra,zero
    8cdc:	05f0e113          	ori	sp,ra,95
    8ce0:	8971a7b7          	lui	a5,0x8971a
    8ce4:	003107b3          	add	a5,sp,gp
    8ce8:	a20d90b7          	lui	ra,0xa20d9
    8cec:	0061a233          	slt	tp,gp,t1
    8cf0:	004040b3          	xor	ra,zero,tp
    8cf4:	002101b3          	add	gp,sp,sp
    8cf8:	946a0037          	lui	zero,0x946a0
    8cfc:	00ac9097          	auipc	ra,0xac9
    8d00:	fb8c70b7          	lui	ra,0xfb8c7
    8d04:	001352b3          	srl	t0,t1,ra
    8d08:	0033b133          	sltu	sp,t2,gp
    8d0c:	403151b3          	sra	gp,sp,gp
    8d10:	007140b3          	xor	ra,sp,t2
    8d14:	08436193          	ori	gp,t1,132
    8d18:	0021f133          	and	sp,gp,sp
    8d1c:	7fb10293          	addi	t0,sp,2043 # 0x17bb7fb
    8d20:	85278117          	auipc	sp,0x85278
    8d24:	2cfa9117          	auipc	sp,0x2cfa9
    8d28:	854ec117          	auipc	sp,0x854ec
    8d2c:	9a1e5117          	auipc	sp,0x9a1e5
    8d30:	00101033          	sll	zero,zero,ra
    8d34:	00422033          	slt	zero,tp,tp
    8d38:	0020b033          	sltu	zero,ra,sp
    8d3c:	f5c04337          	lui	t1,0xf5c04
    8d40:	49d08193          	addi	gp,ra,1181 # 0xfffffffffb8c749d
    8d44:	0042f3b3          	and	t2,t0,tp
    8d48:	28191337          	lui	t1,0x28191
    8d4c:	4b8161b7          	lui	gp,0x4b816
    8d50:	36217c63          	bgeu	sp,sp,0x90c8
    8d54:	36216a63          	bltu	sp,sp,0x90c8
    8d58:	8d327193          	andi	gp,tp,-1837
    8d5c:	b2e1e213          	ori	tp,gp,-1234
    8d60:	3cf56097          	auipc	ra,0x3cf56
    8d64:	24917097          	auipc	ra,0x24917
    8d68:	d8e1ec13          	ori	s8,gp,-626
    8d6c:	003251b3          	srl	gp,tp,gp
    8d70:	230b9037          	lui	zero,0x230b9
    8d74:	a2416113          	ori	sp,sp,-1500
    8d78:	55b17097          	auipc	ra,0x55b17
    8d7c:	893340b7          	lui	ra,0x89334
    8d80:	32c5e213          	ori	tp,a1,812
    8d84:	401100b3          	sub	ra,sp,ra
    8d88:	d0041197          	auipc	gp,0xd0041
    8d8c:	9b479917          	auipc	s2,0x9b479
    8d90:	13024093          	xori	ra,tp,304
    8d94:	a0c40137          	lui	sp,0xa0c40
    8d98:	0020b133          	sltu	sp,ra,sp
    8d9c:	ce87d1b7          	lui	gp,0xce87d
    8da0:	4011d2b3          	sra	t0,gp,ra
    8da4:	0041c1b3          	xor	gp,gp,tp
    8da8:	0217f093          	andi	ra,a5,33
    8dac:	14f10113          	addi	sp,sp,335 # 0xffffffffa0c4014f
    8db0:	006171b3          	and	gp,sp,t1
    8db4:	4011d0b3          	sra	ra,gp,ra
    8db8:	00639133          	sll	sp,t2,t1
    8dbc:	a782c193          	xori	gp,t0,-1416
    8dc0:	eca37337          	lui	t1,0xeca37
    8dc4:	001120b3          	slt	ra,sp,ra
    8dc8:	0053f333          	and	t1,t2,t0
    8dcc:	404251b3          	sra	gp,tp,tp
    8dd0:	001130b3          	sltu	ra,sp,ra
    8dd4:	0020e1b3          	or	gp,ra,sp
    8dd8:	8a5088e3          	beq	ra,t0,0x8688
    8ddc:	8adff16f          	jal	sp,0x8688
    8de0:	85a1c113          	xori	sp,gp,-1958
    8de4:	4eb5d137          	lui	sp,0x4eb5d
    8de8:	6da10393          	addi	t2,sp,1754 # 0x4eb5d6da
    8dec:	da434293          	xori	t0,t1,-604
    8df0:	0141d3b3          	srl	t2,gp,s4
    8df4:	ca75a197          	auipc	gp,0xca75a
    8df8:	003171b3          	and	gp,sp,gp
    8dfc:	002231b3          	sltu	gp,tp,sp
    8e00:	ef91b097          	auipc	ra,0xef91b
    8e04:	00216133          	or	sp,sp,sp
    8e08:	84d17093          	andi	ra,sp,-1971
    8e0c:	23634093          	xori	ra,t1,566
    8e10:	87317093          	andi	ra,sp,-1933
    8e14:	8701f193          	andi	gp,gp,-1936
    8e18:	d9614193          	xori	gp,sp,-618
    8e1c:	85938197          	auipc	gp,0x85938
    8e20:	99cb3317          	auipc	t1,0x99cb3
    8e24:	40538133          	sub	sp,t2,t0
    8e28:	1f13f337          	lui	t1,0x1f13f
    8e2c:	4013d3b3          	sra	t2,t2,ra
    8e30:	003071b3          	and	gp,zero,gp
    8e34:	8b707113          	andi	sp,zero,-1865
    8e38:	003231b3          	sltu	gp,tp,gp
    8e3c:	85ef0317          	auipc	t1,0x85ef0
    8e40:	403150b3          	sra	ra,sp,gp
    8e44:	6287c0b7          	lui	ra,0x6287c
    8e48:	ff5ef197          	auipc	gp,0xff5ef
    8e4c:	0031e0b3          	or	ra,gp,gp
    8e50:	4011d0b3          	sra	ra,gp,ra
    8e54:	691aa337          	lui	t1,0x691aa
    8e58:	03d0c113          	xori	sp,ra,61
    8e5c:	aab81097          	auipc	ra,0xaab81
    8e60:	ff4f5097          	auipc	ra,0xff4f5
    8e64:	90b0e013          	ori	zero,ra,-1781
    8e68:	e3e06213          	ori	tp,zero,-450
    8e6c:	48fe8117          	auipc	sp,0x48fe8
    8e70:	208670b7          	lui	ra,0x20867
    8e74:	c260e113          	ori	sp,ra,-986
    8e78:	40408133          	sub	sp,ra,tp
    8e7c:	00715463          	bge	sp,t2,0x8e84
    8e80:	00714263          	blt	sp,t2,0x8e84
    8e84:	e433f113          	andi	sp,t2,-445
    8e88:	0020c1b3          	xor	gp,ra,sp
    8e8c:	a1e2d117          	auipc	sp,0xa1e2d
    8e90:	0dfed117          	auipc	sp,0xdfed
    8e94:	0031e133          	or	sp,gp,gp
    8e98:	40225133          	sra	sp,tp,sp
    8e9c:	003101b3          	add	gp,sp,gp
    8ea0:	001173b3          	and	t2,sp,ra
    8ea4:	003200b3          	add	ra,tp,gp
    8ea8:	400102b3          	sub	t0,sp,zero
    8eac:	0020e2b3          	or	t0,ra,sp
    8eb0:	52f18193          	addi	gp,gp,1327 # 0xffffffffff5f8377
    8eb4:	0021f0b3          	and	ra,gp,sp
    8eb8:	40110133          	sub	sp,sp,ra
    8ebc:	0023c133          	xor	sp,t2,sp
    8ec0:	0090d133          	srl	sp,ra,s1
    8ec4:	4ff1e1b7          	lui	gp,0x4ff1e
    8ec8:	23e27113          	andi	sp,tp,574
    8ecc:	06c0c193          	xori	gp,ra,108
    8ed0:	0070c1b3          	xor	gp,ra,t2
    8ed4:	60214093          	xori	ra,sp,1538
    8ed8:	df54e097          	auipc	ra,0xdf54e
    8edc:	002fe2b3          	or	t0,t6,sp
    8ee0:	a271c093          	xori	ra,gp,-1497
    8ee4:	dbe98097          	auipc	ra,0xdbe98
    8ee8:	00d33133          	sltu	sp,t1,a3
    8eec:	5a01c193          	xori	gp,gp,1440
    8ef0:	04da8497          	auipc	s1,0x4da8
    8ef4:	002351b3          	srl	gp,t1,sp
    8ef8:	00315133          	srl	sp,sp,gp
    8efc:	136cf337          	lui	t1,0x136cf
    8f00:	00122333          	slt	t1,tp,ra
    8f04:	26451137          	lui	sp,0x26451
    8f08:	003191b3          	sll	gp,gp,gp
    8f0c:	006361b3          	or	gp,t1,t1
    8f10:	00008213          	mv	tp,ra
    8f14:	8a1208e3          	beq	tp,ra,0x87c4
    8f18:	3a73c393          	xori	t2,t2,935
    8f1c:	002142b3          	xor	t0,sp,sp
    8f20:	4010d133          	sra	sp,ra,ra
    8f24:	cd026117          	auipc	sp,0xcd026
    8f28:	0023e1b3          	or	gp,t2,sp
    8f2c:	56507293          	andi	t0,zero,1381
    8f30:	003350b3          	srl	ra,t1,gp
    8f34:	90635117          	auipc	sp,0x90635
    8f38:	d9f62137          	lui	sp,0xd9f62
    8f3c:	0060de33          	srl	t3,ra,t1
    8f40:	3491c117          	auipc	sp,0x3491c
    8f44:	8b3f91b7          	lui	gp,0x8b3f9
    8f48:	00330133          	add	sp,t1,gp
    8f4c:	0031b133          	sltu	sp,gp,gp
    8f50:	00511133          	sll	sp,sp,t0
    8f54:	e01a51b7          	lui	gp,0xe01a5
    8f58:	a8418093          	addi	ra,gp,-1404 # 0xffffffffe01a4a84
    8f5c:	00f081b3          	add	gp,ra,a5
    8f60:	65d10013          	addi	zero,sp,1629 # 0x3492559d
    8f64:	2f0be0b7          	lui	ra,0x2f0be
    8f68:	e9c69117          	auipc	sp,0xe9c69
    8f6c:	a787eb93          	ori	s7,a5,-1416
    8f70:	004392b3          	sll	t0,t2,tp
    8f74:	885a6397          	auipc	t2,0x885a6
    8f78:	a80fdb17          	auipc	s6,0xa80fd
    8f7c:	94c00193          	li	gp,-1716
    8f80:	a1a27193          	andi	gp,tp,-1510
    8f84:	7cf8ab17          	auipc	s6,0x7cf8a
    8f88:	7a657113          	andi	sp,a0,1958
    8f8c:	8df31117          	auipc	sp,0x8df31
    8f90:	4031d033          	sra	zero,gp,gp
    8f94:	003901b3          	add	gp,s2,gp
    8f98:	77431137          	lui	sp,0x77431
    8f9c:	00010113          	mv	sp,sp
    8fa0:	00210263          	beq	sp,sp,0x8fa4
    8fa4:	0021f133          	and	sp,gp,sp
    8fa8:	002141b3          	xor	gp,sp,sp
    8fac:	627ec0b7          	lui	ra,0x627ec
    8fb0:	a351d0b7          	lui	ra,0xa351d
    8fb4:	40628133          	sub	sp,t0,t1
    8fb8:	1e507193          	andi	gp,zero,485
    8fbc:	47b0f113          	andi	sp,ra,1147
    8fc0:	6160c097          	auipc	ra,0x6160c
    8fc4:	0031e1b3          	or	gp,gp,gp
    8fc8:	e09f4117          	auipc	sp,0xe09f4
    8fcc:	6852c117          	auipc	sp,0x6852c
    8fd0:	0030c033          	xor	zero,ra,gp
    8fd4:	1f7fe117          	auipc	sp,0x1f7fe
    8fd8:	00d26233          	or	tp,tp,a3
    8fdc:	013a0297          	auipc	t0,0x13a0
    8fe0:	c1eb92b7          	lui	t0,0xc1eb9
    8fe4:	defa4397          	auipc	t2,0xdefa4
    8fe8:	f9c48017          	auipc	zero,0xf9c48
    8fec:	ab4080b7          	lui	ra,0xab408
    8ff0:	ba137113          	andi	sp,t1,-1119
    8ff4:	000e00b3          	add	ra,t3,zero
    8ff8:	3915c093          	xori	ra,a1,913
    8ffc:	1490f193          	andi	gp,ra,329
    9000:	00125133          	srl	sp,tp,ra
    9004:	00124333          	xor	t1,tp,ra
    9008:	4a953097          	auipc	ra,0x4a953
    900c:	0010c033          	xor	zero,ra,ra
    9010:	401181b3          	sub	gp,gp,ra
    9014:	77cae0b7          	lui	ra,0x77cae
    9018:	07c24013          	xori	zero,tp,124
    901c:	65e22517          	auipc	a0,0x65e22
    9020:	244b5117          	auipc	sp,0x244b5
    9024:	7e936137          	lui	sp,0x7e936
    9028:	00317133          	and	sp,sp,gp
    902c:	153d90b7          	lui	ra,0x153d9
    9030:	00208263          	beq	ra,sp,0x9034
    9034:	dc0ff3ef          	jal	t2,0x85f4
    9038:	c148a197          	auipc	gp,0xc148a
    903c:	6151f813          	andi	a6,gp,1557
    9040:	40315133          	sra	sp,sp,gp
    9044:	002150b3          	srl	ra,sp,sp
    9048:	686ff097          	auipc	ra,0x686ff
    904c:	746e31b7          	lui	gp,0x746e3
    9050:	002190b3          	sll	ra,gp,sp
    9054:	0021a1b3          	slt	gp,gp,sp
    9058:	e6418093          	addi	ra,gp,-412 # 0x746e2e64
    905c:	75607097          	auipc	ra,0x75607
    9060:	0024b133          	sltu	sp,s1,sp
    9064:	003221b3          	slt	gp,tp,gp
    9068:	7b91e1b7          	lui	gp,0x7b91e
    906c:	765480b7          	lui	ra,0x76548
    9070:	c7424117          	auipc	sp,0xc7424
    9074:	aa410113          	addi	sp,sp,-1372 # 0xffffffffc742cb14
    9078:	dfe4a137          	lui	sp,0xdfe4a
    907c:	65f17193          	andi	gp,sp,1631
    9080:	9a977097          	auipc	ra,0x9a977
    9084:	00107133          	and	sp,zero,ra
    9088:	4020d1b3          	sra	gp,ra,sp
    908c:	579cf237          	lui	tp,0x579cf
    9090:	401151b3          	sra	gp,sp,ra
    9094:	ecb2c093          	xori	ra,t0,-309
    9098:	a2d10093          	addi	ra,sp,-1491 # 0xffffffffdfe49a2d
    909c:	40018233          	sub	tp,gp,zero
    90a0:	00131133          	sll	sp,t1,ra
    90a4:	6d4340b7          	lui	ra,0x6d434
    90a8:	004180b3          	add	ra,gp,tp
    90ac:	00611133          	sll	sp,sp,t1
    90b0:	003106b3          	add	a3,sp,gp
    90b4:	21f1e213          	ori	tp,gp,543
    90b8:	003180b3          	add	ra,gp,gp
    90bc:	27135397          	auipc	t2,0x27135
    90c0:	8a4088e3          	beq	ra,tp,0x8970
    90c4:	8adff16f          	jal	sp,0x8970
    90c8:	e3f1e193          	ori	gp,gp,-449
    90cc:	00107fb3          	and	t6,zero,ra
    90d0:	162c60b7          	lui	ra,0x162c6
    90d4:	405181b3          	sub	gp,gp,t0
    90d8:	69692117          	auipc	sp,0x69692
    90dc:	7af26193          	ori	gp,tp,1967
    90e0:	62792197          	auipc	gp,0x62792
    90e4:	74414197          	auipc	gp,0x74414
    90e8:	e9185197          	auipc	gp,0xe9185
    90ec:	77712037          	lui	zero,0x77712
    90f0:	fd6481b7          	lui	gp,0xfd648
    90f4:	fb71f197          	auipc	gp,0xfb71f
    90f8:	cd113117          	auipc	sp,0xcd113
    90fc:	30f51117          	auipc	sp,0x30f51
    9100:	c8226113          	ori	sp,tp,-894
    9104:	40015f33          	sra	t5,sp,zero
    9108:	0001c033          	xor	zero,gp,zero
    910c:	88aa5237          	lui	tp,0x88aa5
    9110:	007580b3          	add	ra,a1,t2
    9114:	003191b3          	sll	gp,gp,gp
    9118:	a1338193          	addi	gp,t2,-1517 # 0x2713dacf
    911c:	74dc8297          	auipc	t0,0x74dc8
    9120:	5a1ec113          	xori	sp,t4,1441
    9124:	97fc3197          	auipc	gp,0x97fc3
    9128:	0052f1b3          	and	gp,t0,t0
    912c:	e37541b7          	lui	gp,0xe3754
    9130:	4021d1b3          	sra	gp,gp,sp
    9134:	7551f113          	andi	sp,gp,1877
    9138:	4050d1b3          	sra	gp,ra,t0
    913c:	0011b133          	sltu	sp,gp,ra
    9140:	d6426113          	ori	sp,tp,-668
    9144:	b7618393          	addi	t2,gp,-1162 # 0xffffffffe3753b76
    9148:	d23bdb97          	auipc	s7,0xd23bd
    914c:	a66384e3          	beq	t2,t1,0x8bb4
    9150:	a65ff3ef          	jal	t2,0x8bb4
    9154:	0011e0b3          	or	ra,gp,ra
    9158:	2efeb1b7          	lui	gp,0x2efeb
    915c:	a1a78137          	lui	sp,0xa1a78
    9160:	3a31e993          	ori	s3,gp,931
    9164:	923992b7          	lui	t0,0x92399
    9168:	edf30113          	addi	sp,t1,-289 # 0x136ceedf
    916c:	9d514893          	xori	a7,sp,-1579
    9170:	002163b3          	or	t2,sp,sp
    9174:	d7574237          	lui	tp,0xd7574
    9178:	ddb56097          	auipc	ra,0xddb56
    917c:	0011c0b3          	xor	ra,gp,ra
    9180:	6f03a097          	auipc	ra,0x6f03a
    9184:	c6684117          	auipc	sp,0xc6684
    9188:	f1e0f193          	andi	gp,ra,-226
    918c:	143f6137          	lui	sp,0x143f6
    9190:	0031e133          	or	sp,gp,gp
    9194:	0071c0b3          	xor	ra,gp,t2
    9198:	4886a117          	auipc	sp,0x4886a
    919c:	68a0c313          	xori	t1,ra,1674
    91a0:	f98bc397          	auipc	t2,0xf98bc
    91a4:	00015133          	srl	sp,sp,zero
    91a8:	0020a233          	slt	tp,ra,sp
    91ac:	001021b3          	sgtz	gp,ra
    91b0:	fb934313          	xori	t1,t1,-71
    91b4:	40238133          	sub	sp,t2,sp
    91b8:	0017b0b3          	sltu	ra,a5,ra
    91bc:	06ed2017          	auipc	zero,0x6ed2
    91c0:	99e1e193          	ori	gp,gp,-1634
    91c4:	006371b3          	and	gp,t1,t1
    91c8:	4010d0b3          	sra	ra,ra,ra
    91cc:	40215333          	sra	t1,sp,sp
    91d0:	f0d4dc97          	auipc	s9,0xf0d4d
    91d4:	00633133          	sltu	sp,t1,t1
    91d8:	13474197          	auipc	gp,0x13474
    91dc:	72cf9337          	lui	t1,0x72cf9
    91e0:	8ff16393          	ori	t2,sp,-1793
    91e4:	00000097          	auipc	ra,0x0
    91e8:	2d0081e7          	jalr	gp,720(ra) # 0x94b4
    91ec:	496ad1b7          	lui	gp,0x496ad
    91f0:	00205d33          	srl	s10,zero,sp
    91f4:	f7c0e013          	ori	zero,ra,-132
    91f8:	59476097          	auipc	ra,0x59476
    91fc:	5860c093          	xori	ra,ra,1414
    9200:	be35d197          	auipc	gp,0xbe35d
    9204:	f0410313          	addi	t1,sp,-252 # 0x4887309c
    9208:	dff151b7          	lui	gp,0xdff15
    920c:	00f7b0b3          	sltu	ra,a5,a5
    9210:	84a406b7          	lui	a3,0x84a40
    9214:	adb74137          	lui	sp,0xadb74
    9218:	43467137          	lui	sp,0x43467
    921c:	0062a133          	slt	sp,t0,t1
    9220:	b6500193          	li	gp,-1179
    9224:	40210133          	sub	sp,sp,sp
    9228:	9685e137          	lui	sp,0x9685e
    922c:	4031d1b3          	sra	gp,gp,gp
    9230:	40f28133          	sub	sp,t0,a5
    9234:	0003f1b3          	and	gp,t2,zero
    9238:	40f15fb3          	sra	t6,sp,a5
    923c:	007020b3          	sgtz	ra,t2
    9240:	ed41c293          	xori	t0,gp,-300
    9244:	7acc60b7          	lui	ra,0x7acc6
    9248:	0023a133          	slt	sp,t2,sp
    924c:	ed526293          	ori	t0,tp,-299
    9250:	22c4e0b7          	lui	ra,0x22c4e
    9254:	c4114013          	xori	zero,sp,-959
    9258:	48abe197          	auipc	gp,0x48abe
    925c:	2abb5117          	auipc	sp,0x2abb5
    9260:	002091b3          	sll	gp,ra,sp
    9264:	8321c117          	auipc	sp,0x8321c
    9268:	6c90f193          	andi	gp,ra,1737
    926c:	09816293          	ori	t0,sp,152
    9270:	003116b3          	sll	a3,sp,gp
    9274:	00218263          	beq	gp,sp,0x9278
    9278:	0e5000ef          	jal	ra,0x9b5c
    927c:	0d85f1b7          	lui	gp,0xd85f
    9280:	0041d233          	srl	tp,gp,tp
    9284:	4fc06117          	auipc	sp,0x4fc06
    9288:	003334b3          	sltu	s1,t1,gp
    928c:	ae5b4017          	auipc	zero,0xae5b4
    9290:	7c428093          	addi	ra,t0,1988 # 0xffffffff923997c4
    9294:	29104513          	xori	a0,zero,657
    9298:	6d234193          	xori	gp,t1,1746
    929c:	89030213          	addi	tp,t1,-1904 # 0x72cf8890
    92a0:	b0051137          	lui	sp,0xb0051
    92a4:	6dcd4097          	auipc	ra,0x6dcd4
    92a8:	400180b3          	sub	ra,gp,zero
    92ac:	5e51c093          	xori	ra,gp,1509
    92b0:	b3fe7317          	auipc	t1,0xb3fe7
    92b4:	0025e1b3          	or	gp,a1,sp
    92b8:	1530c093          	xori	ra,ra,339
    92bc:	c6f0a797          	auipc	a5,0xc6f0a
    92c0:	b4601117          	auipc	sp,0xb4601
    92c4:	a7be9017          	auipc	zero,0xa7be9
    92c8:	d78e51b7          	lui	gp,0xd78e5
    92cc:	002011b3          	sll	gp,zero,sp
    92d0:	0141d133          	srl	sp,gp,s4
    92d4:	de532397          	auipc	t2,0xde532
    92d8:	0030d233          	srl	tp,ra,gp
    92dc:	40428ab3          	sub	s5,t0,tp
    92e0:	0030d233          	srl	tp,ra,gp
    92e4:	0090d133          	srl	sp,ra,s1
    92e8:	fd59f0b7          	lui	ra,0xfd59f
    92ec:	46776117          	auipc	sp,0x46776
    92f0:	ecd73117          	auipc	sp,0xecd73
    92f4:	aeeae1b7          	lui	gp,0xaeeae
    92f8:	00000297          	auipc	t0,0x0
    92fc:	0a8281e7          	jalr	gp,168(t0) # 0x93a0
    9300:	bf517317          	auipc	t1,0xbf517
    9304:	0040c1b3          	xor	gp,ra,tp
    9308:	01c250b3          	srl	ra,tp,t3
    930c:	403101b3          	sub	gp,sp,gp
    9310:	0063c133          	xor	sp,t2,t1
    9314:	967ec0b7          	lui	ra,0x967ec
    9318:	002082b3          	add	t0,ra,sp
    931c:	0011b0b3          	sltu	ra,gp,ra
    9320:	a5f0f093          	andi	ra,ra,-1441
    9324:	0010b1b3          	sltu	gp,ra,ra
    9328:	0051f233          	and	tp,gp,t0
    932c:	6fb6b237          	lui	tp,0x6fb6b
    9330:	0030a133          	slt	sp,ra,gp
    9334:	6c83b237          	lui	tp,0x6c83b
    9338:	002290b3          	sll	ra,t0,sp
    933c:	afee11b7          	lui	gp,0xafee1
    9340:	dd8f80b7          	lui	ra,0xdd8f8
    9344:	c1cb41b7          	lui	gp,0xc1cb4
    9348:	07c5a2b7          	lui	t0,0x7c5a
    934c:	6331c593          	xori	a1,gp,1587
    9350:	aae6e137          	lui	sp,0xaae6e
    9354:	f55a5137          	lui	sp,0xf55a5
    9358:	af916113          	ori	sp,sp,-1287
    935c:	1d71e193          	ori	gp,gp,471
    9360:	57d17093          	andi	ra,sp,1405
    9364:	00310133          	add	sp,sp,gp
    9368:	3df20093          	addi	ra,tp,991 # 0x6c83b3df
    936c:	18584197          	auipc	gp,0x18584
    9370:	0031d333          	srl	t1,gp,gp
    9374:	0060f133          	and	sp,ra,t1
    9378:	9360f393          	andi	t2,ra,-1738
    937c:	1b216093          	ori	ra,sp,434
    9380:	0020f133          	and	sp,ra,sp
    9384:	0024f0b3          	and	ra,s1,sp
    9388:	1b814093          	xori	ra,sp,440
    938c:	3001f393          	andi	t2,gp,768
    9390:	a300e393          	ori	t2,ra,-1488
    9394:	2988a037          	lui	zero,0x2988a
    9398:	00000193          	li	gp,0
    939c:	74018263          	beqz	gp,0x9ae0
    93a0:	f7b16793          	ori	a5,sp,-133
    93a4:	37d9e117          	auipc	sp,0x37d9e
    93a8:	0055a1b3          	slt	gp,a1,t0
    93ac:	fc408093          	addi	ra,ra,-60 # 0xffffffffdd8f7fc4
    93b0:	0e510193          	addi	gp,sp,229 # 0x37da7489
    93b4:	40d081b3          	sub	gp,ra,a3
    93b8:	3e35b137          	lui	sp,0x3e35b
    93bc:	4021d0b3          	sra	ra,gp,sp
    93c0:	e201e193          	ori	gp,gp,-480
    93c4:	00317333          	and	t1,sp,gp
    93c8:	d76fd0b7          	lui	ra,0xd76fd
    93cc:	403083b3          	sub	t2,ra,gp
    93d0:	0010b133          	sltu	sp,ra,ra
    93d4:	65de6017          	auipc	zero,0x65de6
    93d8:	b4ed91b7          	lui	gp,0xb4ed9
    93dc:	3e6c6137          	lui	sp,0x3e6c6
    93e0:	002181b3          	add	gp,gp,sp
    93e4:	402083b3          	sub	t2,ra,sp
    93e8:	7e623137          	lui	sp,0x7e623
    93ec:	edc10193          	addi	gp,sp,-292 # 0x7e622edc
    93f0:	c2c14113          	xori	sp,sp,-980
    93f4:	76314113          	xori	sp,sp,1891
    93f8:	bf70e093          	ori	ra,ra,-1033
    93fc:	f0308193          	addi	gp,ra,-253 # 0xffffffffd76fcf03
    9400:	5fc14093          	xori	ra,sp,1532
    9404:	25317a13          	andi	s4,sp,595
    9408:	7b28e093          	ori	ra,a7,1970
    940c:	00714133          	xor	sp,sp,t2
    9410:	0d070117          	auipc	sp,0xd070
    9414:	00010093          	mv	ra,sp
    9418:	ee2084e3          	beq	ra,sp,0x9300
    941c:	49830317          	auipc	t1,0x49830
    9420:	0033d4b3          	srl	s1,t2,gp
    9424:	81d58197          	auipc	gp,0x81d58
    9428:	d0227113          	andi	sp,tp,-766
    942c:	4030d1b3          	sra	gp,ra,gp
    9430:	c0404037          	lui	zero,0xc0404
    9434:	ed211317          	auipc	t1,0xed211
    9438:	0012a133          	slt	sp,t0,ra
    943c:	402081b3          	sub	gp,ra,sp
    9440:	4b80e413          	ori	s0,ra,1208
    9444:	00621133          	sll	sp,tp,t1
    9448:	0041f133          	and	sp,gp,tp
    944c:	76e0e093          	ori	ra,ra,1902
    9450:	001911b3          	sll	gp,s2,ra
    9454:	18592337          	lui	t1,0x18592
    9458:	002093b3          	sll	t2,ra,sp
    945c:	0011c933          	xor	s2,gp,ra
    9460:	4ad0e093          	ori	ra,ra,1197
    9464:	0041f133          	and	sp,gp,tp
    9468:	c4c30193          	addi	gp,t1,-948 # 0x18591c4c
    946c:	001121b3          	slt	gp,sp,ra
    9470:	401250b3          	sra	ra,tp,ra
    9474:	cdbe2237          	lui	tp,0xcdbe2
    9478:	001100b3          	add	ra,sp,ra
    947c:	60608113          	addi	sp,ra,1542
    9480:	bd305037          	lui	zero,0xbd305
    9484:	54818213          	addi	tp,gp,1352 # 0xffffffff81d6196c
    9488:	afe17113          	andi	sp,sp,-1282
    948c:	2dae02b7          	lui	t0,0x2dae0
    9490:	fa7271b7          	lui	gp,0xfa727
    9494:	002173b3          	and	t2,sp,sp
    9498:	002196b3          	sll	a3,gp,sp
    949c:	62c74097          	auipc	ra,0x62c74
    94a0:	40318033          	sub	zero,gp,gp
    94a4:	40308133          	sub	sp,ra,gp
    94a8:	8f210113          	addi	sp,sp,-1806 # 0xd078d02
    94ac:	00000013          	nop
    94b0:	34000e63          	beqz	zero,0x980c
    94b4:	e9dd8097          	auipc	ra,0xe9dd8
    94b8:	60110093          	addi	ra,sp,1537
    94bc:	f09e4137          	lui	sp,0xf09e4
    94c0:	250932b7          	lui	t0,0x25093
    94c4:	d2120113          	addi	sp,tp,-735 # 0xffffffffcdbe1d21
    94c8:	718ee1b7          	lui	gp,0x718ee
    94cc:	5641f093          	andi	ra,gp,1380
    94d0:	75214113          	xori	sp,sp,1874
    94d4:	eabba217          	auipc	tp,0xeabba
    94d8:	00108133          	add	sp,ra,ra
    94dc:	40610333          	sub	t1,sp,t1
    94e0:	001170b3          	and	ra,sp,ra
    94e4:	001006b3          	add	a3,zero,ra
    94e8:	7d9b1c17          	auipc	s8,0x7d9b1
    94ec:	6f50e097          	auipc	ra,0x6f50e
    94f0:	cc66b1b7          	lui	gp,0xcc66b
    94f4:	002390b3          	sll	ra,t2,sp
    94f8:	d3e10193          	addi	gp,sp,-706 # 0xfffffffff09e3d3e
    94fc:	40108133          	sub	sp,ra,ra
    9500:	b3de5597          	auipc	a1,0xb3de5
    9504:	f7189097          	auipc	ra,0xf7189
    9508:	d1b33117          	auipc	sp,0xd1b33
    950c:	995bc197          	auipc	gp,0x995bc
    9510:	0e15c213          	xori	tp,a1,225
    9514:	0031a5b3          	slt	a1,gp,gp
    9518:	0022b0b3          	sltu	ra,t0,sp
    951c:	b120e497          	auipc	s1,0xb120e
    9520:	e62ed1b7          	lui	gp,0xe62ed
    9524:	8877d117          	auipc	sp,0x8877d
    9528:	4e8b2237          	lui	tp,0x4e8b2
    952c:	17616193          	ori	gp,sp,374
    9530:	e10d90b7          	lui	ra,0xe10d9
    9534:	280f61b7          	lui	gp,0x280f6
    9538:	6a31d463          	bge	gp,gp,0x9be0
    953c:	6a31c263          	blt	gp,gp,0x9be0
    9540:	0196b3b3          	sltu	t2,a3,s9
    9544:	00309133          	sll	sp,ra,gp
    9548:	40910133          	sub	sp,sp,s1
    954c:	2a8c2597          	auipc	a1,0x2a8c2
    9550:	0021f3b3          	and	t2,gp,sp
    9554:	5f816313          	ori	t1,sp,1528
    9558:	dd6760b7          	lui	ra,0xdd676
    955c:	7492e317          	auipc	t1,0x7492e
    9560:	bb417113          	andi	sp,sp,-1100
    9564:	001011b3          	sll	gp,zero,ra
    9568:	2844c193          	xori	gp,s1,644
    956c:	753971b7          	lui	gp,0x75397
    9570:	006cf113          	andi	sp,s9,6
    9574:	185d8117          	auipc	sp,0x185d8
    9578:	13f68137          	lui	sp,0x13f68
    957c:	00302033          	sgtz	zero,gp
    9580:	642bb6b7          	lui	a3,0x642bb
    9584:	0021b2b3          	sltu	t0,gp,sp
    9588:	710fa297          	auipc	t0,0x710fa
    958c:	95a9a097          	auipc	ra,0x95a9a
    9590:	1c9710b7          	lui	ra,0x1c971
    9594:	ae016193          	ori	gp,sp,-1312
    9598:	006121b3          	slt	gp,sp,t1
    959c:	9c726093          	ori	ra,tp,-1593
    95a0:	7becb117          	auipc	sp,0x7becb
    95a4:	57f600b7          	lui	ra,0x57f60
    95a8:	03ff6197          	auipc	gp,0x3ff6
    95ac:	00219233          	sll	tp,gp,sp
    95b0:	003190b3          	sll	ra,gp,gp
    95b4:	dd91e113          	ori	sp,gp,-551
    95b8:	0a738d13          	addi	s10,t2,167 # 0xffffffffde53b37b
    95bc:	08115c63          	bge	sp,ra,0x9654
    95c0:	08114a63          	blt	sp,ra,0x9654
    95c4:	4020d0b3          	sra	ra,ra,sp
    95c8:	7a15a337          	lui	t1,0x7a15a
    95cc:	3cc1c213          	xori	tp,gp,972
    95d0:	db158293          	addi	t0,a1,-591 # 0x2a8cb2fd
    95d4:	001111b3          	sll	gp,sp,ra
    95d8:	fa418113          	addi	sp,gp,-92 # 0x3fff54c
    95dc:	d2cde2b7          	lui	t0,0xd2cde
    95e0:	8ab18113          	addi	sp,gp,-1877
    95e4:	b030f793          	andi	a5,ra,-1277
    95e8:	cfd48113          	addi	sp,s1,-771 # 0xffffffffb1217219
    95ec:	0030b133          	sltu	sp,ra,gp
    95f0:	002161b3          	or	gp,sp,sp
    95f4:	5e2bd137          	lui	sp,0x5e2bd
    95f8:	002151b3          	srl	gp,sp,sp
    95fc:	aab45217          	auipc	tp,0xaab45
    9600:	0021f3b3          	and	t2,gp,sp
    9604:	d62567b7          	lui	a5,0xd6256
    9608:	38524693          	xori	a3,tp,901
    960c:	77c6c097          	auipc	ra,0x77c6c
    9610:	0051f233          	and	tp,gp,t0
    9614:	66f0d097          	auipc	ra,0x66f0d
    9618:	2cf6e7b7          	lui	a5,0x2cf6e
    961c:	92117193          	andi	gp,sp,-1759
    9620:	e031c113          	xori	sp,gp,-509
    9624:	efbb6337          	lui	t1,0xefbb6
    9628:	00311233          	sll	tp,sp,gp
    962c:	b8b891b7          	lui	gp,0xb8b89
    9630:	8991c197          	auipc	gp,0x8991c
    9634:	8f53f037          	lui	zero,0x8f53f
    9638:	916b4197          	auipc	gp,0x916b4
    963c:	bb57e097          	auipc	ra,0xbb57e
    9640:	4d0ce117          	auipc	sp,0x4d0ce
    9644:	0042f0b3          	and	ra,t0,tp
    9648:	2e874193          	xori	gp,a4,744
    964c:	dc11d8e3          	bge	gp,ra,0x941c
    9650:	dc11c6e3          	blt	gp,ra,0x941c
    9654:	0031c0b3          	xor	ra,gp,gp
    9658:	5e13b237          	lui	tp,0x5e13b
    965c:	ce42a117          	auipc	sp,0xce42a
    9660:	14f0c113          	xori	sp,ra,335
    9664:	0010d2b3          	srl	t0,ra,ra
    9668:	829e7017          	auipc	zero,0x829e7
    966c:	004151b3          	srl	gp,sp,tp
    9670:	de829137          	lui	sp,0xde829
    9674:	28905137          	lui	sp,0x28905
    9678:	b6a2c137          	lui	sp,0xb6a2c
    967c:	9b8c2097          	auipc	ra,0x9b8c2
    9680:	004281b3          	add	gp,t0,tp
    9684:	0000f133          	and	sp,ra,zero
    9688:	6ea85037          	lui	zero,0x6ea85
    968c:	fde86117          	auipc	sp,0xfde86
    9690:	1bc6b1b7          	lui	gp,0x1bc6b
    9694:	b1594037          	lui	zero,0xb1594
    9698:	003110b3          	sll	ra,sp,gp
    969c:	a8d0c093          	xori	ra,ra,-1395
    96a0:	5e7d42b7          	lui	t0,0x5e7d4
    96a4:	965d61b7          	lui	gp,0x965d6
    96a8:	7379e1b7          	lui	gp,0x7379e
    96ac:	b2f20113          	addi	sp,tp,-1233 # 0x5e13ab2f
    96b0:	0020b133          	sltu	sp,ra,sp
    96b4:	310842b7          	lui	t0,0x31084
    96b8:	5020c193          	xori	gp,ra,1282
    96bc:	004170b3          	and	ra,sp,tp
    96c0:	430f6097          	auipc	ra,0x430f6
    96c4:	00311933          	sll	s2,sp,gp
    96c8:	2927f1b7          	lui	gp,0x2927f
    96cc:	d59fa1b7          	lui	gp,0xd59fa
    96d0:	08711c63          	bne	sp,t2,0x9768
    96d4:	08710a63          	beq	sp,t2,0x9768
    96d8:	7e63f1b7          	lui	gp,0x7e63f
    96dc:	e4670197          	auipc	gp,0xe4670
    96e0:	0011e133          	or	sp,gp,ra
    96e4:	41aad197          	auipc	gp,0x41aad
    96e8:	bf10f113          	andi	sp,ra,-1039
    96ec:	00609233          	sll	tp,ra,t1
    96f0:	002132b3          	sltu	t0,sp,sp
    96f4:	760e4097          	auipc	ra,0x760e4
    96f8:	40118133          	sub	sp,gp,ra
    96fc:	52904137          	lui	sp,0x52904
    9700:	00a21033          	sll	zero,tp,a0
    9704:	0a517037          	lui	zero,0xa517
    9708:	281d7197          	auipc	gp,0x281d7
    970c:	1e80c093          	xori	ra,ra,488
    9710:	34b2e293          	ori	t0,t0,843
    9714:	cd1b4113          	xori	sp,s6,-815
    9718:	210e8197          	auipc	gp,0x210e8
    971c:	005130b3          	sltu	ra,sp,t0
    9720:	0072d133          	srl	sp,t0,t2
    9724:	4011d0b3          	sra	ra,gp,ra
    9728:	254f3137          	lui	sp,0x254f3
    972c:	0030c1b3          	xor	gp,ra,gp
    9730:	c403e093          	ori	ra,t2,-960
    9734:	3ac1e093          	ori	ra,gp,940
    9738:	00320133          	add	sp,tp,gp
    973c:	3691c213          	xori	tp,gp,873
    9740:	40215333          	sra	t1,sp,sp
    9744:	00f100b3          	add	ra,sp,a5
    9748:	6e24f097          	auipc	ra,0x6e24f
    974c:	005170b3          	and	ra,sp,t0
    9750:	00132333          	slt	t1,t1,ra
    9754:	266dc197          	auipc	gp,0x266dc
    9758:	16235237          	lui	tp,0x16235
    975c:	00315ab3          	srl	s5,sp,gp
    9760:	b0310ee3          	beq	sp,gp,0x927c
    9764:	b19ff16f          	jal	sp,0x927c
    9768:	002111b3          	sll	gp,sp,sp
    976c:	ce27e0b7          	lui	ra,0xce27e
    9770:	e5004113          	xori	sp,zero,-432
    9774:	403081b3          	sub	gp,ra,gp
    9778:	00211133          	sll	sp,sp,sp
    977c:	71329217          	auipc	tp,0x71329
    9780:	005050b3          	srl	ra,zero,t0
    9784:	40415133          	sra	sp,sp,tp
    9788:	f3222237          	lui	tp,0xf3222
    978c:	47500113          	li	sp,1141
    9790:	dbf27793          	andi	a5,tp,-577
    9794:	004052b3          	srl	t0,zero,tp
    9798:	9f9c6097          	auipc	ra,0x9f9c6
    979c:	be5f8697          	auipc	a3,0xbe5f8
    97a0:	06a79197          	auipc	gp,0x6a79
    97a4:	00005733          	srl	a4,zero,zero
    97a8:	079d96b7          	lui	a3,0x79d9
    97ac:	e4b18193          	addi	gp,gp,-437 # 0x6a825eb
    97b0:	458df137          	lui	sp,0x458df
    97b4:	a98f0097          	auipc	ra,0xa98f0
    97b8:	70318193          	addi	gp,gp,1795
    97bc:	f4fe9837          	lui	a6,0xf4fe9
    97c0:	c9b0c313          	xori	t1,ra,-869
    97c4:	f6b831b7          	lui	gp,0xf6b83
    97c8:	7d3584b7          	lui	s1,0x7d358
    97cc:	1bb6f097          	auipc	ra,0x1bb6f
    97d0:	401082b3          	sub	t0,ra,ra
    97d4:	2cc18117          	auipc	sp,0x2cc18
    97d8:	20e39117          	auipc	sp,0x20e39
    97dc:	3da0c113          	xori	sp,ra,986
    97e0:	e035d397          	auipc	t2,0xe035d
    97e4:	54594117          	auipc	sp,0x54594
    97e8:	809c4137          	lui	sp,0x809c4
    97ec:	00419133          	sll	sp,gp,tp
    97f0:	00335133          	srl	sp,t1,gp
    97f4:	003001b3          	add	gp,zero,gp
    97f8:	001161b3          	or	gp,sp,ra
    97fc:	00e101b3          	add	gp,sp,a4
    9800:	3921c113          	xori	sp,gp,914
    9804:	06010e63          	beqz	sp,0x9880
    9808:	078001ef          	jal	gp,0x9880
    980c:	5220f013          	andi	zero,ra,1314
    9810:	af1ce117          	auipc	sp,0xaf1ce
    9814:	003211b3          	sll	gp,tp,gp
    9818:	001111b3          	sll	gp,sp,ra
    981c:	002060b3          	or	ra,zero,sp
    9820:	24723137          	lui	sp,0x24723
    9824:	7ac72137          	lui	sp,0x7ac72
    9828:	403101b3          	sub	gp,sp,gp
    982c:	48216093          	ori	ra,sp,1154
    9830:	f5d03197          	auipc	gp,0xf5d03
    9834:	009180b3          	add	ra,gp,s1
    9838:	089d2337          	lui	t1,0x89d2
    983c:	3d7beb37          	lui	s6,0x3d7be
    9840:	b5e1f093          	andi	ra,gp,-1186
    9844:	cd2c1197          	auipc	gp,0xcd2c1
    9848:	83fe83b7          	lui	t2,0x83fe8
    984c:	00529333          	sll	t1,t0,t0
    9850:	7a508313          	addi	t1,ra,1957 # 0x1bb78f71
    9854:	57b3f113          	andi	sp,t2,1403
    9858:	0030b133          	sltu	sp,ra,gp
    985c:	00236133          	or	sp,t1,sp
    9860:	0021f1b3          	and	gp,gp,sp
    9864:	40e182b3          	sub	t0,gp,a4
    9868:	8f4d9137          	lui	sp,0x8f4d9
    986c:	0051a1b3          	slt	gp,gp,t0
    9870:	c83d3137          	lui	sp,0xc83d3
    9874:	e18da1b7          	lui	gp,0xe18da
    9878:	00008113          	mv	sp,ra
    987c:	cc1102e3          	beq	sp,ra,0x9540
    9880:	4da3b1b7          	lui	gp,0x4da3b
    9884:	0001c033          	xor	zero,gp,zero
    9888:	e0e27097          	auipc	ra,0xe0e27
    988c:	00332133          	slt	sp,t1,gp
    9890:	001de0b3          	or	ra,s11,ra
    9894:	81fa30b7          	lui	ra,0x81fa3
    9898:	003194b3          	sll	s1,gp,gp
    989c:	c86941b7          	lui	gp,0xc8694
    98a0:	401100b3          	sub	ra,sp,ra
    98a4:	0061e5b3          	or	a1,gp,t1
    98a8:	af6f16b7          	lui	a3,0xaf6f1
    98ac:	ca170117          	auipc	sp,0xca170
    98b0:	003241b3          	xor	gp,tp,gp
    98b4:	000100b3          	add	ra,sp,zero
    98b8:	0061c233          	xor	tp,gp,t1
    98bc:	402150b3          	sra	ra,sp,sp
    98c0:	f160e1b7          	lui	gp,0xf160e
    98c4:	0921c113          	xori	sp,gp,146
    98c8:	63c82117          	auipc	sp,0x63c82
    98cc:	b440c313          	xori	t1,ra,-1212
    98d0:	dbfd1137          	lui	sp,0xdbfd1
    98d4:	d8b3a317          	auipc	t1,0xd8b3a
    98d8:	003090b3          	sll	ra,ra,gp
    98dc:	fa4a40b7          	lui	ra,0xfa4a4
    98e0:	305d1017          	auipc	zero,0x305d1
    98e4:	ff634113          	xori	sp,t1,-10
    98e8:	64b3a397          	auipc	t2,0x64b3a
    98ec:	c2c1b397          	auipc	t2,0xc2c1b
    98f0:	002131b3          	sltu	gp,sp,sp
    98f4:	93617113          	andi	sp,sp,-1738
    98f8:	401181b3          	sub	gp,gp,ra
    98fc:	1dc4f117          	auipc	sp,0x1dc4f
    9900:	5ee38113          	addi	sp,t2,1518 # 0xffffffffc2c24eda
    9904:	782f0337          	lui	t1,0x782f0
    9908:	14118063          	beq	gp,ra,0x9a48
    990c:	13c0016f          	jal	sp,0x9a48
    9910:	0021e133          	or	sp,gp,sp
    9914:	4f490097          	auipc	ra,0x4f490
    9918:	c27db317          	auipc	t1,0xc27db
    991c:	9d21c093          	xori	ra,gp,-1582
    9920:	002110b3          	sll	ra,sp,sp
    9924:	00119133          	sll	sp,gp,ra
    9928:	b2a7a097          	auipc	ra,0xb2a7a
    992c:	e3629117          	auipc	sp,0xe3629
    9930:	5c30f113          	andi	sp,ra,1475
    9934:	e2ba60b7          	lui	ra,0xe2ba6
    9938:	16003a17          	auipc	s4,0x16003
    993c:	aa6021b7          	lui	gp,0xaa602
    9940:	6ca3c3b7          	lui	t2,0x6ca3c
    9944:	001ab033          	sltu	zero,s5,ra
    9948:	25cfe097          	auipc	ra,0x25cfe
    994c:	eddf2097          	auipc	ra,0xeddf2
    9950:	438ef937          	lui	s2,0x438ef
    9954:	0051c233          	xor	tp,gp,t0
    9958:	e7f75137          	lui	sp,0xe7f75
    995c:	0011a233          	slt	tp,gp,ra
    9960:	1c218113          	addi	sp,gp,450 # 0xffffffffaa6021c2
    9964:	a8873137          	lui	sp,0xa8873
    9968:	994a72b7          	lui	t0,0x994a7
    996c:	41c2d1b3          	sra	gp,t0,t3
    9970:	043901b7          	lui	gp,0x4390
    9974:	0033c233          	xor	tp,t2,gp
    9978:	cec62117          	auipc	sp,0xcec62
    997c:	3e00c193          	xori	gp,ra,992
    9980:	b423a117          	auipc	sp,0xb423a
    9984:	004091b3          	sll	gp,ra,tp
    9988:	003008b3          	add	a7,zero,gp
    998c:	0043c1b3          	xor	gp,t2,tp
    9990:	002b60b3          	or	ra,s6,sp
    9994:	41e201b3          	sub	gp,tp,t5
    9998:	4ea30193          	addi	gp,t1,1258 # 0xffffffffc27e4e02
    999c:	caee11b7          	lui	gp,0xcaee1
    99a0:	00100263          	beq	zero,ra,0x99a4
    99a4:	fb0ff6ef          	jal	a3,0x9154
    99a8:	77b28193          	addi	gp,t0,1915 # 0xffffffff994a777b
    99ac:	9063c537          	lui	a0,0x9063c
    99b0:	40d0d033          	sra	zero,ra,a3
    99b4:	0dcd3297          	auipc	t0,0xdcd3
    99b8:	0040f233          	and	tp,ra,tp
    99bc:	a412c197          	auipc	gp,0xa412c
    99c0:	f4d27193          	andi	gp,tp,-179
    99c4:	8c18a1b7          	lui	gp,0x8c18a
    99c8:	0031d1b3          	srl	gp,gp,gp
    99cc:	403051b3          	sra	gp,zero,gp
    99d0:	001071b3          	and	gp,zero,ra
    99d4:	00358333          	add	t1,a1,gp
    99d8:	00011333          	sll	t1,sp,zero
    99dc:	54c14113          	xori	sp,sp,1356
    99e0:	77358337          	lui	t1,0x77358
    99e4:	89e5d237          	lui	tp,0x89e5d
    99e8:	0031f1b3          	and	gp,gp,gp
    99ec:	4020d533          	sra	a0,ra,sp
    99f0:	0090a133          	slt	sp,ra,s1
    99f4:	4670e193          	ori	gp,ra,1127
    99f8:	00612033          	slt	zero,sp,t1
    99fc:	0090ac33          	slt	s8,ra,s1
    9a00:	006180b3          	add	ra,gp,t1
    9a04:	03a4a1b7          	lui	gp,0x3a4a
    9a08:	0020e333          	or	t1,ra,sp
    9a0c:	4eac62b7          	lui	t0,0x4eac6
    9a10:	42507137          	lui	sp,0x42507
    9a14:	002ef1b3          	and	gp,t4,sp
    9a18:	e4a08113          	addi	sp,ra,-438 # 0xffffffffeddfb796
    9a1c:	003361b3          	or	gp,t1,gp
    9a20:	0032e033          	or	zero,t0,gp
    9a24:	af25a2b7          	lui	t0,0xaf25a
    9a28:	d909b317          	auipc	t1,0xd909b
    9a2c:	16fa26b7          	lui	a3,0x16fa2
    9a30:	402803b3          	sub	t2,a6,sp
    9a34:	00510133          	add	sp,sp,t0
    9a38:	d3fbe097          	auipc	ra,0xd3fbe
    9a3c:	c9435197          	auipc	gp,0xc9435
    9a40:	00000197          	auipc	gp,0x0
    9a44:	ed018167          	jalr	sp,-304(gp) # 0x9910
    9a48:	8de10193          	addi	gp,sp,-1826 # 0x425068de
    9a4c:	23c80337          	lui	t1,0x23c80
    9a50:	4032d6b3          	sra	a3,t0,gp
    9a54:	4033d0b3          	sra	ra,t2,gp
    9a58:	01915133          	srl	sp,sp,s9
    9a5c:	6a28f1b7          	lui	gp,0x6a28f
    9a60:	bab28197          	auipc	gp,0xbab28
    9a64:	001141b3          	xor	gp,sp,ra
    9a68:	0001b133          	sltu	sp,gp,zero
    9a6c:	403051b3          	sra	gp,zero,gp
    9a70:	66213137          	lui	sp,0x66213
    9a74:	00d381b3          	add	gp,t2,a3
    9a78:	adc1f113          	andi	sp,gp,-1316
    9a7c:	34cb7093          	andi	ra,s6,844
    9a80:	0023b1b3          	sltu	gp,t2,sp
    9a84:	002091b3          	sll	gp,ra,sp
    9a88:	001270b3          	and	ra,tp,ra
    9a8c:	3fa03117          	auipc	sp,0x3fa03
    9a90:	9ca18093          	addi	ra,gp,-1590 # 0xffffffffbab3142a
    9a94:	0021b0b3          	sltu	ra,gp,sp
    9a98:	0030a033          	slt	zero,ra,gp
    9a9c:	fa94c117          	auipc	sp,0xfa94c
    9aa0:	34e0f293          	andi	t0,ra,846
    9aa4:	e6b35117          	auipc	sp,0xe6b35
    9aa8:	003090b3          	sll	ra,ra,gp
    9aac:	4010d1b3          	sra	gp,ra,ra
    9ab0:	70e3b117          	auipc	sp,0x70e3b
    9ab4:	4c3c7137          	lui	sp,0x4c3c7
    9ab8:	ec698217          	auipc	tp,0xec698
    9abc:	8a6750b7          	lui	ra,0x8a675
    9ac0:	83c60097          	auipc	ra,0x83c60
    9ac4:	7a3e0397          	auipc	t2,0x7a3e0
    9ac8:	c5b14213          	xori	tp,sp,-933
    9acc:	40135133          	sra	sp,t1,ra
    9ad0:	d470f193          	andi	gp,ra,-697
    9ad4:	3ba14093          	xori	ra,sp,954
    9ad8:	00310263          	beq	sp,gp,0x9adc
    9adc:	2f90016f          	jal	sp,0xa5d4
    9ae0:	10f98093          	addi	ra,s3,271 # 0x2f9d10f
    9ae4:	b6e281b7          	lui	gp,0xb6e28
    9ae8:	41d36113          	ori	sp,t1,1053
    9aec:	0062b3b3          	sltu	t2,t0,t1
    9af0:	0051b133          	sltu	sp,gp,t0
    9af4:	4021d2b3          	sra	t0,gp,sp
    9af8:	a2b42117          	auipc	sp,0xa2b42
    9afc:	c18c4093          	xori	ra,s8,-1000
    9b00:	011170b3          	and	ra,sp,a7
    9b04:	0014c033          	xor	zero,s1,ra
    9b08:	b703f093          	andi	ra,t2,-1168
    9b0c:	e178e397          	auipc	t2,0xe178e
    9b10:	48b921b7          	lui	gp,0x48b92
    9b14:	003170b3          	and	ra,sp,gp
    9b18:	401150b3          	sra	ra,sp,ra
    9b1c:	005060b3          	or	ra,zero,t0
    9b20:	141d5097          	auipc	ra,0x141d5
    9b24:	00208133          	add	sp,ra,sp
    9b28:	0051a133          	slt	sp,gp,t0
    9b2c:	83a1c093          	xori	ra,gp,-1990
    9b30:	02d0e113          	ori	sp,ra,45
    9b34:	00215333          	srl	t1,sp,sp
    9b38:	0241c813          	xori	a6,gp,36
    9b3c:	0011b0b3          	sltu	ra,gp,ra
    9b40:	c0f220b7          	lui	ra,0xc0f22
    9b44:	a65761b7          	lui	gp,0xa6576
    9b48:	003380b3          	add	ra,t2,gp
    9b4c:	c5fae0b7          	lui	ra,0xc5fae
    9b50:	002380b3          	add	ra,t2,sp
    9b54:	00030093          	mv	ra,t1
    9b58:	a66086e3          	beq	ra,t1,0x95c4
    9b5c:	2e5f6017          	auipc	zero,0x2e5f6
    9b60:	f4d14193          	xori	gp,sp,-179
    9b64:	402380b3          	sub	ra,t2,sp
    9b68:	0075f133          	and	sp,a1,t2
    9b6c:	ce091137          	lui	sp,0xce091
    9b70:	007181b3          	add	gp,gp,t2
    9b74:	4010d1b3          	sra	gp,ra,ra
    9b78:	007100b3          	add	ra,sp,t2
    9b7c:	002330b3          	sltu	ra,t1,sp
    9b80:	09a5c217          	auipc	tp,0x9a5c
    9b84:	00113333          	sltu	t1,sp,ra
    9b88:	00315133          	srl	sp,sp,gp
    9b8c:	00026133          	or	sp,tp,zero
    9b90:	c761f193          	andi	gp,gp,-906
    9b94:	5ea9d0b7          	lui	ra,0x5ea9d
    9b98:	3e7c3117          	auipc	sp,0x3e7c3
    9b9c:	40d1d137          	lui	sp,0x40d1d
    9ba0:	d40ed097          	auipc	ra,0xd40ed
    9ba4:	ba20e137          	lui	sp,0xba20e
    9ba8:	08e54037          	lui	zero,0x8e54
    9bac:	400181b3          	sub	gp,gp,zero
    9bb0:	a2f8d137          	lui	sp,0xa2f8d
    9bb4:	0030c0b3          	xor	ra,ra,gp
    9bb8:	42e870b7          	lui	ra,0x42e87
    9bbc:	003163b3          	or	t2,sp,gp
    9bc0:	4f4e5097          	auipc	ra,0x4f4e5
    9bc4:	00128133          	add	sp,t0,ra
    9bc8:	66210193          	addi	gp,sp,1634 # 0xffffffffa2f8d662
    9bcc:	0120c4b3          	xor	s1,ra,s2
    9bd0:	c3b39097          	auipc	ra,0xc3b39
    9bd4:	405102b3          	sub	t0,sp,t0
    9bd8:	00000013          	nop
    9bdc:	dc0006e3          	beqz	zero,0x99a8
    9be0:	3fb0c193          	xori	gp,ra,1019
    9be4:	0db4e0b7          	lui	ra,0xdb4e
    9be8:	6c008013          	addi	zero,ra,1728 # 0xdb4e6c0
    9bec:	404156b3          	sra	a3,sp,tp
    9bf0:	4033d0b3          	sra	ra,t2,gp
    9bf4:	00309333          	sll	t1,ra,gp
    9bf8:	013fc0b3          	xor	ra,t6,s3
    9bfc:	82f18293          	addi	t0,gp,-2001 # 0xffffffffa657582f
    9c00:	0010f733          	and	a4,ra,ra
    9c04:	9ac26093          	ori	ra,tp,-1620
    9c08:	719261b7          	lui	gp,0x71926
    9c0c:	0001e133          	or	sp,gp,zero
    9c10:	0030f133          	and	sp,ra,gp
    9c14:	f0e18313          	addi	t1,gp,-242 # 0x71925f0e
    9c18:	082c1297          	auipc	t0,0x82c1
    9c1c:	43a14313          	xori	t1,sp,1082
    9c20:	5d161097          	auipc	ra,0x5d161
    9c24:	4063d233          	sra	tp,t2,t1
    9c28:	cdbbc0b7          	lui	ra,0xcdbbc
    9c2c:	40115133          	sra	sp,sp,ra
    9c30:	0051c0b3          	xor	ra,gp,t0
    9c34:	961c3137          	lui	sp,0x961c3
    9c38:	0030f133          	and	sp,ra,gp
    9c3c:	0011e133          	or	sp,gp,ra
    9c40:	00611333          	sll	t1,sp,t1
    9c44:	26f17313          	andi	t1,sp,623
    9c48:	0031b133          	sltu	sp,gp,gp
    9c4c:	f464d197          	auipc	gp,0xf464d
    9c50:	6b00e117          	auipc	sp,0x6b00e
    9c54:	a84102e3          	beq	sp,tp,0x96d8
    9c58:	a81ff1ef          	jal	gp,0x96d8
    9c5c:	007e8333          	add	t1,t4,t2
    9c60:	1a810393          	addi	t2,sp,424 # 0x6b017df8
    9c64:	40028233          	sub	tp,t0,zero
    9c68:	b46d70b7          	lui	ra,0xb46d7
    9c6c:	007170b3          	and	ra,sp,t2
    9c70:	fcdbd137          	lui	sp,0xfcdbd
    9c74:	0010c0b3          	xor	ra,ra,ra
    9c78:	bb295137          	lui	sp,0xbb295
    9c7c:	41b181b3          	sub	gp,gp,s11
    9c80:	0011b133          	sltu	sp,gp,ra
    9c84:	002121b3          	slt	gp,sp,sp
    9c88:	d7fa4117          	auipc	sp,0xd7fa4
    9c8c:	58a2d097          	auipc	ra,0x58a2d
    9c90:	f725f097          	auipc	ra,0xf725f
    9c94:	0071bf33          	sltu	t5,gp,t2
    9c98:	59790097          	auipc	ra,0x59790
    9c9c:	ae40f313          	andi	t1,ra,-1308
    9ca0:	34727337          	lui	t1,0x34727
    9ca4:	00216233          	or	tp,sp,sp
    9ca8:	6b7ce2b7          	lui	t0,0x6b7ce
    9cac:	7b13f037          	lui	zero,0x7b13f
    9cb0:	f0fcd597          	auipc	a1,0xf0fcd
    9cb4:	67ad9117          	auipc	sp,0x67ad9
    9cb8:	b151c093          	xori	ra,gp,-1259
    9cbc:	2719c1b7          	lui	gp,0x2719c
    9cc0:	dda78137          	lui	sp,0xdda78
    9cc4:	0030c0b3          	xor	ra,ra,gp
    9cc8:	d5e0c113          	xori	sp,ra,-674
    9ccc:	003151b3          	srl	gp,sp,gp
    9cd0:	21d3b197          	auipc	gp,0x21d3b
    9cd4:	1847e137          	lui	sp,0x1847e
    9cd8:	00130263          	beq	t1,ra,0x9cdc
    9cdc:	07d001ef          	jal	gp,0xa558
    9ce0:	023d4397          	auipc	t2,0x23d4
    9ce4:	f85db317          	auipc	t1,0xf85db
    9ce8:	8189a4b7          	lui	s1,0x8189a
    9cec:	1ee301b7          	lui	gp,0x1ee30
    9cf0:	002111b3          	sll	gp,sp,sp
    9cf4:	005150b3          	srl	ra,sp,t0
    9cf8:	61892137          	lui	sp,0x61892
    9cfc:	19136093          	ori	ra,t1,401
    9d00:	0026d1b3          	srl	gp,a3,sp
    9d04:	07558197          	auipc	gp,0x7558
    9d08:	52a00097          	auipc	ra,0x52a00
    9d0c:	d0d85197          	auipc	gp,0xd0d85
    9d10:	93c73097          	auipc	ra,0x93c73
    9d14:	0054c3b3          	xor	t2,s1,t0
    9d18:	80ddb097          	auipc	ra,0x80ddb
    9d1c:	dda98397          	auipc	t2,0xdda98
    9d20:	6d11c193          	xori	gp,gp,1745
    9d24:	ac00f013          	andi	zero,ra,-1344
    9d28:	4020d0b3          	sra	ra,ra,sp
    9d2c:	3c31e093          	ori	ra,gp,963
    9d30:	f18262b7          	lui	t0,0xf1826
    9d34:	403081b3          	sub	gp,ra,gp
    9d38:	591f4097          	auipc	ra,0x591f4
    9d3c:	0e017913          	andi	s2,sp,224
    9d40:	3cfa0117          	auipc	sp,0x3cfa0
    9d44:	403954b3          	sra	s1,s2,gp
    9d48:	0020e1b3          	or	gp,ra,sp
    9d4c:	c120f097          	auipc	ra,0xc120f
    9d50:	0030d133          	srl	sp,ra,gp
    9d54:	d5b01197          	auipc	gp,0xd5b01
    9d58:	83d0f393          	andi	t2,ra,-1987
    9d5c:	0021a1b3          	slt	gp,gp,sp
    9d60:	403000b3          	neg	ra,gp
    9d64:	16e450b7          	lui	ra,0x16e45
    9d68:	00008263          	beqz	ra,0x9d6c
    9d6c:	3a1006ef          	jal	a3,0xa90c
    9d70:	16301597          	auipc	a1,0x16301
    9d74:	00394b33          	xor	s6,s2,gp
    9d78:	829f9137          	lui	sp,0x829f9
    9d7c:	004150b3          	srl	ra,sp,tp
    9d80:	0e6021b7          	lui	gp,0xe602
    9d84:	1b001497          	auipc	s1,0x1b001
    9d88:	a9791037          	lui	zero,0xa9791
    9d8c:	24218117          	auipc	sp,0x24218
    9d90:	005190b3          	sll	ra,gp,t0
    9d94:	40135133          	sra	sp,t1,ra
    9d98:	d7f10193          	addi	gp,sp,-641 # 0x24221b0b
    9d9c:	4013d133          	sra	sp,t2,ra
    9da0:	0041b1b3          	sltu	gp,gp,tp
    9da4:	00b3a133          	slt	sp,t2,a1
    9da8:	2915af97          	auipc	t6,0x2915a
    9dac:	0021a0b3          	slt	ra,gp,sp
    9db0:	d7b0e193          	ori	gp,ra,-645
    9db4:	0d450117          	auipc	sp,0xd450
    9db8:	003170b3          	and	ra,sp,gp
    9dbc:	63b851b7          	lui	gp,0x63b85
    9dc0:	003090b3          	sll	ra,ra,gp
    9dc4:	402082b3          	sub	t0,ra,sp
    9dc8:	0cd4e197          	auipc	gp,0xcd4e
    9dcc:	6e6251b7          	lui	gp,0x6e625
    9dd0:	003092b3          	sll	t0,ra,gp
    9dd4:	00226333          	or	t1,tp,sp
    9dd8:	ac08c197          	auipc	gp,0xac08c
    9ddc:	d04ce5b7          	lui	a1,0xd04ce
    9de0:	caf00217          	auipc	tp,0xcaf00
    9de4:	db650097          	auipc	ra,0xdb650
    9de8:	0031d3b3          	srl	t2,gp,gp
    9dec:	e631fb13          	andi	s6,gp,-413
    9df0:	920f3197          	auipc	gp,0x920f3
    9df4:	e8c7d137          	lui	sp,0xe8c7d
    9df8:	effad237          	lui	tp,0xeffad
    9dfc:	3e308663          	beq	ra,gp,0xa1e8
    9e00:	3e8002ef          	jal	t0,0xa1e8
    9e04:	222ea197          	auipc	gp,0x222ea
    9e08:	402201b3          	sub	gp,tp,sp
    9e0c:	58d0cb13          	xori	s6,ra,1421
    9e10:	00f331b3          	sltu	gp,t1,a5
    9e14:	6e70c113          	xori	sp,ra,1767
    9e18:	2251f3b7          	lui	t2,0x2251f
    9e1c:	0ed0f093          	andi	ra,ra,237
    9e20:	7a7af1b7          	lui	gp,0x7a7af
    9e24:	00210133          	add	sp,sp,sp
    9e28:	40210133          	sub	sp,sp,sp
    9e2c:	0040d133          	srl	sp,ra,tp
    9e30:	0021e033          	or	zero,gp,sp
    9e34:	b15db117          	auipc	sp,0xb15db
    9e38:	f148ac17          	auipc	s8,0xf148a
    9e3c:	96c421b7          	lui	gp,0x96c42
    9e40:	24b8d317          	auipc	t1,0x24b8d
    9e44:	ad558213          	addi	tp,a1,-1323 # 0xffffffffd04cdad5
    9e48:	c270c193          	xori	gp,ra,-985
    9e4c:	0010b0b3          	sltu	ra,ra,ra
    9e50:	c3433297          	auipc	t0,0xc3433
    9e54:	df50f193          	andi	gp,ra,-523
    9e58:	4ea08313          	addi	t1,ra,1258 # 0xffffffffdb65a2ce
    9e5c:	403186b3          	sub	a3,gp,gp
    9e60:	2381e093          	ori	ra,gp,568
    9e64:	fd504193          	xori	gp,zero,-43
    9e68:	76e16093          	ori	ra,sp,1902
    9e6c:	58961d97          	auipc	s11,0x58961
    9e70:	62a38117          	auipc	sp,0x62a38
    9e74:	c8970117          	auipc	sp,0xc8970
    9e78:	00309133          	sll	sp,ra,gp
    9e7c:	41e300b3          	sub	ra,t1,t5
    9e80:	2a80b0b7          	lui	ra,0x2a80b
    9e84:	07606193          	ori	gp,zero,118
    9e88:	002130b3          	sltu	ra,sp,sp
    9e8c:	26ad9037          	lui	zero,0x26ad9
    9e90:	00b261b3          	or	gp,tp,a1
    9e94:	00138263          	beq	t2,ra,0x9e98
    9e98:	049001ef          	jal	gp,0xa6e0
    9e9c:	0031d133          	srl	sp,gp,gp
    9ea0:	0000c0b3          	xor	ra,ra,zero
    9ea4:	4011d133          	sra	sp,gp,ra
    9ea8:	4031d233          	sra	tp,gp,gp
    9eac:	633ba1b7          	lui	gp,0x633ba
    9eb0:	c97f9097          	auipc	ra,0xc97f9
    9eb4:	0030a233          	slt	tp,ra,gp
    9eb8:	0020c433          	xor	s0,ra,sp
    9ebc:	59314093          	xori	ra,sp,1427
    9ec0:	0030b2b3          	sltu	t0,ra,gp
    9ec4:	0021a2b3          	slt	t0,gp,sp
    9ec8:	47bb9117          	auipc	sp,0x47bb9
    9ecc:	9fdfd0b7          	lui	ra,0x9fdfd
    9ed0:	401950b3          	sra	ra,s2,ra
    9ed4:	b9521197          	auipc	gp,0xb9521
    9ed8:	4ee3e093          	ori	ra,t2,1262
    9edc:	0041d0b3          	srl	ra,gp,tp
    9ee0:	26052137          	lui	sp,0x26052
    9ee4:	00129133          	sll	sp,t0,ra
    9ee8:	df2b70b7          	lui	ra,0xdf2b7
    9eec:	00416133          	or	sp,sp,tp
    9ef0:	f585e197          	auipc	gp,0xf585e
    9ef4:	e04f60b7          	lui	ra,0xe04f6
    9ef8:	0026a0b3          	slt	ra,a3,sp
    9efc:	823c6137          	lui	sp,0x823c6
    9f00:	001151b3          	srl	gp,sp,ra
    9f04:	ac86c137          	lui	sp,0xac86c
    9f08:	002110b3          	sll	ra,sp,sp
    9f0c:	cc7a9197          	auipc	gp,0xcc7a9
    9f10:	5cb1f463          	bgeu	gp,a1,0xa4d8
    9f14:	5cb1e263          	bltu	gp,a1,0xa4d8
    9f18:	fa8a9397          	auipc	t2,0xfa8a9
    9f1c:	4061d133          	sra	sp,gp,t1
    9f20:	40220033          	sub	zero,tp,sp
    9f24:	401180b3          	sub	ra,gp,ra
    9f28:	964cc017          	auipc	zero,0x964cc
    9f2c:	3c200113          	li	sp,962
    9f30:	7ca1c093          	xori	ra,gp,1994
    9f34:	4adcf193          	andi	gp,s9,1197
    9f38:	0011b133          	sltu	sp,gp,ra
    9f3c:	cd33f197          	auipc	gp,0xcd33f
    9f40:	150520b7          	lui	ra,0x15052
    9f44:	00135133          	srl	sp,t1,ra
    9f48:	3e2be137          	lui	sp,0x3e2be
    9f4c:	f7195117          	auipc	sp,0xf7195
    9f50:	4bab1117          	auipc	sp,0x4bab1
    9f54:	25d9c3b7          	lui	t2,0x25d9c
    9f58:	0031c0b3          	xor	ra,gp,gp
    9f5c:	00a17133          	and	sp,sp,a0
    9f60:	11d2b337          	lui	t1,0x11d2b
    9f64:	46c14113          	xori	sp,sp,1132
    9f68:	4c99a137          	lui	sp,0x4c99a
    9f6c:	0030b1b3          	sltu	gp,ra,gp
    9f70:	0036a0b3          	slt	ra,a3,gp
    9f74:	ad01e313          	ori	t1,gp,-1328
    9f78:	acc5b097          	auipc	ra,0xacc5b
    9f7c:	59af9497          	auipc	s1,0x59af9
    9f80:	403150b3          	sra	ra,sp,gp
    9f84:	9080b097          	auipc	ra,0x9080b
    9f88:	003150b3          	srl	ra,sp,gp
    9f8c:	0021a1b3          	slt	gp,gp,sp
    9f90:	00110133          	add	sp,sp,ra
    9f94:	0000b233          	sltu	tp,ra,zero
    9f98:	646f30b7          	lui	ra,0x646f3
    9f9c:	0071e2b3          	or	t0,gp,t2
    9fa0:	92b4b117          	auipc	sp,0x92b4b
    9fa4:	00230333          	add	t1,t1,sp
    9fa8:	00000097          	auipc	ra,0x0
    9fac:	12008167          	jalr	sp,288(ra) # 0xa0c8
    9fb0:	37f9b337          	lui	t1,0x37f9b
    9fb4:	001192b3          	sll	t0,gp,ra
    9fb8:	7ffc0013          	addi	zero,s8,2047 # 0xfffffffff1494637
    9fbc:	89b4a297          	auipc	t0,0x89b4a
    9fc0:	35092117          	auipc	sp,0x35092
    9fc4:	0040d133          	srl	sp,ra,tp
    9fc8:	003094b3          	sll	s1,ra,gp
    9fcc:	db4f8197          	auipc	gp,0xdb4f8
    9fd0:	4161d2b3          	sra	t0,gp,s6
    9fd4:	0047a0b7          	lui	ra,0x47a
    9fd8:	007300b3          	add	ra,t1,t2
    9fdc:	814eb117          	auipc	sp,0x814eb
    9fe0:	9a41c113          	xori	sp,gp,-1628
    9fe4:	91f0e193          	ori	gp,ra,-1761
    9fe8:	414cb397          	auipc	t2,0x414cb
    9fec:	8ad301b7          	lui	gp,0x8ad30
    9ff0:	6aca10b7          	lui	ra,0x6aca1
    9ff4:	8c0a8197          	auipc	gp,0x8c0a8
    9ff8:	002242b3          	xor	t0,tp,sp
    9ffc:	21f04013          	xori	zero,zero,543
    a000:	f1724097          	auipc	ra,0xf1724
    a004:	66865117          	auipc	sp,0x66865
    a008:	a457d0b7          	lui	ra,0xa457d
    a00c:	d3853117          	auipc	sp,0xd3853
    a010:	0f8341b7          	lui	gp,0xf834
    a014:	0030d133          	srl	sp,ra,gp
    a018:	6bb14113          	xori	sp,sp,1723
    a01c:	006470b3          	and	ra,s0,t1
    a020:	6e0f5097          	auipc	ra,0x6e0f5
    a024:	9ca48397          	auipc	t2,0x9ca48
    a028:	40210333          	sub	t1,sp,sp
    a02c:	b6e412b7          	lui	t0,0xb6e41
    a030:	00010193          	mv	gp,sp
    a034:	d2218ee3          	beq	gp,sp,0x9d70
    a038:	75414113          	xori	sp,sp,1876
    a03c:	0031a033          	slt	zero,gp,gp
    a040:	0010c2b3          	xor	t0,ra,ra
    a044:	0124f137          	lui	sp,0x124f
    a048:	759c71b7          	lui	gp,0x759c7
    a04c:	46c0b0b7          	lui	ra,0x46c0b
    a050:	ebc1e193          	ori	gp,gp,-324
    a054:	0030c2b3          	xor	t0,ra,gp
    a058:	998290b7          	lui	ra,0x99829
    a05c:	4010d6b3          	sra	a3,ra,ra
    a060:	7251f1b7          	lui	gp,0x7251f
    a064:	b0e18293          	addi	t0,gp,-1266 # 0x7251eb0e
    a068:	000670b3          	and	ra,a2,zero
    a06c:	40438013          	addi	zero,t2,1028 # 0xffffffff9ca52428
    a070:	c4e6a0b7          	lui	ra,0xc4e6a
    a074:	01c12133          	slt	sp,sp,t3
    a078:	5200f0b7          	lui	ra,0x5200f
    a07c:	9a22f117          	auipc	sp,0x9a22f
    a080:	403300b3          	sub	ra,t1,gp
    a084:	0011a3b3          	slt	t2,gp,ra
    a088:	10cbc137          	lui	sp,0x10cbc
    a08c:	3a80e793          	ori	a5,ra,936
    a090:	139ee117          	auipc	sp,0x139ee
    a094:	003313b3          	sll	t2,t1,gp
    a098:	246fa0b7          	lui	ra,0x246fa
    a09c:	bde49117          	auipc	sp,0xbde49
    a0a0:	0031f1b3          	and	gp,gp,gp
    a0a4:	00308133          	add	sp,ra,gp
    a0a8:	0021f2b3          	and	t0,gp,sp
    a0ac:	00722133          	slt	sp,tp,t2
    a0b0:	36e2c113          	xori	sp,t0,878
    a0b4:	97666497          	auipc	s1,0x97666
    a0b8:	44274097          	auipc	ra,0x44274
    a0bc:	0091d133          	srl	sp,gp,s1
    a0c0:	00000097          	auipc	ra,0x0
    a0c4:	248080e7          	jalr	584(ra) # 0xa308
    a0c8:	001d50b3          	srl	ra,s10,ra
    a0cc:	b9bea0b7          	lui	ra,0xb9bea
    a0d0:	002126b3          	slt	a3,sp,sp
    a0d4:	002370b3          	and	ra,t1,sp
    a0d8:	00317333          	and	t1,sp,gp
    a0dc:	34d0f113          	andi	sp,ra,845
    a0e0:	b26ee1b7          	lui	gp,0xb26ee
    a0e4:	006d80b3          	add	ra,s11,t1
    a0e8:	0040e0b3          	or	ra,ra,tp
    a0ec:	0031d133          	srl	sp,gp,gp
    a0f0:	0060a133          	slt	sp,ra,t1
    a0f4:	0041c2b3          	xor	t0,gp,tp
    a0f8:	86d34293          	xori	t0,t1,-1939
    a0fc:	21440137          	lui	sp,0x21440
    a100:	48316393          	ori	t2,sp,1155
    a104:	8f675197          	auipc	gp,0x8f675
    a108:	ea722137          	lui	sp,0xea722
    a10c:	00727133          	and	sp,tp,t2
    a110:	435561b7          	lui	gp,0x43556
    a114:	a7fe1117          	auipc	sp,0xa7fe1
    a118:	9640c913          	xori	s2,ra,-1692
    a11c:	003181b3          	add	gp,gp,gp
    a120:	406201b3          	sub	gp,tp,t1
    a124:	b7a14117          	auipc	sp,0xb7a14
    a128:	92710193          	addi	gp,sp,-1753 # 0xffffffffb7a1da4b
    a12c:	00715db3          	srl	s11,sp,t2
    a130:	00115133          	srl	sp,sp,ra
    a134:	40108133          	sub	sp,ra,ra
    a138:	40335033          	sra	zero,t1,gp
    a13c:	26c24213          	xori	tp,tp,620
    a140:	417931b7          	lui	gp,0x41793
    a144:	0056e133          	or	sp,a3,t0
    a148:	197ff317          	auipc	t1,0x197ff
    a14c:	0010f0b3          	and	ra,ra,ra
    a150:	00000217          	auipc	tp,0x0
    a154:	00820167          	jalr	sp,8(tp) # 0x0
    a158:	0033f133          	and	sp,t2,gp
    a15c:	0030d1b3          	srl	gp,ra,gp
    a160:	33dbd397          	auipc	t2,0x33dbd
    a164:	00c02117          	auipc	sp,0xc02
    a168:	024d8197          	auipc	gp,0x24d8
    a16c:	40f0d133          	sra	sp,ra,a5
    a170:	8cda8117          	auipc	sp,0x8cda8
    a174:	653ad137          	lui	sp,0x653ad
    a178:	99016493          	ori	s1,sp,-1648
    a17c:	00217db3          	and	s11,sp,sp
    a180:	4021d0b3          	sra	ra,gp,sp
    a184:	5bc2f193          	andi	gp,t0,1468
    a188:	8bfca337          	lui	t1,0x8bfca
    a18c:	fe30c193          	xori	gp,ra,-29
    a190:	5da3c893          	xori	a7,t2,1498
    a194:	403081b3          	sub	gp,ra,gp
    a198:	cf78b117          	auipc	sp,0xcf78b
    a19c:	edca3137          	lui	sp,0xedca3
    a1a0:	20bff197          	auipc	gp,0x20bff
    a1a4:	4021d433          	sra	s0,gp,sp
    a1a8:	eb863137          	lui	sp,0xeb863
    a1ac:	0010b2b3          	sltu	t0,ra,ra
    a1b0:	f3f17193          	andi	gp,sp,-193
    a1b4:	6d728113          	addi	sp,t0,1751 # 0xffffffffb6e416d7
    a1b8:	40615333          	sra	t1,sp,t1
    a1bc:	253c1097          	auipc	ra,0x253c1
    a1c0:	00326133          	or	sp,tp,gp
    a1c4:	00318333          	add	t1,gp,gp
    a1c8:	400101b3          	sub	gp,sp,zero
    a1cc:	44c0c093          	xori	ra,ra,1100
    a1d0:	0000f6b3          	and	a3,ra,zero
    a1d4:	402580b3          	sub	ra,a1,sp
    a1d8:	35eac997          	auipc	s3,0x35eac
    a1dc:	006071b3          	and	gp,zero,t1
    a1e0:	00000697          	auipc	a3,0x0
    a1e4:	1c068667          	jalr	a2,448(a3) # 0xa3a0
    a1e8:	39972017          	auipc	zero,0x39972
    a1ec:	a253f113          	andi	sp,t2,-1499
    a1f0:	5617d197          	auipc	gp,0x5617d
    a1f4:	001131b3          	sltu	gp,sp,ra
    a1f8:	00235133          	srl	sp,t1,sp
    a1fc:	402280b3          	sub	ra,t0,sp
    a200:	4850e393          	ori	t2,ra,1157
    a204:	538de117          	auipc	sp,0x538de
    a208:	ddea27b7          	lui	a5,0xddea2
    a20c:	c963f097          	auipc	ra,0xc963f
    a210:	0055d133          	srl	sp,a1,t0
    a214:	5fbda097          	auipc	ra,0x5fbda
    a218:	d6f08193          	addi	gp,ra,-657 # 0x5fbe3f83
    a21c:	00105133          	srl	sp,zero,ra
    a220:	25020137          	lui	sp,0x25020
    a224:	0030a1b3          	slt	gp,ra,gp
    a228:	4483b0b7          	lui	ra,0x4483b
    a22c:	5920a237          	lui	tp,0x5920a
    a230:	8f87f0b7          	lui	ra,0x8f87f
    a234:	1d298117          	auipc	sp,0x1d298
    a238:	0033a1b3          	slt	gp,t2,gp
    a23c:	3e024393          	xori	t2,tp,992
    a240:	d1352197          	auipc	gp,0xd1352
    a244:	00119333          	sll	t1,gp,ra
    a248:	0020c133          	xor	sp,ra,sp
    a24c:	0021c133          	xor	sp,gp,sp
    a250:	007af0b3          	and	ra,s5,t2
    a254:	caba74b7          	lui	s1,0xcaba7
    a258:	e468c137          	lui	sp,0xe468c
    a25c:	403f07b3          	sub	a5,t5,gp
    a260:	d66b6717          	auipc	a4,0xd66b6
    a264:	fb53f193          	andi	gp,t2,-75
    a268:	0d610293          	addi	t0,sp,214 # 0xffffffffe468c0d6
    a26c:	355521b7          	lui	gp,0x35552
    a270:	0010e333          	or	t1,ra,ra
    a274:	78f40097          	auipc	ra,0x78f40
    a278:	00000093          	li	ra,0
    a27c:	c8008ee3          	beqz	ra,0x9f18
    a280:	0020a1b3          	slt	gp,ra,sp
    a284:	28f0e0b7          	lui	ra,0x28f0e
    a288:	b7494137          	lui	sp,0xb7494
    a28c:	95c2f113          	andi	sp,t0,-1700
    a290:	0b9f10b7          	lui	ra,0xb9f1
    a294:	24a75d17          	auipc	s10,0x24a75
    a298:	e9f2b197          	auipc	gp,0xe9f2b
    a29c:	ad5af117          	auipc	sp,0xad5af
    a2a0:	9400f113          	andi	sp,ra,-1728
    a2a4:	a51d5197          	auipc	gp,0xa51d5
    a2a8:	00d60133          	add	sp,a2,a3
    a2ac:	9091c093          	xori	ra,gp,-1783
    a2b0:	6972c117          	auipc	sp,0x6972c
    a2b4:	40220133          	sub	sp,tp,sp
    a2b8:	fc0da137          	lui	sp,0xfc0da
    a2bc:	86ffb397          	auipc	t2,0x86ffb
    a2c0:	0000e333          	or	t1,ra,zero
    a2c4:	09c16037          	lui	zero,0x9c16
    a2c8:	2cfd21b7          	lui	gp,0x2cfd2
    a2cc:	0290c093          	xori	ra,ra,41
    a2d0:	9ec413b7          	lui	t2,0x9ec41
    a2d4:	638c3b97          	auipc	s7,0x638c3
    a2d8:	bfd60197          	auipc	gp,0xbfd60
    a2dc:	9e9310b7          	lui	ra,0x9e931
    a2e0:	4f218193          	addi	gp,gp,1266 # 0xffffffffbfd6a7ca
    a2e4:	d3da6137          	lui	sp,0xd3da6
    a2e8:	2d282197          	auipc	gp,0x2d282
    a2ec:	0050a1b3          	slt	gp,ra,t0
    a2f0:	6987a217          	auipc	tp,0x6987a
    a2f4:	af136813          	ori	a6,t1,-1295
    a2f8:	b3a1c013          	xori	zero,gp,-1222
    a2fc:	d6a8a3b7          	lui	t2,0xd6a8a
    a300:	00000097          	auipc	ra,0x0
    a304:	d38083e7          	jalr	t2,-712(ra) # 0xa038
    a308:	a9610693          	addi	a3,sp,-1386 # 0xffffffffd3da5a96
    a30c:	f5304113          	xori	sp,zero,-173
    a310:	fde0f113          	andi	sp,ra,-34
    a314:	c114a117          	auipc	sp,0xc114a
    a318:	a5f000b7          	lui	ra,0xa5f00
    a31c:	629fb0b7          	lui	ra,0x629fb
    a320:	9b2e8297          	auipc	t0,0x9b2e8
    a324:	2a4a8093          	addi	ra,s5,676
    a328:	002185b3          	add	a1,gp,sp
    a32c:	220a2217          	auipc	tp,0x220a2
    a330:	075b0097          	auipc	ra,0x75b0
    a334:	0020e1b3          	or	gp,ra,sp
    a338:	84c08393          	addi	t2,ra,-1972 # 0x75b9b7c
    a33c:	44107113          	andi	sp,zero,1089
    a340:	1b0b4197          	auipc	gp,0x1b0b4
    a344:	6131e193          	ori	gp,gp,1555
    a348:	402081b3          	sub	gp,ra,sp
    a34c:	a20fc037          	lui	zero,0xa20fc
    a350:	3c990197          	auipc	gp,0x3c990
    a354:	4ee16313          	ori	t1,sp,1262
    a358:	01d102b3          	add	t0,sp,t4
    a35c:	002021b3          	sgtz	gp,sp
    a360:	00118033          	add	zero,gp,ra
    a364:	04717193          	andi	gp,sp,71
    a368:	4616f313          	andi	t1,a3,1121
    a36c:	2b817193          	andi	gp,sp,696
    a370:	ddb34193          	xori	gp,t1,-549
    a374:	0060beb3          	sltu	t4,ra,t1
    a378:	00430033          	add	zero,t1,tp
    a37c:	001171b3          	and	gp,sp,ra
    a380:	fd244397          	auipc	t2,0xfd244
    a384:	3f3061b7          	lui	gp,0x3f306
    a388:	00231133          	sll	sp,t1,sp
    a38c:	5e1a2097          	auipc	ra,0x5e1a2
    a390:	5950c393          	xori	t2,ra,1429
    a394:	2477e097          	auipc	ra,0x2477e
    a398:	00030093          	mv	ra,t1
    a39c:	08608e63          	beq	ra,t1,0xa438
    a3a0:	0030f1b3          	and	gp,ra,gp
    a3a4:	006263b3          	or	t2,tp,t1
    a3a8:	4205a117          	auipc	sp,0x4205a
    a3ac:	00417133          	and	sp,sp,tp
    a3b0:	00108033          	add	zero,ra,ra
    a3b4:	000114b3          	sll	s1,sp,zero
    a3b8:	401101b3          	sub	gp,sp,ra
    a3bc:	4032d3b3          	sra	t2,t0,gp
    a3c0:	0010b033          	sltu	zero,ra,ra
    a3c4:	c67e90b7          	lui	ra,0xc67e9
    a3c8:	d6cd6193          	ori	gp,s10,-660
    a3cc:	0000a133          	sltz	sp,ra
    a3d0:	744821b7          	lui	gp,0x74482
    a3d4:	f9117017          	auipc	zero,0xf9117
    a3d8:	00211133          	sll	sp,sp,sp
    a3dc:	17f60117          	auipc	sp,0x17f60
    a3e0:	0001b1b3          	sltu	gp,gp,zero
    a3e4:	98f0d097          	auipc	ra,0x98f0d
    a3e8:	403351b3          	sra	gp,t1,gp
    a3ec:	d36913b7          	lui	t2,0xd3691
    a3f0:	4123e193          	ori	gp,t2,1042
    a3f4:	3f071117          	auipc	sp,0x3f071
    a3f8:	7d8c2117          	auipc	sp,0x7d8c2
    a3fc:	0021b233          	sltu	tp,gp,sp
    a400:	0020d133          	srl	sp,ra,sp
    a404:	8cf48197          	auipc	gp,0x8cf48
    a408:	7655f197          	auipc	gp,0x7655f
    a40c:	e3f37097          	auipc	ra,0xe3f37
    a410:	70f28013          	addi	zero,t0,1807 # 0xffffffff9b2f2a2f
    a414:	40378233          	sub	tp,a5,gp
    a418:	9e7aa0b7          	lui	ra,0x9e7aa
    a41c:	40120133          	sub	sp,tp,ra
    a420:	89ca33b7          	lui	t2,0x89ca3
    a424:	4e58c117          	auipc	sp,0x4e58c
    a428:	e49ff1b7          	lui	gp,0xe49ff
    a42c:	003111b3          	sll	gp,sp,gp
    a430:	8a1188e3          	beq	gp,ra,0x9ce0
    a434:	8adff36f          	jal	t1,0x9ce0
    a438:	0030e0b3          	or	ra,ra,gp
    a43c:	051ab397          	auipc	t2,0x51ab
    a440:	006120b3          	slt	ra,sp,t1
    a444:	004083b3          	add	t2,ra,tp
    a448:	b05b1197          	auipc	gp,0xb05b1
    a44c:	9c7a7137          	lui	sp,0x9c7a7
    a450:	e8328093          	addi	ra,t0,-381
    a454:	4f27c8b7          	lui	a7,0x4f27c
    a458:	0010c1b3          	xor	gp,ra,ra
    a45c:	4c8a4197          	auipc	gp,0x4c8a4
    a460:	d528a037          	lui	zero,0xd528a
    a464:	00309333          	sll	t1,ra,gp
    a468:	78709117          	auipc	sp,0x78709
    a46c:	304601b7          	lui	gp,0x30460
    a470:	0031d1b3          	srl	gp,gp,gp
    a474:	0150ba33          	sltu	s4,ra,s5
    a478:	0021b133          	sltu	sp,gp,sp
    a47c:	ba4fd097          	auipc	ra,0xba4fd
    a480:	002181b3          	add	gp,gp,sp
    a484:	0020a0b3          	slt	ra,ra,sp
    a488:	00314333          	xor	t1,sp,gp
    a48c:	be507193          	andi	gp,zero,-1051
    a490:	d42c21b7          	lui	gp,0xd42c2
    a494:	40118133          	sub	sp,gp,ra
    a498:	0a314093          	xori	ra,sp,163
    a49c:	b9014093          	xori	ra,sp,-1136
    a4a0:	01d2b0b3          	sltu	ra,t0,t4
    a4a4:	e3618193          	addi	gp,gp,-458 # 0xffffffffd42c1e36
    a4a8:	60d86097          	auipc	ra,0x60d86
    a4ac:	003140b3          	xor	ra,sp,gp
    a4b0:	d5f6d117          	auipc	sp,0xd5f6d
    a4b4:	40410333          	sub	t1,sp,tp
    a4b8:	131f20b7          	lui	ra,0x131f2
    a4bc:	004310b3          	sll	ra,t1,tp
    a4c0:	5573b397          	auipc	t2,0x5573b
    a4c4:	00219133          	sll	sp,gp,sp
    a4c8:	0023f133          	and	sp,t2,sp
    a4cc:	6d762117          	auipc	sp,0x6d762
    a4d0:	1800de63          	bgez	ra,0xa66c
    a4d4:	1800cc63          	bltz	ra,0xa66c
    a4d8:	ac386d37          	lui	s10,0xac386
    a4dc:	d63550b7          	lui	ra,0xd6355
    a4e0:	a4755217          	auipc	tp,0xa4755
    a4e4:	b8617193          	andi	gp,sp,-1146
    a4e8:	003101b3          	add	gp,sp,gp
    a4ec:	42310313          	addi	t1,sp,1059 # 0x6d76c8ef
    a4f0:	00114333          	xor	t1,sp,ra
    a4f4:	09c1f093          	andi	ra,gp,156
    a4f8:	007080b3          	add	ra,ra,t2
    a4fc:	001140b3          	xor	ra,sp,ra
    a500:	0030f1b3          	and	gp,ra,gp
    a504:	61314213          	xori	tp,sp,1555
    a508:	0040c1b3          	xor	gp,ra,tp
    a50c:	bbb348b7          	lui	a7,0xbbb34
    a510:	40525133          	sra	sp,tp,t0
    a514:	40218233          	sub	tp,gp,sp
    a518:	0021c0b3          	xor	ra,gp,sp
    a51c:	19c1e113          	ori	sp,gp,412
    a520:	9d71f093          	andi	ra,gp,-1577
    a524:	e4c0f093          	andi	ra,ra,-436
    a528:	43fd41b7          	lui	gp,0x43fd4
    a52c:	7f518393          	addi	t2,gp,2037 # 0x43fd47f5
    a530:	e6bd10b7          	lui	ra,0xe6bd1
    a534:	3a35c113          	xori	sp,a1,931
    a538:	34d3f0b7          	lui	ra,0x34d3f
    a53c:	00410133          	add	sp,sp,tp
    a540:	375221b7          	lui	gp,0x37522
    a544:	00f23333          	sltu	t1,tp,a5
    a548:	00b220b3          	slt	ra,tp,a1
    a54c:	001583b3          	add	t2,a1,ra
    a550:	00018263          	beqz	gp,0xa554
    a554:	f08ff16f          	jal	sp,0x9c5c
    a558:	2a35a137          	lui	sp,0x2a35a
    a55c:	0030d133          	srl	sp,ra,gp
    a560:	c42d02b7          	lui	t0,0xc42d0
    a564:	da91e093          	ori	ra,gp,-599
    a568:	04f16313          	ori	t1,sp,79
    a56c:	00e49133          	sll	sp,s1,a4
    a570:	12a870b7          	lui	ra,0x12a87
    a574:	030aa337          	lui	t1,0x30aa
    a578:	0023f1b3          	and	gp,t2,sp
    a57c:	ebb0e213          	ori	tp,ra,-325
    a580:	c574e0b7          	lui	ra,0xc574e
    a584:	e7400b17          	auipc	s6,0xe7400
    a588:	3813f0b7          	lui	ra,0x3813f
    a58c:	0036e133          	or	sp,a3,gp
    a590:	e4e27113          	andi	sp,tp,-434
    a594:	0030b1b3          	sltu	gp,ra,gp
    a598:	074b1097          	auipc	ra,0x74b1
    a59c:	ffd5c117          	auipc	sp,0xffd5c
    a5a0:	5762b117          	auipc	sp,0x5762b
    a5a4:	413680b3          	sub	ra,a3,s3
    a5a8:	00d0b1b3          	sltu	gp,ra,a3
    a5ac:	0011b233          	sltu	tp,gp,ra
    a5b0:	001280b3          	add	ra,t0,ra
    a5b4:	3abbcf37          	lui	t5,0x3abbc
    a5b8:	d613df37          	lui	t5,0xd613d
    a5bc:	005111b3          	sll	gp,sp,t0
    a5c0:	407101b3          	sub	gp,sp,t2
    a5c4:	0031b3b3          	sltu	t2,gp,gp
    a5c8:	df392137          	lui	sp,0xdf392
    a5cc:	00018113          	mv	sp,gp
    a5d0:	ca3108e3          	beq	sp,gp,0xa280
    a5d4:	808cb337          	lui	t1,0x808cb
    a5d8:	fc118293          	addi	t0,gp,-63 # 0x37521fc1
    a5dc:	5301f093          	andi	ra,gp,1328
    a5e0:	0031af33          	slt	t5,gp,gp
    a5e4:	cc84f313          	andi	t1,s1,-824
    a5e8:	002630b3          	sltu	ra,a2,sp
    a5ec:	2017f093          	andi	ra,a5,513
    a5f0:	48f851b7          	lui	gp,0x48f85
    a5f4:	fb4ac1b7          	lui	gp,0xfb4ac
    a5f8:	19155197          	auipc	gp,0x19155
    a5fc:	003170b3          	and	ra,sp,gp
    a600:	35285137          	lui	sp,0x35285
    a604:	d1966137          	lui	sp,0xd1966
    a608:	5ea3b0b7          	lui	ra,0x5ea3b
    a60c:	0f7d2217          	auipc	tp,0xf7d2
    a610:	00f0d0b3          	srl	ra,ra,a5
    a614:	60528093          	addi	ra,t0,1541 # 0xffffffffc42d0605
    a618:	e4efe197          	auipc	gp,0xe4efe
    a61c:	ee814093          	xori	ra,sp,-280
    a620:	15258093          	addi	ra,a1,338
    a624:	401382b3          	sub	t0,t2,ra
    a628:	0021a133          	slt	sp,gp,sp
    a62c:	402150b3          	sra	ra,sp,sp
    a630:	07a10113          	addi	sp,sp,122 # 0xffffffffd196607a
    a634:	00518333          	add	t1,gp,t0
    a638:	00325233          	srl	tp,tp,gp
    a63c:	0011b1b3          	sltu	gp,gp,ra
    a640:	12f7b1b7          	lui	gp,0x12f7b
    a644:	007170b3          	and	ra,sp,t2
    a648:	0113c1b3          	xor	gp,t2,a7
    a64c:	ef04d1b7          	lui	gp,0xef04d
    a650:	9d72e1b7          	lui	gp,0x9d72e
    a654:	0016c0b3          	xor	ra,a3,ra
    a658:	6945f097          	auipc	ra,0x6945f
    a65c:	2aa30137          	lui	sp,0x2aa30
    a660:	3ab14293          	xori	t0,sp,939
    a664:	00128263          	beq	t0,ra,0xa668
    a668:	f9cff1ef          	jal	gp,0x9e04
    a66c:	0021d333          	srl	t1,gp,sp
    a670:	bcb17093          	andi	ra,sp,-1077
    a674:	eb414093          	xori	ra,sp,-332
    a678:	f2802097          	auipc	ra,0xf2802
    a67c:	0031a133          	slt	sp,gp,gp
    a680:	8a91c193          	xori	gp,gp,-1879
    a684:	488c1137          	lui	sp,0x488c1
    a688:	02305097          	auipc	ra,0x2305
    a68c:	d0b0c113          	xori	sp,ra,-757
    a690:	0020b1b3          	sltu	gp,ra,sp
    a694:	b8323137          	lui	sp,0xb8323
    a698:	401150b3          	sra	ra,sp,ra
    a69c:	0e5bf1b7          	lui	gp,0xe5bf
    a6a0:	40308333          	sub	t1,ra,gp
    a6a4:	0011c2b3          	xor	t0,gp,ra
    a6a8:	004139b3          	sltu	s3,sp,tp
    a6ac:	b8814093          	xori	ra,sp,-1144
    a6b0:	69963097          	auipc	ra,0x69963
    a6b4:	00a1f0b3          	and	ra,gp,a0
    a6b8:	60bf40b7          	lui	ra,0x60bf4
    a6bc:	0ed25197          	auipc	gp,0xed25
    a6c0:	32d0a2b7          	lui	t0,0x32d0a
    a6c4:	00331133          	sll	sp,t1,gp
    a6c8:	0010a333          	slt	t1,ra,ra
    a6cc:	da9410b7          	lui	ra,0xda941
    a6d0:	000bd0b3          	srl	ra,s7,zero
    a6d4:	fefa01b7          	lui	gp,0xfefa0
    a6d8:	8c368ce3          	beq	a3,gp,0x9fb0
    a6dc:	8d5ff16f          	jal	sp,0x9fb0
    a6e0:	0033f133          	and	sp,t2,gp
    a6e4:	002190b3          	sll	ra,gp,sp
    a6e8:	0030a1b3          	slt	gp,ra,gp
    a6ec:	003123b3          	slt	t2,sp,gp
    a6f0:	92fb8097          	auipc	ra,0x92fb8
    a6f4:	402001b3          	neg	gp,sp
    a6f8:	fbfbe037          	lui	zero,0xfbfbe
    a6fc:	5b90f213          	andi	tp,ra,1465
    a700:	0002b1b3          	sltu	gp,t0,zero
    a704:	403150b3          	sra	ra,sp,gp
    a708:	2b85a097          	auipc	ra,0x2b85a
    a70c:	003151b3          	srl	gp,sp,gp
    a710:	7ef237b7          	lui	a5,0x7ef23
    a714:	acd1c1b7          	lui	gp,0xacd1c
    a718:	0020d133          	srl	sp,ra,sp
    a71c:	55ede037          	lui	zero,0x55ede
    a720:	b4ac6197          	auipc	gp,0xb4ac6
    a724:	dd2d0797          	auipc	a5,0xdd2d0
    a728:	409080b3          	sub	ra,ra,s1
    a72c:	1ab10093          	addi	ra,sp,427 # 0xffffffffb83231ab
    a730:	280940b7          	lui	ra,0x28094
    a734:	4dd6f197          	auipc	gp,0x4dd6f
    a738:	09616113          	ori	sp,sp,150
    a73c:	4875d3b7          	lui	t2,0x4875d
    a740:	b44ec097          	auipc	ra,0xb44ec
    a744:	00215133          	srl	sp,sp,sp
    a748:	6600e137          	lui	sp,0x6600e
    a74c:	40b185b3          	sub	a1,gp,a1
    a750:	43c1f0b7          	lui	ra,0x43c1f
    a754:	001871b3          	and	gp,a6,ra
    a758:	f32d8137          	lui	sp,0xf32d8
    a75c:	6a9af1b7          	lui	gp,0x6a9af
    a760:	15fa61b7          	lui	gp,0x15fa6
    a764:	1d41f093          	andi	ra,gp,468
    a768:	00360263          	beq	a2,gp,0xa76c
    a76c:	f30ff0ef          	jal	ra,0x9e9c
    a770:	0010e0b3          	or	ra,ra,ra
    a774:	69ed6097          	auipc	ra,0x69ed6
    a778:	47f08093          	addi	ra,ra,1151 # 0x69ee0bf3
    a77c:	afd64217          	auipc	tp,0xafd64
    a780:	74e0e093          	ori	ra,ra,1870
    a784:	32817093          	andi	ra,sp,808
    a788:	202a5117          	auipc	sp,0x202a5
    a78c:	2f31c193          	xori	gp,gp,755
    a790:	f4b401b7          	lui	gp,0xf4b40
    a794:	00318133          	add	sp,gp,gp
    a798:	899570b7          	lui	ra,0x89957
    a79c:	5748c097          	auipc	ra,0x5748c
    a7a0:	b0f5f337          	lui	t1,0xb0f5f
    a7a4:	00133133          	sltu	sp,t1,ra
    a7a8:	74944097          	auipc	ra,0x74944
    a7ac:	217a1097          	auipc	ra,0x217a1
    a7b0:	23d17193          	andi	gp,sp,573
    a7b4:	00d181b3          	add	gp,gp,a3
    a7b8:	38c1e093          	ori	ra,gp,908
    a7bc:	a136c097          	auipc	ra,0xa136c
    a7c0:	7427b197          	auipc	gp,0x7427b
    a7c4:	0020e133          	or	sp,ra,sp
    a7c8:	7e51a137          	lui	sp,0x7e51a
    a7cc:	f0a1f093          	andi	ra,gp,-246
    a7d0:	46214193          	xori	gp,sp,1122
    a7d4:	4bb2c0b7          	lui	ra,0x4bb2c
    a7d8:	6c1973b7          	lui	t2,0x6c197
    a7dc:	da2f80b7          	lui	ra,0xda2f8
    a7e0:	ae2d1137          	lui	sp,0xae2d1
    a7e4:	0764a337          	lui	t1,0x764a
    a7e8:	45ea1197          	auipc	gp,0x45ea1
    a7ec:	0050d6b3          	srl	a3,ra,t0
    a7f0:	4d316097          	auipc	ra,0x4d316
    a7f4:	403181b3          	sub	gp,gp,gp
    a7f8:	343a0463          	beq	s4,gp,0xab40
    a7fc:	3440016f          	jal	sp,0xab40
    a800:	40408133          	sub	sp,ra,tp
    a804:	002e30b3          	sltu	ra,t3,sp
    a808:	106e51b7          	lui	gp,0x106e5
    a80c:	b241f093          	andi	ra,gp,-1244
    a810:	00613333          	sltu	t1,sp,t1
    a814:	f8dc91b7          	lui	gp,0xf8dc9
    a818:	611910b7          	lui	ra,0x61191
    a81c:	0030d1b3          	srl	gp,ra,gp
    a820:	e1f08113          	addi	sp,ra,-481 # 0x61190e1f
    a824:	001210b3          	sll	ra,tp,ra
    a828:	d653b237          	lui	tp,0xd653b
    a82c:	b321ea93          	ori	s5,gp,-1230
    a830:	01e09133          	sll	sp,ra,t5
    a834:	000262b3          	or	t0,tp,zero
    a838:	00225d33          	srl	s10,tp,sp
    a83c:	1ea48113          	addi	sp,s1,490 # 0xffffffffcaba71ea
    a840:	155d01b7          	lui	gp,0x155d0
    a844:	4872f197          	auipc	gp,0x4872f
    a848:	0020d0b3          	srl	ra,ra,sp
    a84c:	00113133          	sltu	sp,sp,ra
    a850:	0051b0b3          	sltu	ra,gp,t0
    a854:	92600137          	lui	sp,0x92600
    a858:	d30c82b7          	lui	t0,0xd30c8
    a85c:	ac41c013          	xori	zero,gp,-1340
    a860:	87b0c093          	xori	ra,ra,-1925
    a864:	783e7137          	lui	sp,0x783e7
    a868:	da548237          	lui	tp,0xda548
    a86c:	89908013          	addi	zero,ra,-1895
    a870:	a8fe60b7          	lui	ra,0xa8fe6
    a874:	00068193          	mv	gp,a3
    a878:	12d18463          	beq	gp,a3,0xa9a0
    a87c:	0010a133          	slt	sp,ra,ra
    a880:	68738017          	auipc	zero,0x68738
    a884:	e50f1117          	auipc	sp,0xe50f1
    a888:	003186b3          	add	a3,gp,gp
    a88c:	0e81f313          	andi	t1,gp,232
    a890:	0053e0b3          	or	ra,t2,t0
    a894:	93369217          	auipc	tp,0x93369
    a898:	40b00333          	neg	t1,a1
    a89c:	95b18093          	addi	ra,gp,-1701 # 0x4873919f
    a8a0:	60dc30b7          	lui	ra,0x60dc3
    a8a4:	001250b3          	srl	ra,tp,ra
    a8a8:	07576097          	auipc	ra,0x7576
    a8ac:	f0a9e0b7          	lui	ra,0xf0a9e
    a8b0:	00211133          	sll	sp,sp,sp
    a8b4:	0040b1b3          	sltu	gp,ra,tp
    a8b8:	18d17913          	andi	s2,sp,397
    a8bc:	698521b7          	lui	gp,0x69852
    a8c0:	00015097          	auipc	ra,0x15
    a8c4:	632da217          	auipc	tp,0x632da
    a8c8:	00322133          	slt	sp,tp,gp
    a8cc:	b240f093          	andi	ra,ra,-1244
    a8d0:	003a85b3          	add	a1,s5,gp
    a8d4:	0010a0b3          	slt	ra,ra,ra
    a8d8:	56bc4097          	auipc	ra,0x56bc4
    a8dc:	402081b3          	sub	gp,ra,sp
    a8e0:	e7b14013          	xori	zero,sp,-389
    a8e4:	0da8c137          	lui	sp,0xda8c
    a8e8:	a8fb9837          	lui	a6,0xa8fb9
    a8ec:	e45ff197          	auipc	gp,0xe45ff
    a8f0:	297be3b7          	lui	t2,0x297be
    a8f4:	00300133          	add	sp,zero,gp
    a8f8:	001161b3          	or	gp,sp,ra
    a8fc:	f3c67097          	auipc	ra,0xf3c67
    a900:	bcfcc337          	lui	t1,0xbcfcc
    a904:	6221f063          	bgeu	gp,sp,0xaf24
    a908:	6021ee63          	bltu	gp,sp,0xaf24
    a90c:	bc5904b7          	lui	s1,0xbc590
    a910:	5b2480b7          	lui	ra,0x5b248
    a914:	001341b3          	xor	gp,t1,ra
    a918:	1405e317          	auipc	t1,0x1405e
    a91c:	0010d3b3          	srl	t2,ra,ra
    a920:	20238013          	addi	zero,t2,514 # 0x297be202
    a924:	002181b3          	add	gp,gp,sp
    a928:	0022c0b3          	xor	ra,t0,sp
    a92c:	0041a3b3          	slt	t2,gp,tp
    a930:	8f2a8237          	lui	tp,0x8f2a8
    a934:	8d2bb2b7          	lui	t0,0x8d2bb
    a938:	00206233          	or	tp,zero,sp
    a93c:	558a60b7          	lui	ra,0x558a6
    a940:	36b8b117          	auipc	sp,0x36b8b
    a944:	be3be197          	auipc	gp,0xbe3be
    a948:	004191b3          	sll	gp,gp,tp
    a94c:	00d0e233          	or	tp,ra,a3
    a950:	00315133          	srl	sp,sp,gp
    a954:	ee562097          	auipc	ra,0xee562
    a958:	001150b3          	srl	ra,sp,ra
    a95c:	e419c137          	lui	sp,0xe419c
    a960:	9cea2197          	auipc	gp,0x9cea2
    a964:	89161337          	lui	t1,0x89161
    a968:	4521e093          	ori	ra,gp,1106
    a96c:	40115133          	sra	sp,sp,ra
    a970:	c3004197          	auipc	gp,0xc3004
    a974:	12ea4137          	lui	sp,0x12ea4
    a978:	5ba28193          	addi	gp,t0,1466 # 0xffffffff8d2bb5ba
    a97c:	afb26117          	auipc	sp,0xafb26
    a980:	0061e1b3          	or	gp,gp,t1
    a984:	1160e093          	ori	ra,ra,278
    a988:	8cd632b7          	lui	t0,0x8cd63
    a98c:	9b368193          	addi	gp,a3,-1613
    a990:	0b807117          	auipc	sp,0xb807
    a994:	0038f1b3          	and	gp,a7,gp
    a998:	6e208c63          	beq	ra,sp,0xb090
    a99c:	6f4001ef          	jal	gp,0xb090
    a9a0:	005091b3          	sll	gp,ra,t0
    a9a4:	0038c0b3          	xor	ra,a7,gp
    a9a8:	7fff1117          	auipc	sp,0x7fff1
    a9ac:	d598ed17          	auipc	s10,0xd598e
    a9b0:	003180b3          	add	ra,gp,gp
    a9b4:	00226133          	or	sp,tp,sp
    a9b8:	0020b133          	sltu	sp,ra,sp
    a9bc:	cd717093          	andi	ra,sp,-809
    a9c0:	006130b3          	sltu	ra,sp,t1
    a9c4:	244b4097          	auipc	ra,0x244b4
    a9c8:	0010b0b3          	sltu	ra,ra,ra
    a9cc:	004241b3          	xor	gp,tp,tp
    a9d0:	4070d0b3          	sra	ra,ra,t2
    a9d4:	002174b3          	and	s1,sp,sp
    a9d8:	402d5133          	sra	sp,s10,sp
    a9dc:	ba2f6137          	lui	sp,0xba2f6
    a9e0:	00141133          	sll	sp,s0,ra
    a9e4:	0060c1b3          	xor	gp,ra,t1
    a9e8:	7e604097          	auipc	ra,0x7e604
    a9ec:	40218133          	sub	sp,gp,sp
    a9f0:	0bd99317          	auipc	t1,0xbd99
    a9f4:	0d16f117          	auipc	sp,0xd16f
    a9f8:	d581f013          	andi	zero,gp,-680
    a9fc:	65328393          	addi	t2,t0,1619 # 0xffffffff8cd63653
    aa00:	401100b3          	sub	ra,sp,ra
    aa04:	40fd81b3          	sub	gp,s11,a5
    aa08:	4e517093          	andi	ra,sp,1253
    aa0c:	fa908313          	addi	t1,ra,-87 # 0x7e60e991
    aa10:	00a0c133          	xor	sp,ra,a0
    aa14:	c511b137          	lui	sp,0xc511b
    aa18:	ce49d2b7          	lui	t0,0xce49d
    aa1c:	e8757097          	auipc	ra,0xe8757
    aa20:	f3d34197          	auipc	gp,0xf3d34
    aa24:	f6745297          	auipc	t0,0xf6745
    aa28:	41a083b3          	sub	t2,ra,s10
    aa2c:	00000097          	auipc	ra,0x0
    aa30:	d4408167          	jalr	sp,-700(ra) # 0xa770
    aa34:	00214eb3          	xor	t4,sp,sp
    aa38:	0626d1b7          	lui	gp,0x626d
    aa3c:	838d00b7          	lui	ra,0x838d0
    aa40:	00218133          	add	sp,gp,sp
    aa44:	08ce2117          	auipc	sp,0x8ce2
    aa48:	a3fe51b7          	lui	gp,0xa3fe5
    aa4c:	00316133          	or	sp,sp,gp
    aa50:	0032c133          	xor	sp,t0,gp
    aa54:	8c607193          	andi	gp,zero,-1850
    aa58:	ab825197          	auipc	gp,0xab825
    aa5c:	81134113          	xori	sp,t1,-2031
    aa60:	0030a1b3          	slt	gp,ra,gp
    aa64:	007181b3          	add	gp,gp,t2
    aa68:	00205333          	srl	t1,zero,sp
    aa6c:	e1762637          	lui	a2,0xe1762
    aa70:	4051d0b3          	sra	ra,gp,t0
    aa74:	3e95c193          	xori	gp,a1,1001
    aa78:	00237133          	and	sp,t1,sp
    aa7c:	4a134193          	xori	gp,t1,1185
    aa80:	f22b41b7          	lui	gp,0xf22b4
    aa84:	c000f113          	andi	sp,ra,-1024
    aa88:	da0a8017          	auipc	zero,0xda0a8
    aa8c:	003121b3          	slt	gp,sp,gp
    aa90:	0031f133          	and	sp,gp,gp
    aa94:	00228133          	add	sp,t0,sp
    aa98:	ba41f093          	andi	ra,gp,-1116
    aa9c:	6b4271b7          	lui	gp,0x6b427
    aaa0:	00e17133          	and	sp,sp,a4
    aaa4:	0020e1b3          	or	gp,ra,sp
    aaa8:	a771f393          	andi	t2,gp,-1417
    aaac:	002120b3          	slt	ra,sp,sp
    aab0:	e9d8a097          	auipc	ra,0xe9d8a
    aab4:	00312133          	slt	sp,sp,gp
    aab8:	0011c033          	xor	zero,gp,ra
    aabc:	1e142137          	lui	sp,0x1e142
    aac0:	51528213          	addi	tp,t0,1301 # 0xfffffffff674ff39
    aac4:	3e10f093          	andi	ra,ra,993
    aac8:	4c40de63          	bge	ra,tp,0xafa4
    aacc:	4c40cc63          	blt	ra,tp,0xafa4
    aad0:	b7c7e097          	auipc	ra,0xb7c7e
    aad4:	00323233          	sltu	tp,tp,gp
    aad8:	bfd14093          	xori	ra,sp,-1027
    aadc:	003141b3          	xor	gp,sp,gp
    aae0:	d48ed137          	lui	sp,0xd48ed
    aae4:	001121b3          	slt	gp,sp,ra
    aae8:	e9008113          	addi	sp,ra,-368 # 0xffffffffb7c88960
    aaec:	e9323197          	auipc	gp,0xe9323
    aaf0:	4030d1b3          	sra	gp,ra,gp
    aaf4:	a21cf1b7          	lui	gp,0xa21cf
    aaf8:	72b1f093          	andi	ra,gp,1835
    aafc:	8c316113          	ori	sp,sp,-1853
    ab00:	e57180b7          	lui	ra,0xe5718
    ab04:	0033a0b3          	slt	ra,t2,gp
    ab08:	402050b3          	sra	ra,zero,sp
    ab0c:	0000f533          	and	a0,ra,zero
    ab10:	c61de017          	auipc	zero,0xc61de
    ab14:	35597397          	auipc	t2,0x35597
    ab18:	c6708113          	addi	sp,ra,-921 # 0xffffffffe5717c67
    ab1c:	4fb16593          	ori	a1,sp,1275
    ab20:	00101a33          	sll	s4,zero,ra
    ab24:	001191b3          	sll	gp,gp,ra
    ab28:	f398e1b7          	lui	gp,0xf398e
    ab2c:	f4bf8097          	auipc	ra,0xf4bf8
    ab30:	0c1c2137          	lui	sp,0xc1c2
    ab34:	fd2e7117          	auipc	sp,0xfd2e7
    ab38:	00018093          	mv	ra,gp
    ab3c:	d43080e3          	beq	ra,gp,0xa87c
    ab40:	9340f337          	lui	t1,0x9340f
    ab44:	60e26197          	auipc	gp,0x60e26
    ab48:	54928193          	addi	gp,t0,1353
    ab4c:	20173097          	auipc	ra,0x20173
    ab50:	5a90e113          	ori	sp,ra,1449
    ab54:	4011d233          	sra	tp,gp,ra
    ab58:	e1528213          	addi	tp,t0,-491
    ab5c:	001181b3          	add	gp,gp,ra
    ab60:	1e11f193          	andi	gp,gp,481
    ab64:	003146b3          	xor	a3,sp,gp
    ab68:	1ab38013          	addi	zero,t2,427 # 0x355a1cbf
    ab6c:	0070c133          	xor	sp,ra,t2
    ab70:	401157b3          	sra	a5,sp,ra
    ab74:	40788933          	sub	s2,a7,t2
    ab78:	4218b1b7          	lui	gp,0x4218b
    ab7c:	4010d3b3          	sra	t2,ra,ra
    ab80:	0fe16193          	ori	gp,sp,254
    ab84:	4030d033          	sra	zero,ra,gp
    ab88:	0061e133          	or	sp,gp,t1
    ab8c:	6ca6b097          	auipc	ra,0x6ca6b
    ab90:	8220e113          	ori	sp,ra,-2014
    ab94:	097d1397          	auipc	t2,0x97d1
    ab98:	3a13a117          	auipc	sp,0x3a13a
    ab9c:	8e34c7b7          	lui	a5,0x8e34c
    aba0:	403156b3          	sra	a3,sp,gp
    aba4:	bc3cf317          	auipc	t1,0xbc3cf
    aba8:	01afe2b7          	lui	t0,0x1afe
    abac:	402081b3          	sub	gp,ra,sp
    abb0:	490e7097          	auipc	ra,0x490e7
    abb4:	002301b3          	add	gp,t1,sp
    abb8:	1c407263          	bgeu	zero,tp,0xad7c
    abbc:	1c406063          	bltu	zero,tp,0xad7c
    abc0:	f3d1f093          	andi	ra,gp,-195
    abc4:	9d63b317          	auipc	t1,0x9d63b
    abc8:	308fa197          	auipc	gp,0x308fa
    abcc:	002111b3          	sll	gp,sp,sp
    abd0:	14c1f113          	andi	sp,gp,332
    abd4:	d7836193          	ori	gp,t1,-648
    abd8:	0011a1b3          	slt	gp,gp,ra
    abdc:	d70df197          	auipc	gp,0xd70df
    abe0:	0011ec33          	or	s8,gp,ra
    abe4:	40615133          	sra	sp,sp,t1
    abe8:	0020a1b3          	slt	gp,ra,sp
    abec:	7067b137          	lui	sp,0x7067b
    abf0:	f8cd59b7          	lui	s3,0xf8cd5
    abf4:	cfe641b7          	lui	gp,0xcfe64
    abf8:	dc110113          	addi	sp,sp,-575 # 0x7067adc1
    abfc:	002290b3          	sll	ra,t0,sp
    ac00:	3aa0e013          	ori	zero,ra,938
    ac04:	0042c0b3          	xor	ra,t0,tp
    ac08:	501870b7          	lui	ra,0x50187
    ac0c:	0021d1b3          	srl	gp,gp,sp
    ac10:	a9e3b397          	auipc	t2,0xa9e3b
    ac14:	2dce0137          	lui	sp,0x2dce0
    ac18:	9fae1297          	auipc	t0,0x9fae1
    ac1c:	f95a8113          	addi	sp,s5,-107
    ac20:	40f303b3          	sub	t2,t1,a5
    ac24:	6cf4d097          	auipc	ra,0x6cf4d
    ac28:	0020f133          	and	sp,ra,sp
    ac2c:	e4326113          	ori	sp,tp,-445
    ac30:	17426193          	ori	gp,tp,372
    ac34:	0031e933          	or	s2,gp,gp
    ac38:	00112133          	slt	sp,sp,ra
    ac3c:	007281b3          	add	gp,t0,t2
    ac40:	004099b3          	sll	s3,ra,tp
    ac44:	00211133          	sll	sp,sp,sp
    ac48:	407a01b3          	sub	gp,s4,t2
    ac4c:	cfe0c137          	lui	sp,0xcfe0c
    ac50:	40215133          	sra	sp,sp,sp
    ac54:	56118063          	beq	gp,ra,0xb1b4
    ac58:	55c001ef          	jal	gp,0xb1b4
    ac5c:	d36da197          	auipc	gp,0xd36da
    ac60:	5b5ee137          	lui	sp,0x5b5ee
    ac64:	efa0c113          	xori	sp,ra,-262
    ac68:	719b71b7          	lui	gp,0x719b7
    ac6c:	dd90e093          	ori	ra,ra,-551
    ac70:	5ffebcb7          	lui	s9,0x5ffeb
    ac74:	0003c0b3          	xor	ra,t2,zero
    ac78:	5a920317          	auipc	t1,0x5a920
    ac7c:	396dd4b7          	lui	s1,0x396dd
    ac80:	00f171b3          	and	gp,sp,a5
    ac84:	bbf4f197          	auipc	gp,0xbbf4f
    ac88:	405157b3          	sra	a5,sp,t0
    ac8c:	411092b7          	lui	t0,0x41109
    ac90:	c6d2f393          	andi	t2,t0,-915
    ac94:	38a1e093          	ori	ra,gp,906
    ac98:	40115133          	sra	sp,sp,ra
    ac9c:	82d8e317          	auipc	t1,0x82d8e
    aca0:	a2c3f293          	andi	t0,t2,-1492
    aca4:	9cd0e993          	ori	s3,ra,-1587
    aca8:	402050b3          	sra	ra,zero,sp
    acac:	970a1097          	auipc	ra,0x970a1
    acb0:	00308133          	add	sp,ra,gp
    acb4:	7b406093          	ori	ra,zero,1972
    acb8:	000363b3          	or	t2,t1,zero
    acbc:	5b916a93          	ori	s5,sp,1465
    acc0:	ad5e1317          	auipc	t1,0xad5e1
    acc4:	5ba10693          	addi	a3,sp,1466 # 0x5b5ee5ba
    acc8:	00312133          	slt	sp,sp,gp
    accc:	9630d117          	auipc	sp,0x9630d
    acd0:	00119f33          	sll	t5,gp,ra
    acd4:	c42690b7          	lui	ra,0xc4269
    acd8:	0020c133          	xor	sp,ra,sp
    acdc:	005142b3          	xor	t0,sp,t0
    ace0:	11636093          	ori	ra,t1,278
    ace4:	0041b233          	sltu	tp,gp,tp
    ace8:	00008093          	mv	ra,ra
    acec:	1a108663          	beq	ra,ra,0xae98
    acf0:	003083b3          	add	t2,ra,gp
    acf4:	2727d097          	auipc	ra,0x2727d
    acf8:	9580b297          	auipc	t0,0x9580b
    acfc:	c68a0197          	auipc	gp,0xc68a0
    ad00:	0031b0b3          	sltu	ra,gp,gp
    ad04:	0031c093          	xori	ra,gp,3
    ad08:	8b12c097          	auipc	ra,0x8b12c
    ad0c:	403ca037          	lui	zero,0x403ca
    ad10:	0030d2b3          	srl	t0,ra,gp
    ad14:	00517133          	and	sp,sp,t0
    ad18:	00012333          	sltz	t1,sp
    ad1c:	40f1c193          	xori	gp,gp,1039
    ad20:	60114393          	xori	t2,sp,1537
    ad24:	0032e0b3          	or	ra,t0,gp
    ad28:	4061d1b3          	sra	gp,gp,t1
    ad2c:	0011b133          	sltu	sp,gp,ra
    ad30:	99917193          	andi	gp,sp,-1639
    ad34:	950870b7          	lui	ra,0x95087
    ad38:	49010313          	addi	t1,sp,1168 # 0xffffffff9631815c
    ad3c:	8e900113          	li	sp,-1815
    ad40:	684fe097          	auipc	ra,0x684fe
    ad44:	f60bf097          	auipc	ra,0xf60bf
    ad48:	4032d1b3          	sra	gp,t0,gp
    ad4c:	4171d133          	sra	sp,gp,s7
    ad50:	003382b3          	add	t0,t2,gp
    ad54:	d3c3f197          	auipc	gp,0xd3c3f
    ad58:	e2140113          	addi	sp,s0,-479 # 0xffffffffe4500e21
    ad5c:	78e17113          	andi	sp,sp,1934
    ad60:	50817117          	auipc	sp,0x50817
    ad64:	0de20093          	addi	ra,tp,222 # 0xffffffff8f2a80de
    ad68:	4b6b1097          	auipc	ra,0x4b6b1
    ad6c:	0011f1b3          	and	gp,gp,ra
    ad70:	403350b3          	sra	ra,t1,gp
    ad74:	00018093          	mv	ra,gp
    ad78:	08308863          	beq	ra,gp,0xae08
    ad7c:	e7708593          	addi	a1,ra,-393 # 0x4b6bbbdf
    ad80:	401180b3          	sub	ra,gp,ra
    ad84:	9c7622b7          	lui	t0,0x9c762
    ad88:	005021b3          	sgtz	gp,t0
    ad8c:	c4f04193          	xori	gp,zero,-945
    ad90:	4fc4e137          	lui	sp,0x4fc4e
    ad94:	018241b3          	xor	gp,tp,s8
    ad98:	fe708113          	addi	sp,ra,-25
    ad9c:	00413033          	sltu	zero,sp,tp
    ada0:	65c00113          	li	sp,1628
    ada4:	0051fab3          	and	s5,gp,t0
    ada8:	f4bfe117          	auipc	sp,0xf4bfe
    adac:	00512133          	slt	sp,sp,t0
    adb0:	002fe133          	or	sp,t6,sp
    adb4:	1a6561b7          	lui	gp,0x1a656
    adb8:	d3b1e113          	ori	sp,gp,-709
    adbc:	0037f133          	and	sp,a5,gp
    adc0:	40110133          	sub	sp,sp,ra
    adc4:	0020f0b3          	and	ra,ra,sp
    adc8:	255c1837          	lui	a6,0x255c1
    adcc:	f0627113          	andi	sp,tp,-250
    add0:	f62d8117          	auipc	sp,0xf62d8
    add4:	4031d0b3          	sra	ra,gp,gp
    add8:	001180b3          	add	ra,gp,ra
    addc:	b6a4c097          	auipc	ra,0xb6a4c
    ade0:	8c708093          	addi	ra,ra,-1849 # 0xffffffffb6a566a3
    ade4:	7c12f197          	auipc	gp,0x7c12f
    ade8:	804ed0b7          	lui	ra,0x804ed
    adec:	bc810113          	addi	sp,sp,-1080 # 0xfffffffff62e2998
    adf0:	3927e1b7          	lui	gp,0x3927e
    adf4:	001047b3          	xor	a5,zero,ra
    adf8:	00217133          	and	sp,sp,sp
    adfc:	9280e093          	ori	ra,ra,-1752
    ae00:	ee2188e3          	beq	gp,sp,0xacf0
    ae04:	eedff16f          	jal	sp,0xacf0
    ae08:	c90b2197          	auipc	gp,0xc90b2
    ae0c:	401182b3          	sub	t0,gp,ra
    ae10:	000081b3          	add	gp,ra,zero
    ae14:	0063c133          	xor	sp,t2,t1
    ae18:	00b18033          	add	zero,gp,a1
    ae1c:	0021d133          	srl	sp,gp,sp
    ae20:	002098b3          	sll	a7,ra,sp
    ae24:	a0a841b7          	lui	gp,0xa0a84
    ae28:	a34160b7          	lui	ra,0xa3416
    ae2c:	00316133          	or	sp,sp,gp
    ae30:	001101b3          	add	gp,sp,ra
    ae34:	85e52237          	lui	tp,0x85e52
    ae38:	76201217          	auipc	tp,0x76201
    ae3c:	00533233          	sltu	tp,t1,t0
    ae40:	9000f113          	andi	sp,ra,-1792
    ae44:	b6b20113          	addi	sp,tp,-1173 # 0x7620b9a3
    ae48:	c4fd1217          	auipc	tp,0xc4fd1
    ae4c:	00108133          	add	sp,ra,ra
    ae50:	a36721b7          	lui	gp,0xa3672
    ae54:	7079b097          	auipc	ra,0x7079b
    ae58:	00b0e3b3          	or	t2,ra,a1
    ae5c:	f0314213          	xori	tp,sp,-253
    ae60:	7410f313          	andi	t1,ra,1857
    ae64:	4021d0b3          	sra	ra,gp,sp
    ae68:	0be15197          	auipc	gp,0xbe15
    ae6c:	0010d7b3          	srl	a5,ra,ra
    ae70:	00239133          	sll	sp,t2,sp
    ae74:	005220b3          	slt	ra,tp,t0
    ae78:	4fd300b7          	lui	ra,0x4fd30
    ae7c:	0032f0b3          	and	ra,t0,gp
    ae80:	0021d1b3          	srl	gp,gp,sp
    ae84:	c5037113          	andi	sp,t1,-944
    ae88:	98da6137          	lui	sp,0x98da6
    ae8c:	0ab08013          	addi	zero,ra,171 # 0x4fd300ab
    ae90:	ba3202e3          	beq	tp,gp,0xaa34
    ae94:	ba1ff16f          	jal	sp,0xaa34
    ae98:	004eee33          	or	t3,t4,tp
    ae9c:	edcae197          	auipc	gp,0xedcae
    aea0:	003080b3          	add	ra,ra,gp
    aea4:	ec250197          	auipc	gp,0xec250
    aea8:	0071e1b3          	or	gp,gp,t2
    aeac:	000091b3          	sll	gp,ra,zero
    aeb0:	001111b3          	sll	gp,sp,ra
    aeb4:	bac1f093          	andi	ra,gp,-1108
    aeb8:	0af0c213          	xori	tp,ra,175
    aebc:	70a0c193          	xori	gp,ra,1802
    aec0:	74906217          	auipc	tp,0x74906
    aec4:	edded3b7          	lui	t2,0xedded
    aec8:	0011d1b3          	srl	gp,gp,ra
    aecc:	3dd96097          	auipc	ra,0x3dd96
    aed0:	0013b4b3          	sltu	s1,t2,ra
    aed4:	0011d133          	srl	sp,gp,ra
    aed8:	01fe8137          	lui	sp,0x1fe8
    aedc:	a1ac3137          	lui	sp,0xa1ac3
    aee0:	0010a1b3          	slt	gp,ra,ra
    aee4:	b70a4137          	lui	sp,0xb70a4
    aee8:	8ee4b0b7          	lui	ra,0x8ee4b
    aeec:	7ab0c193          	xori	gp,ra,1963
    aef0:	af44d697          	auipc	a3,0xaf44d
    aef4:	001140b3          	xor	ra,sp,ra
    aef8:	afcf0037          	lui	zero,0xafcf0
    aefc:	17a24093          	xori	ra,tp,378
    af00:	7714d017          	auipc	zero,0x7714d
    af04:	829ac197          	auipc	gp,0x829ac
    af08:	9a414193          	xori	gp,sp,-1628
    af0c:	401781b3          	sub	gp,a5,ra
    af10:	0040b0b3          	sltu	ra,ra,tp
    af14:	03bd3097          	auipc	ra,0x3bd3
    af18:	e9a17093          	andi	ra,sp,-358
    af1c:	01110263          	beq	sp,a7,0xaf20
    af20:	3e5000ef          	jal	ra,0xbb04
    af24:	002340b3          	xor	ra,t1,sp
    af28:	00326333          	or	t1,tp,gp
    af2c:	df3d43b7          	lui	t2,0xdf3d4
    af30:	ea11c0b7          	lui	ra,0xea11c
    af34:	f4dadcb7          	lui	s9,0xf4dad
    af38:	7a828093          	addi	ra,t0,1960 # 0xffffffff9c7627a8
    af3c:	7a124113          	xori	sp,tp,1953
    af40:	0021a1b3          	slt	gp,gp,sp
    af44:	7f30c013          	xori	zero,ra,2035
    af48:	d2f9b2b7          	lui	t0,0xd2f9b
    af4c:	0011c133          	xor	sp,gp,ra
    af50:	403100b3          	sub	ra,sp,gp
    af54:	3e6f5197          	auipc	gp,0x3e6f5
    af58:	a5896217          	auipc	tp,0xa5896
    af5c:	0050e233          	or	tp,ra,t0
    af60:	b7bd1d97          	auipc	s11,0xb7bd1
    af64:	db0d9097          	auipc	ra,0xdb0d9
    af68:	00449133          	sll	sp,s1,tp
    af6c:	40418133          	sub	sp,gp,tp
    af70:	9f3f0037          	lui	zero,0x9f3f0
    af74:	7887c097          	auipc	ra,0x7887c
    af78:	16ae3137          	lui	sp,0x16ae3
    af7c:	a4e07037          	lui	zero,0xa4e07
    af80:	e4d411b7          	lui	gp,0xe4d41
    af84:	b840f093          	andi	ra,ra,-1148
    af88:	003130b3          	sltu	ra,sp,gp
    af8c:	0060b333          	sltu	t1,ra,t1
    af90:	003191b3          	sll	gp,gp,gp
    af94:	0011e1b3          	or	gp,gp,ra
    af98:	009081b3          	add	gp,ra,s1
    af9c:	19618063          	beq	gp,s6,0xb11c
    afa0:	17c0016f          	jal	sp,0xb11c
    afa4:	40310233          	sub	tp,sp,gp
    afa8:	40135133          	sra	sp,t1,ra
    afac:	40515233          	sra	tp,sp,t0
    afb0:	a48b9017          	auipc	zero,0xa48b9
    afb4:	0020d0b3          	srl	ra,ra,sp
    afb8:	b90c4097          	auipc	ra,0xb90c4
    afbc:	2ff5c193          	xori	gp,a1,767
    afc0:	423b51b7          	lui	gp,0x423b5
    afc4:	d5741197          	auipc	gp,0xd5741
    afc8:	f7f00197          	auipc	gp,0xf7f00
    afcc:	00626333          	or	t1,tp,t1
    afd0:	0086f3b3          	and	t2,a3,s0
    afd4:	0016e133          	or	sp,a3,ra
    afd8:	40c4f117          	auipc	sp,0x40c4f
    afdc:	001221b3          	slt	gp,tp,ra
    afe0:	0041e1b3          	or	gp,gp,tp
    afe4:	d2333097          	auipc	ra,0xd2333
    afe8:	bc508113          	addi	sp,ra,-1083 # 0xffffffffd233dba9
    afec:	002011b3          	sll	gp,zero,sp
    aff0:	0033e1b3          	or	gp,t2,gp
    aff4:	52404113          	xori	sp,zero,1316
    aff8:	9f2a7437          	lui	s0,0x9f2a7
    affc:	41e48133          	sub	sp,s1,t5
    b000:	0180d1b3          	srl	gp,ra,s8
    b004:	ba110ee3          	beq	sp,ra,0xabc0
    b008:	bb9ff3ef          	jal	t2,0xabc0
    b00c:	10adb097          	auipc	ra,0x10adb
    b010:	3c91f093          	andi	ra,gp,969
    b014:	4010d333          	sra	t1,ra,ra
    b018:	006211b3          	sll	gp,tp,t1
    b01c:	1cf58197          	auipc	gp,0x1cf58
    b020:	52d82097          	auipc	ra,0x52d82
    b024:	0031c1b3          	xor	gp,gp,gp
    b028:	d661e1b7          	lui	gp,0xd661e
    b02c:	d1b14193          	xori	gp,sp,-741
    b030:	006211b3          	sll	gp,tp,t1
    b034:	b960c093          	xori	ra,ra,-1130
    b038:	35e08193          	addi	gp,ra,862 # 0x52d8d37e
    b03c:	da6cd117          	auipc	sp,0xda6cd
    b040:	a751c093          	xori	ra,gp,-1419
    b044:	722df0b7          	lui	ra,0x722df
    b048:	92bb4113          	xori	sp,s6,-1749
    b04c:	003291b3          	sll	gp,t0,gp
    b050:	0081e933          	or	s2,gp,s0
    b054:	71e0c193          	xori	gp,ra,1822
    b058:	7550e193          	ori	gp,ra,1877
    b05c:	cf0a3337          	lui	t1,0xcf0a3
    b060:	1fb7c317          	auipc	t1,0x1fb7c
    b064:	dc320097          	auipc	ra,0xdc320
    b068:	25a09137          	lui	sp,0x25a09
    b06c:	22b6dc97          	auipc	s9,0x22b6d
    b070:	0021d0b3          	srl	ra,gp,sp
    b074:	71bfc197          	auipc	gp,0x71bfc
    b078:	0051b2b3          	sltu	t0,gp,t0
    b07c:	eccd01b7          	lui	gp,0xeccd0
    b080:	001380b3          	add	ra,t2,ra
    b084:	546bc037          	lui	zero,0x546bc
    b088:	bc330ae3          	beq	t1,gp,0xac5c
    b08c:	bd1ff2ef          	jal	t0,0xac5c
    b090:	5eb26293          	ori	t0,tp,1515
    b094:	128f8197          	auipc	gp,0x128f8
    b098:	0030f0b3          	and	ra,ra,gp
    b09c:	00323133          	sltu	sp,tp,gp
    b0a0:	d515d117          	auipc	sp,0xd515d
    b0a4:	53117493          	andi	s1,sp,1329
    b0a8:	007120b3          	slt	ra,sp,t2
    b0ac:	08feb097          	auipc	ra,0x8feb
    b0b0:	589411b7          	lui	gp,0x58941
    b0b4:	00218333          	add	t1,gp,sp
    b0b8:	004121b3          	slt	gp,sp,tp
    b0bc:	87c16093          	ori	ra,sp,-1924
    b0c0:	ee50f113          	andi	sp,ra,-283
    b0c4:	1d60e693          	ori	a3,ra,470
    b0c8:	c03440b7          	lui	ra,0xc0344
    b0cc:	0db38113          	addi	sp,t2,219 # 0xffffffffdf3d40db
    b0d0:	4051d133          	sra	sp,gp,t0
    b0d4:	e970e313          	ori	t1,ra,-361
    b0d8:	f7527193          	andi	gp,tp,-139
    b0dc:	4042d2b3          	sra	t0,t0,tp
    b0e0:	4010d0b3          	sra	ra,ra,ra
    b0e4:	3db15397          	auipc	t2,0x3db15
    b0e8:	00d240b3          	xor	ra,tp,a3
    b0ec:	ecd1f193          	andi	gp,gp,-307
    b0f0:	295463b7          	lui	t2,0x29546
    b0f4:	0021f233          	and	tp,gp,sp
    b0f8:	740b21b7          	lui	gp,0x740b2
    b0fc:	bad90097          	auipc	ra,0xbad90
    b100:	4b74f237          	lui	tp,0x4b74f
    b104:	5e11e113          	ori	sp,gp,1505
    b108:	7a4ae3b7          	lui	t2,0x7a4ae
    b10c:	0011d1b3          	srl	gp,gp,ra
    b110:	0011d3b3          	srl	t2,gp,ra
    b114:	9a328ee3          	beq	t0,gp,0xaad0
    b118:	9b9ff6ef          	jal	a3,0xaad0
    b11c:	001551b3          	srl	gp,a0,ra
    b120:	001110b3          	sll	ra,sp,ra
    b124:	401150b3          	sra	ra,sp,ra
    b128:	572ce197          	auipc	gp,0x572ce
    b12c:	b1c3d137          	lui	sp,0xb1c3d
    b130:	40118133          	sub	sp,gp,ra
    b134:	666232b7          	lui	t0,0x66623
    b138:	51d37197          	auipc	gp,0x51d37
    b13c:	a4556037          	lui	zero,0xa4556
    b140:	0010e0b3          	or	ra,ra,ra
    b144:	54e1f313          	andi	t1,gp,1358
    b148:	003350b3          	srl	ra,t1,gp
    b14c:	3ed501b7          	lui	gp,0x3ed50
    b150:	59830313          	addi	t1,t1,1432 # 0x1fb875f8
    b154:	bbd2f093          	andi	ra,t0,-1091
    b158:	3e7760b7          	lui	ra,0x3e776
    b15c:	4061d0b3          	sra	ra,gp,t1
    b160:	0020d133          	srl	sp,ra,sp
    b164:	96e1f093          	andi	ra,gp,-1682
    b168:	00110133          	add	sp,sp,ra
    b16c:	b879a297          	auipc	t0,0xb879a
    b170:	0021e133          	or	sp,gp,sp
    b174:	162960b7          	lui	ra,0x16296
    b178:	569f3117          	auipc	sp,0x569f3
    b17c:	0020c133          	xor	sp,ra,sp
    b180:	f3df10b7          	lui	ra,0xf3df1
    b184:	8a0b4197          	auipc	gp,0x8a0b4
    b188:	0031d1b3          	srl	gp,gp,gp
    b18c:	00266333          	or	t1,a2,sp
    b190:	0012c0b3          	xor	ra,t0,ra
    b194:	0001b0b3          	sltu	ra,gp,zero
    b198:	13e2f117          	auipc	sp,0x13e2f
    b19c:	004362b3          	or	t0,t1,tp
    b1a0:	a54411b7          	lui	gp,0xa5441
    b1a4:	d722c1b7          	lui	gp,0xd722c
    b1a8:	a20a67b7          	lui	a5,0xa20a6
    b1ac:	00c38263          	beq	t2,a2,0xb1b0
    b1b0:	e50ff16f          	jal	sp,0xa800
    b1b4:	f4b3c193          	xori	gp,t2,-181
    b1b8:	40090133          	sub	sp,s2,zero
    b1bc:	32c8b097          	auipc	ra,0x32c8b
    b1c0:	33094097          	auipc	ra,0x33094
    b1c4:	b04211b7          	lui	gp,0xb0421
    b1c8:	4021d5b3          	sra	a1,gp,sp
    b1cc:	5745a1b7          	lui	gp,0x5745a
    b1d0:	006121b3          	slt	gp,sp,t1
    b1d4:	d1fc12b7          	lui	t0,0xd1fc1
    b1d8:	00316133          	or	sp,sp,gp
    b1dc:	50a2a117          	auipc	sp,0x50a2a
    b1e0:	40305db3          	sra	s11,zero,gp
    b1e4:	f6918313          	addi	t1,gp,-151 # 0x57459f69
    b1e8:	3b116793          	ori	a5,sp,945
    b1ec:	0011b1b3          	sltu	gp,gp,ra
    b1f0:	5e35f5b7          	lui	a1,0x5e35f
    b1f4:	6221a197          	auipc	gp,0x6221a
    b1f8:	d0116413          	ori	s0,sp,-767
    b1fc:	001071b3          	and	gp,zero,ra
    b200:	c3a54097          	auipc	ra,0xc3a54
    b204:	0031b0b3          	sltu	ra,gp,gp
    b208:	a76ab237          	lui	tp,0xa76ab
    b20c:	9e0f8237          	lui	tp,0x9e0f8
    b210:	d9ae80b7          	lui	ra,0xd9ae8
    b214:	fa5ff097          	auipc	ra,0xfa5ff
    b218:	9971f013          	andi	zero,gp,-1641
    b21c:	69d95037          	lui	zero,0x69d95
    b220:	401281b3          	sub	gp,t0,ra
    b224:	10c04317          	auipc	t1,0x10c04
    b228:	4030d033          	sra	zero,ra,gp
    b22c:	40115133          	sra	sp,sp,ra
    b230:	40108133          	sub	sp,ra,ra
    b234:	4e01e093          	ori	ra,gp,1248
    b238:	8e2d4d17          	auipc	s10,0x8e2d4
    b23c:	00000697          	auipc	a3,0x0
    b240:	dd0680e7          	jalr	-560(a3) # 0xb00c
    b244:	09716213          	ori	tp,sp,151
    b248:	056071b7          	lui	gp,0x5607
    b24c:	40030133          	sub	sp,t1,zero
    b250:	0452db37          	lui	s6,0x452d
    b254:	28798117          	auipc	sp,0x28798
    b258:	40108133          	sub	sp,ra,ra
    b25c:	401081b3          	sub	gp,ra,ra
    b260:	402082b3          	sub	t0,ra,sp
    b264:	00312133          	slt	sp,sp,gp
    b268:	004170b3          	and	ra,sp,tp
    b26c:	0050c133          	xor	sp,ra,t0
    b270:	0001a0b3          	sltz	ra,gp
    b274:	003170b3          	and	ra,sp,gp
    b278:	072f3097          	auipc	ra,0x72f3
    b27c:	00304133          	xor	sp,zero,gp
    b280:	00d4e0b3          	or	ra,s1,a3
    b284:	b910c013          	xori	zero,ra,-1135
    b288:	89208093          	addi	ra,ra,-1902 # 0x72fdb0a
    b28c:	00217033          	and	zero,sp,sp
    b290:	a240f113          	andi	sp,ra,-1500
    b294:	00116133          	or	sp,sp,ra
    b298:	a1118113          	addi	sp,gp,-1519 # 0x5606a11
    b29c:	325a2c97          	auipc	s9,0x325a2
    b2a0:	f5c80317          	auipc	t1,0xf5c80
    b2a4:	001040b3          	xor	ra,zero,ra
    b2a8:	0033d333          	srl	t1,t2,gp
    b2ac:	004113b3          	sll	t2,sp,tp
    b2b0:	0be550b7          	lui	ra,0xbe55
    b2b4:	403150b3          	sra	ra,sp,gp
    b2b8:	630ba0b7          	lui	ra,0x630ba
    b2bc:	006021b3          	sgtz	gp,t1
    b2c0:	0050f233          	and	tp,ra,t0
    b2c4:	004360b3          	or	ra,t1,tp
    b2c8:	6f632317          	auipc	t1,0x6f632
    b2cc:	00228133          	add	sp,t0,sp
    b2d0:	53c27113          	andi	sp,tp,1340
    b2d4:	40308233          	sub	tp,ra,gp
    b2d8:	34809c63          	bne	ra,s0,0xb630
    b2dc:	34808a63          	beq	ra,s0,0xb630
    b2e0:	4cd17297          	auipc	t0,0x4cd17
    b2e4:	00617233          	and	tp,sp,t1
    b2e8:	00701133          	sll	sp,zero,t2
    b2ec:	e351f313          	andi	t1,gp,-459
    b2f0:	0002c0b3          	xor	ra,t0,zero
    b2f4:	0030a233          	slt	tp,ra,gp
    b2f8:	7335f093          	andi	ra,a1,1843
    b2fc:	987b7097          	auipc	ra,0x987b7
    b300:	99db1117          	auipc	sp,0x99db1
    b304:	486582b7          	lui	t0,0x48658
    b308:	93636193          	ori	gp,t1,-1738
    b30c:	0021f133          	and	sp,gp,sp
    b310:	0030e333          	or	t1,ra,gp
    b314:	54233197          	auipc	gp,0x54233
    b318:	3a2f41b7          	lui	gp,0x3a2f4
    b31c:	70547097          	auipc	ra,0x70547
    b320:	005090b3          	sll	ra,ra,t0
    b324:	003190b3          	sll	ra,gp,gp
    b328:	0021b1b3          	sltu	gp,gp,sp
    b32c:	8f4184b7          	lui	s1,0x8f418
    b330:	002153b3          	srl	t2,sp,sp
    b334:	ef9df117          	auipc	sp,0xef9df
    b338:	0041a0b3          	slt	ra,gp,tp
    b33c:	3e656117          	auipc	sp,0x3e656
    b340:	0091b233          	sltu	tp,gp,s1
    b344:	40208333          	sub	t1,ra,sp
    b348:	ffef71b7          	lui	gp,0xffef7
    b34c:	2882b137          	lui	sp,0x2882b
    b350:	403180b3          	sub	ra,gp,gp
    b354:	87586997          	auipc	s3,0x87586
    b358:	00048093          	mv	ra,s1
    b35c:	08908a63          	beq	ra,s1,0xb3f0
    b360:	e3f16093          	ori	ra,sp,-449
    b364:	006112b3          	sll	t0,sp,t1
    b368:	953430b7          	lui	ra,0x95343
    b36c:	002351b3          	srl	gp,t1,sp
    b370:	0031c333          	xor	t1,gp,gp
    b374:	93a8f1b7          	lui	gp,0x93a8f
    b378:	0022d0b3          	srl	ra,t0,sp
    b37c:	48fc41b7          	lui	gp,0x48fc4
    b380:	001171b3          	and	gp,sp,ra
    b384:	334151b7          	lui	gp,0x33415
    b388:	24b6d017          	auipc	zero,0x24b6d
    b38c:	784c6093          	ori	ra,s8,1924
    b390:	6e5661b7          	lui	gp,0x6e566
    b394:	0eee7097          	auipc	ra,0xeee7
    b398:	029fb137          	lui	sp,0x29fb
    b39c:	84b1c093          	xori	ra,gp,-1973
    b3a0:	00333133          	sltu	sp,t1,gp
    b3a4:	0027b3b3          	sltu	t2,a5,sp
    b3a8:	1bdf4197          	auipc	gp,0x1bdf4
    b3ac:	d697bdb7          	lui	s11,0xd697b
    b3b0:	46c18193          	addi	gp,gp,1132 # 0x1bdff814
    b3b4:	4e66e097          	auipc	ra,0x4e66e
    b3b8:	4051d0b3          	sra	ra,gp,t0
    b3bc:	725931b7          	lui	gp,0x72593
    b3c0:	20d6a1b7          	lui	gp,0x20d6a
    b3c4:	ea60f313          	andi	t1,ra,-346
    b3c8:	10821097          	auipc	ra,0x10821
    b3cc:	c0410093          	addi	ra,sp,-1020 # 0x29fac04
    b3d0:	d7bb3137          	lui	sp,0xd7bb3
    b3d4:	c070f093          	andi	ra,ra,-1017
    b3d8:	0d616113          	ori	sp,sp,214
    b3dc:	63fca337          	lui	t1,0x63fca
    b3e0:	94a2f193          	andi	gp,t0,-1718
    b3e4:	32dcd297          	auipc	t0,0x32dcd
    b3e8:	7a300263          	beq	zero,gp,0xbb8c
    b3ec:	7a0000ef          	jal	ra,0xbb8c
    b3f0:	c9a3a117          	auipc	sp,0xc9a3a
    b3f4:	00438333          	add	t1,t2,tp
    b3f8:	b64d5217          	auipc	tp,0xb64d5
    b3fc:	0021c0b3          	xor	ra,gp,sp
    b400:	402351b3          	sra	gp,t1,sp
    b404:	7b8f7097          	auipc	ra,0x7b8f7
    b408:	0030e1b3          	or	gp,ra,gp
    b40c:	4c907397          	auipc	t2,0x4c907
    b410:	d6a59337          	lui	t1,0xd6a59
    b414:	a962d2b7          	lui	t0,0xa962d
    b418:	0030c333          	xor	t1,ra,gp
    b41c:	0040e0b3          	or	ra,ra,tp
    b420:	00310133          	add	sp,sp,gp
    b424:	00232133          	slt	sp,t1,sp
    b428:	0021f033          	and	zero,gp,sp
    b42c:	032af1b7          	lui	gp,0x32af
    b430:	c6d04817          	auipc	a6,0xc6d04
    b434:	0030c0b3          	xor	ra,ra,gp
    b438:	16308013          	addi	zero,ra,355 # 0x7b902567
    b43c:	0011b333          	sltu	t1,gp,ra
    b440:	f21a3117          	auipc	sp,0xf21a3
    b444:	40315133          	sra	sp,sp,gp
    b448:	2a6fa137          	lui	sp,0x2a6fa
    b44c:	55729137          	lui	sp,0x55729
    b450:	bde28093          	addi	ra,t0,-1058 # 0xffffffffa962cbde
    b454:	8a141137          	lui	sp,0x8a141
    b458:	003361b3          	or	gp,t1,gp
    b45c:	a3aae097          	auipc	ra,0xa3aae
    b460:	00710133          	add	sp,sp,t2
    b464:	61770197          	auipc	gp,0x61770
    b468:	b2133237          	lui	tp,0xb2133
    b46c:	d84445b7          	lui	a1,0xd8444
    b470:	a5307113          	andi	sp,zero,-1453
    b474:	0020b533          	sltu	a0,ra,sp
    b478:	00128263          	beq	t0,ra,0xb47c
    b47c:	5390006f          	j	0xc1b4
    b480:	58710093          	addi	ra,sp,1415 # 0xffffffff8a141587
    b484:	001061b3          	or	gp,zero,ra
    b488:	ba10f0b7          	lui	ra,0xba10f
    b48c:	0010bd33          	sltu	s10,ra,ra
    b490:	0840c193          	xori	gp,ra,132
    b494:	01a1f0b3          	and	ra,gp,s10
    b498:	00333233          	sltu	tp,t1,gp
    b49c:	a90c63b7          	lui	t2,0xa90c6
    b4a0:	9cc65137          	lui	sp,0x9cc65
    b4a4:	8055f117          	auipc	sp,0x8055f
    b4a8:	f158f117          	auipc	sp,0xf158f
    b4ac:	27720093          	addi	ra,tp,631 # 0xffffffffb2133277
    b4b0:	c2289197          	auipc	gp,0xc2289
    b4b4:	089c3237          	lui	tp,0x89c3
    b4b8:	ff5d63b7          	lui	t2,0xff5d6
    b4bc:	7d6a27b7          	lui	a5,0x7d6a2
    b4c0:	00693197          	auipc	gp,0x693
    b4c4:	aa25e093          	ori	ra,a1,-1374
    b4c8:	0021e033          	or	zero,gp,sp
    b4cc:	8c70f113          	andi	sp,ra,-1849
    b4d0:	9d38d117          	auipc	sp,0x9d38d
    b4d4:	0022b2b3          	sltu	t0,t0,sp
    b4d8:	d40b5117          	auipc	sp,0xd40b5
    b4dc:	0023c133          	xor	sp,t2,sp
    b4e0:	73a402b7          	lui	t0,0x73a40
    b4e4:	002191b3          	sll	gp,gp,sp
    b4e8:	fe5d9197          	auipc	gp,0xfe5d9
    b4ec:	71f14113          	xori	sp,sp,1823
    b4f0:	f566b7b7          	lui	a5,0xf566b
    b4f4:	08314593          	xori	a1,sp,131
    b4f8:	24518113          	addi	sp,gp,581 # 0xfffffffffe5e472d
    b4fc:	4e22e137          	lui	sp,0x4e22e
    b500:	3e209263          	bne	ra,sp,0xb8e4
    b504:	3e208063          	beq	ra,sp,0xb8e4
    b508:	f3a2c393          	xori	t2,t0,-198
    b50c:	401150b3          	sra	ra,sp,ra
    b510:	0e00a097          	auipc	ra,0xe00a
    b514:	235891b7          	lui	gp,0x23589
    b518:	001121b3          	slt	gp,sp,ra
    b51c:	003140b3          	xor	ra,sp,gp
    b520:	bda0e193          	ori	gp,ra,-1062
    b524:	9b7b3337          	lui	t1,0x9b7b3
    b528:	d5112317          	auipc	t1,0xd5112
    b52c:	883ec0b7          	lui	ra,0x883ec
    b530:	55f17193          	andi	gp,sp,1375
    b534:	401083b3          	sub	t2,ra,ra
    b538:	01a3b117          	auipc	sp,0x1a3b
    b53c:	00235133          	srl	sp,t1,sp
    b540:	0072b2b3          	sltu	t0,t0,t2
    b544:	72600193          	li	gp,1830
    b548:	17d92197          	auipc	gp,0x17d92
    b54c:	3491f093          	andi	ra,gp,841
    b550:	e274f1b7          	lui	gp,0xe274f
    b554:	d855f197          	auipc	gp,0xd855f
    b558:	00711133          	sll	sp,sp,t2
    b55c:	3608f0b7          	lui	ra,0x3608f
    b560:	49e78093          	addi	ra,a5,1182 # 0xfffffffff566b49e
    b564:	0050c233          	xor	tp,ra,t0
    b568:	c02df137          	lui	sp,0xc02df
    b56c:	0025f133          	and	sp,a1,sp
    b570:	c8f07137          	lui	sp,0xc8f07
    b574:	0000c0b3          	xor	ra,ra,zero
    b578:	bcf27097          	auipc	ra,0xbcf27
    b57c:	60855137          	lui	sp,0x60855
    b580:	1a221463          	bne	tp,sp,0xb728
    b584:	1a220263          	beq	tp,sp,0xb728
    b588:	e877c113          	xori	sp,a5,-377
    b58c:	70dca197          	auipc	gp,0x70dca
    b590:	4610e193          	ori	gp,ra,1121
    b594:	403181b3          	sub	gp,gp,gp
    b598:	401087b3          	sub	a5,ra,ra
    b59c:	f49e4637          	lui	a2,0xf49e4
    b5a0:	2b995317          	auipc	t1,0x2b995
    b5a4:	0010c133          	xor	sp,ra,ra
    b5a8:	a940e393          	ori	t2,ra,-1388
    b5ac:	00923033          	sltu	zero,tp,s1
    b5b0:	00124033          	xor	zero,tp,ra
    b5b4:	d53ba0b7          	lui	ra,0xd53ba
    b5b8:	7dc1ef13          	ori	t5,gp,2012
    b5bc:	8722e0b7          	lui	ra,0x8722e
    b5c0:	002090b3          	sll	ra,ra,sp
    b5c4:	df36e193          	ori	gp,a3,-525
    b5c8:	40008133          	sub	sp,ra,zero
    b5cc:	00329133          	sll	sp,t0,gp
    b5d0:	0011e0b3          	or	ra,gp,ra
    b5d4:	b5d5a117          	auipc	sp,0xb5d5a
    b5d8:	0027e133          	or	sp,a5,sp
    b5dc:	b1d1f013          	andi	zero,gp,-1251
    b5e0:	019371b3          	and	gp,t1,s9
    b5e4:	3b527d13          	andi	s10,tp,949
    b5e8:	466e1037          	lui	zero,0x466e1
    b5ec:	88648013          	addi	zero,s1,-1914 # 0xffffffff8f417886
    b5f0:	002190b3          	sll	ra,gp,sp
    b5f4:	003093b3          	sll	t2,ra,gp
    b5f8:	c1cd3217          	auipc	tp,0xc1cd3
    b5fc:	28ee9197          	auipc	gp,0x28ee9
    b600:	001e91b3          	sll	gp,t4,ra
    b604:	00033333          	sltu	t1,t1,zero
    b608:	40108133          	sub	sp,ra,ra
    b60c:	0013b133          	sltu	sp,t2,ra
    b610:	b381e113          	ori	sp,gp,-1224
    b614:	6cc270b7          	lui	ra,0x6cc27
    b618:	fdc610b7          	lui	ra,0xfdc61
    b61c:	4030d0b3          	sra	ra,ra,gp
    b620:	0016c133          	xor	sp,a3,ra
    b624:	0010a0b3          	slt	ra,ra,ra
    b628:	00008813          	mv	a6,ra
    b62c:	c0180ce3          	beq	a6,ra,0xb244
    b630:	f2beb097          	auipc	ra,0xf2beb
    b634:	049552b7          	lui	t0,0x4955
    b638:	003151b3          	srl	gp,sp,gp
    b63c:	b851c093          	xori	ra,gp,-1147
    b640:	00b141b3          	xor	gp,sp,a1
    b644:	d80d3317          	auipc	t1,0xd80d3
    b648:	33824013          	xori	zero,tp,824
    b64c:	002160b3          	or	ra,sp,sp
    b650:	b69aa1b7          	lui	gp,0xb69aa
    b654:	0020e133          	or	sp,ra,sp
    b658:	37c0c093          	xori	ra,ra,892
    b65c:	3a827093          	andi	ra,tp,936
    b660:	4040d1b3          	sra	gp,ra,tp
    b664:	0011b1b3          	sltu	gp,gp,ra
    b668:	21596117          	auipc	sp,0x21596
    b66c:	001250b3          	srl	ra,tp,ra
    b670:	1aa6c117          	auipc	sp,0x1aa6c
    b674:	0071a3b3          	slt	t2,gp,t2
    b678:	416be317          	auipc	t1,0x416be
    b67c:	9f3fdc37          	lui	s8,0x9f3fd
    b680:	6a16c117          	auipc	sp,0x6a16c
    b684:	40408133          	sub	sp,ra,tp
    b688:	68a14193          	xori	gp,sp,1674
    b68c:	19b84697          	auipc	a3,0x19b84
    b690:	4070d0b3          	sra	ra,ra,t2
    b694:	002127b3          	slt	a5,sp,sp
    b698:	0031c133          	xor	sp,gp,gp
    b69c:	45cca197          	auipc	gp,0x45cca
    b6a0:	00211eb3          	sll	t4,sp,sp
    b6a4:	40115133          	sra	sp,sp,ra
    b6a8:	df837193          	andi	gp,t1,-520
    b6ac:	c2218ae3          	beq	gp,sp,0xb2e0
    b6b0:	c31ff16f          	jal	sp,0xb2e0
    b6b4:	0030a133          	slt	sp,ra,gp
    b6b8:	6bd1b197          	auipc	gp,0x6bd1b
    b6bc:	32db9097          	auipc	ra,0x32db9
    b6c0:	de58a1b7          	lui	gp,0xde58a
    b6c4:	962d6097          	auipc	ra,0x962d6
    b6c8:	40300133          	neg	sp,gp
    b6cc:	59a070b7          	lui	ra,0x59a07
    b6d0:	247f20b7          	lui	ra,0x247f2
    b6d4:	9b95b1b7          	lui	gp,0x9b95b
    b6d8:	2a2ca317          	auipc	t1,0x2a2ca
    b6dc:	05755137          	lui	sp,0x5755
    b6e0:	6bb33197          	auipc	gp,0x6bb33
    b6e4:	420e5317          	auipc	t1,0x420e5
    b6e8:	59769137          	lui	sp,0x59769
    b6ec:	0002c0b3          	xor	ra,t0,zero
    b6f0:	e0e36137          	lui	sp,0xe0e36
    b6f4:	0031e1b3          	or	gp,gp,gp
    b6f8:	01c121b3          	slt	gp,sp,t3
    b6fc:	0033c233          	xor	tp,t2,gp
    b700:	f150f197          	auipc	gp,0xf150f
    b704:	83228693          	addi	a3,t0,-1998 # 0x4954832
    b708:	40508133          	sub	sp,ra,t0
    b70c:	003130b3          	sltu	ra,sp,gp
    b710:	82002197          	auipc	gp,0x82002
    b714:	bf0691b7          	lui	gp,0xbf069
    b718:	d9cf6137          	lui	sp,0xd9cf6
    b71c:	f430c113          	xori	sp,ra,-189
    b720:	00000097          	auipc	ra,0x0
    b724:	34c08167          	jalr	sp,844(ra) # 0xba6c
    b728:	761631b7          	lui	gp,0x76163
    b72c:	88cc7137          	lui	sp,0x88cc7
    b730:	407081b3          	sub	gp,ra,t2
    b734:	f6353137          	lui	sp,0xf6353
    b738:	843b3097          	auipc	ra,0x843b3
    b73c:	72d17313          	andi	t1,sp,1837
    b740:	001186b3          	add	a3,gp,ra
    b744:	401251b3          	sra	gp,tp,ra
    b748:	00113133          	sltu	sp,sp,ra
    b74c:	0041b1b3          	sltu	gp,gp,tp
    b750:	cee44137          	lui	sp,0xcee44
    b754:	403151b3          	sra	gp,sp,gp
    b758:	dc5e0197          	auipc	gp,0xdc5e0
    b75c:	e650c113          	xori	sp,ra,-411
    b760:	b8a17113          	andi	sp,sp,-1142
    b764:	0031d0b3          	srl	ra,gp,gp
    b768:	7aa1f193          	andi	gp,gp,1962
    b76c:	db3fc197          	auipc	gp,0xdb3fc
    b770:	009183b3          	add	t2,gp,s1
    b774:	f800f313          	andi	t1,ra,-128
    b778:	08d10013          	addi	zero,sp,141 # 0xffffffffcee4408d
    b77c:	9af46193          	ori	gp,s0,-1617
    b780:	4013d1b3          	sra	gp,t2,ra
    b784:	84c73217          	auipc	tp,0x84c73
    b788:	0010a1b3          	slt	gp,ra,ra
    b78c:	0011b3b3          	sltu	t2,gp,ra
    b790:	188ad1b7          	lui	gp,0x188ad
    b794:	e2778117          	auipc	sp,0xe2778
    b798:	001293b3          	sll	t2,t0,ra
    b79c:	00100333          	add	t1,zero,ra
    b7a0:	1ff37113          	andi	sp,t1,511
    b7a4:	403081b3          	sub	gp,ra,gp
    b7a8:	a5461117          	auipc	sp,0xa5461
    b7ac:	0c610093          	addi	ra,sp,198 # 0xffffffffa546c86e
    b7b0:	402083b3          	sub	t2,ra,sp
    b7b4:	22238c63          	beq	t2,sp,0xb9ec
    b7b8:	2340016f          	jal	sp,0xb9ec
    b7bc:	3c408113          	addi	sp,ra,964 # 0xffffffff843beafc
    b7c0:	403151b3          	sra	gp,sp,gp
    b7c4:	fadfb0b7          	lui	ra,0xfadfb
    b7c8:	069041b7          	lui	gp,0x6904
    b7cc:	9ec10193          	addi	gp,sp,-1556
    b7d0:	00113133          	sltu	sp,sp,ra
    b7d4:	40105033          	sra	zero,zero,ra
    b7d8:	53f26193          	ori	gp,tp,1343
    b7dc:	58a6a017          	auipc	zero,0x58a6a
    b7e0:	0010b6b3          	sltu	a3,ra,ra
    b7e4:	c97fb097          	auipc	ra,0xc97fb
    b7e8:	0061d1b3          	srl	gp,gp,t1
    b7ec:	00528133          	add	sp,t0,t0
    b7f0:	0030a1b3          	slt	gp,ra,gp
    b7f4:	27317393          	andi	t2,sp,627
    b7f8:	20a17193          	andi	gp,sp,522
    b7fc:	cb91f993          	andi	s3,gp,-839
    b800:	003181b3          	add	gp,gp,gp
    b804:	00515333          	srl	t1,sp,t0
    b808:	00113233          	sltu	tp,sp,ra
    b80c:	00b17133          	and	sp,sp,a1
    b810:	001171b3          	and	gp,sp,ra
    b814:	00308333          	add	t1,ra,gp
    b818:	9a50f793          	andi	a5,ra,-1627
    b81c:	40520333          	sub	t1,tp,t0
    b820:	0011e0b3          	or	ra,gp,ra
    b824:	0031c1b3          	xor	gp,gp,gp
    b828:	e0fe6117          	auipc	sp,0xe0fe6
    b82c:	425aa137          	lui	sp,0x425aa
    b830:	7d740193          	addi	gp,s0,2007 # 0xffffffff9f2a77d7
    b834:	608c3117          	auipc	sp,0x608c3
    b838:	ab0c0117          	auipc	sp,0xab0c0
    b83c:	ad308093          	addi	ra,ra,-1325 # 0xffffffffc98062b7
    b840:	0012c1b3          	xor	gp,t0,ra
    b844:	01408333          	add	t1,ra,s4
    b848:	77d14693          	xori	a3,sp,1917
    b84c:	8b63f013          	andi	zero,t2,-1866
    b850:	67693137          	lui	sp,0x67693
    b854:	00000213          	li	tp,0
    b858:	c20204e3          	beqz	tp,0xb480
    b85c:	6fc3f093          	andi	ra,t2,1788
    b860:	0031f0b3          	and	ra,gp,gp
    b864:	50b17313          	andi	t1,sp,1291
    b868:	00315133          	srl	sp,sp,gp
    b86c:	4030d0b3          	sra	ra,ra,gp
    b870:	bdf94137          	lui	sp,0xbdf94
    b874:	9541a1b7          	lui	gp,0x9541a
    b878:	0165a0b3          	slt	ra,a1,s6
    b87c:	0030b1b3          	sltu	gp,ra,gp
    b880:	842f1217          	auipc	tp,0x842f1
    b884:	0011adb3          	slt	s11,gp,ra
    b888:	5d56d197          	auipc	gp,0x5d56d
    b88c:	405d4537          	lui	a0,0x405d4
    b890:	7b9842b7          	lui	t0,0x7b984
    b894:	a4e2e093          	ori	ra,t0,-1458
    b898:	002161b3          	or	gp,sp,sp
    b89c:	ff70cc93          	xori	s9,ra,-9
    b8a0:	001190b3          	sll	ra,gp,ra
    b8a4:	00406033          	or	zero,zero,tp
    b8a8:	003cc0b3          	xor	ra,s9,gp
    b8ac:	00302133          	sgtz	sp,gp
    b8b0:	0000b0b3          	sltu	ra,ra,zero
    b8b4:	7941c393          	xori	t2,gp,1940
    b8b8:	4030d1b3          	sra	gp,ra,gp
    b8bc:	002191b3          	sll	gp,gp,sp
    b8c0:	28b24117          	auipc	sp,0x28b24
    b8c4:	001131b3          	sltu	gp,sp,ra
    b8c8:	007336b3          	sltu	a3,t1,t2
    b8cc:	0020c0b3          	xor	ra,ra,sp
    b8d0:	8491c113          	xori	sp,gp,-1975
    b8d4:	6f52f237          	lui	tp,0x6f52f
    b8d8:	0010f333          	and	t1,ra,ra
    b8dc:	3230da63          	bge	ra,gp,0xbc10
    b8e0:	3230c863          	blt	ra,gp,0xbc10
    b8e4:	00f30097          	auipc	ra,0xf30
    b8e8:	df849397          	auipc	t2,0xdf849
    b8ec:	00c600b3          	add	ra,a2,a2
    b8f0:	64830113          	addi	sp,t1,1608 # 0x420f0d2c
    b8f4:	00227133          	and	sp,tp,sp
    b8f8:	003131b3          	sltu	gp,sp,gp
    b8fc:	40125333          	sra	t1,tp,ra
    b900:	002100b3          	add	ra,sp,sp
    b904:	0020c133          	xor	sp,ra,sp
    b908:	a241b137          	lui	sp,0xa241b
    b90c:	045d5197          	auipc	gp,0x45d5
    b910:	00106833          	or	a6,zero,ra
    b914:	3a430113          	addi	sp,t1,932
    b918:	1a691397          	auipc	t2,0x1a691
    b91c:	0feae0b7          	lui	ra,0xfeae
    b920:	0011f7b3          	and	a5,gp,ra
    b924:	007320b3          	slt	ra,t1,t2
    b928:	0013c033          	xor	zero,t2,ra
    b92c:	00418233          	add	tp,gp,tp
    b930:	fe40e193          	ori	gp,ra,-28
    b934:	52cd9137          	lui	sp,0x52cd9
    b938:	e1d4b1b7          	lui	gp,0xe1d4b
    b93c:	3e81c193          	xori	gp,gp,1000
    b940:	9660e313          	ori	t1,ra,-1690
    b944:	7f57f117          	auipc	sp,0x7f57f
    b948:	0010a133          	slt	sp,ra,ra
    b94c:	4061d1b3          	sra	gp,gp,t1
    b950:	8c77d937          	lui	s2,0x8c77d
    b954:	00d071b3          	and	gp,zero,a3
    b958:	005127b3          	slt	a5,sp,t0
    b95c:	89670237          	lui	tp,0x89670
    b960:	0001c033          	xor	zero,gp,zero
    b964:	7e96bbb7          	lui	s7,0x7e96b
    b968:	d47156e3          	bge	sp,t2,0xb6b4
    b96c:	d47144e3          	blt	sp,t2,0xb6b4
    b970:	ce8e4337          	lui	t1,0xce8e4
    b974:	c5e44097          	auipc	ra,0xc5e44
    b978:	9facc1b7          	lui	gp,0x9facc
    b97c:	00b3d0b7          	lui	ra,0xb3d
    b980:	003160b3          	or	ra,sp,gp
    b984:	1bda9137          	lui	sp,0x1bda9
    b988:	a4adf117          	auipc	sp,0xa4adf
    b98c:	feb17197          	auipc	gp,0xfeb17
    b990:	de8f1317          	auipc	t1,0xde8f1
    b994:	d1d0f093          	andi	ra,ra,-739
    b998:	1985a0b7          	lui	ra,0x1985a
    b99c:	402101b3          	sub	gp,sp,sp
    b9a0:	ce90c297          	auipc	t0,0xce90c
    b9a4:	24e00093          	li	ra,590
    b9a8:	e79d5137          	lui	sp,0xe79d5
    b9ac:	00333233          	sltu	tp,t1,gp
    b9b0:	00201133          	sll	sp,zero,sp
    b9b4:	3752e093          	ori	ra,t0,885
    b9b8:	0001a0b3          	sltz	ra,gp
    b9bc:	0041d1b3          	srl	gp,gp,tp
    b9c0:	01e2e133          	or	sp,t0,t5
    b9c4:	001160b3          	or	ra,sp,ra
    b9c8:	6c72e137          	lui	sp,0x6c72e
    b9cc:	89d37193          	andi	gp,t1,-1891
    b9d0:	9e85d337          	lui	t1,0x9e85d
    b9d4:	a9ee5137          	lui	sp,0xa9ee5
    b9d8:	30ced397          	auipc	t2,0x30ced
    b9dc:	002161b3          	or	gp,sp,sp
    b9e0:	11668093          	addi	ra,a3,278 # 0x19b8f7a2
    b9e4:	b27152e3          	bge	sp,t2,0xb508
    b9e8:	b27140e3          	blt	sp,t2,0xb508
    b9ec:	00417433          	and	s0,sp,tp
    b9f0:	eff286b7          	lui	a3,0xeff28
    b9f4:	cc193437          	lui	s0,0xcc193
    b9f8:	cf90e093          	ori	ra,ra,-775
    b9fc:	f06e1117          	auipc	sp,0xf06e1
    ba00:	8df1f313          	andi	t1,gp,-1825
    ba04:	7a307193          	andi	gp,zero,1955
    ba08:	7e18d0b7          	lui	ra,0x7e18d
    ba0c:	975be297          	auipc	t0,0x975be
    ba10:	8ed0e113          	ori	sp,ra,-1811
    ba14:	40200133          	neg	sp,sp
    ba18:	432b1317          	auipc	t1,0x432b1
    ba1c:	4001d133          	sra	sp,gp,zero
    ba20:	08318097          	auipc	ra,0x8318
    ba24:	91416193          	ori	gp,sp,-1772
    ba28:	005211b3          	sll	gp,tp,t0
    ba2c:	ed08e197          	auipc	gp,0xed08e
    ba30:	00119233          	sll	tp,gp,ra
    ba34:	9d70b6b7          	lui	a3,0x9d70b
    ba38:	7e2d40b7          	lui	ra,0x7e2d4
    ba3c:	0030f1b3          	and	gp,ra,gp
    ba40:	001261b3          	or	gp,tp,ra
    ba44:	16e95117          	auipc	sp,0x16e95
    ba48:	00101233          	sll	tp,zero,ra
    ba4c:	c54ae3b7          	lui	t2,0xc54ae
    ba50:	dfbbf217          	auipc	tp,0xdfbbf
    ba54:	4a64b1b7          	lui	gp,0x4a64b
    ba58:	00330133          	add	sp,t1,gp
    ba5c:	103a2137          	lui	sp,0x103a2
    ba60:	3060f197          	auipc	gp,0x3060f
    ba64:	b22082e3          	beq	ra,sp,0xb588
    ba68:	b21ff06f          	j	0xb588
    ba6c:	5d708093          	addi	ra,ra,1495 # 0x7e2d45d7
    ba70:	003090b3          	sll	ra,ra,gp
    ba74:	12c2d117          	auipc	sp,0x12c2d
    ba78:	002371b3          	and	gp,t1,sp
    ba7c:	0020a133          	slt	sp,ra,sp
    ba80:	001fd133          	srl	sp,t6,ra
    ba84:	4dd862b7          	lui	t0,0x4dd86
    ba88:	c5208093          	addi	ra,ra,-942
    ba8c:	003140b3          	xor	ra,sp,gp
    ba90:	0111d333          	srl	t1,gp,a7
    ba94:	0e09b0b7          	lui	ra,0xe09b
    ba98:	00311133          	sll	sp,sp,gp
    ba9c:	41d3d0b3          	sra	ra,t2,t4
    baa0:	4051d1b3          	sra	gp,gp,t0
    baa4:	3c66f117          	auipc	sp,0x3c66f
    baa8:	ab457237          	lui	tp,0xab457
    baac:	0121f0b3          	and	ra,gp,s2
    bab0:	0010f133          	and	sp,ra,ra
    bab4:	005151b3          	srl	gp,sp,t0
    bab8:	f5e85317          	auipc	t1,0xf5e85
    babc:	63d18313          	addi	t1,gp,1597 # 0x3061b09d
    bac0:	0020a033          	slt	zero,ra,sp
    bac4:	2eced117          	auipc	sp,0x2eced
    bac8:	a61e2117          	auipc	sp,0xa61e2
    bacc:	001333b3          	sltu	t2,t1,ra
    bad0:	001201b3          	add	gp,tp,ra
    bad4:	40615133          	sra	sp,sp,t1
    bad8:	00207133          	and	sp,zero,sp
    badc:	303830b7          	lui	ra,0x30383
    bae0:	0000f0b3          	and	ra,ra,zero
    bae4:	00d0b1b3          	sltu	gp,ra,a3
    bae8:	0010d0b3          	srl	ra,ra,ra
    baec:	7bf27817          	auipc	a6,0x7bf27
    baf0:	402152b3          	sra	t0,sp,sp
    baf4:	00217333          	and	t1,sp,sp
    baf8:	c9d24193          	xori	gp,tp,-867
    bafc:	861102e3          	beq	sp,ra,0xb360
    bb00:	861ff2ef          	jal	t0,0xb360
    bb04:	005161b3          	or	gp,sp,t0
    bb08:	e9009117          	auipc	sp,0xe9009
    bb0c:	7a410a37          	lui	s4,0x7a410
    bb10:	4b8dc1b7          	lui	gp,0x4b8dc
    bb14:	ff208117          	auipc	sp,0xff208
    bb18:	08418213          	addi	tp,gp,132 # 0x4b8dc084
    bb1c:	d6b17113          	andi	sp,sp,-661
    bb20:	00130133          	add	sp,t1,ra
    bb24:	0020c1b3          	xor	gp,ra,sp
    bb28:	0020b133          	sltu	sp,ra,sp
    bb2c:	40118133          	sub	sp,gp,ra
    bb30:	00b0d3b3          	srl	t2,ra,a1
    bb34:	c200c193          	xori	gp,ra,-992
    bb38:	0020b133          	sltu	sp,ra,sp
    bb3c:	140cb197          	auipc	gp,0x140cb
    bb40:	35c950b7          	lui	ra,0x35c95
    bb44:	407351b3          	sra	gp,t1,t2
    bb48:	5783d1b7          	lui	gp,0x5783d
    bb4c:	25693197          	auipc	gp,0x25693
    bb50:	e2718213          	addi	tp,gp,-473 # 0x2569e973
    bb54:	f0ef61b7          	lui	gp,0xf0ef6
    bb58:	0025d1b3          	srl	gp,a1,sp
    bb5c:	009082b3          	add	t0,ra,s1
    bb60:	591e1137          	lui	sp,0x591e1
    bb64:	878560b7          	lui	ra,0x87856
    bb68:	003150b3          	srl	ra,sp,gp
    bb6c:	00116333          	or	t1,sp,ra
    bb70:	c8a00037          	lui	zero,0xc8a00
    bb74:	00fd0117          	auipc	sp,0xfd0
    bb78:	001170b3          	and	ra,sp,ra
    bb7c:	40315233          	sra	tp,sp,gp
    bb80:	0b973137          	lui	sp,0xb973
    bb84:	00038313          	mv	t1,t2
    bb88:	cc730ae3          	beq	t1,t2,0xb85c
    bb8c:	ea33e5b7          	lui	a1,0xea33e
    bb90:	01cb81b3          	add	gp,s7,t3
    bb94:	0030d0b3          	srl	ra,ra,gp
    bb98:	00219333          	sll	t1,gp,sp
    bb9c:	aad1e193          	ori	gp,gp,-1363
    bba0:	2d01e093          	ori	ra,gp,720
    bba4:	404780b3          	sub	ra,a5,tp
    bba8:	eaf1f193          	andi	gp,gp,-337
    bbac:	f8da1397          	auipc	t2,0xf8da1
    bbb0:	acfe8b17          	auipc	s6,0xacfe8
    bbb4:	0011e0b3          	or	ra,gp,ra
    bbb8:	753e9197          	auipc	gp,0x753e9
    bbbc:	47d16093          	ori	ra,sp,1149
    bbc0:	1f30b097          	auipc	ra,0x1f30b
    bbc4:	65c20713          	addi	a4,tp,1628 # 0xffffffffab45765c
    bbc8:	0001a833          	sltz	a6,gp
    bbcc:	57017093          	andi	ra,sp,1392
    bbd0:	407080b3          	sub	ra,ra,t2
    bbd4:	00efb0b7          	lui	ra,0xefb
    bbd8:	406081b3          	sub	gp,ra,t1
    bbdc:	3a54c197          	auipc	gp,0x3a54c
    bbe0:	03da5117          	auipc	sp,0x3da5
    bbe4:	003171b3          	and	gp,sp,gp
    bbe8:	c3017193          	andi	gp,sp,-976
    bbec:	e6c74217          	auipc	tp,0xe6c74
    bbf0:	005210b3          	sll	ra,tp,t0
    bbf4:	0060a033          	slt	zero,ra,t1
    bbf8:	8b9b6117          	auipc	sp,0x8b9b6
    bbfc:	79710113          	addi	sp,sp,1943 # 0xffffffff8b9c238f
    bc00:	a1b1e113          	ori	sp,gp,-1509
    bc04:	de9b9197          	auipc	gp,0xde9b9
    bc08:	08009c63          	bnez	ra,0xbca0
    bc0c:	08008a63          	beqz	ra,0xbca0
    bc10:	6fe83097          	auipc	ra,0x6fe83
    bc14:	40318333          	sub	t1,gp,gp
    bc18:	a97040b7          	lui	ra,0xa9704
    bc1c:	0017d1b3          	srl	gp,a5,ra
    bc20:	24b14113          	xori	sp,sp,587
    bc24:	bc592197          	auipc	gp,0xbc592
    bc28:	00117133          	and	sp,sp,ra
    bc2c:	181ff1b7          	lui	gp,0x181ff
    bc30:	4430f493          	andi	s1,ra,1091
    bc34:	572df197          	auipc	gp,0x572df
    bc38:	50a61217          	auipc	tp,0x50a61
    bc3c:	c662d1b7          	lui	gp,0xc662d
    bc40:	eff373b7          	lui	t2,0xeff37
    bc44:	00208033          	add	zero,ra,sp
    bc48:	402151b3          	sra	gp,sp,sp
    bc4c:	003131b3          	sltu	gp,sp,gp
    bc50:	b2c1f093          	andi	ra,gp,-1236
    bc54:	de645137          	lui	sp,0xde645
    bc58:	acc17193          	andi	gp,sp,-1332
    bc5c:	0051d133          	srl	sp,gp,t0
    bc60:	aeedf0b7          	lui	ra,0xaeedf
    bc64:	ed438393          	addi	t2,t2,-300 # 0xffffffffeff36ed4
    bc68:	001170b3          	and	ra,sp,ra
    bc6c:	3cd69197          	auipc	gp,0x3cd69
    bc70:	4021d1b3          	sra	gp,gp,sp
    bc74:	40515033          	sra	zero,sp,t0
    bc78:	0011e0b3          	or	ra,gp,ra
    bc7c:	001191b3          	sll	gp,gp,ra
    bc80:	ad00d117          	auipc	sp,0xad00d
    bc84:	6926c2b7          	lui	t0,0x6926c
    bc88:	b6763117          	auipc	sp,0xb6763
    bc8c:	003681b3          	add	gp,a3,gp
    bc90:	20a0c393          	xori	t2,ra,522
    bc94:	ac645797          	auipc	a5,0xac645
    bc98:	b30082e3          	beq	ra,a6,0xb7bc
    bc9c:	b21ff3ef          	jal	t2,0xb7bc
    bca0:	47e2f193          	andi	gp,t0,1150
    bca4:	d4032117          	auipc	sp,0xd4032
    bca8:	4032d2b3          	sra	t0,t0,gp
    bcac:	00617133          	and	sp,sp,t1
    bcb0:	3a88b1b7          	lui	gp,0x3a88b
    bcb4:	ed222337          	lui	t1,0xed222
    bcb8:	80c0f0b7          	lui	ra,0x80c0f
    bcbc:	0011d633          	srl	a2,gp,ra
    bcc0:	18055137          	lui	sp,0x18055
    bcc4:	00311133          	sll	sp,sp,gp
    bcc8:	80fac1b7          	lui	gp,0x80fac
    bccc:	bec08113          	addi	sp,ra,-1044 # 0xffffffff80c0ebec
    bcd0:	16d1c113          	xori	sp,gp,365
    bcd4:	0032e133          	or	sp,t0,gp
    bcd8:	b790f493          	andi	s1,ra,-1159
    bcdc:	e82c5097          	auipc	ra,0xe82c5
    bce0:	cd57d197          	auipc	gp,0xcd57d
    bce4:	4a9600b7          	lui	ra,0x4a960
    bce8:	8acf6117          	auipc	sp,0x8acf6
    bcec:	17f14097          	auipc	ra,0x17f14
    bcf0:	3a8f6137          	lui	sp,0x3a8f6
    bcf4:	2e8ab197          	auipc	gp,0x2e8ab
    bcf8:	005180b3          	add	ra,gp,t0
    bcfc:	0031eeb3          	or	t4,gp,gp
    bd00:	00b1b133          	sltu	sp,gp,a1
    bd04:	00138033          	add	zero,t2,ra
    bd08:	b1c64297          	auipc	t0,0xb1c64
    bd0c:	a14f6797          	auipc	a5,0xa14f6
    bd10:	da0fa117          	auipc	sp,0xda0fa
    bd14:	689ff137          	lui	sp,0x689ff
    bd18:	007130b3          	sltu	ra,sp,t2
    bd1c:	32047397          	auipc	t2,0x32047
    bd20:	00312033          	slt	zero,sp,gp
    bd24:	c013e193          	ori	gp,t2,-1023
    bd28:	79b31137          	lui	sp,0x79b31
    bd2c:	00e041b3          	xor	gp,zero,a4
    bd30:	0030e1b3          	or	gp,ra,gp
    bd34:	c233dee3          	bge	t2,gp,0xb970
    bd38:	c233cce3          	blt	t2,gp,0xb970
    bd3c:	001121b3          	slt	gp,sp,ra
    bd40:	001170b3          	and	ra,sp,ra
    bd44:	002a6133          	or	sp,s4,sp
    bd48:	00313133          	sltu	sp,sp,gp
    bd4c:	71600137          	lui	sp,0x71600
    bd50:	007080b3          	add	ra,ra,t2
    bd54:	ffb18197          	auipc	gp,0xffb18
    bd58:	69d07197          	auipc	gp,0x69d07
    bd5c:	0041a1b3          	slt	gp,gp,tp
    bd60:	001250b3          	srl	ra,tp,ra
    bd64:	67610113          	addi	sp,sp,1654 # 0x71600676
    bd68:	0010b2b3          	sltu	t0,ra,ra
    bd6c:	0001d133          	srl	sp,gp,zero
    bd70:	08fcd137          	lui	sp,0x8fcd
    bd74:	0021e1b3          	or	gp,gp,sp
    bd78:	6bd70137          	lui	sp,0x6bd70
    bd7c:	1787e013          	ori	zero,a5,376
    bd80:	002eb0b3          	sltu	ra,t4,sp
    bd84:	5e017193          	andi	gp,sp,1504
    bd88:	2ef17093          	andi	ra,sp,751
    bd8c:	003170b3          	and	ra,sp,gp
    bd90:	bf1a9137          	lui	sp,0xbf1a9
    bd94:	48bea1b7          	lui	gp,0x48bea
    bd98:	0063a1b3          	slt	gp,t2,t1
    bd9c:	006100b3          	add	ra,sp,t1
    bda0:	ef5c3117          	auipc	sp,0xef5c3
    bda4:	00308033          	add	zero,ra,gp
    bda8:	e2480117          	auipc	sp,0xe2480
    bdac:	0011c133          	xor	sp,gp,ra
    bdb0:	bd408193          	addi	gp,ra,-1068 # 0x17f1f8c0
    bdb4:	c864c0b7          	lui	ra,0xc864c
    bdb8:	b391c113          	xori	sp,gp,-1223
    bdbc:	00213133          	sltu	sp,sp,sp
    bdc0:	00000117          	auipc	sp,0x0
    bdc4:	234100e7          	jalr	564(sp) # 0xbff4
    bdc8:	0010a2b3          	slt	t0,ra,ra
    bdcc:	5c26e197          	auipc	gp,0x5c26e
    bdd0:	f45e7197          	auipc	gp,0xf45e7
    bdd4:	7c70e093          	ori	ra,ra,1991
    bdd8:	8cc24197          	auipc	gp,0x8cc24
    bddc:	09a17093          	andi	ra,sp,154
    bde0:	0021c133          	xor	sp,gp,sp
    bde4:	035847b7          	lui	a5,0x3584
    bde8:	b062c193          	xori	gp,t0,-1274
    bdec:	4031d0b3          	sra	ra,gp,gp
    bdf0:	002682b3          	add	t0,a3,sp
    bdf4:	ec1c4137          	lui	sp,0xec1c4
    bdf8:	40218133          	sub	sp,gp,sp
    bdfc:	a4308093          	addi	ra,ra,-1469 # 0xffffffffc864ba43
    be00:	0a0750b7          	lui	ra,0xa075
    be04:	0090f0b3          	and	ra,ra,s1
    be08:	403351b3          	sra	gp,t1,gp
    be0c:	4051d0b3          	sra	ra,gp,t0
    be10:	004001b3          	add	gp,zero,tp
    be14:	c680c193          	xori	gp,ra,-920
    be18:	914de137          	lui	sp,0x914de
    be1c:	c1002337          	lui	t1,0xc1002
    be20:	002090b3          	sll	ra,ra,sp
    be24:	4e90f093          	andi	ra,ra,1257
    be28:	af01c193          	xori	gp,gp,-1296
    be2c:	002101b3          	add	gp,sp,sp
    be30:	408c0137          	lui	sp,0x408c0
    be34:	457d9717          	auipc	a4,0x457d9
    be38:	73b10193          	addi	gp,sp,1851 # 0x408c073b
    be3c:	6b17a117          	auipc	sp,0x6b17a
    be40:	9912b117          	auipc	sp,0x9912b
    be44:	0090c133          	xor	sp,ra,s1
    be48:	35f0a217          	auipc	tp,0x35f0a
    be4c:	0030c1b3          	xor	gp,ra,gp
    be50:	001103b3          	add	t2,sp,ra
    be54:	3e9d8117          	auipc	sp,0x3e9d8
    be58:	00311633          	sll	a2,sp,gp
    be5c:	ea818193          	addi	gp,gp,-344 # 0xffffffff8cc2fc80
    be60:	00008263          	beqz	ra,0xbe64
    be64:	0c10016f          	jal	sp,0xc724
    be68:	00313233          	sltu	tp,sp,gp
    be6c:	1089c393          	xori	t2,s3,264
    be70:	68ac0597          	auipc	a1,0x68ac0
    be74:	001bd333          	srl	t1,s7,ra
    be78:	8cf0a117          	auipc	sp,0x8cf0a
    be7c:	0020f1b3          	and	gp,ra,sp
    be80:	ef3be617          	auipc	a2,0xef3be
    be84:	0031b133          	sltu	sp,gp,gp
    be88:	e2193117          	auipc	sp,0xe2193
    be8c:	0030a0b3          	slt	ra,ra,gp
    be90:	1a81f093          	andi	ra,gp,424
    be94:	002220b3          	slt	ra,tp,sp
    be98:	403c5033          	sra	zero,s8,gp
    be9c:	0010b333          	sltu	t1,ra,ra
    bea0:	40235133          	sra	sp,t1,sp
    bea4:	76620193          	addi	gp,tp,1894 # 0x35f165ae
    bea8:	0012d133          	srl	sp,t0,ra
    beac:	ed517393          	andi	t2,sp,-299
    beb0:	b8715097          	auipc	ra,0xb8715
    beb4:	000f00b3          	add	ra,t5,zero
    beb8:	0000b0b3          	sltu	ra,ra,zero
    bebc:	31f11137          	lui	sp,0x31f11
    bec0:	0020d4b3          	srl	s1,ra,sp
    bec4:	ad51d097          	auipc	ra,0xad51d
    bec8:	fc9ed1b7          	lui	gp,0xfc9ed
    becc:	59124113          	xori	sp,tp,1425
    bed0:	457c8037          	lui	zero,0x457c8
    bed4:	e6b08193          	addi	gp,ra,-405 # 0xffffffffad528d2f
    bed8:	f7e980b7          	lui	ra,0xf7e98
    bedc:	366690b7          	lui	ra,0x36669
    bee0:	e1c29137          	lui	sp,0xe1c29
    bee4:	00328263          	beq	t0,gp,0xbee8
    bee8:	0c9001ef          	jal	gp,0xc7b0
    beec:	00c7e0b3          	or	ra,a5,a2
    bef0:	0061c3b3          	xor	t2,gp,t1
    bef4:	9bbd7217          	auipc	tp,0x9bbd7
    bef8:	d6e06193          	ori	gp,zero,-658
    befc:	a821e193          	ori	gp,gp,-1406
    bf00:	18eaa137          	lui	sp,0x18eaa
    bf04:	003131b3          	sltu	gp,sp,gp
    bf08:	d54e51b7          	lui	gp,0xd54e5
    bf0c:	705cd137          	lui	sp,0x705cd
    bf10:	73ace097          	auipc	ra,0x73ace
    bf14:	e1c0e193          	ori	gp,ra,-484
    bf18:	00000333          	add	t1,zero,zero
    bf1c:	7578b197          	auipc	gp,0x7578b
    bf20:	0010d1b3          	srl	gp,ra,ra
    bf24:	4050d133          	sra	sp,ra,t0
    bf28:	003010b3          	sll	ra,zero,gp
    bf2c:	674da317          	auipc	t1,0x674da
    bf30:	0072e1b3          	or	gp,t0,t2
    bf34:	76ac80b7          	lui	ra,0x76ac8
    bf38:	0020b0b3          	sltu	ra,ra,sp
    bf3c:	89d2f197          	auipc	gp,0x89d2f
    bf40:	1c368117          	auipc	sp,0x1c368
    bf44:	7f22c193          	xori	gp,t0,2034
    bf48:	002161b3          	or	gp,sp,sp
    bf4c:	94211197          	auipc	gp,0x94211
    bf50:	0031a133          	slt	sp,gp,gp
    bf54:	00218cb3          	add	s9,gp,sp
    bf58:	402055b3          	sra	a1,zero,sp
    bf5c:	4020d133          	sra	sp,ra,sp
    bf60:	ed71c193          	xori	gp,gp,-297
    bf64:	00118463          	beq	gp,ra,0xbf6c
    bf68:	0040016f          	jal	sp,0xbf6c
    bf6c:	07980117          	auipc	sp,0x7980
    bf70:	f9e30097          	auipc	ra,0xf9e30
    bf74:	f7611197          	auipc	gp,0xf7611
    bf78:	0ca30e13          	addi	t3,t1,202 # 0x674e5ff6
    bf7c:	89976197          	auipc	gp,0x89976
    bf80:	3d81c093          	xori	ra,gp,984
    bf84:	002151b3          	srl	gp,sp,sp
    bf88:	31ad11b7          	lui	gp,0x31ad1
    bf8c:	c0837293          	andi	t0,t1,-1016
    bf90:	001331b3          	sltu	gp,t1,ra
    bf94:	00330233          	add	tp,t1,gp
    bf98:	72720113          	addi	sp,tp,1831 # 0xffffffff9bbe361b
    bf9c:	003101b3          	add	gp,sp,gp
    bfa0:	83a6d097          	auipc	ra,0x83a6d
    bfa4:	9d44b097          	auipc	ra,0x9d44b
    bfa8:	bc617193          	andi	gp,sp,-1082
    bfac:	0010b1b3          	sltu	gp,ra,ra
    bfb0:	3350e313          	ori	t1,ra,821
    bfb4:	0010a3b3          	slt	t2,ra,ra
    bfb8:	62dca0b7          	lui	ra,0x62dca
    bfbc:	2e11c137          	lui	sp,0x2e11c
    bfc0:	0010c0b3          	xor	ra,ra,ra
    bfc4:	cbe60097          	auipc	ra,0xcbe60
    bfc8:	00418933          	add	s2,gp,tp
    bfcc:	f5252097          	auipc	ra,0xf5252
    bfd0:	16964137          	lui	sp,0x16964
    bfd4:	cba7a3b7          	lui	t2,0xcba7a
    bfd8:	e5d9d297          	auipc	t0,0xe5d9d
    bfdc:	8c6ff197          	auipc	gp,0x8c6ff
    bfe0:	1c3174b7          	lui	s1,0x1c317
    bfe4:	36b1c593          	xori	a1,gp,875
    bfe8:	4c662117          	auipc	sp,0x4c662
    bfec:	00018113          	mv	sp,gp
    bff0:	08310e63          	beq	sp,gp,0xc08c
    bff4:	b600c393          	xori	t2,ra,-1184
    bff8:	0021c233          	xor	tp,gp,sp
    bffc:	00427133          	and	sp,tp,tp
    c000:	4021d0b3          	sra	ra,gp,sp
    c004:	ac964793          	xori	a5,a2,-1335
    c008:	0000f133          	and	sp,ra,zero
    c00c:	49155137          	lui	sp,0x49155
    c010:	000aa1b3          	sltz	gp,s5
    c014:	0010e0b3          	or	ra,ra,ra
    c018:	83a62297          	auipc	t0,0x83a62
    c01c:	48820117          	auipc	sp,0x48820
    c020:	00112133          	slt	sp,sp,ra
    c024:	b49b5137          	lui	sp,0xb49b5
    c028:	12610193          	addi	gp,sp,294 # 0xffffffffb49b5126
    c02c:	40c1d033          	sra	zero,gp,a2
    c030:	017151b3          	srl	gp,sp,s7
    c034:	00d35c33          	srl	s8,t1,a3
    c038:	004091b3          	sll	gp,ra,tp
    c03c:	7ece3117          	auipc	sp,0x7ece3
    c040:	7d310113          	addi	sp,sp,2003 # 0x7ecef80f
    c044:	ff534193          	xori	gp,t1,-11
    c048:	28365a97          	auipc	s5,0x28365
    c04c:	4011d1b3          	sra	gp,gp,ra
    c050:	2de1e237          	lui	tp,0x2de1e
    c054:	00611333          	sll	t1,sp,t1
    c058:	9b217113          	andi	sp,sp,-1614
    c05c:	00314233          	xor	tp,sp,gp
    c060:	5200c013          	xori	zero,ra,1312
    c064:	58389337          	lui	t1,0x58389
    c068:	69e69197          	auipc	gp,0x69e69
    c06c:	94c17193          	andi	gp,sp,-1716
    c070:	0020f0b3          	and	ra,ra,sp
    c074:	7e867097          	auipc	ra,0x7e867
    c078:	00118133          	add	sp,gp,ra
    c07c:	97d61197          	auipc	gp,0x97d61
    c080:	3aad9117          	auipc	sp,0x3aad9
    c084:	e63104e3          	beq	sp,gp,0xbeec
    c088:	e65ff16f          	jal	sp,0xbeec
    c08c:	54b3e113          	ori	sp,t2,1355
    c090:	5d56d0b7          	lui	ra,0x5d56d
    c094:	0032b1b3          	sltu	gp,t0,gp
    c098:	001091b3          	sll	gp,ra,ra
    c09c:	8e3b5117          	auipc	sp,0x8e3b5
    c0a0:	0022a0b3          	slt	ra,t0,sp
    c0a4:	32d3c197          	auipc	gp,0x32d3c
    c0a8:	b98c91b7          	lui	gp,0xb98c9
    c0ac:	8d92b137          	lui	sp,0x8d92b
    c0b0:	3fdba1b7          	lui	gp,0x3fdba
    c0b4:	b45a8093          	addi	ra,s5,-1211 # 0x28370b8d
    c0b8:	0021a133          	slt	sp,gp,sp
    c0bc:	7899a5b7          	lui	a1,0x7899a
    c0c0:	4020d3b3          	sra	t2,ra,sp
    c0c4:	00632133          	slt	sp,t1,t1
    c0c8:	3055d137          	lui	sp,0x3055d
    c0cc:	59877337          	lui	t1,0x59877
    c0d0:	733a5217          	auipc	tp,0x733a5
    c0d4:	0011c0b3          	xor	ra,gp,ra
    c0d8:	8dc0f113          	andi	sp,ra,-1828
    c0dc:	46d08213          	addi	tp,ra,1133 # 0x5d56d46d
    c0e0:	00913133          	sltu	sp,sp,s1
    c0e4:	003100b3          	add	ra,sp,gp
    c0e8:	00148133          	add	sp,s1,ra
    c0ec:	005051b3          	srl	gp,zero,t0
    c0f0:	dfe0d397          	auipc	t2,0xdfe0d
    c0f4:	cb80b0b7          	lui	ra,0xcb80b
    c0f8:	1e7a40b7          	lui	ra,0x1e7a4
    c0fc:	0013e1b3          	or	gp,t2,ra
    c100:	001161b3          	or	gp,sp,ra
    c104:	03b4a217          	auipc	tp,0x3b4a
    c108:	80a56097          	auipc	ra,0x80a56
    c10c:	0041f1b3          	and	gp,gp,tp
    c110:	033820b7          	lui	ra,0x3382
    c114:	3c618463          	beq	gp,t1,0xc4dc
    c118:	3c4000ef          	jal	ra,0xc4dc
    c11c:	00e09133          	sll	sp,ra,a4
    c120:	7dc601b7          	lui	gp,0x7dc60
    c124:	1fe30093          	addi	ra,t1,510 # 0x598771fe
    c128:	40110133          	sub	sp,sp,ra
    c12c:	ea347497          	auipc	s1,0xea347
    c130:	9a876097          	auipc	ra,0x9a876
    c134:	003150b3          	srl	ra,sp,gp
    c138:	f23de297          	auipc	t0,0xf23de
    c13c:	40108233          	sub	tp,ra,ra
    c140:	00228133          	add	sp,t0,sp
    c144:	00010033          	add	zero,sp,zero
    c148:	38030293          	addi	t0,t1,896
    c14c:	00009133          	sll	sp,ra,zero
    c150:	0030f1b3          	and	gp,ra,gp
    c154:	0040e3b3          	or	t2,ra,tp
    c158:	536f5097          	auipc	ra,0x536f5
    c15c:	40508933          	sub	s2,ra,t0
    c160:	80c75137          	lui	sp,0x80c75
    c164:	a48a7113          	andi	sp,s4,-1464
    c168:	23abc317          	auipc	t1,0x23abc
    c16c:	002026b3          	sgtz	a3,sp
    c170:	fa7b6037          	lui	zero,0xfa7b6
    c174:	1ae451b7          	lui	gp,0x1ae45
    c178:	0061f1b3          	and	gp,gp,t1
    c17c:	5461f093          	andi	ra,gp,1350
    c180:	01a150b3          	srl	ra,sp,s10
    c184:	2ab03117          	auipc	sp,0x2ab03
    c188:	402100b3          	sub	ra,sp,sp
    c18c:	fd218093          	addi	ra,gp,-46 # 0x1ae44fd2
    c190:	888459b7          	lui	s3,0x88845
    c194:	8ec71197          	auipc	gp,0x8ec71
    c198:	01a110b3          	sll	ra,sp,s10
    c19c:	e7f18113          	addi	sp,gp,-385 # 0xffffffff8ec7d013
    c1a0:	a2c5c0b7          	lui	ra,0xa2c5c
    c1a4:	88b4d1b7          	lui	gp,0x88b4d
    c1a8:	002050b3          	srl	ra,zero,sp
    c1ac:	00008313          	mv	t1,ra
    c1b0:	1a130463          	beq	t1,ra,0xc358
    c1b4:	0021a0b3          	slt	ra,gp,sp
    c1b8:	00311133          	sll	sp,sp,gp
    c1bc:	00614233          	xor	tp,sp,t1
    c1c0:	fc510193          	addi	gp,sp,-59 # 0x2ab0f149
    c1c4:	8888d0b7          	lui	ra,0x8888d
    c1c8:	e4102117          	auipc	sp,0xe4102
    c1cc:	005377b3          	and	a5,t1,t0
    c1d0:	0101f133          	and	sp,gp,a6
    c1d4:	0011c133          	xor	sp,gp,ra
    c1d8:	86419097          	auipc	ra,0x86419
    c1dc:	f7d63097          	auipc	ra,0xf7d63
    c1e0:	e0210193          	addi	gp,sp,-510 # 0xffffffffe410dfca
    c1e4:	fb6f8197          	auipc	gp,0xfb6f8
    c1e8:	0041d133          	srl	sp,gp,tp
    c1ec:	00107133          	and	sp,zero,ra
    c1f0:	002690b3          	sll	ra,a3,sp
    c1f4:	4c286097          	auipc	ra,0x4c286
    c1f8:	c3226017          	auipc	zero,0xc3226
    c1fc:	f5ecc113          	xori	sp,s9,-162
    c200:	fea792b7          	lui	t0,0xfea79
    c204:	0031a1b3          	slt	gp,gp,gp
    c208:	d1a2d217          	auipc	tp,0xd1a2d
    c20c:	6f223097          	auipc	ra,0x6f223
    c210:	402101b3          	sub	gp,sp,sp
    c214:	f8996297          	auipc	t0,0xf8996
    c218:	2defd117          	auipc	sp,0x2defd
    c21c:	cd118093          	addi	ra,gp,-815 # 0xfffffffffb703eb5
    c220:	37948137          	lui	sp,0x37948
    c224:	97130393          	addi	t2,t1,-1679 # 0x23ac7ad9
    c228:	3c320e63          	beq	tp,gp,0xc604
    c22c:	3d80016f          	jal	sp,0xc604
    c230:	e504d1b7          	lui	gp,0xe504d
    c234:	0031f0b3          	and	ra,gp,gp
    c238:	15e1e093          	ori	ra,gp,350
    c23c:	002390b3          	sll	ra,t2,sp
    c240:	00709033          	sll	zero,ra,t2
    c244:	01d12133          	slt	sp,sp,t4
    c248:	0dc0f193          	andi	gp,ra,220
    c24c:	6debd197          	auipc	gp,0x6debd
    c250:	00b2c333          	xor	t1,t0,a1
    c254:	003361b3          	or	gp,t1,gp
    c258:	76700197          	auipc	gp,0x76700
    c25c:	00217333          	and	t1,sp,sp
    c260:	32672117          	auipc	sp,0x32672
    c264:	4c9d7197          	auipc	gp,0x4c9d7
    c268:	60586197          	auipc	gp,0x60586
    c26c:	d2b04193          	xori	gp,zero,-725
    c270:	406101b3          	sub	gp,sp,t1
    c274:	00415133          	srl	sp,sp,tp
    c278:	404a0233          	sub	tp,s4,tp
    c27c:	67c1c093          	xori	ra,gp,1660
    c280:	3ce832b7          	lui	t0,0x3ce83
    c284:	70a4e113          	ori	sp,s1,1802
    c288:	c2ca5197          	auipc	gp,0xc2ca5
    c28c:	53a04197          	auipc	gp,0x53a04
    c290:	40315233          	sra	tp,sp,gp
    c294:	89a0fc13          	andi	s8,ra,-1894
    c298:	99a6f313          	andi	t1,a3,-1638
    c29c:	7ec1f193          	andi	gp,gp,2028
    c2a0:	436f8237          	lui	tp,0x436f8
    c2a4:	001310b3          	sll	ra,t1,ra
    c2a8:	003100b3          	add	ra,sp,gp
    c2ac:	e9a18093          	addi	ra,gp,-358 # 0x53a10126
    c2b0:	003120b3          	slt	ra,sp,gp
    c2b4:	fd917117          	auipc	sp,0xfd917
    c2b8:	00211133          	sll	sp,sp,sp
    c2bc:	22f7cf13          	xori	t5,a5,559
    c2c0:	0023d7b3          	srl	a5,t2,sp
    c2c4:	00228463          	beq	t0,sp,0xc2cc
    c2c8:	0040016f          	jal	sp,0xc2cc
    c2cc:	84061497          	auipc	s1,0x84061
    c2d0:	0031a0b3          	slt	ra,gp,gp
    c2d4:	3bb76093          	ori	ra,a4,955
    c2d8:	b2131137          	lui	sp,0xb2131
    c2dc:	90df0097          	auipc	ra,0x90df0
    c2e0:	f3212097          	auipc	ra,0xf3212
    c2e4:	15095237          	lui	tp,0x15095
    c2e8:	e4a7b117          	auipc	sp,0xe4a7b
    c2ec:	c4441197          	auipc	gp,0xc4441
    c2f0:	59279b97          	auipc	s7,0x59279
    c2f4:	0020c1b3          	xor	gp,ra,sp
    c2f8:	6a16a137          	lui	sp,0x6a16a
    c2fc:	4a834093          	xori	ra,t1,1192
    c300:	40cbf137          	lui	sp,0x40cbf
    c304:	0061e1b3          	or	gp,gp,t1
    c308:	90d850b7          	lui	ra,0x90d85
    c30c:	ee6770b7          	lui	ra,0xee677
    c310:	c0318313          	addi	t1,gp,-1021 # 0xffffffffc444ceef
    c314:	0011a5b3          	slt	a1,gp,ra
    c318:	e771e013          	ori	zero,gp,-393
    c31c:	0061e1b3          	or	gp,gp,t1
    c320:	99c7c137          	lui	sp,0x99c7c
    c324:	0020d033          	srl	zero,ra,sp
    c328:	98e3f137          	lui	sp,0x98e3f
    c32c:	002231b3          	sltu	gp,tp,sp
    c330:	37b14097          	auipc	ra,0x37b14
    c334:	27c16113          	ori	sp,sp,636
    c338:	d44e3117          	auipc	sp,0xd44e3
    c33c:	796f7017          	auipc	zero,0x796f7
    c340:	826dc197          	auipc	gp,0x826dc
    c344:	0031f1b3          	and	gp,gp,gp
    c348:	ac44d097          	auipc	ra,0xac44d
    c34c:	4adb5317          	auipc	t1,0x4adb5
    c350:	00000117          	auipc	sp,0x0
    c354:	21810067          	jr	536(sp) # 0xc568
    c358:	00713133          	sltu	sp,sp,t2
    c35c:	efdf3017          	auipc	zero,0xefdf3
    c360:	0032b0b3          	sltu	ra,t0,gp
    c364:	c2b17193          	andi	gp,sp,-981
    c368:	001146b3          	xor	a3,sp,ra
    c36c:	51d3a117          	auipc	sp,0x51d3a
    c370:	74bae117          	auipc	sp,0x74bae
    c374:	0182a0b3          	slt	ra,t0,s8
    c378:	42510113          	addi	sp,sp,1061 # 0x74bba795
    c37c:	741bc097          	auipc	ra,0x741bc
    c380:	80d4c097          	auipc	ra,0x80d4c
    c384:	a8f6f137          	lui	sp,0xa8f6f
    c388:	2da0b0b7          	lui	ra,0x2da0b
    c38c:	f7492137          	lui	sp,0xf7492
    c390:	3f45e217          	auipc	tp,0x3f45e
    c394:	3c92e193          	ori	gp,t0,969
    c398:	44bc4113          	xori	sp,s8,1099
    c39c:	7ba81197          	auipc	gp,0x7ba81
    c3a0:	0060b133          	sltu	sp,ra,t1
    c3a4:	4aa9e113          	ori	sp,s3,1194
    c3a8:	23f58093          	addi	ra,a1,575 # 0x7899a23f
    c3ac:	0011d133          	srl	sp,gp,ra
    c3b0:	a8d18313          	addi	t1,gp,-1395 # 0x7ba8ce29
    c3b4:	d8b1e197          	auipc	gp,0xd8b1e
    c3b8:	ed2a4137          	lui	sp,0xed2a4
    c3bc:	00118133          	add	sp,gp,ra
    c3c0:	0020b1b3          	sltu	gp,ra,sp
    c3c4:	0030ff33          	and	t5,ra,gp
    c3c8:	b81200b7          	lui	ra,0xb8120
    c3cc:	2ae401b7          	lui	gp,0x2ae40
    c3d0:	401083b3          	sub	t2,ra,ra
    c3d4:	0061d033          	srl	zero,gp,t1
    c3d8:	a043f013          	andi	zero,t2,-1532
    c3dc:	5ac1c113          	xori	sp,gp,1452
    c3e0:	0021c133          	xor	sp,gp,sp
    c3e4:	00008193          	mv	gp,ra
    c3e8:	2a118063          	beq	gp,ra,0xc688
    c3ec:	6411f193          	andi	gp,gp,1601
    c3f0:	338feb93          	ori	s7,t6,824
    c3f4:	00412133          	slt	sp,sp,tp
    c3f8:	402252b3          	sra	t0,tp,sp
    c3fc:	00114233          	xor	tp,sp,ra
    c400:	001010b3          	sll	ra,zero,ra
    c404:	fde87117          	auipc	sp,0xfde87
    c408:	00313133          	sltu	sp,sp,gp
    c40c:	b3720037          	lui	zero,0xb3720
    c410:	cfe34113          	xori	sp,t1,-770
    c414:	92426213          	ori	tp,tp,-1756
    c418:	0032e3b3          	or	t2,t0,gp
    c41c:	933831b7          	lui	gp,0x93383
    c420:	0010c0b3          	xor	ra,ra,ra
    c424:	00016ab3          	or	s5,sp,zero
    c428:	4020d1b3          	sra	gp,ra,sp
    c42c:	002181b3          	add	gp,gp,sp
    c430:	d6a07097          	auipc	ra,0xd6a07
    c434:	08de8397          	auipc	t2,0x8de8
    c438:	ad178197          	auipc	gp,0xad178
    c43c:	0fc08093          	addi	ra,ra,252 # 0xffffffffd6a1352c
    c440:	0023f133          	and	sp,t2,sp
    c444:	a22a0917          	auipc	s2,0xa22a0
    c448:	e1e2f013          	andi	zero,t0,-482
    c44c:	ffbd70b7          	lui	ra,0xffbd7
    c450:	6fd5a117          	auipc	sp,0x6fd5a
    c454:	c7c16113          	ori	sp,sp,-900
    c458:	8e3002e3          	beq	zero,gp,0xbd3c
    c45c:	8e1ff16f          	jal	sp,0xbd3c
    c460:	3d336313          	ori	t1,t1,979
    c464:	8f9e0097          	auipc	ra,0x8f9e0
    c468:	ff92c0b7          	lui	ra,0xff92c
    c46c:	ba8542b7          	lui	t0,0xba854
    c470:	003261b3          	or	gp,tp,gp
    c474:	19cb4237          	lui	tp,0x19cb4
    c478:	a02c6197          	auipc	gp,0xa02c6
    c47c:	000091b3          	sll	gp,ra,zero
    c480:	40105eb3          	sra	t4,zero,ra
    c484:	4020d1b3          	sra	gp,ra,sp
    c488:	001830b3          	sltu	ra,a6,ra
    c48c:	4021d1b3          	sra	gp,gp,sp
    c490:	0ff62117          	auipc	sp,0xff62
    c494:	22e570b7          	lui	ra,0x22e57
    c498:	4210f113          	andi	sp,ra,1057
    c49c:	d80da0b7          	lui	ra,0xd80da
    c4a0:	c9e10117          	auipc	sp,0xc9e10
    c4a4:	c41e92b7          	lui	t0,0xc41e9
    c4a8:	1d0a2117          	auipc	sp,0x1d0a2
    c4ac:	001161b3          	or	gp,sp,ra
    c4b0:	e4ef2237          	lui	tp,0xe4ef2
    c4b4:	005cb1b3          	sltu	gp,s9,t0
    c4b8:	0010e133          	or	sp,ra,ra
    c4bc:	f0917113          	andi	sp,sp,-247
    c4c0:	3eb7d397          	auipc	t2,0x3eb7d
    c4c4:	0000b0b3          	sltu	ra,ra,zero
    c4c8:	0021c1b3          	xor	gp,gp,sp
    c4cc:	a961c113          	xori	sp,gp,-1386
    c4d0:	cf6cd317          	auipc	t1,0xcf6cd
    c4d4:	8e91dae3          	bge	gp,s1,0xbdc8
    c4d8:	8e91c8e3          	blt	gp,s1,0xbdc8
    c4dc:	402150b3          	sra	ra,sp,sp
    c4e0:	0093e0b3          	or	ra,t2,s1
    c4e4:	007131b3          	sltu	gp,sp,t2
    c4e8:	e712c393          	xori	t2,t0,-399
    c4ec:	002080b3          	add	ra,ra,sp
    c4f0:	0021e133          	or	sp,gp,sp
    c4f4:	7c8b61b7          	lui	gp,0x7c8b6
    c4f8:	f9417d13          	andi	s10,sp,-108
    c4fc:	0391c397          	auipc	t2,0x391c
    c500:	001161b3          	or	gp,sp,ra
    c504:	d9ade097          	auipc	ra,0xd9ade
    c508:	23390217          	auipc	tp,0x23390
    c50c:	0991c093          	xori	ra,gp,153
    c510:	1fc08197          	auipc	gp,0x1fc08
    c514:	0030a233          	slt	tp,ra,gp
    c518:	5b6afc37          	lui	s8,0x5b6af
    c51c:	73e5e193          	ori	gp,a1,1854
    c520:	09ca8137          	lui	sp,0x9ca8
    c524:	4d535097          	auipc	ra,0x4d535
    c528:	0017a033          	slt	zero,a5,ra
    c52c:	8431e113          	ori	sp,gp,-1981
    c530:	003140b3          	xor	ra,sp,gp
    c534:	e849c0b7          	lui	ra,0xe849c
    c538:	40178333          	sub	t1,a5,ra
    c53c:	6e605117          	auipc	sp,0x6e605
    c540:	40220233          	sub	tp,tp,sp
    c544:	0022f133          	and	sp,t0,sp
    c548:	002353b3          	srl	t2,t1,sp
    c54c:	7a0970b7          	lui	ra,0x7a097
    c550:	00223133          	sltu	sp,tp,sp
    c554:	8bf00193          	li	gp,-1857
    c558:	403050b3          	sra	ra,zero,gp
    c55c:	00237033          	and	zero,t1,sp
    c560:	90d004e3          	beq	zero,a3,0xbe68
    c564:	905ff16f          	jal	sp,0xbe68
    c568:	dbb0f193          	andi	gp,ra,-581
    c56c:	4010d0b3          	sra	ra,ra,ra
    c570:	d2e10493          	addi	s1,sp,-722 # 0x6e61126a
    c574:	327f90b7          	lui	ra,0x327f9
    c578:	18414193          	xori	gp,sp,388
    c57c:	acb9d117          	auipc	sp,0xacb9d
    c580:	b4508137          	lui	sp,0xb4508
    c584:	e6a91837          	lui	a6,0xe6a91
    c588:	00313133          	sltu	sp,sp,gp
    c58c:	4041d1b3          	sra	gp,gp,tp
    c590:	84770137          	lui	sp,0x84770
    c594:	001130b3          	sltu	ra,sp,ra
    c598:	e2d36113          	ori	sp,t1,-467
    c59c:	007101b3          	add	gp,sp,t2
    c5a0:	53aa8117          	auipc	sp,0x53aa8
    c5a4:	402051b3          	sra	gp,zero,sp
    c5a8:	5d117193          	andi	gp,sp,1489
    c5ac:	78b8b117          	auipc	sp,0x78b8b
    c5b0:	c91ea097          	auipc	ra,0xc91ea
    c5b4:	05fd2197          	auipc	gp,0x5fd2
    c5b8:	00b300b3          	add	ra,t1,a1
    c5bc:	0031e7b3          	or	a5,gp,gp
    c5c0:	0031ddb3          	srl	s11,gp,gp
    c5c4:	90c6e013          	ori	zero,a3,-1780
    c5c8:	4021d2b3          	sra	t0,gp,sp
    c5cc:	0010c0b3          	xor	ra,ra,ra
    c5d0:	001141b3          	xor	gp,sp,ra
    c5d4:	7d55b117          	auipc	sp,0x7d55b
    c5d8:	0060a3b3          	slt	t2,ra,t1
    c5dc:	0f5e40b7          	lui	ra,0xf5e4
    c5e0:	4d708393          	addi	t2,ra,1239 # 0xf5e44d7
    c5e4:	c2a2b037          	lui	zero,0xc2a2b
    c5e8:	0062f1b3          	and	gp,t0,t1
    c5ec:	5794c197          	auipc	gp,0x5794c
    c5f0:	40d18133          	sub	sp,gp,a3
    c5f4:	53140117          	auipc	sp,0x53140
    c5f8:	00533d33          	sltu	s10,t1,t0
    c5fc:	b231d0e3          	bge	gp,gp,0xc11c
    c600:	b031cee3          	blt	gp,gp,0xc11c
    c604:	ad006137          	lui	sp,0xad006
    c608:	001132b3          	sltu	t0,sp,ra
    c60c:	00103133          	snez	sp,ra
    c610:	3e6ab117          	auipc	sp,0x3e6ab
    c614:	71538313          	addi	t1,t2,1813 # 0x3928c11
    c618:	dceca097          	auipc	ra,0xdceca
    c61c:	14106013          	ori	zero,zero,321
    c620:	391801b7          	lui	gp,0x39180
    c624:	4011d1b3          	sra	gp,gp,ra
    c628:	0031f0b3          	and	ra,gp,gp
    c62c:	768b8117          	auipc	sp,0x768b8
    c630:	00610033          	add	zero,sp,t1
    c634:	d4beb137          	lui	sp,0xd4beb
    c638:	002390b3          	sll	ra,t2,sp
    c63c:	0071f0b3          	and	ra,gp,t2
    c640:	0011e333          	or	t1,gp,ra
    c644:	3974f1b7          	lui	gp,0x3974f
    c648:	0000d133          	srl	sp,ra,zero
    c64c:	58a9d137          	lui	sp,0x58a9d
    c650:	eab27093          	andi	ra,tp,-341
    c654:	f6d28013          	addi	zero,t0,-147 # 0xffffffffc41e8f6d
    c658:	c4527017          	auipc	zero,0xc4527
    c65c:	001791b3          	sll	gp,a5,ra
    c660:	7ec81117          	auipc	sp,0x7ec81
    c664:	d9f2b1b7          	lui	gp,0xd9f2b
    c668:	0011ef33          	or	t5,gp,ra
    c66c:	27818193          	addi	gp,gp,632 # 0xffffffffd9f2b278
    c670:	681e6117          	auipc	sp,0x681e6
    c674:	0023e133          	or	sp,t2,sp
    c678:	40330033          	sub	zero,t1,gp
    c67c:	0070b0b3          	sltu	ra,ra,t2
    c680:	00030093          	mv	ra,t1
    c684:	dc608ee3          	beq	ra,t1,0xc460
    c688:	ff008593          	addi	a1,ra,-16 # 0xffffffffdced6608
    c68c:	7bb31097          	auipc	ra,0x7bb31
    c690:	23504137          	lui	sp,0x23504
    c694:	014170b3          	and	ra,sp,s4
    c698:	4011d5b3          	sra	a1,gp,ra
    c69c:	f081c693          	xori	a3,gp,-248
    c6a0:	a504f793          	andi	a5,s1,-1456
    c6a4:	01422133          	slt	sp,tp,s4
    c6a8:	0031c2b3          	xor	t0,gp,gp
    c6ac:	d1133097          	auipc	ra,0xd1133
    c6b0:	40325133          	sra	sp,tp,gp
    c6b4:	4e2bd1b7          	lui	gp,0x4e2bd
    c6b8:	0026b0b3          	sltu	ra,a3,sp
    c6bc:	0041e0b3          	or	ra,gp,tp
    c6c0:	4022d333          	sra	t1,t0,sp
    c6c4:	d6d9e137          	lui	sp,0xd6d9e
    c6c8:	0032b133          	sltu	sp,t0,gp
    c6cc:	009201b3          	add	gp,tp,s1
    c6d0:	40618033          	sub	zero,gp,t1
    c6d4:	0010c0b3          	xor	ra,ra,ra
    c6d8:	51c10393          	addi	t2,sp,1308 # 0xffffffffd6d9e51c
    c6dc:	7df791b7          	lui	gp,0x7df79
    c6e0:	716833b7          	lui	t2,0x71683
    c6e4:	d38cf097          	auipc	ra,0xd38cf
    c6e8:	401080b3          	sub	ra,ra,ra
    c6ec:	1a0ca237          	lui	tp,0x1a0ca
    c6f0:	8310e293          	ori	t0,ra,-1999
    c6f4:	003171b3          	and	gp,sp,gp
    c6f8:	3ac63597          	auipc	a1,0x3ac63
    c6fc:	b9b101b7          	lui	gp,0xb9b10
    c700:	0051a0b3          	slt	ra,gp,t0
    c704:	3a108193          	addi	gp,ra,929 # 0xffffffffd38dba85
    c708:	f1f0f013          	andi	zero,ra,-225
    c70c:	e3374197          	auipc	gp,0xe3374
    c710:	dd11e113          	ori	sp,gp,-559
    c714:	a1881137          	lui	sp,0xa1881
    c718:	97a3e113          	ori	sp,t2,-1670
    c71c:	cc2088e3          	beq	ra,sp,0xc3ec
    c720:	ccdff0ef          	jal	ra,0xc3ec
    c724:	3473c117          	auipc	sp,0x3473c
    c728:	a5eee297          	auipc	t0,0xa5eee
    c72c:	002106b3          	add	a3,sp,sp
    c730:	46b21097          	auipc	ra,0x46b21
    c734:	19617293          	andi	t0,sp,406
    c738:	e49ff1b7          	lui	gp,0xe49ff
    c73c:	0051d1b3          	srl	gp,gp,t0
    c740:	002293b3          	sll	t2,t0,sp
    c744:	57c1c913          	xori	s2,gp,1404
    c748:	53964137          	lui	sp,0x53964
    c74c:	06227093          	andi	ra,tp,98
    c750:	0012b133          	sltu	sp,t0,ra
    c754:	002190b3          	sll	ra,gp,sp
    c758:	9c510193          	addi	gp,sp,-1595 # 0x539639c5
    c75c:	e0b17213          	andi	tp,sp,-501
    c760:	0030c1b3          	xor	gp,ra,gp
    c764:	7ecbd137          	lui	sp,0x7ecbd
    c768:	91314093          	xori	ra,sp,-1773
    c76c:	0030f3b3          	and	t2,ra,gp
    c770:	1f40e293          	ori	t0,ra,500
    c774:	8e6da1b7          	lui	gp,0x8e6da
    c778:	0051c133          	xor	sp,gp,t0
    c77c:	9680f093          	andi	ra,ra,-1688
    c780:	c1583137          	lui	sp,0xc1583
    c784:	40510133          	sub	sp,sp,t0
    c788:	f40d8137          	lui	sp,0xf40d8
    c78c:	e0b531b7          	lui	gp,0xe0b53
    c790:	f120f193          	andi	gp,ra,-238
    c794:	ad35b117          	auipc	sp,0xad35b
    c798:	b4717113          	andi	sp,sp,-1209
    c79c:	13410137          	lui	sp,0x13410
    c7a0:	768bb1b7          	lui	gp,0x768bb
    c7a4:	22d246b7          	lui	a3,0x22d24
    c7a8:	00018113          	mv	sp,gp
    c7ac:	a83102e3          	beq	sp,gp,0xc230
    c7b0:	29361197          	auipc	gp,0x29361
    c7b4:	85455137          	lui	sp,0x85455
    c7b8:	9debf213          	andi	tp,s7,-1570
    c7bc:	9c1ee117          	auipc	sp,0x9c1ee
    c7c0:	f2685097          	auipc	ra,0xf2685
    c7c4:	78234093          	xori	ra,t1,1922
    c7c8:	0021b4b3          	sltu	s1,gp,sp
    c7cc:	002170b3          	and	ra,sp,sp
    c7d0:	40405333          	sra	t1,zero,tp
    c7d4:	81155137          	lui	sp,0x81155
    c7d8:	003570b3          	and	ra,a0,gp
    c7dc:	0020c1b3          	xor	gp,ra,sp
    c7e0:	ecb39117          	auipc	sp,0xecb39
    c7e4:	216333b7          	lui	t2,0x21633
    c7e8:	c015b117          	auipc	sp,0xc015b
    c7ec:	47a74037          	lui	zero,0x47a74
    c7f0:	00218133          	add	sp,gp,sp
    c7f4:	40308133          	sub	sp,ra,gp
    c7f8:	001064b3          	or	s1,zero,ra
    c7fc:	0012f0b3          	and	ra,t0,ra
    c800:	0030c0b3          	xor	ra,ra,gp
    c804:	428a3137          	lui	sp,0x428a3
    c808:	0090c1b3          	xor	gp,ra,s1
    c80c:	0014b1b3          	sltu	gp,s1,ra
    c810:	6c41d537          	lui	a0,0x6c41d
    c814:	a652f693          	andi	a3,t0,-1435
    c818:	1b929137          	lui	sp,0x1b929
    c81c:	0030a3b3          	slt	t2,ra,gp
    c820:	c4415137          	lui	sp,0xc4415
    c824:	7978e1b7          	lui	gp,0x7978e
    c828:	dc714113          	xori	sp,sp,-569
    c82c:	0021a1b3          	slt	gp,gp,sp
    c830:	0040f1b3          	and	gp,ra,tp
    c834:	60910863          	beq	sp,s1,0xce44
    c838:	60c0016f          	jal	sp,0xce44
    c83c:	40308333          	sub	t1,ra,gp
    c840:	84860717          	auipc	a4,0x84860
    c844:	002120b3          	slt	ra,sp,sp
    c848:	4010d0b3          	sra	ra,ra,ra
    c84c:	9d61f113          	andi	sp,gp,-1578
    c850:	e7e0f093          	andi	ra,ra,-386
    c854:	b94d5197          	auipc	gp,0xb94d5
    c858:	0031a1b3          	slt	gp,gp,gp
    c85c:	40110033          	sub	zero,sp,ra
    c860:	60910193          	addi	gp,sp,1545 # 0xffffffffc4415609
    c864:	0031b133          	sltu	sp,gp,gp
    c868:	cfe041b7          	lui	gp,0xcfe04
    c86c:	e8d24013          	xori	zero,tp,-371
    c870:	0063f0b3          	and	ra,t2,t1
    c874:	9e441117          	auipc	sp,0x9e441
    c878:	403001b3          	neg	gp,gp
    c87c:	003a10b3          	sll	ra,s4,gp
    c880:	01918293          	addi	t0,gp,25 # 0xffffffffcfe04019
    c884:	0000f0b3          	and	ra,ra,zero
    c888:	faced637          	lui	a2,0xfaced
    c88c:	00b01133          	sll	sp,zero,a1
    c890:	39549197          	auipc	gp,0x39549
    c894:	0001f033          	and	zero,gp,zero
    c898:	92428293          	addi	t0,t0,-1756 # 0xffffffffa5efa04c
    c89c:	00215133          	srl	sp,sp,sp
    c8a0:	00027133          	and	sp,tp,zero
    c8a4:	6c397097          	auipc	ra,0x6c397
    c8a8:	002020b3          	sgtz	ra,sp
    c8ac:	004031b3          	snez	gp,tp
    c8b0:	45b27193          	andi	gp,tp,1115
    c8b4:	0021d333          	srl	t1,gp,sp
    c8b8:	b10d0337          	lui	t1,0xb10d0
    c8bc:	a2e04293          	xori	t0,zero,-1490
    c8c0:	c69a8197          	auipc	gp,0xc69a8
    c8c4:	ed5300b7          	lui	ra,0xed530
    c8c8:	40210133          	sub	sp,sp,sp
    c8cc:	00018093          	mv	ra,gp
    c8d0:	0a308263          	beq	ra,gp,0xc974
    c8d4:	00c4f1b3          	and	gp,s1,a2
    c8d8:	01e08fb3          	add	t6,ra,t5
    c8dc:	92a1f017          	auipc	zero,0x92a1f
    c8e0:	feee33b7          	lui	t2,0xfeee3
    c8e4:	24663197          	auipc	gp,0x24663
    c8e8:	00109133          	sll	sp,ra,ra
    c8ec:	d57c09b7          	lui	s3,0xd57c0
    c8f0:	a23f1b97          	auipc	s7,0xa23f1
    c8f4:	0042e1b3          	or	gp,t0,tp
    c8f8:	0013d1b3          	srl	gp,t2,ra
    c8fc:	00612133          	slt	sp,sp,t1
    c900:	30cb4137          	lui	sp,0x30cb4
    c904:	0027d0b3          	srl	ra,a5,sp
    c908:	e4327113          	andi	sp,tp,-445
    c90c:	1ff500b7          	lui	ra,0x1ff50
    c910:	f6a14113          	xori	sp,sp,-150
    c914:	002110b3          	sll	ra,sp,sp
    c918:	4011d0b3          	sra	ra,gp,ra
    c91c:	402080b3          	sub	ra,ra,sp
    c920:	54630113          	addi	sp,t1,1350 # 0xffffffffb10d0546
    c924:	001051b3          	srl	gp,zero,ra
    c928:	41c4d1b7          	lui	gp,0x41c4d
    c92c:	a6e98137          	lui	sp,0xa6e98
    c930:	0010c2b3          	xor	t0,ra,ra
    c934:	0010c2b3          	xor	t0,ra,ra
    c938:	8acd41b7          	lui	gp,0x8acd4
    c93c:	0030e133          	or	sp,ra,gp
    c940:	acc11097          	auipc	ra,0xacc11
    c944:	463780b7          	lui	ra,0x46378
    c948:	00012133          	sltz	sp,sp
    c94c:	0021fe33          	and	t3,gp,sp
    c950:	0022b233          	sltu	tp,t0,sp
    c954:	0022f1b3          	and	gp,t0,sp
    c958:	ddb10093          	addi	ra,sp,-549 # 0xffffffffa6e97ddb
    c95c:	497320b7          	lui	ra,0x49732
    c960:	b410e0b7          	lui	ra,0xb410e
    c964:	403280b3          	sub	ra,t0,gp
    c968:	401250b3          	sra	ra,tp,ra
    c96c:	00018193          	mv	gp,gp
    c970:	2a318c63          	beq	gp,gp,0xcc28
    c974:	4b33b197          	auipc	gp,0x4b33b
    c978:	4c1ce197          	auipc	gp,0x4c1ce
    c97c:	bd080093          	addi	ra,a6,-1072 # 0xffffffffe6a90bd0
    c980:	3d836113          	ori	sp,t1,984
    c984:	865a82b7          	lui	t0,0x865a8
    c988:	3fe1f193          	andi	gp,gp,1022
    c98c:	1017b0b7          	lui	ra,0x1017b
    c990:	003221b3          	slt	gp,tp,gp
    c994:	0f3672b7          	lui	t0,0xf367
    c998:	8dd0e113          	ori	sp,ra,-1827
    c99c:	40c98ab7          	lui	s5,0x40c98
    c9a0:	db1e30b7          	lui	ra,0xdb1e3
    c9a4:	8331f093          	andi	ra,gp,-1997
    c9a8:	00230133          	add	sp,t1,sp
    c9ac:	00307033          	and	zero,zero,gp
    c9b0:	00213133          	sltu	sp,sp,sp
    c9b4:	002031b3          	snez	gp,sp
    c9b8:	40318033          	sub	zero,gp,gp
    c9bc:	8033b197          	auipc	gp,0x8033b
    c9c0:	85026293          	ori	t0,tp,-1968
    c9c4:	005143b3          	xor	t2,sp,t0
    c9c8:	001090b3          	sll	ra,ra,ra
    c9cc:	00b34133          	xor	sp,t1,a1
    c9d0:	db826093          	ori	ra,tp,-584
    c9d4:	bc931337          	lui	t1,0xbc931
    c9d8:	009090b3          	sll	ra,ra,s1
    c9dc:	e84c0097          	auipc	ra,0xe84c0
    c9e0:	e6e5e0b7          	lui	ra,0xe6e5e
    c9e4:	40b18133          	sub	sp,gp,a1
    c9e8:	877510b7          	lui	ra,0x87751
    c9ec:	d6210693          	addi	a3,sp,-670
    c9f0:	6340e113          	ori	sp,ra,1588
    c9f4:	4e028263          	beqz	t0,0xced8
    c9f8:	4e0001ef          	jal	gp,0xced8
    c9fc:	00b0e133          	or	sp,ra,a1
    ca00:	52129137          	lui	sp,0x52129
    ca04:	705701b7          	lui	gp,0x70570
    ca08:	0d0bf117          	auipc	sp,0xd0bf
    ca0c:	402280b3          	sub	ra,t0,sp
    ca10:	a3807193          	andi	gp,zero,-1480
    ca14:	0035c1b3          	xor	gp,a1,gp
    ca18:	a1a14113          	xori	sp,sp,-1510
    ca1c:	0020f133          	and	sp,ra,sp
    ca20:	6dd85117          	auipc	sp,0x6dd85
    ca24:	0021b033          	sltu	zero,gp,sp
    ca28:	011fa033          	slt	zero,t6,a7
    ca2c:	40045333          	sra	t1,s0,zero
    ca30:	c87f5117          	auipc	sp,0xc87f5
    ca34:	40110033          	sub	zero,sp,ra
    ca38:	8a427193          	andi	gp,tp,-1884
    ca3c:	0060f1b3          	and	gp,ra,t1
    ca40:	f6fdc1b7          	lui	gp,0xf6fdc
    ca44:	40c0d133          	sra	sp,ra,a2
    ca48:	234e6597          	auipc	a1,0x234e6
    ca4c:	000353b3          	srl	t2,t1,zero
    ca50:	002190b3          	sll	ra,gp,sp
    ca54:	80835117          	auipc	sp,0x80835
    ca58:	40108333          	sub	t1,ra,ra
    ca5c:	cbe10113          	addi	sp,sp,-834 # 0xffffffff80841712
    ca60:	705a5b17          	auipc	s6,0x705a5
    ca64:	0031c1b3          	xor	gp,gp,gp
    ca68:	3990e237          	lui	tp,0x3990e
    ca6c:	92fb9297          	auipc	t0,0x92fb9
    ca70:	03b1c093          	xori	ra,gp,59
    ca74:	9541e113          	ori	sp,gp,-1708
    ca78:	41f200b3          	sub	ra,tp,t6
    ca7c:	403250b3          	sra	ra,tp,gp
    ca80:	b9593317          	auipc	t1,0xb9593
    ca84:	da451097          	auipc	ra,0xda451
    ca88:	176db137          	lui	sp,0x176db
    ca8c:	003120b3          	slt	ra,sp,gp
    ca90:	c264f0b7          	lui	ra,0xc264f
    ca94:	0820da63          	bge	ra,sp,0xcb28
    ca98:	0820c863          	blt	ra,sp,0xcb28
    ca9c:	402100b3          	sub	ra,sp,sp
    caa0:	56146197          	auipc	gp,0x56146
    caa4:	65e32097          	auipc	ra,0x65e32
    caa8:	00019133          	sll	sp,gp,zero
    caac:	003160b3          	or	ra,sp,gp
    cab0:	0030b1b3          	sltu	gp,ra,gp
    cab4:	9c8a71b7          	lui	gp,0x9c8a7
    cab8:	38725137          	lui	sp,0x38725
    cabc:	93286193          	ori	gp,a6,-1742
    cac0:	fda3f317          	auipc	t1,0xfda3f
    cac4:	0091f133          	and	sp,gp,s1
    cac8:	5b450097          	auipc	ra,0x5b450
    cacc:	0032c3b3          	xor	t2,t0,gp
    cad0:	5d42c3b7          	lui	t2,0x5d42c
    cad4:	8ce55037          	lui	zero,0x8ce55
    cad8:	003191b3          	sll	gp,gp,gp
    cadc:	003127b3          	slt	a5,sp,gp
    cae0:	8deed117          	auipc	sp,0x8deed
    cae4:	002d40b3          	xor	ra,s10,sp
    cae8:	61561117          	auipc	sp,0x61561
    caec:	0021f0b3          	and	ra,gp,sp
    caf0:	4030d333          	sra	t1,ra,gp
    caf4:	eb5380b7          	lui	ra,0xeb538
    caf8:	6c321117          	auipc	sp,0x6c321
    cafc:	8103f193          	andi	gp,t2,-2032
    cb00:	405080b3          	sub	ra,ra,t0
    cb04:	0030d133          	srl	sp,ra,gp
    cb08:	48b63197          	auipc	gp,0x48b63
    cb0c:	000161b3          	or	gp,sp,zero
    cb10:	91f961b7          	lui	gp,0x91f96
    cb14:	40b18133          	sub	sp,gp,a1
    cb18:	7a100337          	lui	t1,0x7a100
    cb1c:	d5359117          	auipc	sp,0xd5359
    cb20:	00048193          	mv	gp,s1
    cb24:	5e918663          	beq	gp,s1,0xd110
    cb28:	0000f0b3          	and	ra,ra,zero
    cb2c:	a9e0f193          	andi	gp,ra,-1378
    cb30:	bf3b6397          	auipc	t2,0xbf3b6
    cb34:	002083b3          	add	t2,ra,sp
    cb38:	47a04293          	xori	t0,zero,1146
    cb3c:	8060c117          	auipc	sp,0x8060c
    cb40:	72b8d2b7          	lui	t0,0x72b8d
    cb44:	1091e293          	ori	t0,gp,265
    cb48:	e4a16093          	ori	ra,sp,-438
    cb4c:	007181b3          	add	gp,gp,t2
    cb50:	3e1a21b7          	lui	gp,0x3e1a2
    cb54:	405200b3          	sub	ra,tp,t0
    cb58:	007111b3          	sll	gp,sp,t2
    cb5c:	416cf1b7          	lui	gp,0x416cf
    cb60:	f6091337          	lui	t1,0xf6091
    cb64:	d7836393          	ori	t2,t1,-648
    cb68:	003111b3          	sll	gp,sp,gp
    cb6c:	3ae27113          	andi	sp,tp,942
    cb70:	bf31e013          	ori	zero,gp,-1037
    cb74:	8f028113          	addi	sp,t0,-1808 # 0x72b8c8f0
    cb78:	001151b3          	srl	gp,sp,ra
    cb7c:	00116033          	or	zero,sp,ra
    cb80:	0030f333          	and	t1,ra,gp
    cb84:	6d61c093          	xori	ra,gp,1750
    cb88:	3fec9097          	auipc	ra,0x3fec9
    cb8c:	001340b3          	xor	ra,t1,ra
    cb90:	001331b3          	sltu	gp,t1,ra
    cb94:	01c23233          	sltu	tp,tp,t3
    cb98:	0ad75097          	auipc	ra,0xad75
    cb9c:	c7f07117          	auipc	sp,0xc7f07
    cba0:	01c965b7          	lui	a1,0x1c96
    cba4:	00216133          	or	sp,sp,sp
    cba8:	98c84197          	auipc	gp,0x98c84
    cbac:	5e64f463          	bgeu	s1,t1,0xd194
    cbb0:	5e64e263          	bltu	s1,t1,0xd194
    cbb4:	81114193          	xori	gp,sp,-2031
    cbb8:	4010d333          	sra	t1,ra,ra
    cbbc:	403100b3          	sub	ra,sp,gp
    cbc0:	639890b7          	lui	ra,0x63989
    cbc4:	d7722117          	auipc	sp,0xd7722
    cbc8:	002300b3          	add	ra,t1,sp
    cbcc:	0090c133          	xor	sp,ra,s1
    cbd0:	0150f1b3          	and	gp,ra,s5
    cbd4:	00309133          	sll	sp,ra,gp
    cbd8:	ea556097          	auipc	ra,0xea556
    cbdc:	40100133          	neg	sp,ra
    cbe0:	d910cb93          	xori	s7,ra,-623
    cbe4:	0f0c9017          	auipc	zero,0xf0c9
    cbe8:	ad2dd117          	auipc	sp,0xad2dd
    cbec:	0030d1b3          	srl	gp,ra,gp
    cbf0:	402251b3          	sra	gp,tp,sp
    cbf4:	00311233          	sll	tp,sp,gp
    cbf8:	4e714093          	xori	ra,sp,1255
    cbfc:	007d81b3          	add	gp,s11,t2
    cc00:	441c2117          	auipc	sp,0x441c2
    cc04:	003080b3          	add	ra,ra,gp
    cc08:	7dc4e193          	ori	gp,s1,2012
    cc0c:	7382ff37          	lui	t5,0x7382f
    cc10:	4010d033          	sra	zero,ra,ra
    cc14:	304b1117          	auipc	sp,0x304b1
    cc18:	00b20333          	add	t1,tp,a1
    cc1c:	002fc2b3          	xor	t0,t6,sp
    cc20:	44780e63          	beq	a6,t2,0xd07c
    cc24:	4580036f          	jal	t1,0xd07c
    cc28:	3386b0b7          	lui	ra,0x3386b
    cc2c:	b501c113          	xori	sp,gp,-1200
    cc30:	01e370b3          	and	ra,t1,t5
    cc34:	c7b1e393          	ori	t2,gp,-901
    cc38:	404282b3          	sub	t0,t0,tp
    cc3c:	000231b3          	sltu	gp,tp,zero
    cc40:	a3924137          	lui	sp,0xa3924
    cc44:	412002b3          	neg	t0,s2
    cc48:	c04d6117          	auipc	sp,0xc04d6
    cc4c:	00d0a133          	slt	sp,ra,a3
    cc50:	d4438193          	addi	gp,t2,-700 # 0xffffffffbf3c2874
    cc54:	00115033          	srl	zero,sp,ra
    cc58:	40115133          	sra	sp,sp,ra
    cc5c:	96d14193          	xori	gp,sp,-1683
    cc60:	8060c193          	xori	gp,ra,-2042
    cc64:	002091b3          	sll	gp,ra,sp
    cc68:	4013d0b3          	sra	ra,t2,ra
    cc6c:	000190b3          	sll	ra,gp,zero
    cc70:	5581e193          	ori	gp,gp,1368
    cc74:	e1408113          	addi	sp,ra,-492 # 0x3386ae14
    cc78:	a3683197          	auipc	gp,0xa3683
    cc7c:	40105333          	sra	t1,zero,ra
    cc80:	0011b133          	sltu	sp,gp,ra
    cc84:	4d40c113          	xori	sp,ra,1236
    cc88:	00213133          	sltu	sp,sp,sp
    cc8c:	7a1ae5b7          	lui	a1,0x7a1ae
    cc90:	66ee5417          	auipc	s0,0x66ee5
    cc94:	5e15e0b7          	lui	ra,0x5e15e
    cc98:	4028d197          	auipc	gp,0x4028d
    cc9c:	001130b3          	sltu	ra,sp,ra
    cca0:	5227a297          	auipc	t0,0x5227a
    cca4:	bfa1f313          	andi	t1,gp,-1030
    cca8:	74300393          	li	t2,1859
    ccac:	423c1317          	auipc	t1,0x423c1
    ccb0:	00000117          	auipc	sp,0x0
    ccb4:	d4c10167          	jalr	sp,-692(sp) # 0xc9fc
    ccb8:	3a6c61b7          	lui	gp,0x3a6c6
    ccbc:	5dc1f117          	auipc	sp,0x5dc1f
    ccc0:	6cc76117          	auipc	sp,0x6cc76
    ccc4:	00918133          	add	sp,gp,s1
    ccc8:	2b4be193          	ori	gp,s7,692
    cccc:	003181b3          	add	gp,gp,gp
    ccd0:	defe1137          	lui	sp,0xdefe1
    ccd4:	17551137          	lui	sp,0x17551
    ccd8:	5c035117          	auipc	sp,0x5c035
    ccdc:	2ad19197          	auipc	gp,0x2ad19
    cce0:	0020f333          	and	t1,ra,sp
    cce4:	002120b3          	slt	ra,sp,sp
    cce8:	0050b033          	sltu	zero,ra,t0
    ccec:	00117233          	and	tp,sp,ra
    ccf0:	ffde3097          	auipc	ra,0xffde3
    ccf4:	3cd17293          	andi	t0,sp,973
    ccf8:	3b01e113          	ori	sp,gp,944
    ccfc:	7660e0b7          	lui	ra,0x7660e
    cd00:	79d1c113          	xori	sp,gp,1949
    cd04:	005111b3          	sll	gp,sp,t0
    cd08:	003130b3          	sltu	ra,sp,gp
    cd0c:	00512533          	slt	a0,sp,t0
    cd10:	0031b133          	sltu	sp,gp,gp
    cd14:	df458117          	auipc	sp,0xdf458
    cd18:	4011d1b3          	sra	gp,gp,ra
    cd1c:	40608133          	sub	sp,ra,t1
    cd20:	a149f197          	auipc	gp,0xa149f
    cd24:	361db197          	auipc	gp,0x361db
    cd28:	c3f19037          	lui	zero,0xc3f19
    cd2c:	00018193          	mv	gp,gp
    cd30:	2c318263          	beq	gp,gp,0xcff4
    cd34:	402100b3          	sub	ra,sp,sp
    cd38:	0012c0b3          	xor	ra,t0,ra
    cd3c:	5547d0b7          	lui	ra,0x5547d
    cd40:	5f538193          	addi	gp,t2,1525
    cd44:	90995297          	auipc	t0,0x90995
    cd48:	863e4097          	auipc	ra,0x863e4
    cd4c:	d1b28113          	addi	sp,t0,-741 # 0xffffffff909a1a5f
    cd50:	00319333          	sll	t1,gp,gp
    cd54:	4030d033          	sra	zero,ra,gp
    cd58:	402a50b3          	sra	ra,s4,sp
    cd5c:	08efb137          	lui	sp,0x8efb
    cd60:	0021b0b3          	sltu	ra,gp,sp
    cd64:	0bf101b7          	lui	gp,0xbf10
    cd68:	c67091b7          	lui	gp,0xc6709
    cd6c:	a3fa0137          	lui	sp,0xa3fa0
    cd70:	76b16093          	ori	ra,sp,1899
    cd74:	b0f16093          	ori	ra,sp,-1265
    cd78:	a6108313          	addi	t1,ra,-1439 # 0xffffffff863f07a9
    cd7c:	001000b3          	add	ra,zero,ra
    cd80:	0020c0b3          	xor	ra,ra,sp
    cd84:	7bfc7137          	lui	sp,0x7bfc7
    cd88:	c3b050b7          	lui	ra,0xc3b05
    cd8c:	0c7fb0b7          	lui	ra,0xc7fb
    cd90:	fb114193          	xori	gp,sp,-79
    cd94:	0040d133          	srl	sp,ra,tp
    cd98:	0000f133          	and	sp,ra,zero
    cd9c:	6ed25117          	auipc	sp,0x6ed25
    cda0:	000174b3          	and	s1,sp,zero
    cda4:	7474b097          	auipc	ra,0x7474b
    cda8:	0040e0b3          	or	ra,ra,tp
    cdac:	53d44117          	auipc	sp,0x53d44
    cdb0:	41727093          	andi	ra,tp,1047
    cdb4:	00000217          	auipc	tp,0x0
    cdb8:	ce8201e7          	jalr	gp,-792(tp) # 0x0
    cdbc:	403482b3          	sub	t0,s1,gp
    cdc0:	001190b3          	sll	ra,gp,ra
    cdc4:	0021f333          	and	t1,gp,sp
    cdc8:	003151b3          	srl	gp,sp,gp
    cdcc:	9173a0b7          	lui	ra,0x9173a
    cdd0:	972f30b7          	lui	ra,0x972f3
    cdd4:	b71fc937          	lui	s2,0xb71fc
    cdd8:	5a248397          	auipc	t2,0x5a248
    cddc:	d061f037          	lui	zero,0xd061f
    cde0:	4021d333          	sra	t1,gp,sp
    cde4:	1c5c4193          	xori	gp,s8,453
    cde8:	d1422017          	auipc	zero,0xd1422
    cdec:	4b114117          	auipc	sp,0x4b114
    cdf0:	0050a2b3          	slt	t0,ra,t0
    cdf4:	402151b3          	sra	gp,sp,sp
    cdf8:	deb10113          	addi	sp,sp,-533 # 0x4b120bd7
    cdfc:	44816193          	ori	gp,sp,1096
    ce00:	a4937113          	andi	sp,t1,-1463
    ce04:	09f5d137          	lui	sp,0x9f5d
    ce08:	0dc16113          	ori	sp,sp,220
    ce0c:	fd7c1697          	auipc	a3,0xfd7c1
    ce10:	0010af33          	slt	t5,ra,ra
    ce14:	a4a26093          	ori	ra,tp,-1462
    ce18:	50e1c313          	xori	t1,gp,1294
    ce1c:	868e5197          	auipc	gp,0x868e5
    ce20:	1cbf41b7          	lui	gp,0x1cbf4
    ce24:	2fe6c213          	xori	tp,a3,766
    ce28:	a8043037          	lui	zero,0xa8043
    ce2c:	c65b3117          	auipc	sp,0xc65b3
    ce30:	ff71b197          	auipc	gp,0xff71b
    ce34:	40008133          	sub	sp,ra,zero
    ce38:	35476197          	auipc	gp,0x35476
    ce3c:	d6120ce3          	beq	tp,ra,0xcbb4
    ce40:	d75ff1ef          	jal	gp,0xcbb4
    ce44:	a11ff137          	lui	sp,0xa11ff
    ce48:	401153b3          	sra	t2,sp,ra
    ce4c:	002303b3          	add	t2,t1,sp
    ce50:	ac70a3b7          	lui	t2,0xac70a
    ce54:	1f8b2197          	auipc	gp,0x1f8b2
    ce58:	0073d233          	srl	tp,t2,t2
    ce5c:	006190b3          	sll	ra,gp,t1
    ce60:	00114133          	xor	sp,sp,ra
    ce64:	001ab133          	sltu	sp,s5,ra
    ce68:	00236133          	or	sp,t1,sp
    ce6c:	0020f133          	and	sp,ra,sp
    ce70:	55e25137          	lui	sp,0x55e25
    ce74:	cbb1e113          	ori	sp,gp,-837
    ce78:	a4e1c893          	xori	a7,gp,-1458
    ce7c:	002301b3          	add	gp,t1,sp
    ce80:	003140b3          	xor	ra,sp,gp
    ce84:	e6a2e093          	ori	ra,t0,-406
    ce88:	df7c2217          	auipc	tp,0xdf7c2
    ce8c:	40205133          	sra	sp,zero,sp
    ce90:	00515133          	srl	sp,sp,t0
    ce94:	7804c297          	auipc	t0,0x7804c
    ce98:	a38751b7          	lui	gp,0xa3875
    ce9c:	27327793          	andi	a5,tp,627
    cea0:	b24810b7          	lui	ra,0xb2481
    cea4:	00212eb3          	slt	t4,sp,sp
    cea8:	558fc117          	auipc	sp,0x558fc
    ceac:	46538117          	auipc	sp,0x46538
    ceb0:	0021b033          	sltu	zero,gp,sp
    ceb4:	0e7f9137          	lui	sp,0xe7f9
    ceb8:	5da27113          	andi	sp,tp,1498
    cebc:	e7ca3197          	auipc	gp,0xe7ca3
    cec0:	003131b3          	sltu	gp,sp,gp
    cec4:	b8318313          	addi	t1,gp,-1149 # 0xffffffffe7cafa3f
    cec8:	40908033          	sub	zero,ra,s1
    cecc:	a03370b7          	lui	ra,0xa0337
    ced0:	36110863          	beq	sp,ra,0xd240
    ced4:	36c000ef          	jal	ra,0xd240
    ced8:	8e05c137          	lui	sp,0x8e05c
    cedc:	7d318113          	addi	sp,gp,2003
    cee0:	d8a17093          	andi	ra,sp,-630
    cee4:	0050b1b3          	sltu	gp,ra,t0
    cee8:	407054b3          	sra	s1,zero,t2
    ceec:	2c008113          	addi	sp,ra,704 # 0xffffffffa03372c0
    cef0:	7031c017          	auipc	zero,0x7031c
    cef4:	daa68397          	auipc	t2,0xdaa68
    cef8:	10ea0197          	auipc	gp,0x10ea0
    cefc:	4a4ad217          	auipc	tp,0x4a4ad
    cf00:	40735133          	sra	sp,t1,t2
    cf04:	0032c1b3          	xor	gp,t0,gp
    cf08:	2cbb5137          	lui	sp,0x2cbb5
    cf0c:	0021b0b3          	sltu	ra,gp,sp
    cf10:	2cd63037          	lui	zero,0x2cd63
    cf14:	0031f6b3          	and	a3,gp,gp
    cf18:	21900193          	li	gp,537
    cf1c:	28ef1337          	lui	t1,0x28ef1
    cf20:	40238133          	sub	sp,t2,sp
    cf24:	0030d0b3          	srl	ra,ra,gp
    cf28:	1540c213          	xori	tp,ra,340
    cf2c:	fcbcb117          	auipc	sp,0xfcbcb
    cf30:	98c5f113          	andi	sp,a1,-1652
    cf34:	83e30137          	lui	sp,0x83e30
    cf38:	00308233          	add	tp,ra,gp
    cf3c:	4180d4b3          	sra	s1,ra,s8
    cf40:	016b11b7          	lui	gp,0x16b1
    cf44:	89abd117          	auipc	sp,0x89abd
    cf48:	daf3c193          	xori	gp,t2,-593
    cf4c:	000210b3          	sll	ra,tp,zero
    cf50:	6ce15fb7          	lui	t6,0x6ce15
    cf54:	da417113          	andi	sp,sp,-604
    cf58:	00710263          	beq	sp,t2,0xcf5c
    cf5c:	3ad001ef          	jal	gp,0xdb08
    cf60:	002313b3          	sll	t2,t1,sp
    cf64:	a2d26237          	lui	tp,0xa2d26
    cf68:	2d09f037          	lui	zero,0x2d09f
    cf6c:	0050d1b3          	srl	gp,ra,t0
    cf70:	03756a37          	lui	s4,0x3756
    cf74:	c1108113          	addi	sp,ra,-1007
    cf78:	40108233          	sub	tp,ra,ra
    cf7c:	857c91b7          	lui	gp,0x857c9
    cf80:	8a59e137          	lui	sp,0x8a59e
    cf84:	6be0f093          	andi	ra,ra,1726
    cf88:	00613033          	sltu	zero,sp,t1
    cf8c:	9419e113          	ori	sp,s3,-1727
    cf90:	ae5e86b7          	lui	a3,0xae5e8
    cf94:	00208133          	add	sp,ra,sp
    cf98:	0021ebb3          	or	s7,gp,sp
    cf9c:	3207f313          	andi	t1,a5,800
    cfa0:	ee430293          	addi	t0,t1,-284 # 0x28ef0ee4
    cfa4:	f70be117          	auipc	sp,0xf70be
    cfa8:	00317133          	and	sp,sp,gp
    cfac:	0035d133          	srl	sp,a1,gp
    cfb0:	981050b7          	lui	ra,0x98105
    cfb4:	0052d0b3          	srl	ra,t0,t0
    cfb8:	00117133          	and	sp,sp,ra
    cfbc:	40208133          	sub	sp,ra,sp
    cfc0:	9b1c1137          	lui	sp,0x9b1c1
    cfc4:	00236333          	or	t1,t1,sp
    cfc8:	43019117          	auipc	sp,0x43019
    cfcc:	0011d1b3          	srl	gp,gp,ra
    cfd0:	50e20093          	addi	ra,tp,1294 # 0xffffffffa2d2650e
    cfd4:	402280b3          	sub	ra,t0,sp
    cfd8:	fad24097          	auipc	ra,0xfad24
    cfdc:	0031d133          	srl	sp,gp,gp
    cfe0:	00111333          	sll	t1,sp,ra
    cfe4:	f6842197          	auipc	gp,0xf6842
    cfe8:	0021d133          	srl	sp,gp,sp
    cfec:	000a8093          	mv	ra,s5
    cff0:	cd5084e3          	beq	ra,s5,0xccb8
    cff4:	684743b7          	lui	t2,0x68474
    cff8:	30030193          	addi	gp,t1,768
    cffc:	00006033          	or	zero,zero,zero
    d000:	00112133          	slt	sp,sp,ra
    d004:	1ef5b0b7          	lui	ra,0x1ef5b
    d008:	aaf66137          	lui	sp,0xaaf66
    d00c:	40118133          	sub	sp,gp,ra
    d010:	006171b3          	and	gp,sp,t1
    d014:	fb99aa97          	auipc	s5,0xfb99a
    d018:	00109033          	sll	zero,ra,ra
    d01c:	00115133          	srl	sp,sp,ra
    d020:	f25cf117          	auipc	sp,0xf25cf
    d024:	8c90e0b7          	lui	ra,0x8c90e
    d028:	75516113          	ori	sp,sp,1877
    d02c:	00313133          	sltu	sp,sp,gp
    d030:	a58fd037          	lui	zero,0xa58fd
    d034:	b2a5f117          	auipc	sp,0xb2a5f
    d038:	1e179117          	auipc	sp,0x1e179
    d03c:	4031d133          	sra	sp,gp,gp
    d040:	c2513137          	lui	sp,0xc2513
    d044:	f762b117          	auipc	sp,0xf762b
    d048:	00515133          	srl	sp,sp,t0
    d04c:	cc5521b7          	lui	gp,0xcc552
    d050:	40410133          	sub	sp,sp,tp
    d054:	00212133          	slt	sp,sp,sp
    d058:	c98a3117          	auipc	sp,0xc98a3
    d05c:	de6c1037          	lui	zero,0xde6c1
    d060:	40120133          	sub	sp,tp,ra
    d064:	001095b3          	sll	a1,ra,ra
    d068:	7e310193          	addi	gp,sp,2019 # 0xffffffffc98b083b
    d06c:	0031b133          	sltu	sp,gp,gp
    d070:	0011e1b3          	or	gp,gp,ra
    d074:	00000197          	auipc	gp,0x0
    d078:	cc018267          	jalr	tp,-832(gp) # 0xcd34
    d07c:	0021a0b3          	slt	ra,gp,sp
    d080:	cc5d40b7          	lui	ra,0xcc5d4
    d084:	0801e313          	ori	t1,gp,128
    d088:	00318233          	add	tp,gp,gp
    d08c:	0022b1b3          	sltu	gp,t0,sp
    d090:	002cc033          	xor	zero,s9,sp
    d094:	c6614193          	xori	gp,sp,-922
    d098:	0041b133          	sltu	sp,gp,tp
    d09c:	87a16113          	ori	sp,sp,-1926
    d0a0:	2d914293          	xori	t0,sp,729
    d0a4:	e3a570b7          	lui	ra,0xe3a57
    d0a8:	006213b3          	sll	t2,tp,t1
    d0ac:	921510b7          	lui	ra,0x92151
    d0b0:	80a9a097          	auipc	ra,0x80a9a
    d0b4:	0b718213          	addi	tp,gp,183
    d0b8:	80280097          	auipc	ra,0x80280
    d0bc:	56416117          	auipc	sp,0x56416
    d0c0:	93d0e237          	lui	tp,0x93d0e
    d0c4:	8cbc52b7          	lui	t0,0x8cbc5
    d0c8:	000212b3          	sll	t0,tp,zero
    d0cc:	b61c1137          	lui	sp,0xb61c1
    d0d0:	b3c04213          	xori	tp,zero,-1220
    d0d4:	50317113          	andi	sp,sp,1283
    d0d8:	6869a097          	auipc	ra,0x6869a
    d0dc:	0d014113          	xori	sp,sp,208
    d0e0:	8cb0a1b7          	lui	gp,0x8cb0a
    d0e4:	f7ba5017          	auipc	zero,0xf7ba5
    d0e8:	0020b333          	sltu	t1,ra,sp
    d0ec:	559e70b7          	lui	ra,0x559e7
    d0f0:	0020d033          	srl	zero,ra,sp
    d0f4:	002301b3          	add	gp,t1,sp
    d0f8:	00d1c0b3          	xor	ra,gp,a3
    d0fc:	e4b10193          	addi	gp,sp,-437 # 0xffffffffb61c0e4b
    d100:	0010a0b3          	slt	ra,ra,ra
    d104:	40310333          	sub	t1,sp,gp
    d108:	00218263          	beq	gp,sp,0xd10c
    d10c:	f30ff0ef          	jal	ra,0xc83c
    d110:	e7b03117          	auipc	sp,0xe7b03
    d114:	7a51c293          	xori	t0,gp,1957
    d118:	a3d661b7          	lui	gp,0xa3d66
    d11c:	0150f193          	andi	gp,ra,21
    d120:	e0dd0137          	lui	sp,0xe0dd0
    d124:	00714733          	xor	a4,sp,t2
    d128:	002160b3          	or	ra,sp,sp
    d12c:	14ace137          	lui	sp,0x14ace
    d130:	42718193          	addi	gp,gp,1063 # 0xffffffffa3d66427
    d134:	5d12b217          	auipc	tp,0x5d12b
    d138:	e6e23317          	auipc	t1,0xe6e23
    d13c:	b7d9e197          	auipc	gp,0xb7d9e
    d140:	9f9581b7          	lui	gp,0x9f958
    d144:	a9e6c117          	auipc	sp,0xa9e6c
    d148:	4e9f1117          	auipc	sp,0x4e9f1
    d14c:	0020fdb3          	and	s11,ra,sp
    d150:	62708393          	addi	t2,ra,1575 # 0x559e7627
    d154:	c9c4b197          	auipc	gp,0xc9c4b
    d158:	ee444197          	auipc	gp,0xee444
    d15c:	5fcae137          	lui	sp,0x5fcae
    d160:	a2d85137          	lui	sp,0xa2d85
    d164:	00226133          	or	sp,tp,sp
    d168:	403000b3          	neg	ra,gp
    d16c:	0021c0b3          	xor	ra,gp,sp
    d170:	403e52b3          	sra	t0,t3,gp
    d174:	b491e193          	ori	gp,gp,-1207
    d178:	28e0c113          	xori	sp,ra,654
    d17c:	0191b2b3          	sltu	t0,gp,s9
    d180:	0051c1b3          	xor	gp,gp,t0
    d184:	b0286317          	auipc	t1,0xb0286
    d188:	2ae10093          	addi	ra,sp,686 # 0xffffffffa2d852ae
    d18c:	00608263          	beq	ra,t1,0xd190
    d190:	f44ff0ef          	jal	ra,0xc8d4
    d194:	4040d1b3          	sra	gp,ra,tp
    d198:	003162b3          	or	t0,sp,gp
    d19c:	00f25333          	srl	t1,tp,a5
    d1a0:	33ad20b7          	lui	ra,0x33ad2
    d1a4:	0011a233          	slt	tp,gp,ra
    d1a8:	001170b3          	and	ra,sp,ra
    d1ac:	abef80b7          	lui	ra,0xabef8
    d1b0:	44a0c213          	xori	tp,ra,1098
    d1b4:	0f218113          	addi	sp,gp,242 # 0xffffffffee45124a
    d1b8:	0020f0b3          	and	ra,ra,sp
    d1bc:	006113b3          	sll	t2,sp,t1
    d1c0:	009120b3          	slt	ra,sp,s1
    d1c4:	0031e0b3          	or	ra,gp,gp
    d1c8:	40115133          	sra	sp,sp,ra
    d1cc:	0020d433          	srl	s0,ra,sp
    d1d0:	54a1e313          	ori	t1,gp,1354
    d1d4:	9762d017          	auipc	zero,0x9762d
    d1d8:	0010e133          	or	sp,ra,ra
    d1dc:	bad08a13          	addi	s4,ra,-1107 # 0xffffffffabef7bad
    d1e0:	cd2ff0b7          	lui	ra,0xcd2ff
    d1e4:	4011dfb3          	sra	t6,gp,ra
    d1e8:	b0351817          	auipc	a6,0xb0351
    d1ec:	1852c113          	xori	sp,t0,389
    d1f0:	0021a0b3          	slt	ra,gp,sp
    d1f4:	40105133          	sra	sp,zero,ra
    d1f8:	00216133          	or	sp,sp,sp
    d1fc:	003161b3          	or	gp,sp,gp
    d200:	f5b0f193          	andi	gp,ra,-165
    d204:	401181b3          	sub	gp,gp,ra
    d208:	b2926193          	ori	gp,tp,-1239
    d20c:	82916193          	ori	gp,sp,-2007
    d210:	f7206137          	lui	sp,0xf7206
    d214:	00116133          	or	sp,sp,ra
    d218:	b6908013          	addi	zero,ra,-1175 # 0xffffffffcd2feb69
    d21c:	80f24013          	xori	zero,tp,-2033
    d220:	00709033          	sll	zero,ra,t2
    d224:	402150b3          	sra	ra,sp,sp
    d228:	005395b3          	sll	a1,t2,t0
    d22c:	d520c013          	xori	zero,ra,-686
    d230:	00715333          	srl	t1,sp,t2
    d234:	00317133          	and	sp,sp,gp
    d238:	08218a63          	beq	gp,sp,0xd2cc
    d23c:	0900016f          	jal	sp,0xd2cc
    d240:	8ec01137          	lui	sp,0x8ec01
    d244:	2773f0b7          	lui	ra,0x2773f
    d248:	791cc1b7          	lui	gp,0x791cc
    d24c:	403100b3          	sub	ra,sp,gp
    d250:	0029e193          	ori	gp,s3,2
    d254:	404351b3          	sra	gp,t1,tp
    d258:	002100b3          	add	ra,sp,sp
    d25c:	bf76c1b7          	lui	gp,0xbf76c
    d260:	87614093          	xori	ra,sp,-1930
    d264:	cc02f117          	auipc	sp,0xcc02f
    d268:	406181b3          	sub	gp,gp,t1
    d26c:	0b80b097          	auipc	ra,0xb80b
    d270:	0030d0b3          	srl	ra,ra,gp
    d274:	3b1e0097          	auipc	ra,0x3b1e0
    d278:	000250b3          	srl	ra,tp,zero
    d27c:	002131b3          	sltu	gp,sp,sp
    d280:	104ea137          	lui	sp,0x104ea
    d284:	19add137          	lui	sp,0x19add
    d288:	e238d117          	auipc	sp,0xe238d
    d28c:	868753b7          	lui	t2,0x86875
    d290:	95767197          	auipc	gp,0x95767
    d294:	bfae90b7          	lui	ra,0xbfae9
    d298:	231531b7          	lui	gp,0x23153
    d29c:	e5207093          	andi	ra,zero,-430
    d2a0:	022b8137          	lui	sp,0x22b8
    d2a4:	ca552297          	auipc	t0,0xca552
    d2a8:	2410e337          	lui	t1,0x2410e
    d2ac:	050b5097          	auipc	ra,0x50b5
    d2b0:	4030d133          	sra	sp,ra,gp
    d2b4:	0027a1b3          	slt	gp,a5,sp
    d2b8:	001116b3          	sll	a3,sp,ra
    d2bc:	4020d2b3          	sra	t0,ra,sp
    d2c0:	eeb802b7          	lui	t0,0xeeb80
    d2c4:	c8010ee3          	beqz	sp,0xcf60
    d2c8:	c99fff6f          	jal	t5,0xcf60
    d2cc:	bb5c6137          	lui	sp,0xbb5c6
    d2d0:	dbf10113          	addi	sp,sp,-577 # 0xffffffffbb5c5dbf
    d2d4:	7af1f217          	auipc	tp,0x7af1f
    d2d8:	401080b3          	sub	ra,ra,ra
    d2dc:	b45b90b7          	lui	ra,0xb45b9
    d2e0:	0011a0b3          	slt	ra,gp,ra
    d2e4:	9b54c113          	xori	sp,s1,-1611
    d2e8:	0023d0b3          	srl	ra,t2,sp
    d2ec:	000147b3          	xor	a5,sp,zero
    d2f0:	e08fb1b7          	lui	gp,0xe08fb
    d2f4:	369d8113          	addi	sp,s11,873 # 0xffffffffd697b369
    d2f8:	21418093          	addi	ra,gp,532 # 0xffffffffe08fb214
    d2fc:	0053f133          	and	sp,t2,t0
    d300:	ac4d1117          	auipc	sp,0xac4d1
    d304:	cc310313          	addi	t1,sp,-829 # 0xffffffffac4ddfc3
    d308:	b3845117          	auipc	sp,0xb3845
    d30c:	005171b3          	and	gp,sp,t0
    d310:	88a1e093          	ori	ra,gp,-1910
    d314:	0011b1b3          	sltu	gp,gp,ra
    d318:	bb3dde37          	lui	t3,0xbb3dd
    d31c:	5b02d337          	lui	t1,0x5b02d
    d320:	00f0c133          	xor	sp,ra,a5
    d324:	0022b0b3          	sltu	ra,t0,sp
    d328:	1c699137          	lui	sp,0x1c699
    d32c:	001f7333          	and	t1,t5,ra
    d330:	41108133          	sub	sp,ra,a7
    d334:	c533c193          	xori	gp,t2,-941
    d338:	8fa8e017          	auipc	zero,0x8fa8e
    d33c:	f2418113          	addi	sp,gp,-220
    d340:	1091c113          	xori	sp,gp,265
    d344:	0010f0b3          	and	ra,ra,ra
    d348:	00313033          	sltu	zero,sp,gp
    d34c:	a66108e3          	beq	sp,t1,0xcdbc
    d350:	a6dff1ef          	jal	gp,0xcdbc
    d354:	4030d1b3          	sra	gp,ra,gp
    d358:	401100b3          	sub	ra,sp,ra
    d35c:	0031b333          	sltu	t1,gp,gp
    d360:	9293d137          	lui	sp,0x9293d
    d364:	002113b3          	sll	t2,sp,sp
    d368:	002171b3          	and	gp,sp,sp
    d36c:	ba79a097          	auipc	ra,0xba79a
    d370:	a9c6b1b7          	lui	gp,0xa9c6b
    d374:	0010c133          	xor	sp,ra,ra
    d378:	8a10c237          	lui	tp,0x8a10c
    d37c:	f9bfe797          	auipc	a5,0xf9bfe
    d380:	a3610293          	addi	t0,sp,-1482 # 0xffffffff9293ca36
    d384:	6b424113          	xori	sp,tp,1716
    d388:	7f15b0b7          	lui	ra,0x7f15b
    d38c:	04c0c113          	xori	sp,ra,76
    d390:	249dc337          	lui	t1,0x249dc
    d394:	002691b3          	sll	gp,a3,sp
    d398:	c4940297          	auipc	t0,0xc4940
    d39c:	ddae5137          	lui	sp,0xddae5
    d3a0:	c0ef0137          	lui	sp,0xc0ef0
    d3a4:	e271c113          	xori	sp,gp,-473
    d3a8:	0012b0b3          	sltu	ra,t0,ra
    d3ac:	4d75c4b7          	lui	s1,0x4d75c
    d3b0:	0050e0b3          	or	ra,ra,t0
    d3b4:	77f2e313          	ori	t1,t0,1919
    d3b8:	1e6821b7          	lui	gp,0x1e682
    d3bc:	118623b7          	lui	t2,0x11862
    d3c0:	002121b3          	slt	gp,sp,sp
    d3c4:	04d48117          	auipc	sp,0x4d48
    d3c8:	001370b3          	and	ra,t1,ra
    d3cc:	4030d0b3          	sra	ra,ra,gp
    d3d0:	0062a0b3          	slt	ra,t0,t1
    d3d4:	6390c313          	xori	t1,ra,1593
    d3d8:	004261b3          	or	gp,tp,tp
    d3dc:	1b820193          	addi	gp,tp,440 # 0xffffffff8a10c1b8
    d3e0:	e75a6137          	lui	sp,0xe75a6
    d3e4:	95277137          	lui	sp,0x95277
    d3e8:	5cc34b37          	lui	s6,0x5cc34
    d3ec:	00220263          	beq	tp,sp,0xd3f0
    d3f0:	2f50016f          	jal	sp,0xdee4
    d3f4:	0266c317          	auipc	t1,0x266c
    d3f8:	01e3d3b3          	srl	t2,t2,t5
    d3fc:	00122733          	slt	a4,tp,ra
    d400:	64d570b7          	lui	ra,0x64d57
    d404:	d97a0ab7          	lui	s5,0xd97a0
    d408:	403101b3          	sub	gp,sp,gp
    d40c:	002301b3          	add	gp,t1,sp
    d410:	002101b3          	add	gp,sp,sp
    d414:	40438133          	sub	sp,t2,tp
    d418:	a4476117          	auipc	sp,0xa4476
    d41c:	003072b3          	and	t0,zero,gp
    d420:	00529a33          	sll	s4,t0,t0
    d424:	400150b3          	sra	ra,sp,zero
    d428:	4042d1b3          	sra	gp,t0,tp
    d42c:	2f6a8197          	auipc	gp,0x2f6a8
    d430:	401189b3          	sub	s3,gp,ra
    d434:	3ed10193          	addi	gp,sp,1005 # 0xffffffffa4483805
    d438:	aa9a1097          	auipc	ra,0xaa9a1
    d43c:	5ab50097          	auipc	ra,0x5ab50
    d440:	370f01b7          	lui	gp,0x370f0
    d444:	01303117          	auipc	sp,0x1303
    d448:	89b0c337          	lui	t1,0x89b0c
    d44c:	54d760b7          	lui	ra,0x54d76
    d450:	dbde81b7          	lui	gp,0xdbde8
    d454:	0031b1b3          	sltu	gp,gp,gp
    d458:	b80e0197          	auipc	gp,0xb80e0
    d45c:	3573d217          	auipc	tp,0x3573d
    d460:	001141b3          	xor	gp,sp,ra
    d464:	d0a11217          	auipc	tp,0xd0a11
    d468:	417596b7          	lui	a3,0x41759
    d46c:	0025b033          	sltu	zero,a1,sp
    d470:	002150b3          	srl	ra,sp,sp
    d474:	0011f333          	and	t1,gp,ra
    d478:	3ac11097          	auipc	ra,0x3ac11
    d47c:	0030a233          	slt	tp,ra,gp
    d480:	18e86197          	auipc	gp,0x18e86
    d484:	b78b20b7          	lui	ra,0xb78b2
    d488:	00316033          	or	zero,sp,gp
    d48c:	0011b2b3          	sltu	t0,gp,ra
    d490:	00000193          	li	gp,0
    d494:	38018c63          	beqz	gp,0xd82c
    d498:	19765117          	auipc	sp,0x19765
    d49c:	80dd2117          	auipc	sp,0x80dd2
    d4a0:	40d181b3          	sub	gp,gp,a3
    d4a4:	00f160b3          	or	ra,sp,a5
    d4a8:	9240e293          	ori	t0,ra,-1756
    d4ac:	7e317993          	andi	s3,sp,2019
    d4b0:	002122b3          	slt	t0,sp,sp
    d4b4:	0011d133          	srl	sp,gp,ra
    d4b8:	4031d0b3          	sra	ra,gp,gp
    d4bc:	519317b7          	lui	a5,0x51931
    d4c0:	d782c097          	auipc	ra,0xd782c
    d4c4:	21b100b7          	lui	ra,0x21b10
    d4c8:	bcdd9137          	lui	sp,0xbcdd9
    d4cc:	403900b3          	sub	ra,s2,gp
    d4d0:	00319fb3          	sll	t6,gp,gp
    d4d4:	401152b3          	sra	t0,sp,ra
    d4d8:	011e5117          	auipc	sp,0x11e5
    d4dc:	0021d133          	srl	sp,gp,sp
    d4e0:	15f1c193          	xori	gp,gp,351
    d4e4:	0a062097          	auipc	ra,0xa062
    d4e8:	0011c4b3          	xor	s1,gp,ra
    d4ec:	0013c133          	xor	sp,t2,ra
    d4f0:	f2c5e1b7          	lui	gp,0xf2c5e
    d4f4:	9720c113          	xori	sp,ra,-1678
    d4f8:	d3c16293          	ori	t0,sp,-708
    d4fc:	4399e3b7          	lui	t2,0x4399e
    d500:	1e224817          	auipc	a6,0x1e224
    d504:	7db1d197          	auipc	gp,0x7db1d
    d508:	002022b3          	sgtz	t0,sp
    d50c:	001271b3          	and	gp,tp,ra
    d510:	8b95a137          	lui	sp,0x8b95a
    d514:	c74230b7          	lui	ra,0xc7423
    d518:	1e8ad197          	auipc	gp,0x1e8ad
    d51c:	ec31fce3          	bgeu	gp,gp,0xd3f4
    d520:	ec31eae3          	bltu	gp,gp,0xd3f4
    d524:	333f1017          	auipc	zero,0x333f1
    d528:	c367d1b7          	lui	gp,0xc367d
    d52c:	4850c093          	xori	ra,ra,1157
    d530:	000041b3          	xor	gp,zero,zero
    d534:	4031d133          	sra	sp,gp,gp
    d538:	0011d133          	srl	sp,gp,ra
    d53c:	08316217          	auipc	tp,0x8316
    d540:	fca460b7          	lui	ra,0xfca46
    d544:	b733c097          	auipc	ra,0xb733c
    d548:	55dfd137          	lui	sp,0x55dfd
    d54c:	bb60f397          	auipc	t2,0xbb60f
    d550:	0d118093          	addi	ra,gp,209 # 0xffffffffc367d0d1
    d554:	0010e133          	or	sp,ra,ra
    d558:	060ccf97          	auipc	t6,0x60cc
    d55c:	0030d3b3          	srl	t2,ra,gp
    d560:	002181b3          	add	gp,gp,sp
    d564:	ccb85297          	auipc	t0,0xccb85
    d568:	c86ab0b7          	lui	ra,0xc86ab
    d56c:	0021a533          	slt	a0,gp,sp
    d570:	002080b3          	add	ra,ra,sp
    d574:	0680f293          	andi	t0,ra,104
    d578:	f28a0197          	auipc	gp,0xf28a0
    d57c:	002131b3          	sltu	gp,sp,sp
    d580:	00217233          	and	tp,sp,sp
    d584:	02a10113          	addi	sp,sp,42 # 0x55dfd02a
    d588:	7130c193          	xori	gp,ra,1811
    d58c:	962bd0b7          	lui	ra,0x962bd
    d590:	c9490237          	lui	tp,0xc9490
    d594:	3d1d01b7          	lui	gp,0x3d1d0
    d598:	5e039e63          	bnez	t2,0xdb94
    d59c:	5e038c63          	beqz	t2,0xdb94
    d5a0:	0005b1b3          	sltu	gp,a1,zero
    d5a4:	b6b17093          	andi	ra,sp,-1173
    d5a8:	93dc41b7          	lui	gp,0x93dc4
    d5ac:	e129d097          	auipc	ra,0xe129d
    d5b0:	001211b3          	sll	gp,tp,ra
    d5b4:	e7f1e193          	ori	gp,gp,-385
    d5b8:	5d51f193          	andi	gp,gp,1493
    d5bc:	c4308217          	auipc	tp,0xc4308
    d5c0:	001bb1b3          	sltu	gp,s7,ra
    d5c4:	aaf50337          	lui	t1,0xaaf50
    d5c8:	61b6c113          	xori	sp,a3,1563
    d5cc:	002260b3          	or	ra,tp,sp
    d5d0:	fd926913          	ori	s2,tp,-39
    d5d4:	fbe76197          	auipc	gp,0xfbe76
    d5d8:	006150b3          	srl	ra,sp,t1
    d5dc:	e6ec41b7          	lui	gp,0xe6ec4
    d5e0:	2c718093          	addi	ra,gp,711 # 0xffffffffe6ec42c7
    d5e4:	04c590b7          	lui	ra,0x4c59
    d5e8:	403082b3          	sub	t0,ra,gp
    d5ec:	00315233          	srl	tp,sp,gp
    d5f0:	57a97137          	lui	sp,0x57a97
    d5f4:	6978c297          	auipc	t0,0x6978c
    d5f8:	ca1b8137          	lui	sp,0xca1b8
    d5fc:	4032d0b3          	sra	ra,t0,gp
    d600:	0060c1b3          	xor	gp,ra,t1
    d604:	003190b3          	sll	ra,gp,gp
    d608:	74b1e193          	ori	gp,gp,1867
    d60c:	0400f813          	andi	a6,ra,64
    d610:	0036c133          	xor	sp,a3,gp
    d614:	84340017          	auipc	zero,0x84340
    d618:	00020093          	mv	ra,tp
    d61c:	f04084e3          	beq	ra,tp,0xd524
    d620:	a8210893          	addi	a7,sp,-1406 # 0xffffffffca1b7a82
    d624:	0e4680b7          	lui	ra,0xe468
    d628:	7091c193          	xori	gp,gp,1801
    d62c:	1e88b237          	lui	tp,0x1e88b
    d630:	0000e1b3          	or	gp,ra,zero
    d634:	f410f093          	andi	ra,ra,-191
    d638:	ed61d1b7          	lui	gp,0xed61d
    d63c:	27db2097          	auipc	ra,0x27db2
    d640:	4c81c093          	xori	ra,gp,1224
    d644:	0011e233          	or	tp,gp,ra
    d648:	f6492397          	auipc	t2,0xf6492
    d64c:	ec30e313          	ori	t1,ra,-317
    d650:	401081b3          	sub	gp,ra,ra
    d654:	4f06b117          	auipc	sp,0x4f06b
    d658:	00109b33          	sll	s6,ra,ra
    d65c:	003120b3          	slt	ra,sp,gp
    d660:	977200b7          	lui	ra,0x97720
    d664:	0010a1b3          	slt	gp,ra,ra
    d668:	5340f013          	andi	zero,ra,1332
    d66c:	e32cb4b7          	lui	s1,0xe32cb
    d670:	87536193          	ori	gp,t1,-1931
    d674:	cddf1097          	auipc	ra,0xcddf1
    d678:	0aefb797          	auipc	a5,0xaefb
    d67c:	00118133          	add	sp,gp,ra
    d680:	406186b3          	sub	a3,gp,t1
    d684:	003291b3          	sll	gp,t0,gp
    d688:	d73f7197          	auipc	gp,0xd73f7
    d68c:	4027d1b3          	sra	gp,a5,sp
    d690:	000313b3          	sll	t2,t1,zero
    d694:	6a52d263          	bge	t0,t0,0xdd38
    d698:	6a52c063          	blt	t0,t0,0xdd38
    d69c:	23a17197          	auipc	gp,0x23a17
    d6a0:	00317033          	and	zero,sp,gp
    d6a4:	00315133          	srl	sp,sp,gp
    d6a8:	606b3097          	auipc	ra,0x606b3
    d6ac:	0010f133          	and	sp,ra,ra
    d6b0:	101ad1b7          	lui	gp,0x101ad
    d6b4:	eaf0f093          	andi	ra,ra,-337
    d6b8:	36f16197          	auipc	gp,0x36f16
    d6bc:	00219333          	sll	t1,gp,sp
    d6c0:	003143b3          	xor	t2,sp,gp
    d6c4:	a7bb10b7          	lui	ra,0xa7bb1
    d6c8:	00379133          	sll	sp,a5,gp
    d6cc:	d4842137          	lui	sp,0xd4842
    d6d0:	41b181b3          	sub	gp,gp,s11
    d6d4:	06847197          	auipc	gp,0x6847
    d6d8:	000191b3          	sll	gp,gp,zero
    d6dc:	66010193          	addi	gp,sp,1632 # 0xffffffffd4842660
    d6e0:	4072d333          	sra	t1,t0,t2
    d6e4:	0021b3b3          	sltu	t2,gp,sp
    d6e8:	404181b3          	sub	gp,gp,tp
    d6ec:	401181b3          	sub	gp,gp,ra
    d6f0:	0020d0b3          	srl	ra,ra,sp
    d6f4:	00302133          	sgtz	sp,gp
    d6f8:	a57ac0b7          	lui	ra,0xa57ac
    d6fc:	401181b3          	sub	gp,gp,ra
    d700:	5082e093          	ori	ra,t0,1288
    d704:	0031b033          	sltu	zero,gp,gp
    d708:	ade16313          	ori	t1,sp,-1314
    d70c:	8d944317          	auipc	t1,0x8d944
    d710:	0097c133          	xor	sp,a5,s1
    d714:	e3e8c337          	lui	t1,0xe3e8c
    d718:	01f1e097          	auipc	ra,0x1f1e
    d71c:	34b08e63          	beq	ra,a1,0xda78
    d720:	3580016f          	jal	sp,0xda78
    d724:	40308133          	sub	sp,ra,gp
    d728:	55bd00b7          	lui	ra,0x55bd0
    d72c:	37185197          	auipc	gp,0x37185
    d730:	3f70e137          	lui	sp,0x3f70e
    d734:	000180b3          	add	ra,gp,zero
    d738:	94510113          	addi	sp,sp,-1723 # 0x3f70d945
    d73c:	0150c133          	xor	sp,ra,s5
    d740:	003131b3          	sltu	gp,sp,gp
    d744:	c2853297          	auipc	t0,0xc2853
    d748:	33d92217          	auipc	tp,0x33d92
    d74c:	cc812197          	auipc	gp,0xcc812
    d750:	88d20093          	addi	ra,tp,-1907 # 0x33d9efd5
    d754:	00619133          	sll	sp,gp,t1
    d758:	004183b3          	add	t2,gp,tp
    d75c:	3e317113          	andi	sp,sp,995
    d760:	c2975197          	auipc	gp,0xc2975
    d764:	001320b3          	slt	ra,t1,ra
    d768:	8075e0b7          	lui	ra,0x8075e
    d76c:	7503f117          	auipc	sp,0x7503f
    d770:	401580b3          	sub	ra,a1,ra
    d774:	0031b133          	sltu	sp,gp,gp
    d778:	52c901b7          	lui	gp,0x52c90
    d77c:	dd2a7137          	lui	sp,0xdd2a7
    d780:	00235133          	srl	sp,t1,sp
    d784:	28bf13b7          	lui	t2,0x28bf1
    d788:	003090b3          	sll	ra,ra,gp
    d78c:	fef16693          	ori	a3,sp,-17
    d790:	40210133          	sub	sp,sp,sp
    d794:	0063c133          	xor	sp,t2,t1
    d798:	40708233          	sub	tp,ra,t2
    d79c:	a24e6037          	lui	zero,0xa24e6
    d7a0:	a221f317          	auipc	t1,0xa221f
    d7a4:	8191f093          	andi	ra,gp,-2023
    d7a8:	de310ce3          	beq	sp,gp,0xd5a0
    d7ac:	df5ff0ef          	jal	ra,0xd5a0
    d7b0:	b2a83117          	auipc	sp,0xb2a83
    d7b4:	4023d6b3          	sra	a3,t2,sp
    d7b8:	867c4113          	xori	sp,s8,-1945
    d7bc:	00b3c0b3          	xor	ra,t2,a1
    d7c0:	c8cd41b7          	lui	gp,0xc8cd4
    d7c4:	cdc18313          	addi	t1,gp,-804 # 0xffffffffc8cd3cdc
    d7c8:	405182b3          	sub	t0,gp,t0
    d7cc:	1130e213          	ori	tp,ra,275
    d7d0:	6d893197          	auipc	gp,0x6d893
    d7d4:	40be01b3          	sub	gp,t3,a1
    d7d8:	c9108193          	addi	gp,ra,-879 # 0xffffffff8075dc91
    d7dc:	b3004193          	xori	gp,zero,-1232
    d7e0:	001166b3          	or	a3,sp,ra
    d7e4:	006093b3          	sll	t2,ra,t1
    d7e8:	001111b3          	sll	gp,sp,ra
    d7ec:	00714233          	xor	tp,sp,t2
    d7f0:	8ab10313          	addi	t1,sp,-1877 # 0xffffffffb2a9005b
    d7f4:	b97dc097          	auipc	ra,0xb97dc
    d7f8:	7b007093          	andi	ra,zero,1968
    d7fc:	221df1b7          	lui	gp,0x221df
    d800:	fbe10113          	addi	sp,sp,-66
    d804:	3858f1b7          	lui	gp,0x3858f
    d808:	c7afe0b7          	lui	ra,0xc7afe
    d80c:	04485197          	auipc	gp,0x4485
    d810:	002110b3          	sll	ra,sp,sp
    d814:	4b545117          	auipc	sp,0x4b545
    d818:	a2424093          	xori	ra,tp,-1500
    d81c:	0041f1b3          	and	gp,gp,tp
    d820:	003081b3          	add	gp,ra,gp
    d824:	00048093          	mv	ra,s1
    d828:	c69088e3          	beq	ra,s1,0xd498
    d82c:	525fb137          	lui	sp,0x525fb
    d830:	0043c0b3          	xor	ra,t2,tp
    d834:	c7b6f197          	auipc	gp,0xc7b6f
    d838:	00228133          	add	sp,t0,sp
    d83c:	0010b1b3          	sltu	gp,ra,ra
    d840:	406150b3          	sra	ra,sp,t1
    d844:	404200b3          	sub	ra,tp,tp
    d848:	1c40f193          	andi	gp,ra,452
    d84c:	e48333b7          	lui	t2,0xe4833
    d850:	31fba117          	auipc	sp,0x31fba
    d854:	00925133          	srl	sp,tp,s1
    d858:	0011a0b3          	slt	ra,gp,ra
    d85c:	d674b097          	auipc	ra,0xd674b
    d860:	0015f2b3          	and	t0,a1,ra
    d864:	3ec16393          	ori	t2,sp,1004
    d868:	a5977097          	auipc	ra,0xa5977
    d86c:	0010cab3          	xor	s5,ra,ra
    d870:	dcb2e0b7          	lui	ra,0xdcb2e
    d874:	64e19137          	lui	sp,0x64e19
    d878:	5ca912b7          	lui	t0,0x5ca91
    d87c:	00118133          	add	sp,gp,ra
    d880:	3e9fea37          	lui	s4,0x3e9fe
    d884:	1a9d6137          	lui	sp,0x1a9d6
    d888:	09f2a0b7          	lui	ra,0x9f2a
    d88c:	9e985137          	lui	sp,0x9e985
    d890:	00114133          	xor	sp,sp,ra
    d894:	00309f33          	sll	t5,ra,gp
    d898:	8e281117          	auipc	sp,0x8e281
    d89c:	403151b3          	sra	gp,sp,gp
    d8a0:	0020c1b3          	xor	gp,ra,sp
    d8a4:	00111133          	sll	sp,sp,ra
    d8a8:	de448ae3          	beq	s1,tp,0xd69c
    d8ac:	df1ff0ef          	jal	ra,0xd69c
    d8b0:	df341197          	auipc	gp,0xdf341
    d8b4:	11865137          	lui	sp,0x11865
    d8b8:	8230f113          	andi	sp,ra,-2013
    d8bc:	c3d79197          	auipc	gp,0xc3d79
    d8c0:	bd864197          	auipc	gp,0xbd864
    d8c4:	32490117          	auipc	sp,0x32490
    d8c8:	a5243337          	lui	t1,0xa5243
    d8cc:	17c17337          	lui	t1,0x17c17
    d8d0:	0027a1b3          	slt	gp,a5,sp
    d8d4:	c6508113          	addi	sp,ra,-923 # 0x9f29c65
    d8d8:	4c6e00b7          	lui	ra,0x4c6e0
    d8dc:	40308333          	sub	t1,ra,gp
    d8e0:	004171b3          	and	gp,sp,tp
    d8e4:	003161b3          	or	gp,sp,gp
    d8e8:	374471b7          	lui	gp,0x37447
    d8ec:	3c6710b7          	lui	ra,0x3c671
    d8f0:	7195b097          	auipc	ra,0x7195b
    d8f4:	60f7b0b7          	lui	ra,0x60f7b
    d8f8:	0011f1b3          	and	gp,gp,ra
    d8fc:	70e0f193          	andi	gp,ra,1806
    d900:	4077d233          	sra	tp,a5,t2
    d904:	eca16193          	ori	gp,sp,-310
    d908:	58f2e093          	ori	ra,t0,1423
    d90c:	00200133          	add	sp,zero,sp
    d910:	9eb08113          	addi	sp,ra,-1557 # 0x60f7a9eb
    d914:	4061d1b3          	sra	gp,gp,t1
    d918:	0070f1b3          	and	gp,ra,t2
    d91c:	99dc11b7          	lui	gp,0x99dc1
    d920:	78887097          	auipc	ra,0x78887
    d924:	4873c237          	lui	tp,0x4873c
    d928:	a591c113          	xori	sp,gp,-1447
    d92c:	402481b3          	sub	gp,s1,sp
    d930:	0033e1b3          	or	gp,t2,gp
    d934:	ca818093          	addi	ra,gp,-856 # 0xffffffff99dc0ca8
    d938:	8c634293          	xori	t0,t1,-1850
    d93c:	53a1f113          	andi	sp,gp,1338
    d940:	48218863          	beq	gp,sp,0xddd0
    d944:	48c003ef          	jal	t2,0xddd0
    d948:	00214bb3          	xor	s7,sp,sp
    d94c:	0041f133          	and	sp,gp,tp
    d950:	402183b3          	sub	t2,gp,sp
    d954:	009161b3          	or	gp,sp,s1
    d958:	41db2597          	auipc	a1,0x41db2
    d95c:	00b111b3          	sll	gp,sp,a1
    d960:	7d4c2197          	auipc	gp,0x7d4c2
    d964:	7989d137          	lui	sp,0x7989d
    d968:	0048c233          	xor	tp,a7,tp
    d96c:	002210b3          	sll	ra,tp,sp
    d970:	b60320b7          	lui	ra,0xb6032
    d974:	4100d233          	sra	tp,ra,a6
    d978:	0014e1b3          	or	gp,s1,ra
    d97c:	0010d933          	srl	s2,ra,ra
    d980:	30a07137          	lui	sp,0x30a07
    d984:	a9e42197          	auipc	gp,0xa9e42
    d988:	00ea5137          	lui	sp,0xea5
    d98c:	b5c971b7          	lui	gp,0xb5c97
    d990:	0061b0b3          	sltu	ra,gp,t1
    d994:	c227e217          	auipc	tp,0xc227e
    d998:	ae1e11b7          	lui	gp,0xae1e1
    d99c:	a8d020b7          	lui	ra,0xa8d02
    d9a0:	0031b1b3          	sltu	gp,gp,gp
    d9a4:	68cbe137          	lui	sp,0x68cbe
    d9a8:	0061c1b3          	xor	gp,gp,t1
    d9ac:	4010d133          	sra	sp,ra,ra
    d9b0:	51e8d4b7          	lui	s1,0x51e8d
    d9b4:	1b98b1b7          	lui	gp,0x1b98b
    d9b8:	d9436313          	ori	t1,t1,-620
    d9bc:	6170c393          	xori	t2,ra,1559
    d9c0:	edc81097          	auipc	ra,0xedc81
    d9c4:	005130b3          	sltu	ra,sp,t0
    d9c8:	003097b3          	sll	a5,ra,gp
    d9cc:	4031d133          	sra	sp,gp,gp
    d9d0:	002234b3          	sltu	s1,tp,sp
    d9d4:	00917463          	bgeu	sp,s1,0xd9dc
    d9d8:	00916263          	bltu	sp,s1,0xd9dc
    d9dc:	c367f317          	auipc	t1,0xc367f
    d9e0:	0020f133          	and	sp,ra,sp
    d9e4:	f3d16093          	ori	ra,sp,-195
    d9e8:	0030b133          	sltu	sp,ra,gp
    d9ec:	a996b0b7          	lui	ra,0xa996b
    d9f0:	4b40e113          	ori	sp,ra,1204
    d9f4:	26dcc0b7          	lui	ra,0x26dcc
    d9f8:	d977d717          	auipc	a4,0xd977d
    d9fc:	47dba397          	auipc	t2,0x47dba
    da00:	003103b3          	add	t2,sp,gp
    da04:	004101b3          	add	gp,sp,tp
    da08:	01a0bfb3          	sltu	t6,ra,s10
    da0c:	a0d18093          	addi	ra,gp,-1523 # 0x1b98aa0d
    da10:	34928137          	lui	sp,0x34928
    da14:	823cd197          	auipc	gp,0x823cd
    da18:	002101b3          	add	gp,sp,sp
    da1c:	401103b3          	sub	t2,sp,ra
    da20:	0045b1b3          	sltu	gp,a1,tp
    da24:	2ebf1997          	auipc	s3,0x2ebf1
    da28:	0020a133          	slt	sp,ra,sp
    da2c:	0030c1b3          	xor	gp,ra,gp
    da30:	0bcf6197          	auipc	gp,0xbcf6
    da34:	003090b3          	sll	ra,ra,gp
    da38:	63916213          	ori	tp,sp,1593
    da3c:	40318233          	sub	tp,gp,gp
    da40:	87c64097          	auipc	ra,0x87c64
    da44:	b26c80b7          	lui	ra,0xb26c8
    da48:	003140b3          	xor	ra,sp,gp
    da4c:	f5f095b7          	lui	a1,0xf5f09
    da50:	cf33d337          	lui	t1,0xcf33d
    da54:	2c1901b7          	lui	gp,0x2c190
    da58:	0031c0b3          	xor	ra,gp,gp
    da5c:	005113b7          	lui	t2,0x511
    da60:	b1210093          	addi	ra,sp,-1262 # 0x34927b12
    da64:	bda78197          	auipc	gp,0xbda78
    da68:	93c951b7          	lui	gp,0x93c95
    da6c:	f46bb097          	auipc	ra,0xf46bb
    da70:	1c208063          	beq	ra,sp,0xdc30
    da74:	1bc001ef          	jal	gp,0xdc30
    da78:	0043b3b3          	sltu	t2,t2,tp
    da7c:	fffcc237          	lui	tp,0xfffcc
    da80:	4caec117          	auipc	sp,0x4caec
    da84:	bb41e113          	ori	sp,gp,-1100
    da88:	48718493          	addi	s1,gp,1159 # 0xffffffff93c95487
    da8c:	c231e193          	ori	gp,gp,-989
    da90:	4031d1b3          	sra	gp,gp,gp
    da94:	bba6d137          	lui	sp,0xbba6d
    da98:	7cd2b097          	auipc	ra,0x7cd2b
    da9c:	060f7137          	lui	sp,0x60f7
    daa0:	00139a33          	sll	s4,t2,ra
    daa4:	de980197          	auipc	gp,0xde980
    daa8:	00173333          	sltu	t1,a4,ra
    daac:	dc3a51b7          	lui	gp,0xdc3a5
    dab0:	a5259237          	lui	tp,0xa5259
    dab4:	0031c133          	xor	sp,gp,gp
    dab8:	b04d3137          	lui	sp,0xb04d3
    dabc:	81701117          	auipc	sp,0x81701
    dac0:	001091b3          	sll	gp,ra,ra
    dac4:	de917093          	andi	ra,sp,-535
    dac8:	bdeab197          	auipc	gp,0xbdeab
    dacc:	2f945397          	auipc	t2,0x2f945
    dad0:	00131eb3          	sll	t4,t1,ra
    dad4:	fc02d1b7          	lui	gp,0xfc02d
    dad8:	fa91f093          	andi	ra,gp,-87
    dadc:	0000f3b3          	and	t2,ra,zero
    dae0:	fed10113          	addi	sp,sp,-19 # 0xffffffff8170eaa9
    dae4:	f856e193          	ori	gp,a3,-123
    dae8:	00728033          	add	zero,t0,t2
    daec:	7d891137          	lui	sp,0x7d891
    daf0:	002180b3          	add	ra,gp,sp
    daf4:	0061a1b3          	slt	gp,gp,t1
    daf8:	00215133          	srl	sp,sp,sp
    dafc:	b0a6f0b7          	lui	ra,0xb0a6f
    db00:	1a511863          	bne	sp,t0,0xdcb0
    db04:	1a510663          	beq	sp,t0,0xdcb0
    db08:	0003a333          	sltz	t1,t2
    db0c:	2f036313          	ori	t1,t1,752
    db10:	403151b3          	sra	gp,sp,gp
    db14:	0010d133          	srl	sp,ra,ra
    db18:	13bbd117          	auipc	sp,0x13bbd
    db1c:	0066d0b3          	srl	ra,a3,t1
    db20:	00332233          	slt	tp,t1,gp
    db24:	90014013          	xori	zero,sp,-1792
    db28:	9ef360b7          	lui	ra,0x9ef36
    db2c:	f6cae117          	auipc	sp,0xf6cae
    db30:	5480c193          	xori	gp,ra,1352
    db34:	4071d0b3          	sra	ra,gp,t2
    db38:	007370b3          	and	ra,t1,t2
    db3c:	0fe7f0b7          	lui	ra,0xfe7f
    db40:	0030f0b3          	and	ra,ra,gp
    db44:	b48b21b7          	lui	gp,0xb48b2
    db48:	003261b3          	or	gp,tp,gp
    db4c:	0031e3b3          	or	t2,gp,gp
    db50:	7a3a70b7          	lui	ra,0x7a3a7
    db54:	2221e093          	ori	ra,gp,546
    db58:	9d516193          	ori	gp,sp,-1579
    db5c:	c20a8137          	lui	sp,0xc20a8
    db60:	00617133          	and	sp,sp,t1
    db64:	fbb16593          	ori	a1,sp,-69
    db68:	361a3137          	lui	sp,0x361a3
    db6c:	0020f133          	and	sp,ra,sp
    db70:	c9297097          	auipc	ra,0xc9297
    db74:	1b1da037          	lui	zero,0x1b1da
    db78:	0613d197          	auipc	gp,0x613d
    db7c:	401151b3          	sra	gp,sp,ra
    db80:	e3ba90b7          	lui	ra,0xe3ba9
    db84:	5367a117          	auipc	sp,0x5367a
    db88:	e0b0c113          	xori	sp,ra,-501
    db8c:	db918ee3          	beq	gp,s9,0xd948
    db90:	db9ff1ef          	jal	gp,0xd948
    db94:	0010f1b3          	and	gp,ra,ra
    db98:	d81e41b7          	lui	gp,0xd81e4
    db9c:	00133033          	sltu	zero,t1,ra
    dba0:	dff5d137          	lui	sp,0xdff5d
    dba4:	c777c397          	auipc	t2,0xc777c
    dba8:	6ab14293          	xori	t0,sp,1707
    dbac:	cddeb0b7          	lui	ra,0xcddeb
    dbb0:	353f30b7          	lui	ra,0x353f3
    dbb4:	4032d0b3          	sra	ra,t0,gp
    dbb8:	00118133          	add	sp,gp,ra
    dbbc:	001080b3          	add	ra,ra,ra
    dbc0:	71210113          	addi	sp,sp,1810 # 0xffffffffdff5d712
    dbc4:	d2c96217          	auipc	tp,0xd2c96
    dbc8:	40110133          	sub	sp,sp,ra
    dbcc:	15d281b7          	lui	gp,0x15d28
    dbd0:	ee1f3337          	lui	t1,0xee1f3
    dbd4:	29ac1097          	auipc	ra,0x29ac1
    dbd8:	005200b3          	add	ra,tp,t0
    dbdc:	1aaf5037          	lui	zero,0x1aaf5
    dbe0:	001f4333          	xor	t1,t5,ra
    dbe4:	0915a337          	lui	t1,0x915a
    dbe8:	003171b3          	and	gp,sp,gp
    dbec:	0020d1b3          	srl	gp,ra,sp
    dbf0:	11c2c197          	auipc	gp,0x11c2c
    dbf4:	00215133          	srl	sp,sp,sp
    dbf8:	0020d1b3          	srl	gp,ra,sp
    dbfc:	8811c193          	xori	gp,gp,-1919
    dc00:	0068a133          	slt	sp,a7,t1
    dc04:	bf338193          	addi	gp,t2,-1037 # 0xffffffffc7789797
    dc08:	a23d51b7          	lui	gp,0xa23d5
    dc0c:	401100b3          	sub	ra,sp,ra
    dc10:	0021c133          	xor	sp,gp,sp
    dc14:	bf317113          	andi	sp,sp,-1037
    dc18:	eee75137          	lui	sp,0xeee75
    dc1c:	001161b3          	or	gp,sp,ra
    dc20:	4f9ce0b7          	lui	ra,0x4f9ce
    dc24:	1e6761b7          	lui	gp,0x1e676
    dc28:	00120263          	beq	tp,ra,0xdc2c
    dc2c:	f28ff1ef          	jal	gp,0xd354
    dc30:	400101b3          	sub	gp,sp,zero
    dc34:	df491017          	auipc	zero,0xdf491
    dc38:	40118033          	sub	zero,gp,ra
    dc3c:	00115133          	srl	sp,sp,ra
    dc40:	3287f0b7          	lui	ra,0x3287f
    dc44:	0017f0b3          	and	ra,a5,ra
    dc48:	d0d1d197          	auipc	gp,0xd0d1d
    dc4c:	03e36113          	ori	sp,t1,62
    dc50:	002130b3          	sltu	ra,sp,sp
    dc54:	daa17497          	auipc	s1,0xdaa17
    dc58:	82016093          	ori	ra,sp,-2016
    dc5c:	0012f1b3          	and	gp,t0,ra
    dc60:	93b6b017          	auipc	zero,0x93b6b
    dc64:	006120b3          	slt	ra,sp,t1
    dc68:	7148e0b7          	lui	ra,0x7148e
    dc6c:	00107133          	and	sp,zero,ra
    dc70:	0003c0b3          	xor	ra,t2,zero
    dc74:	6a87c197          	auipc	gp,0x6a87c
    dc78:	f9ee6197          	auipc	gp,0xf9ee6
    dc7c:	5510e193          	ori	gp,ra,1361
    dc80:	79438117          	auipc	sp,0x79438
    dc84:	2fc1f393          	andi	t2,gp,764
    dc88:	00215233          	srl	tp,sp,sp
    dc8c:	fe426113          	ori	sp,tp,-28
    dc90:	32aca337          	lui	t1,0x32aca
    dc94:	e961f093          	andi	ra,gp,-362
    dc98:	23375117          	auipc	sp,0x23375
    dc9c:	0021a033          	slt	zero,gp,sp
    dca0:	0000d033          	srl	zero,ra,zero
    dca4:	60168217          	auipc	tp,0x60168
    dca8:	96128ce3          	beq	t0,ra,0xd620
    dcac:	975ff0ef          	jal	ra,0xd620
    dcb0:	e23b9097          	auipc	ra,0xe23b9
    dcb4:	58008113          	addi	sp,ra,1408 # 0xffffffffe23c7230
    dcb8:	40538133          	sub	sp,t2,t0
    dcbc:	dfc14f13          	xori	t5,sp,-516
    dcc0:	ce910393          	addi	t2,sp,-791 # 0x23382981
    dcc4:	bb21f313          	andi	t1,gp,-1102
    dcc8:	0061c133          	xor	sp,gp,t1
    dccc:	002020b3          	sgtz	ra,sp
    dcd0:	0f6fb137          	lui	sp,0xf6fb
    dcd4:	006114b3          	sll	s1,sp,t1
    dcd8:	09e18313          	addi	t1,gp,158 # 0xfffffffff9ef3d16
    dcdc:	7ba230b7          	lui	ra,0x7ba23
    dce0:	ac5081b7          	lui	gp,0xac508
    dce4:	575111b7          	lui	gp,0x57511
    dce8:	3be25037          	lui	zero,0x3be25
    dcec:	00613133          	sltu	sp,sp,t1
    dcf0:	bdf17397          	auipc	t2,0xbdf17
    dcf4:	001381b3          	add	gp,t2,ra
    dcf8:	f1f1a117          	auipc	sp,0xf1f1a
    dcfc:	018110b3          	sll	ra,sp,s8
    dd00:	c95f7137          	lui	sp,0xc95f7
    dd04:	c8ef9037          	lui	zero,0xc8ef9
    dd08:	b3736117          	auipc	sp,0xb3736
    dd0c:	93453117          	auipc	sp,0x93453
    dd10:	42c6f497          	auipc	s1,0x42c6f
    dd14:	0dbab2b7          	lui	t0,0xdbab
    dd18:	40308133          	sub	sp,ra,gp
    dd1c:	f830e193          	ori	gp,ra,-125
    dd20:	7367d137          	lui	sp,0x7367d
    dd24:	0031a133          	slt	sp,gp,gp
    dd28:	0050d1b3          	srl	gp,ra,t0
    dd2c:	ca706193          	ori	gp,zero,-857
    dd30:	b85170e3          	bgeu	sp,t0,0xd8b0
    dd34:	b6516ee3          	bltu	sp,t0,0xd8b0
    dd38:	001240b3          	xor	ra,tp,ra
    dd3c:	3d31f0b7          	lui	ra,0x3d31f
    dd40:	007131b3          	sltu	gp,sp,t2
    dd44:	163aa197          	auipc	gp,0x163aa
    dd48:	00109133          	sll	sp,ra,ra
    dd4c:	00118133          	add	sp,gp,ra
    dd50:	002342b3          	xor	t0,t1,sp
    dd54:	00209133          	sll	sp,ra,sp
    dd58:	aa0ac117          	auipc	sp,0xaa0ac
    dd5c:	5be4f397          	auipc	t2,0x5be4f
    dd60:	003c21b3          	slt	gp,s8,gp
    dd64:	9646b1b7          	lui	gp,0x9646b
    dd68:	48886117          	auipc	sp,0x48886
    dd6c:	00b0c0b3          	xor	ra,ra,a1
    dd70:	0010a1b3          	slt	gp,ra,ra
    dd74:	1c191817          	auipc	a6,0x1c191
    dd78:	002162b3          	or	t0,sp,sp
    dd7c:	d7526c17          	auipc	s8,0xd7526
    dd80:	0031c2b3          	xor	t0,gp,gp
    dd84:	402350b3          	sra	ra,t1,sp
    dd88:	00112133          	slt	sp,sp,ra
    dd8c:	dfbc2337          	lui	t1,0xdfbc2
    dd90:	01616133          	or	sp,sp,s6
    dd94:	0027d133          	srl	sp,a5,sp
    dd98:	403084b3          	sub	s1,ra,gp
    dd9c:	40f0d1b3          	sra	gp,ra,a5
    dda0:	01d18133          	add	sp,gp,t4
    dda4:	00107233          	and	tp,zero,ra
    dda8:	fa41e693          	ori	a3,gp,-92
    ddac:	0021f0b3          	and	ra,gp,sp
    ddb0:	815f96b7          	lui	a3,0x815f9
    ddb4:	e95e1317          	auipc	t1,0xe95e1
    ddb8:	a23332b7          	lui	t0,0xa2333
    ddbc:	00216233          	or	tp,sp,sp
    ddc0:	4010d333          	sra	t1,ra,ra
    ddc4:	00210a33          	add	s4,sp,sp
    ddc8:	9e1184e3          	beq	gp,ra,0xd7b0
    ddcc:	9e5ff16f          	jal	sp,0xd7b0
    ddd0:	45c0c317          	auipc	t1,0x45c0c
    ddd4:	0021d0b3          	srl	ra,gp,sp
    ddd8:	b582a037          	lui	zero,0xb582a
    dddc:	0021f0b3          	and	ra,gp,sp
    dde0:	4011d0b3          	sra	ra,gp,ra
    dde4:	0020e1b3          	or	gp,ra,sp
    dde8:	00d1a0b3          	slt	ra,gp,a3
    ddec:	003161b3          	or	gp,sp,gp
    ddf0:	002131b3          	sltu	gp,sp,sp
    ddf4:	8f6400b7          	lui	ra,0x8f640
    ddf8:	d0c0f313          	andi	t1,ra,-756
    ddfc:	f19e7217          	auipc	tp,0xf19e7
    de00:	6398b137          	lui	sp,0x6398b
    de04:	013180b3          	add	ra,gp,s3
    de08:	3311e193          	ori	gp,gp,817
    de0c:	91cb91b7          	lui	gp,0x91cb9
    de10:	78e19197          	auipc	gp,0x78e19
    de14:	00618133          	add	sp,gp,t1
    de18:	67307193          	andi	gp,zero,1651
    de1c:	18316093          	ori	ra,sp,387
    de20:	b99ef117          	auipc	sp,0xb99ef
    de24:	482061b7          	lui	gp,0x48206
    de28:	57218113          	addi	sp,gp,1394 # 0x48206572
    de2c:	002191b3          	sll	gp,gp,sp
    de30:	c363e293          	ori	t0,t2,-970
    de34:	0001a1b3          	sltz	gp,gp
    de38:	0101b2b3          	sltu	t0,gp,a6
    de3c:	1fa17113          	andi	sp,sp,506
    de40:	2f5b7197          	auipc	gp,0x2f5b7
    de44:	1ca65117          	auipc	sp,0x1ca65
    de48:	003101b3          	add	gp,sp,gp
    de4c:	4040d0b3          	sra	ra,ra,tp
    de50:	009100b3          	add	ra,sp,s1
    de54:	8c1188e3          	beq	gp,ra,0xd724
    de58:	8cdff3ef          	jal	t2,0xd724
    de5c:	bc017193          	andi	gp,sp,-1088
    de60:	50616093          	ori	ra,sp,1286
    de64:	501fb197          	auipc	gp,0x501fb
    de68:	0b285317          	auipc	t1,0xb285
    de6c:	cf0bc197          	auipc	gp,0xcf0bc
    de70:	a3ba9117          	auipc	sp,0xa3ba9
    de74:	003000b3          	add	ra,zero,gp
    de78:	0011c133          	xor	sp,gp,ra
    de7c:	001170b3          	and	ra,sp,ra
    de80:	ab41a237          	lui	tp,0xab41a
    de84:	e2a18193          	addi	gp,gp,-470 # 0xffffffffcf0c9c96
    de88:	0013a1b3          	slt	gp,t2,ra
    de8c:	4010d0b3          	sra	ra,ra,ra
    de90:	ecfe9337          	lui	t1,0xecfe9
    de94:	002111b3          	sll	gp,sp,sp
    de98:	42818197          	auipc	gp,0x42818
    de9c:	6e1df097          	auipc	ra,0x6e1df
    dea0:	0032d133          	srl	sp,t0,gp
    dea4:	c35f90b7          	lui	ra,0xc35f9
    dea8:	00218ab3          	add	s5,gp,sp
    deac:	0000b1b3          	sltu	gp,ra,zero
    deb0:	00618333          	add	t1,gp,t1
    deb4:	00219133          	sll	sp,gp,sp
    deb8:	635b5997          	auipc	s3,0x635b5
    debc:	30929197          	auipc	gp,0x30929
    dec0:	00218033          	add	zero,gp,sp
    dec4:	40115db3          	sra	s11,sp,ra
    dec8:	ca70f113          	andi	sp,ra,-857
    decc:	a6ae6337          	lui	t1,0xa6ae6
    ded0:	9ce00197          	auipc	gp,0x9ce00
    ded4:	fba31117          	auipc	sp,0xfba31
    ded8:	3aa5c013          	xori	zero,a1,938
    dedc:	00010093          	mv	ra,sp
    dee0:	76208863          	beq	ra,sp,0xe650
    dee4:	ea3cf097          	auipc	ra,0xea3cf
    dee8:	d0b5e137          	lui	sp,0xd0b5e
    deec:	9165e117          	auipc	sp,0x9165e
    def0:	3444f1b7          	lui	gp,0x3444f
    def4:	00126133          	or	sp,tp,ra
    def8:	003181b3          	add	gp,gp,gp
    defc:	d9dc1097          	auipc	ra,0xd9dc1
    df00:	001350b3          	srl	ra,t1,ra
    df04:	aef04113          	xori	sp,zero,-1297
    df08:	0020d0b3          	srl	ra,ra,sp
    df0c:	7b618193          	addi	gp,gp,1974 # 0x3444f7b6
    df10:	00a261b3          	or	gp,tp,a0
    df14:	0010d133          	srl	sp,ra,ra
    df18:	ef23e193          	ori	gp,t2,-270
    df1c:	0021c1b3          	xor	gp,gp,sp
    df20:	c22b9197          	auipc	gp,0xc22b9
    df24:	b760c293          	xori	t0,ra,-1162
    df28:	00619133          	sll	sp,gp,t1
    df2c:	801a01b7          	lui	gp,0x801a0
    df30:	6b016093          	ori	ra,sp,1712
    df34:	7890c093          	xori	ra,ra,1929
    df38:	002100b3          	add	ra,sp,sp
    df3c:	16f19b97          	auipc	s7,0x16f19
    df40:	85d7e117          	auipc	sp,0x85d7e
    df44:	5f087097          	auipc	ra,0x5f087
    df48:	00121a33          	sll	s4,tp,ra
    df4c:	00219133          	sll	sp,gp,sp
    df50:	a047b317          	auipc	t1,0xa047b
    df54:	001170b3          	and	ra,sp,ra
    df58:	006142b3          	xor	t0,sp,t1
    df5c:	77030197          	auipc	gp,0x77030
    df60:	8f327113          	andi	sp,tp,-1805
    df64:	0011a2b3          	slt	t0,gp,ra
    df68:	403180b3          	sub	ra,gp,gp
    df6c:	9013d1b7          	lui	gp,0x9013d
    df70:	00110263          	beq	sp,ra,0xdf74
    df74:	1c9006ef          	jal	a3,0xe93c
    df78:	003090b3          	sll	ra,ra,gp
    df7c:	4173b037          	lui	zero,0x4173b
    df80:	40010033          	sub	zero,sp,zero
    df84:	0051c1b3          	xor	gp,gp,t0
    df88:	bd32f6b7          	lui	a3,0xbd32f
    df8c:	40508133          	sub	sp,ra,t0
    df90:	4031d0b3          	sra	ra,gp,gp
    df94:	0021c5b3          	xor	a1,gp,sp
    df98:	d9a0c093          	xori	ra,ra,-614
    df9c:	a875d197          	auipc	gp,0xa875d
    dfa0:	78336213          	ori	tp,t1,1923
    dfa4:	ab8ba017          	auipc	zero,0xab8ba
    dfa8:	6a357337          	lui	t1,0x6a357
    dfac:	02e5a117          	auipc	sp,0x2e5a
    dfb0:	003150b3          	srl	ra,sp,gp
    dfb4:	a0b050b7          	lui	ra,0xa0b05
    dfb8:	c5917097          	auipc	ra,0xc5917
    dfbc:	2b5c1337          	lui	t1,0x2b5c1
    dfc0:	641cc017          	auipc	zero,0x641cc
    dfc4:	001041b3          	xor	gp,zero,ra
    dfc8:	d2720293          	addi	t0,tp,-729 # 0xffffffffab419d27
    dfcc:	387a9217          	auipc	tp,0x387a9
    dfd0:	00510333          	add	t1,sp,t0
    dfd4:	72f75097          	auipc	ra,0x72f75
    dfd8:	401180b3          	sub	ra,gp,ra
    dfdc:	f5028113          	addi	sp,t0,-176 # 0xffffffffa2332f50
    dfe0:	76dee337          	lui	t1,0x76dee
    dfe4:	be538093          	addi	ra,t2,-1051 # 0x5be5c941
    dfe8:	c25b0137          	lui	sp,0xc25b0
    dfec:	0020a0b3          	slt	ra,ra,sp
    dff0:	f3231297          	auipc	t0,0xf3231
    dff4:	4012d133          	sra	sp,t0,ra
    dff8:	c5216097          	auipc	ra,0xc5216
    dffc:	0062b133          	sltu	sp,t0,t1
    e000:	00212133          	slt	sp,sp,sp
    e004:	08926393          	ori	t2,tp,137
    e008:	00238263          	beq	t2,sp,0xe00c
    e00c:	4b10016f          	jal	sp,0xecbc
    e010:	52c3c313          	xori	t1,t2,1324
    e014:	405150b3          	sra	ra,sp,t0
    e018:	40208133          	sub	sp,ra,sp
    e01c:	3ad0f093          	andi	ra,ra,941
    e020:	3eddc417          	auipc	s0,0x3eddc
    e024:	8ef3e0b7          	lui	ra,0x8ef3e
    e028:	88c17393          	andi	t2,sp,-1908
    e02c:	52d4c117          	auipc	sp,0x52d4c
    e030:	5c9c7113          	andi	sp,s8,1481
    e034:	cc723197          	auipc	gp,0xcc723
    e038:	12135337          	lui	t1,0x12135
    e03c:	00508d33          	add	s10,ra,t0
    e040:	0020c0b3          	xor	ra,ra,sp
    e044:	96cf0297          	auipc	t0,0x96cf0
    e048:	405085b3          	sub	a1,ra,t0
    e04c:	bf3a1117          	auipc	sp,0xbf3a1
    e050:	fe808197          	auipc	gp,0xfe808
    e054:	6454bb37          	lui	s6,0x6454b
    e058:	82e94137          	lui	sp,0x82e94
    e05c:	4015d333          	sra	t1,a1,ra
    e060:	079db197          	auipc	gp,0x79db
    e064:	410c1197          	auipc	gp,0x410c1
    e068:	001190b3          	sll	ra,gp,ra
    e06c:	fc70f093          	andi	ra,ra,-57
    e070:	0060e2b3          	or	t0,ra,t1
    e074:	c4c951b7          	lui	gp,0xc4c95
    e078:	27d9e137          	lui	sp,0x27d9e
    e07c:	00413233          	sltu	tp,sp,tp
    e080:	88d1ff93          	andi	t6,gp,-1907
    e084:	003640b3          	xor	ra,a2,gp
    e088:	bcd65117          	auipc	sp,0xbcd65
    e08c:	4063d133          	sra	sp,t2,t1
    e090:	0830d863          	bge	ra,gp,0xe120
    e094:	0830c663          	blt	ra,gp,0xe120
    e098:	bbf3e117          	auipc	sp,0xbbf3e
    e09c:	af0dc137          	lui	sp,0xaf0dc
    e0a0:	e1de60b7          	lui	ra,0xe1de6
    e0a4:	004801b3          	add	gp,a6,tp
    e0a8:	abc750b7          	lui	ra,0xabc75
    e0ac:	02c7c137          	lui	sp,0x2c7c
    e0b0:	9ad39317          	auipc	t1,0x9ad39
    e0b4:	bec55197          	auipc	gp,0xbec55
    e0b8:	c4653117          	auipc	sp,0xc4653
    e0bc:	4020d133          	sra	sp,ra,sp
    e0c0:	9b914113          	xori	sp,sp,-1607
    e0c4:	1a62f1b7          	lui	gp,0x1a62f
    e0c8:	8e96f4b7          	lui	s1,0x8e96f
    e0cc:	40300333          	neg	t1,gp
    e0d0:	5d416113          	ori	sp,sp,1492
    e0d4:	ed417013          	andi	zero,sp,-300
    e0d8:	3508e3b7          	lui	t2,0x3508e
    e0dc:	40335133          	sra	sp,t1,gp
    e0e0:	005120b3          	slt	ra,sp,t0
    e0e4:	00a14133          	xor	sp,sp,a0
    e0e8:	d8d4b037          	lui	zero,0xd8d4b
    e0ec:	0062d1b3          	srl	gp,t0,t1
    e0f0:	a5c18113          	addi	sp,gp,-1444 # 0x1a62ea5c
    e0f4:	0014f033          	and	zero,s1,ra
    e0f8:	40008233          	sub	tp,ra,zero
    e0fc:	1a9d0117          	auipc	sp,0x1a9d0
    e100:	005175b3          	and	a1,sp,t0
    e104:	001100b3          	add	ra,sp,ra
    e108:	2c66c837          	lui	a6,0x2c66c
    e10c:	0d1a3397          	auipc	t2,0xd1a3
    e110:	b2f0c313          	xori	t1,ra,-1233
    e114:	522d7117          	auipc	sp,0x522d7
    e118:	00018193          	mv	gp,gp
    e11c:	70318263          	beq	gp,gp,0xe820
    e120:	40008033          	sub	zero,ra,zero
    e124:	f3b0f013          	andi	zero,ra,-197
    e128:	b4af7117          	auipc	sp,0xb4af7
    e12c:	0041a333          	slt	t1,gp,tp
    e130:	0051c1b3          	xor	gp,gp,t0
    e134:	769b90b7          	lui	ra,0x769b9
    e138:	00110033          	add	zero,sp,ra
    e13c:	00235133          	srl	sp,t1,sp
    e140:	003191b3          	sll	gp,gp,gp
    e144:	02b48db7          	lui	s11,0x2b48
    e148:	b0f24197          	auipc	gp,0xb0f24
    e14c:	000212b3          	sll	t0,tp,zero
    e150:	c54d7117          	auipc	sp,0xc54d7
    e154:	001d01b3          	add	gp,s10,ra
    e158:	e2232117          	auipc	sp,0xe2232
    e15c:	45cfe097          	auipc	ra,0x45cfe
    e160:	abcfa097          	auipc	ra,0xabcfa
    e164:	b6c4b137          	lui	sp,0xb6c4b
    e168:	254e81b7          	lui	gp,0x254e8
    e16c:	4907c137          	lui	sp,0x4907c
    e170:	00287133          	and	sp,a6,sp
    e174:	8b453137          	lui	sp,0x8b453
    e178:	003110b3          	sll	ra,sp,gp
    e17c:	75ee0117          	auipc	sp,0x75ee0
    e180:	3862e093          	ori	ra,t0,902
    e184:	0031b133          	sltu	sp,gp,gp
    e188:	9ed87117          	auipc	sp,0x9ed87
    e18c:	a1f0c317          	auipc	t1,0xa1f0c
    e190:	00513133          	sltu	sp,sp,t0
    e194:	916a0197          	auipc	gp,0x916a0
    e198:	80a1e193          	ori	gp,gp,-2038
    e19c:	580a3217          	auipc	tp,0x580a3
    e1a0:	4061d0b3          	sra	ra,gp,t1
    e1a4:	95db3b37          	lui	s6,0x95db3
    e1a8:	c8518113          	addi	sp,gp,-891 # 0xffffffff916ade19
    e1ac:	6e700e63          	beq	zero,t2,0xe8a8
    e1b0:	6f80046f          	jal	s0,0xe8a8
    e1b4:	c225e237          	lui	tp,0xc225e
    e1b8:	00109133          	sll	sp,ra,ra
    e1bc:	3442a1b7          	lui	gp,0x3442a
    e1c0:	88417493          	andi	s1,sp,-1916
    e1c4:	003bb133          	sltu	sp,s7,gp
    e1c8:	8f842037          	lui	zero,0x8f842
    e1cc:	2330e213          	ori	tp,ra,563
    e1d0:	fad2e097          	auipc	ra,0xfad2e
    e1d4:	4fe1c113          	xori	sp,gp,1278
    e1d8:	1761c113          	xori	sp,gp,374
    e1dc:	8341f193          	andi	gp,gp,-1996
    e1e0:	00d191b3          	sll	gp,gp,a3
    e1e4:	8ba3e313          	ori	t1,t2,-1862
    e1e8:	b05e8197          	auipc	gp,0xb05e8
    e1ec:	e0016193          	ori	gp,sp,-512
    e1f0:	0011e0b3          	or	ra,gp,ra
    e1f4:	6b9af117          	auipc	sp,0x6b9af
    e1f8:	7922b217          	auipc	tp,0x7922b
    e1fc:	9d937013          	andi	zero,t1,-1575
    e200:	0dc9b0b7          	lui	ra,0xdc9b
    e204:	e93ef313          	andi	t1,t4,-365
    e208:	00d321b3          	slt	gp,t1,a3
    e20c:	e5f3d337          	lui	t1,0xe5f3d
    e210:	007130b3          	sltu	ra,sp,t2
    e214:	00811133          	sll	sp,sp,s0
    e218:	add74637          	lui	a2,0xadd74
    e21c:	d1153337          	lui	t1,0xd1153
    e220:	a7c3a1b7          	lui	gp,0xa7c3a
    e224:	88b59097          	auipc	ra,0x88b59
    e228:	a5a13097          	auipc	ra,0xa5a13
    e22c:	6f70b1b7          	lui	gp,0x6f70b
    e230:	fd324093          	xori	ra,tp,-45
    e234:	002171b3          	and	gp,sp,sp
    e238:	00010093          	mv	ra,sp
    e23c:	1c208a63          	beq	ra,sp,0xe410
    e240:	00f121b3          	slt	gp,sp,a5
    e244:	8cb95737          	lui	a4,0x8cb95
    e248:	e509d197          	auipc	gp,0xe509d
    e24c:	63788037          	lui	zero,0x63788
    e250:	97601197          	auipc	gp,0x97601
    e254:	00119133          	sll	sp,gp,ra
    e258:	004c90b3          	sll	ra,s9,tp
    e25c:	46c34097          	auipc	ra,0x46c34
    e260:	f280e0b7          	lui	ra,0xf280e
    e264:	0030c0b3          	xor	ra,ra,gp
    e268:	0021f133          	and	sp,gp,sp
    e26c:	ceb7a1b7          	lui	gp,0xceb7a
    e270:	000121b3          	sltz	gp,sp
    e274:	a6b18137          	lui	sp,0xa6b18
    e278:	fb8a6313          	ori	t1,s4,-72
    e27c:	a341f193          	andi	gp,gp,-1484
    e280:	b6c2e1b7          	lui	gp,0xb6c2e
    e284:	0a69d0b7          	lui	ra,0xa69d
    e288:	dbdd7197          	auipc	gp,0xdbdd7
    e28c:	a6917393          	andi	t2,sp,-1431
    e290:	404105b3          	sub	a1,sp,tp
    e294:	dbc16113          	ori	sp,sp,-580
    e298:	e3e34013          	xori	zero,t1,-450
    e29c:	53869237          	lui	tp,0x53869
    e2a0:	0004c133          	xor	sp,s1,zero
    e2a4:	4041d0b3          	sra	ra,gp,tp
    e2a8:	4012d033          	sra	zero,t0,ra
    e2ac:	46d9f197          	auipc	gp,0x46d9f
    e2b0:	14535097          	auipc	ra,0x14535
    e2b4:	0020b133          	sltu	sp,ra,sp
    e2b8:	e290e193          	ori	gp,ra,-471
    e2bc:	4101d1b3          	sra	gp,gp,a6
    e2c0:	004680b3          	add	ra,a3,tp
    e2c4:	00008093          	mv	ra,ra
    e2c8:	d41084e3          	beq	ra,ra,0xe010
    e2cc:	002120b3          	slt	ra,sp,sp
    e2d0:	8198c0b7          	lui	ra,0x8198c
    e2d4:	8cb26137          	lui	sp,0x8cb26
    e2d8:	63848117          	auipc	sp,0x63848
    e2dc:	0090f0b3          	and	ra,ra,s1
    e2e0:	001eb0b3          	sltu	ra,t4,ra
    e2e4:	0022e0b3          	or	ra,t0,sp
    e2e8:	66380097          	auipc	ra,0x66380
    e2ec:	9f136293          	ori	t0,t1,-1551
    e2f0:	29e4c117          	auipc	sp,0x29e4c
    e2f4:	40118133          	sub	sp,gp,ra
    e2f8:	005302b3          	add	t0,t1,t0
    e2fc:	84218197          	auipc	gp,0x84218
    e300:	33ff90b7          	lui	ra,0x33ff9
    e304:	0021d1b3          	srl	gp,gp,sp
    e308:	683dd197          	auipc	gp,0x683dd
    e30c:	0071f133          	and	sp,gp,t2
    e310:	9bb1a197          	auipc	gp,0x9bb1a
    e314:	0040a3b3          	slt	t2,ra,tp
    e318:	0020b0b3          	sltu	ra,ra,sp
    e31c:	400100b3          	sub	ra,sp,zero
    e320:	b329d017          	auipc	zero,0xb329d
    e324:	0041b0b3          	sltu	ra,gp,tp
    e328:	002362b3          	or	t0,t1,sp
    e32c:	3261f093          	andi	ra,gp,806
    e330:	2c1cd117          	auipc	sp,0x2c1cd
    e334:	0011bb33          	sltu	s6,gp,ra
    e338:	006180b3          	add	ra,gp,t1
    e33c:	004100b3          	add	ra,sp,tp
    e340:	002170b3          	and	ra,sp,sp
    e344:	0031e1b3          	or	gp,gp,gp
    e348:	007170b3          	and	ra,sp,t2
    e34c:	e9e2c193          	xori	gp,t0,-354
    e350:	0030d333          	srl	t1,ra,gp
    e354:	1ea1e093          	ori	ra,gp,490
    e358:	85645097          	auipc	ra,0x85645
    e35c:	8560a097          	auipc	ra,0x8560a
    e360:	00028093          	mv	ra,t0
    e364:	00508263          	beq	ra,t0,0xe368
    e368:	002a2ab3          	slt	s5,s4,sp
    e36c:	62228093          	addi	ra,t0,1570 # 0xffffffff96cfe666
    e370:	40715133          	sra	sp,sp,t2
    e374:	bab37117          	auipc	sp,0xbab37
    e378:	5f384a97          	auipc	s5,0x5f384
    e37c:	000173b3          	and	t2,sp,zero
    e380:	00117133          	and	sp,sp,ra
    e384:	00313033          	sltu	zero,sp,gp
    e388:	c4578093          	addi	ra,a5,-955 # 0xaf082bd
    e38c:	76b7c237          	lui	tp,0x76b7c
    e390:	004090b3          	sll	ra,ra,tp
    e394:	4b58a017          	auipc	zero,0x4b58a
    e398:	d6aae113          	ori	sp,s5,-662
    e39c:	4020d0b3          	sra	ra,ra,sp
    e3a0:	00227133          	and	sp,tp,sp
    e3a4:	73d3e397          	auipc	t2,0x73d3e
    e3a8:	71f320b7          	lui	ra,0x71f32
    e3ac:	17fb77b7          	lui	a5,0x17fb7
    e3b0:	91f48097          	auipc	ra,0x91f48
    e3b4:	003096b3          	sll	a3,ra,gp
    e3b8:	42d34113          	xori	sp,t1,1069
    e3bc:	20f22117          	auipc	sp,0x20f22
    e3c0:	3c89a2b7          	lui	t0,0x3c89a
    e3c4:	4061d133          	sra	sp,gp,t1
    e3c8:	40308133          	sub	sp,ra,gp
    e3cc:	001dd0b3          	srl	ra,s11,ra
    e3d0:	f15c0e17          	auipc	t3,0xf15c0
    e3d4:	7bad5097          	auipc	ra,0x7bad5
    e3d8:	00410333          	add	t1,sp,tp
    e3dc:	db6081b7          	lui	gp,0xdb608
    e3e0:	366ca1b7          	lui	gp,0x366ca
    e3e4:	0011d0b3          	srl	ra,gp,ra
    e3e8:	009100b3          	add	ra,sp,s1
    e3ec:	941e8197          	auipc	gp,0x941e8
    e3f0:	2890e137          	lui	sp,0x2890e
    e3f4:	00312033          	slt	zero,sp,gp
    e3f8:	0204b237          	lui	tp,0x204b
    e3fc:	403151b3          	sra	gp,sp,gp
    e400:	252911b7          	lui	gp,0x25291
    e404:	4872d2b7          	lui	t0,0x4872d
    e408:	a4208ae3          	beq	ra,sp,0xde5c
    e40c:	a51ff26f          	jal	tp,0xde5c
    e410:	00407233          	and	tp,zero,tp
    e414:	8b00f393          	andi	t2,ra,-1872
    e418:	eba26137          	lui	sp,0xeba26
    e41c:	2dfd80b7          	lui	ra,0x2dfd8
    e420:	000301b3          	add	gp,t1,zero
    e424:	c35d01b7          	lui	gp,0xc35d0
    e428:	413083b3          	sub	t2,ra,s3
    e42c:	e4616113          	ori	sp,sp,-442
    e430:	001001b3          	add	gp,zero,ra
    e434:	3b9f4113          	xori	sp,t5,953
    e438:	3d810093          	addi	ra,sp,984 # 0xffffffffeba263d8
    e43c:	0011b3b3          	sltu	t2,gp,ra
    e440:	2565e097          	auipc	ra,0x2565e
    e444:	0031e133          	or	sp,gp,gp
    e448:	00217033          	and	zero,sp,sp
    e44c:	c6069117          	auipc	sp,0xc6069
    e450:	06d68313          	addi	t1,a3,109 # 0xffffffffbd32f06d
    e454:	05527113          	andi	sp,tp,85
    e458:	cb489097          	auipc	ra,0xcb489
    e45c:	41bd3217          	auipc	tp,0x41bd3
    e460:	bd1a30b7          	lui	ra,0xbd1a3
    e464:	00361133          	sll	sp,a2,gp
    e468:	9bf1e0b7          	lui	ra,0x9bf1e
    e46c:	00214113          	xori	sp,sp,2
    e470:	402383b3          	sub	t2,t2,sp
    e474:	00215033          	srl	zero,sp,sp
    e478:	4522f1b7          	lui	gp,0x4522f
    e47c:	47ad8197          	auipc	gp,0x47ad8
    e480:	58a7f297          	auipc	t0,0x58a7f
    e484:	6bed7197          	auipc	gp,0x6bed7
    e488:	0bae91b7          	lui	gp,0xbae9
    e48c:	dd83e113          	ori	sp,t2,-552
    e490:	005300b3          	add	ra,t1,t0
    e494:	01b131b3          	sltu	gp,sp,s11
    e498:	0a118263          	beq	gp,ra,0xe53c
    e49c:	0a00006f          	j	0xe53c
    e4a0:	000341b3          	xor	gp,t1,zero
    e4a4:	e1d7d137          	lui	sp,0xe1d7d
    e4a8:	d5991137          	lui	sp,0xd5991
    e4ac:	2e1ae1b7          	lui	gp,0x2e1ae
    e4b0:	0061f1b3          	and	gp,gp,t1
    e4b4:	00518133          	add	sp,gp,t0
    e4b8:	b80f92b7          	lui	t0,0xb80f9
    e4bc:	0076e1b3          	or	gp,a3,t2
    e4c0:	000094b3          	sll	s1,ra,zero
    e4c4:	e501c113          	xori	sp,gp,-432
    e4c8:	41651117          	auipc	sp,0x41651
    e4cc:	0030d133          	srl	sp,ra,gp
    e4d0:	d8637193          	andi	gp,t1,-634
    e4d4:	ecc3f337          	lui	t1,0xecc3f
    e4d8:	004600b3          	add	ra,a2,tp
    e4dc:	4060d033          	sra	zero,ra,t1
    e4e0:	00036133          	or	sp,t1,zero
    e4e4:	0011f133          	and	sp,gp,ra
    e4e8:	d0802137          	lui	sp,0xd0802
    e4ec:	0030f1b3          	and	gp,ra,gp
    e4f0:	001d50b3          	srl	ra,s10,ra
    e4f4:	128d80b7          	lui	ra,0x128d8
    e4f8:	003081b3          	add	gp,ra,gp
    e4fc:	544490b7          	lui	ra,0x54449
    e500:	3197a0b7          	lui	ra,0x3197a
    e504:	00309333          	sll	t1,ra,gp
    e508:	e0240093          	addi	ra,s0,-510 # 0x3ede9e22
    e50c:	acf06117          	auipc	sp,0xacf06
    e510:	f78f9117          	auipc	sp,0xf78f9
    e514:	df8c4137          	lui	sp,0xdf8c4
    e518:	007911b3          	sll	gp,s2,t2
    e51c:	f5b0d5b7          	lui	a1,0xf5b0d
    e520:	0050f1b3          	and	gp,ra,t0
    e524:	0035c133          	xor	sp,a1,gp
    e528:	a76570b7          	lui	ra,0xa7657
    e52c:	d460d117          	auipc	sp,0xd460d
    e530:	ce717093          	andi	ra,sp,-793
    e534:	d8428ce3          	beq	t0,tp,0xe2cc
    e538:	d95ff0ef          	jal	ra,0xe2cc
    e53c:	0b612097          	auipc	ra,0xb612
    e540:	d2024113          	xori	sp,tp,-736
    e544:	61a17e93          	andi	t4,sp,1562
    e548:	65c36213          	ori	tp,t1,1628
    e54c:	402151b3          	sra	gp,sp,sp
    e550:	92d06193          	ori	gp,zero,-1747
    e554:	c4c6f237          	lui	tp,0xc4c6f
    e558:	00511233          	sll	tp,sp,t0
    e55c:	6cea4137          	lui	sp,0x6cea4
    e560:	8bd265b7          	lui	a1,0x8bd26
    e564:	0021d333          	srl	t1,gp,sp
    e568:	88d37113          	andi	sp,t1,-1907
    e56c:	24300193          	li	gp,579
    e570:	0abf71b7          	lui	gp,0xabf7
    e574:	9b40f113          	andi	sp,ra,-1612
    e578:	e070f113          	andi	sp,ra,-505
    e57c:	8fb18193          	addi	gp,gp,-1797 # 0xabf68fb
    e580:	0ec86117          	auipc	sp,0xec86
    e584:	5f90c113          	xori	sp,ra,1529
    e588:	0020b1b3          	sltu	gp,ra,sp
    e58c:	0141a1b3          	slt	gp,gp,s4
    e590:	0041c3b3          	xor	t2,gp,tp
    e594:	00122033          	slt	zero,tp,ra
    e598:	002051b3          	srl	gp,zero,sp
    e59c:	76308193          	addi	gp,ra,1891 # 0xb620c9f
    e5a0:	00c582b3          	add	t0,a1,a2
    e5a4:	00754117          	auipc	sp,0x754
    e5a8:	005332b3          	sltu	t0,t1,t0
    e5ac:	1b879397          	auipc	t2,0x1b879
    e5b0:	96b7d117          	auipc	sp,0x96b7d
    e5b4:	40314093          	xori	ra,sp,1027
    e5b8:	5330f193          	andi	gp,ra,1331
    e5bc:	00220133          	add	sp,tp,sp
    e5c0:	00018193          	mv	gp,gp
    e5c4:	ec318ee3          	beq	gp,gp,0xe4a0
    e5c8:	cec24117          	auipc	sp,0xcec24
    e5cc:	00420133          	add	sp,tp,tp
    e5d0:	5610c113          	xori	sp,ra,1377
    e5d4:	0032d3b3          	srl	t2,t0,gp
    e5d8:	fb0911b7          	lui	gp,0xfb091
    e5dc:	f46332b7          	lui	t0,0xf4633
    e5e0:	00b0a133          	slt	sp,ra,a1
    e5e4:	40228133          	sub	sp,t0,sp
    e5e8:	2660a117          	auipc	sp,0x2660a
    e5ec:	0000e0b3          	or	ra,ra,zero
    e5f0:	403101b3          	sub	gp,sp,gp
    e5f4:	c89cf1b7          	lui	gp,0xc89cf
    e5f8:	a6106093          	ori	ra,zero,-1439
    e5fc:	8cfae797          	auipc	a5,0x8cfae
    e600:	a217b0b7          	lui	ra,0xa217b
    e604:	00321233          	sll	tp,tp,gp
    e608:	003310b3          	sll	ra,t1,gp
    e60c:	21253097          	auipc	ra,0x21253
    e610:	40b151b3          	sra	gp,sp,a1
    e614:	391a10b7          	lui	ra,0x391a1
    e618:	0a5b0017          	auipc	zero,0xa5b0
    e61c:	e5922117          	auipc	sp,0xe5922
    e620:	8f1670b7          	lui	ra,0x8f167
    e624:	74b07137          	lui	sp,0x74b07
    e628:	e339a097          	auipc	ra,0xe339a
    e62c:	fc04d597          	auipc	a1,0xfc04d
    e630:	00312133          	slt	sp,sp,gp
    e634:	002307b3          	add	a5,t1,sp
    e638:	402080b3          	sub	ra,ra,sp
    e63c:	00f6c1b3          	xor	gp,a3,a5
    e640:	3d526113          	ori	sp,tp,981
    e644:	41fad117          	auipc	sp,0x41fad
    e648:	00000093          	li	ra,0
    e64c:	0a008463          	beqz	ra,0xe6f4
    e650:	c825b197          	auipc	gp,0xc825b
    e654:	be5e6137          	lui	sp,0xbe5e6
    e658:	833f40b7          	lui	ra,0x833f4
    e65c:	08918313          	addi	t1,gp,137 # 0xffffffffc82696d9
    e660:	4985e097          	auipc	ra,0x4985e
    e664:	03101197          	auipc	gp,0x3101
    e668:	405500b3          	sub	ra,a0,t0
    e66c:	05091137          	lui	sp,0x5091
    e670:	3c514193          	xori	gp,sp,965
    e674:	ef61f093          	andi	ra,gp,-266
    e678:	009c41b3          	xor	gp,s8,s1
    e67c:	b0918213          	addi	tp,gp,-1271 # 0x310f16d
    e680:	54ba90b7          	lui	ra,0x54ba9
    e684:	00313133          	sltu	sp,sp,gp
    e688:	e8d0a197          	auipc	gp,0xe8d0a
    e68c:	38817113          	andi	sp,sp,904
    e690:	d1b64137          	lui	sp,0xd1b64
    e694:	001243b3          	xor	t2,tp,ra
    e698:	40218ab3          	sub	s5,gp,sp
    e69c:	a1d06197          	auipc	gp,0xa1d06
    e6a0:	346fe137          	lui	sp,0x346fe
    e6a4:	a8662097          	auipc	ra,0xa8662
    e6a8:	cc4eb117          	auipc	sp,0xcc4eb
    e6ac:	61c1f237          	lui	tp,0x61c1f
    e6b0:	12ea2317          	auipc	t1,0x12ea2
    e6b4:	f5204293          	xori	t0,zero,-174
    e6b8:	9c2381b7          	lui	gp,0x9c238
    e6bc:	0003e333          	or	t1,t2,zero
    e6c0:	3330e3b7          	lui	t2,0x3330e
    e6c4:	001121b3          	slt	gp,sp,ra
    e6c8:	002310b3          	sll	ra,t1,sp
    e6cc:	00209333          	sll	t1,ra,sp
    e6d0:	559201b7          	lui	gp,0x55920
    e6d4:	0031b1b3          	sltu	gp,gp,gp
    e6d8:	b22bf197          	auipc	gp,0xb22bf
    e6dc:	016161b3          	or	gp,sp,s6
    e6e0:	002101b3          	add	gp,sp,sp
    e6e4:	599503b7          	lui	t2,0x59950
    e6e8:	52924313          	xori	t1,tp,1321
    e6ec:	881106e3          	beq	sp,ra,0xdf78
    e6f0:	889ff1ef          	jal	gp,0xdf78
    e6f4:	1ac1f093          	andi	ra,gp,428
    e6f8:	004180b3          	add	ra,gp,tp
    e6fc:	8ef84017          	auipc	zero,0x8ef84
    e700:	005181b3          	add	gp,gp,t0
    e704:	2e608193          	addi	gp,ra,742 # 0xffffffffa867098a
    e708:	1cc67317          	auipc	t1,0x1cc67
    e70c:	0020e0b3          	or	ra,ra,sp
    e710:	6c9c7197          	auipc	gp,0x6c9c7
    e714:	9e9250b7          	lui	ra,0x9e925
    e718:	00612333          	slt	t1,sp,t1
    e71c:	0031c0b3          	xor	ra,gp,gp
    e720:	401051b3          	sra	gp,zero,ra
    e724:	001797b3          	sll	a5,a5,ra
    e728:	0030d0b3          	srl	ra,ra,gp
    e72c:	64021117          	auipc	sp,0x64021
    e730:	004151b3          	srl	gp,sp,tp
    e734:	4d70e193          	ori	gp,ra,1239
    e738:	005090b3          	sll	ra,ra,t0
    e73c:	0022a033          	slt	zero,t0,sp
    e740:	7922b097          	auipc	ra,0x7922b
    e744:	99541117          	auipc	sp,0x99541
    e748:	4010d833          	sra	a6,ra,ra
    e74c:	0aa3e313          	ori	t1,t2,170
    e750:	b6020313          	addi	t1,tp,-1184 # 0x61c1eb60
    e754:	d11263b7          	lui	t2,0xd1126
    e758:	00766133          	or	sp,a2,t2
    e75c:	00f0b133          	sltu	sp,ra,a5
    e760:	003160b3          	or	ra,sp,gp
    e764:	b4ae6037          	lui	zero,0xb4ae6
    e768:	49a13137          	lui	sp,0x49a13
    e76c:	5d2b40b7          	lui	ra,0x5d2b4
    e770:	a50cf193          	andi	gp,s9,-1456
    e774:	0010e0b3          	or	ra,ra,ra
    e778:	00008093          	mv	ra,ra
    e77c:	a2108ce3          	beq	ra,ra,0xe1b4
    e780:	003191b3          	sll	gp,gp,gp
    e784:	0027e333          	or	t1,a5,sp
    e788:	e29ff197          	auipc	gp,0xe29ff
    e78c:	26b7edb7          	lui	s11,0x26b7e
    e790:	002791b3          	sll	gp,a5,sp
    e794:	11214293          	xori	t0,sp,274
    e798:	8251a0b7          	lui	ra,0x8251a
    e79c:	8019b0b7          	lui	ra,0x8019b
    e7a0:	04c63337          	lui	t1,0x4c63
    e7a4:	e2e9e197          	auipc	gp,0xe2e9e
    e7a8:	2d93e113          	ori	sp,t2,729
    e7ac:	68659197          	auipc	gp,0x68659
    e7b0:	eb7fa197          	auipc	gp,0xeb7fa
    e7b4:	002361b3          	or	gp,t1,sp
    e7b8:	00219033          	sll	zero,gp,sp
    e7bc:	ef030197          	auipc	gp,0xef030
    e7c0:	0021c333          	xor	t1,gp,sp
    e7c4:	0075d333          	srl	t1,a1,t2
    e7c8:	119d7197          	auipc	gp,0x119d7
    e7cc:	000131b3          	sltu	gp,sp,zero
    e7d0:	00114133          	xor	sp,sp,ra
    e7d4:	001101b3          	add	gp,sp,ra
    e7d8:	0003c2b3          	xor	t0,t2,zero
    e7dc:	b1f07117          	auipc	sp,0xb1f07
    e7e0:	379350b7          	lui	ra,0x37935
    e7e4:	bd717093          	andi	ra,sp,-1065
    e7e8:	002280b3          	add	ra,t0,sp
    e7ec:	e6a280b7          	lui	ra,0xe6a28
    e7f0:	147ba0b7          	lui	ra,0x147ba
    e7f4:	c5a0f397          	auipc	t2,0xc5a0f
    e7f8:	0020a0b3          	slt	ra,ra,sp
    e7fc:	8c46e0b7          	lui	ra,0x8c46e
    e800:	0c4db1b7          	lui	gp,0xc4db
    e804:	00732133          	slt	sp,t1,t2
    e808:	68cdb137          	lui	sp,0x68cdb
    e80c:	10e13317          	auipc	t1,0x10e13
    e810:	01e133b3          	sltu	t2,sp,t5
    e814:	7924f217          	auipc	tp,0x7924f
    e818:	00000213          	li	tp,0
    e81c:	a20202e3          	beqz	tp,0xe240
    e820:	00108133          	add	sp,ra,ra
    e824:	73ba3d17          	auipc	s10,0x73ba3
    e828:	92e1c093          	xori	ra,gp,-1746
    e82c:	fec85097          	auipc	ra,0xfec85
    e830:	00224233          	xor	tp,tp,sp
    e834:	cf7c71b7          	lui	gp,0xcf7c7
    e838:	6ad24117          	auipc	sp,0x6ad24
    e83c:	002121b3          	slt	gp,sp,sp
    e840:	002941b3          	xor	gp,s2,sp
    e844:	b2110093          	addi	ra,sp,-1247 # 0x6ad32359
    e848:	e1516193          	ori	gp,sp,-491
    e84c:	0023e133          	or	sp,t2,sp
    e850:	f9426197          	auipc	gp,0xf9426
    e854:	ae343137          	lui	sp,0xae343
    e858:	ac11e097          	auipc	ra,0xac11e
    e85c:	cd2524b7          	lui	s1,0xcd252
    e860:	880f6197          	auipc	gp,0x880f6
    e864:	b029b0b7          	lui	ra,0xb029b
    e868:	401081b3          	sub	gp,ra,ra
    e86c:	00137033          	and	zero,t1,ra
    e870:	00b0e3b3          	or	t2,ra,a1
    e874:	0061d2b3          	srl	t0,gp,t1
    e878:	006230b3          	sltu	ra,tp,t1
    e87c:	79765117          	auipc	sp,0x79765
    e880:	0010a0b3          	slt	ra,ra,ra
    e884:	e5958013          	addi	zero,a1,-423 # 0xfffffffffc05b485
    e888:	402151b3          	sra	gp,sp,sp
    e88c:	f30b00b7          	lui	ra,0xf30b0
    e890:	01141297          	auipc	t0,0x1141
    e894:	0031b1b3          	sltu	gp,gp,gp
    e898:	aae4c313          	xori	t1,s1,-1362
    e89c:	d4a14013          	xori	zero,sp,-694
    e8a0:	d21184e3          	beq	gp,ra,0xe5c8
    e8a4:	d25ff1ef          	jal	gp,0xe5c8
    e8a8:	27cf7137          	lui	sp,0x27cf7
    e8ac:	86596137          	lui	sp,0x86596
    e8b0:	0000c3b3          	xor	t2,ra,zero
    e8b4:	00509133          	sll	sp,ra,t0
    e8b8:	e56d1137          	lui	sp,0xe56d1
    e8bc:	2033c193          	xori	gp,t2,515
    e8c0:	0001a3b3          	sltz	t2,gp
    e8c4:	a480f113          	andi	sp,ra,-1464
    e8c8:	40118233          	sub	tp,gp,ra
    e8cc:	bd417093          	andi	ra,sp,-1068
    e8d0:	38d1c093          	xori	ra,gp,909
    e8d4:	2e990337          	lui	t1,0x2e990
    e8d8:	0051e033          	or	zero,gp,t0
    e8dc:	401100b3          	sub	ra,sp,ra
    e8e0:	006161b3          	or	gp,sp,t1
    e8e4:	00218ab3          	add	s5,gp,sp
    e8e8:	8df0c113          	xori	sp,ra,-1825
    e8ec:	00108133          	add	sp,ra,ra
    e8f0:	5e25c193          	xori	gp,a1,1506
    e8f4:	001091b3          	sll	gp,ra,ra
    e8f8:	00313133          	sltu	sp,sp,gp
    e8fc:	a6eb9117          	auipc	sp,0xa6eb9
    e900:	827d5217          	auipc	tp,0x827d5
    e904:	8b81e113          	ori	sp,gp,-1864
    e908:	0091b1b3          	sltu	gp,gp,s1
    e90c:	0021a0b3          	slt	ra,gp,sp
    e910:	e1f10113          	addi	sp,sp,-481 # 0xffffffffa6ec771b
    e914:	6e104193          	xori	gp,zero,1761
    e918:	401150b3          	sra	ra,sp,ra
    e91c:	1af6e137          	lui	sp,0x1af6e
    e920:	d4e62197          	auipc	gp,0xd4e62
    e924:	1792c193          	xori	gp,t0,377
    e928:	70f34193          	xori	gp,t1,1807
    e92c:	0471e093          	ori	ra,gp,71
    e930:	41018333          	sub	t1,gp,a6
    e934:	00f08263          	beq	ra,a5,0xe938
    e938:	f60ff0ef          	jal	ra,0xe098
    e93c:	9fa78113          	addi	sp,a5,-1542 # 0xffffffff8cfbbff6
    e940:	25b800b7          	lui	ra,0x25b80
    e944:	61eb20b7          	lui	ra,0x61eb2
    e948:	0011a1b3          	slt	gp,gp,ra
    e94c:	002083b3          	add	t2,ra,sp
    e950:	d8a2f197          	auipc	gp,0xd8a2f
    e954:	30b10013          	addi	zero,sp,779 # 0x1af6e30b
    e958:	08517093          	andi	ra,sp,133
    e95c:	16e0c1b7          	lui	gp,0x16e0c
    e960:	91314093          	xori	ra,sp,-1773
    e964:	89a16c93          	ori	s9,sp,-1894
    e968:	10406393          	ori	t2,zero,260
    e96c:	dde00193          	li	gp,-546
    e970:	40618233          	sub	tp,gp,t1
    e974:	0181e033          	or	zero,gp,s8
    e978:	cb870097          	auipc	ra,0xcb870
    e97c:	46c06193          	ori	gp,zero,1132
    e980:	00d19233          	sll	tp,gp,a3
    e984:	4041d133          	sra	sp,gp,tp
    e988:	402a5133          	sra	sp,s4,sp
    e98c:	820d8293          	addi	t0,s11,-2016 # 0x26b7d820
    e990:	40108033          	sub	zero,ra,ra
    e994:	0030f1b3          	and	gp,ra,gp
    e998:	9e9dd2b7          	lui	t0,0x9e9dd
    e99c:	008261b3          	or	gp,tp,s0
    e9a0:	08214193          	xori	gp,sp,130
    e9a4:	00316133          	or	sp,sp,gp
    e9a8:	00f1e0b3          	or	ra,gp,a5
    e9ac:	437281b7          	lui	gp,0x43728
    e9b0:	c44ad2b7          	lui	t0,0xc44ad
    e9b4:	7877d137          	lui	sp,0x7877d
    e9b8:	002111b3          	sll	gp,sp,sp
    e9bc:	7e80c193          	xori	gp,ra,2024
    e9c0:	db3561b7          	lui	gp,0xdb356
    e9c4:	001191b3          	sll	gp,gp,ra
    e9c8:	f02b4237          	lui	tp,0xf02b4
    e9cc:	da028ae3          	beqz	t0,0xe780
    e9d0:	db1ff0ef          	jal	ra,0xe780
    e9d4:	9e3df5b7          	lui	a1,0x9e3df
    e9d8:	0031b133          	sltu	sp,gp,gp
    e9dc:	55d66197          	auipc	gp,0x55d66
    e9e0:	acd3e293          	ori	t0,t2,-1331
    e9e4:	e7e693b7          	lui	t2,0xe7e69
    e9e8:	4061d1b3          	sra	gp,gp,t1
    e9ec:	4b351137          	lui	sp,0x4b351
    e9f0:	cc12b1b7          	lui	gp,0xcc12b
    e9f4:	00218033          	add	zero,gp,sp
    e9f8:	e18e5337          	lui	t1,0xe18e5
    e9fc:	f498a017          	auipc	zero,0xf498a
    ea00:	bab27317          	auipc	t1,0xbab27
    ea04:	009d0197          	auipc	gp,0x9d0
    ea08:	5850f013          	andi	zero,ra,1413
    ea0c:	198664b7          	lui	s1,0x19866
    ea10:	006181b3          	add	gp,gp,t1
    ea14:	9edc9097          	auipc	ra,0x9edc9
    ea18:	014e6197          	auipc	gp,0x14e6
    ea1c:	00384133          	xor	sp,a6,gp
    ea20:	b5e14293          	xori	t0,sp,-1186
    ea24:	0011a3b3          	slt	t2,gp,ra
    ea28:	6a57a3b7          	lui	t2,0x6a57a
    ea2c:	00304133          	xor	sp,zero,gp
    ea30:	22de2037          	lui	zero,0x22de2
    ea34:	a5a16193          	ori	gp,sp,-1446
    ea38:	fb34e117          	auipc	sp,0xfb34e
    ea3c:	e49c40b7          	lui	ra,0xe49c4
    ea40:	0035a033          	slt	zero,a1,gp
    ea44:	be500193          	li	gp,-1051
    ea48:	001140b3          	xor	ra,sp,ra
    ea4c:	00208133          	add	sp,ra,sp
    ea50:	2cfb3137          	lui	sp,0x2cfb3
    ea54:	002690b3          	sll	ra,a3,sp
    ea58:	99582317          	auipc	t1,0x99582
    ea5c:	403200b3          	sub	ra,tp,gp
    ea60:	7420d463          	bge	ra,sp,0xf1a8
    ea64:	7420c263          	blt	ra,sp,0xf1a8
    ea68:	00b105b3          	add	a1,sp,a1
    ea6c:	42d0b1b7          	lui	gp,0x42d0b
    ea70:	002170b3          	and	ra,sp,sp
    ea74:	0012d0b3          	srl	ra,t0,ra
    ea78:	a994b0b7          	lui	ra,0xa994b
    ea7c:	dc98d297          	auipc	t0,0xdc98d
    ea80:	2e3d1237          	lui	tp,0x2e3d1
    ea84:	ecb12097          	auipc	ra,0xecb12
    ea88:	002150b3          	srl	ra,sp,sp
    ea8c:	26dfa237          	lui	tp,0x26dfa
    ea90:	2da221b7          	lui	gp,0x2da22
    ea94:	2074e193          	ori	gp,s1,519
    ea98:	00b1c133          	xor	sp,gp,a1
    ea9c:	40125133          	sra	sp,tp,ra
    eaa0:	ae13f593          	andi	a1,t2,-1311
    eaa4:	16c10113          	addi	sp,sp,364 # 0x2cfb316c
    eaa8:	006010b3          	sll	ra,zero,t1
    eaac:	97ac4097          	auipc	ra,0x97ac4
    eab0:	470890b7          	lui	ra,0x47089
    eab4:	73d36093          	ori	ra,t1,1853
    eab8:	403184b3          	sub	s1,gp,gp
    eabc:	6e4231b7          	lui	gp,0x6e423
    eac0:	0bd232b7          	lui	t0,0xbd23
    eac4:	ceb0b237          	lui	tp,0xceb0b
    eac8:	0040d0b3          	srl	ra,ra,tp
    eacc:	33a1c093          	xori	ra,gp,826
    ead0:	0071b133          	sltu	sp,gp,t2
    ead4:	8098e697          	auipc	a3,0x8098e
    ead8:	40308f33          	sub	t5,ra,gp
    eadc:	65500017          	auipc	zero,0x65500
    eae0:	406101b3          	sub	gp,sp,t1
    eae4:	98508113          	addi	sp,ra,-1659 # 0x47088985
    eae8:	000080b3          	add	ra,ra,zero
    eaec:	2fc10663          	beq	sp,t3,0xedd8
    eaf0:	2e80036f          	jal	t1,0xedd8
    eaf4:	40115eb3          	sra	t4,sp,ra
    eaf8:	003172b3          	and	t0,sp,gp
    eafc:	003000b3          	add	ra,zero,gp
    eb00:	4cc6f093          	andi	ra,a3,1228
    eb04:	0032f0b3          	and	ra,t0,gp
    eb08:	74a71217          	auipc	tp,0x74a71
    eb0c:	00168133          	add	sp,a3,ra
    eb10:	0023e0b3          	or	ra,t2,sp
    eb14:	94a26097          	auipc	ra,0x94a26
    eb18:	002271b3          	and	gp,tp,sp
    eb1c:	ba4e71b7          	lui	gp,0xba4e7
    eb20:	ae7de037          	lui	zero,0xae7de
    eb24:	4012d133          	sra	sp,t0,ra
    eb28:	4030d0b3          	sra	ra,ra,gp
    eb2c:	a4e5a397          	auipc	t2,0xa4e5a
    eb30:	75080097          	auipc	ra,0x75080
    eb34:	e80921b7          	lui	gp,0xe8092
    eb38:	00214033          	xor	zero,sp,sp
    eb3c:	ab7dc117          	auipc	sp,0xab7dc
    eb40:	a890e113          	ori	sp,ra,-1399
    eb44:	cec26093          	ori	ra,tp,-788
    eb48:	00661333          	sll	t1,a2,t1
    eb4c:	fa10e093          	ori	ra,ra,-95
    eb50:	00009f33          	sll	t5,ra,zero
    eb54:	9a8e11b7          	lui	gp,0x9a8e1
    eb58:	50321397          	auipc	t2,0x50321
    eb5c:	4c0ca097          	auipc	ra,0x4c0ca
    eb60:	6df930b7          	lui	ra,0x6df93
    eb64:	7cebd097          	auipc	ra,0x7cebd
    eb68:	00212233          	slt	tp,sp,sp
    eb6c:	edc70117          	auipc	sp,0xedc70
    eb70:	57cb4197          	auipc	gp,0x57cb4
    eb74:	18db9197          	auipc	gp,0x18db9
    eb78:	823af197          	auipc	gp,0x823af
    eb7c:	00320233          	add	tp,tp,gp
    eb80:	0020a0b3          	slt	ra,ra,sp
    eb84:	33c03217          	auipc	tp,0x33c03
    eb88:	1301d137          	lui	sp,0x1301d
    eb8c:	00128263          	beq	t0,ra,0xeb90
    eb90:	6550006f          	j	0xf9e4
    eb94:	0145e113          	ori	sp,a1,20
    eb98:	21362137          	lui	sp,0x21362
    eb9c:	00272133          	slt	sp,a4,sp
    eba0:	09718013          	addi	zero,gp,151 # 0xffffffff823bdc0f
    eba4:	9b15e293          	ori	t0,a1,-1615
    eba8:	bfb15237          	lui	tp,0xbfb15
    ebac:	eee1f313          	andi	t1,gp,-274
    ebb0:	00e18393          	addi	t2,gp,14
    ebb4:	0051b1b3          	sltu	gp,gp,t0
    ebb8:	00705033          	srl	zero,zero,t2
    ebbc:	33f11397          	auipc	t2,0x33f11
    ebc0:	89af73b7          	lui	t2,0x89af7
    ebc4:	003371b3          	and	gp,t1,gp
    ebc8:	66a3f193          	andi	gp,t2,1642
    ebcc:	00414033          	xor	zero,sp,tp
    ebd0:	53c3c117          	auipc	sp,0x53c3c
    ebd4:	9361d137          	lui	sp,0x9361d
    ebd8:	46718193          	addi	gp,gp,1127
    ebdc:	46704113          	xori	sp,zero,1127
    ebe0:	00213133          	sltu	sp,sp,sp
    ebe4:	003330b3          	sltu	ra,t1,gp
    ebe8:	2e585797          	auipc	a5,0x2e585
    ebec:	0d145097          	auipc	ra,0xd145
    ebf0:	00416833          	or	a6,sp,tp
    ebf4:	d9bda137          	lui	sp,0xd9bda
    ebf8:	0022d2b3          	srl	t0,t0,sp
    ebfc:	85f1c113          	xori	sp,gp,-1953
    ec00:	20118037          	lui	zero,0x20118
    ec04:	1300f093          	andi	ra,ra,304
    ec08:	54b0d397          	auipc	t2,0x54b0d
    ec0c:	836570b7          	lui	ra,0x83657
    ec10:	fbafc117          	auipc	sp,0xfbafc
    ec14:	c901b237          	lui	tp,0xc901b
    ec18:	adf10113          	addi	sp,sp,-1313 # 0xfffffffffbb0a6ef
    ec1c:	1211d463          	bge	gp,ra,0xed44
    ec20:	1211c263          	blt	gp,ra,0xed44
    ec24:	e29e7137          	lui	sp,0xe29e7
    ec28:	4033d133          	sra	sp,t2,gp
    ec2c:	8c5500b7          	lui	ra,0x8c550
    ec30:	0021c0b3          	xor	ra,gp,sp
    ec34:	57cca217          	auipc	tp,0x57cca
    ec38:	40230133          	sub	sp,t1,sp
    ec3c:	0023d3b3          	srl	t2,t2,sp
    ec40:	a0218317          	auipc	t1,0xa0218
    ec44:	147b4117          	auipc	sp,0x147b4
    ec48:	9321e293          	ori	t0,gp,-1742
    ec4c:	402000b3          	neg	ra,sp
    ec50:	cfa4a1b7          	lui	gp,0xcfa4a
    ec54:	a783f113          	andi	sp,t2,-1416
    ec58:	ecf8b297          	auipc	t0,0xecf8b
    ec5c:	40320133          	sub	sp,tp,gp
    ec60:	1b42c337          	lui	t1,0x1b42c
    ec64:	01f3d133          	srl	sp,t2,t6
    ec68:	ad4f6797          	auipc	a5,0xad4f6
    ec6c:	f937b397          	auipc	t2,0xf937b
    ec70:	002290b3          	sll	ra,t0,sp
    ec74:	767f2097          	auipc	ra,0x767f2
    ec78:	d02150b7          	lui	ra,0xd0215
    ec7c:	a08e7197          	auipc	gp,0xa08e7
    ec80:	003380b3          	add	ra,t2,gp
    ec84:	9ea37193          	andi	gp,t1,-1558
    ec88:	00707133          	and	sp,zero,t2
    ec8c:	0050e1b3          	or	gp,ra,t0
    ec90:	001130b3          	sltu	ra,sp,ra
    ec94:	00322033          	slt	zero,tp,gp
    ec98:	0020b5b3          	sltu	a1,ra,sp
    ec9c:	40508133          	sub	sp,ra,t0
    eca0:	f410e113          	ori	sp,ra,-191
    eca4:	00210133          	add	sp,sp,sp
    eca8:	003160b3          	or	ra,sp,gp
    ecac:	fbe882b7          	lui	t0,0xfbe88
    ecb0:	3451c213          	xori	tp,gp,837
    ecb4:	00010193          	mv	gp,sp
    ecb8:	7a218c63          	beq	gp,sp,0xf470
    ecbc:	a6de1117          	auipc	sp,0xa6de1
    ecc0:	ebe3c393          	xori	t2,t2,-322
    ecc4:	4ba35037          	lui	zero,0x4ba35
    ecc8:	33308313          	addi	t1,ra,819 # 0xffffffffd0215333
    eccc:	e377d217          	auipc	tp,0xe377d
    ecd0:	487d1137          	lui	sp,0x487d1
    ecd4:	0033e133          	or	sp,t2,gp
    ecd8:	0030e133          	or	sp,ra,gp
    ecdc:	0010a0b3          	slt	ra,ra,ra
    ece0:	00116133          	or	sp,sp,ra
    ece4:	0011a133          	slt	sp,gp,ra
    ece8:	51030017          	auipc	zero,0x51030
    ecec:	d9afc1b7          	lui	gp,0xd9afc
    ecf0:	7addd337          	lui	t1,0x7addd
    ecf4:	5dcf15b7          	lui	a1,0x5dcf1
    ecf8:	ec42e013          	ori	zero,t0,-316
    ecfc:	0021e1b3          	or	gp,gp,sp
    ed00:	401280b3          	sub	ra,t0,ra
    ed04:	001012b3          	sll	t0,zero,ra
    ed08:	001170b3          	and	ra,sp,ra
    ed0c:	c535e117          	auipc	sp,0xc535e
    ed10:	1a54d097          	auipc	ra,0x1a54d
    ed14:	00317133          	and	sp,sp,gp
    ed18:	35cf0397          	auipc	t2,0x35cf0
    ed1c:	002433b3          	sltu	t2,s0,sp
    ed20:	07b78193          	addi	gp,a5,123 # 0xffffffffad504ce3
    ed24:	0060c0b3          	xor	ra,ra,t1
    ed28:	c1e14093          	xori	ra,sp,-994
    ed2c:	72b17117          	auipc	sp,0x72b17
    ed30:	7fdb4897          	auipc	a7,0x7fdb4
    ed34:	4070d333          	sra	t1,ra,t2
    ed38:	3e7ac097          	auipc	ra,0x3e7ac
    ed3c:	00038113          	mv	sp,t2
    ed40:	e4710ae3          	beq	sp,t2,0xeb94
    ed44:	3577b237          	lui	tp,0x3577b
    ed48:	0d372317          	auipc	t1,0xd372
    ed4c:	23b0f113          	andi	sp,ra,571
    ed50:	ac45e137          	lui	sp,0xac45e
    ed54:	402080b3          	sub	ra,ra,sp
    ed58:	db538093          	addi	ra,t2,-587 # 0x35cfeacd
    ed5c:	b868a1b7          	lui	gp,0xb868a
    ed60:	f7708093          	addi	ra,ra,-137 # 0x3e7bacaf
    ed64:	00317133          	and	sp,sp,gp
    ed68:	6ab2a1b7          	lui	gp,0x6ab2a
    ed6c:	cb72c097          	auipc	ra,0xcb72c
    ed70:	b5ff1137          	lui	sp,0xb5ff1
    ed74:	0011b133          	sltu	sp,gp,ra
    ed78:	00f69033          	sll	zero,a3,a5
    ed7c:	2dfe3797          	auipc	a5,0x2dfe3
    ed80:	ea8681b7          	lui	gp,0xea868
    ed84:	40338233          	sub	tp,t2,gp
    ed88:	0037a0b3          	slt	ra,a5,gp
    ed8c:	fa15c117          	auipc	sp,0xfa15c
    ed90:	3a208113          	addi	sp,ra,930 # 0xffffffffcb73b10e
    ed94:	edc0f197          	auipc	gp,0xedc0f
    ed98:	0001e133          	or	sp,gp,zero
    ed9c:	440ec0b7          	lui	ra,0x440ec
    eda0:	004197b3          	sll	a5,gp,tp
    eda4:	4da1c113          	xori	sp,gp,1242
    eda8:	0022b0b3          	sltu	ra,t0,sp
    edac:	00219233          	sll	tp,gp,sp
    edb0:	63980117          	auipc	sp,0x63980
    edb4:	04465297          	auipc	t0,0x4465
    edb8:	3801e113          	ori	sp,gp,896
    edbc:	69b8d097          	auipc	ra,0x69b8d
    edc0:	00319133          	sll	sp,gp,gp
    edc4:	0074b233          	sltu	tp,s1,t2
    edc8:	002092b3          	sll	t0,ra,sp
    edcc:	0054f033          	and	zero,s1,t0
    edd0:	3230fc63          	bgeu	ra,gp,0xf108
    edd4:	3230ea63          	bltu	ra,gp,0xf108
    edd8:	b42740b7          	lui	ra,0xb4274
    eddc:	7de050b7          	lui	ra,0x7de05
    ede0:	402200b3          	sub	ra,tp,sp
    ede4:	cb41c093          	xori	ra,gp,-844
    ede8:	4022d233          	sra	tp,t0,sp
    edec:	0033c0b3          	xor	ra,t2,gp
    edf0:	b89ff237          	lui	tp,0xb89ff
    edf4:	50537193          	andi	gp,t1,1285
    edf8:	7a4e41b7          	lui	gp,0x7a4e4
    edfc:	00114133          	xor	sp,sp,ra
    ee00:	6a917113          	andi	sp,sp,1705
    ee04:	0031b133          	sltu	sp,gp,gp
    ee08:	f7ed9117          	auipc	sp,0xf7ed9
    ee0c:	475b8397          	auipc	t2,0x475b8
    ee10:	af8f3217          	auipc	tp,0xaf8f3
    ee14:	0002b1b3          	sltu	gp,t0,zero
    ee18:	00116333          	or	t1,sp,ra
    ee1c:	2fa5c397          	auipc	t2,0x2fa5c
    ee20:	d749b197          	auipc	gp,0xd749b
    ee24:	19584137          	lui	sp,0x19584
    ee28:	003165b3          	or	a1,sp,gp
    ee2c:	397f31b7          	lui	gp,0x397f3
    ee30:	6b214193          	xori	gp,sp,1714
    ee34:	001131b3          	sltu	gp,sp,ra
    ee38:	007092b3          	sll	t0,ra,t2
    ee3c:	23ce4097          	auipc	ra,0x23ce4
    ee40:	dcac8137          	lui	sp,0xdcac8
    ee44:	dfc10093          	addi	ra,sp,-516 # 0xffffffffdcac7dfc
    ee48:	b8944037          	lui	zero,0xb8944
    ee4c:	f04830b7          	lui	ra,0xf0483
    ee50:	0060e133          	or	sp,ra,t1
    ee54:	80b1f193          	andi	gp,gp,-2037
    ee58:	00320463          	beq	tp,gp,0xee60
    ee5c:	0040016f          	jal	sp,0xee60
    ee60:	c9418193          	addi	gp,gp,-876 # 0x397f2c94
    ee64:	4015d0b3          	sra	ra,a1,ra
    ee68:	7bcbe237          	lui	tp,0x7bcbe
    ee6c:	f24fd117          	auipc	sp,0xf24fd
    ee70:	c0d07213          	andi	tp,zero,-1011
    ee74:	62d1e137          	lui	sp,0x62d1e
    ee78:	53a0e193          	ori	gp,ra,1338
    ee7c:	b1c20137          	lui	sp,0xb1c20
    ee80:	16cae0b7          	lui	ra,0x16cae
    ee84:	00910333          	add	t1,sp,s1
    ee88:	001110b3          	sll	ra,sp,ra
    ee8c:	0040c1b3          	xor	gp,ra,tp
    ee90:	0021e233          	or	tp,gp,sp
    ee94:	9da1c193          	xori	gp,gp,-1574
    ee98:	9a41e093          	ori	ra,gp,-1628
    ee9c:	00b0c133          	xor	sp,ra,a1
    eea0:	1790c113          	xori	sp,ra,377
    eea4:	0011c133          	xor	sp,gp,ra
    eea8:	90ca9117          	auipc	sp,0x90ca9
    eeac:	e0c08137          	lui	sp,0xe0c08
    eeb0:	0070f3b3          	and	t2,ra,t2
    eeb4:	4031d133          	sra	sp,gp,gp
    eeb8:	40e0e093          	ori	ra,ra,1038
    eebc:	4637c097          	auipc	ra,0x4637c
    eec0:	0000b633          	sltu	a2,ra,zero
    eec4:	9f8430b7          	lui	ra,0x9f843
    eec8:	6827a1b7          	lui	gp,0x6827a
    eecc:	1a10c093          	xori	ra,ra,417
    eed0:	19d4e0b7          	lui	ra,0x19d4e
    eed4:	404151b3          	sra	gp,sp,tp
    eed8:	b28321b7          	lui	gp,0xb2832
    eedc:	b5508193          	addi	gp,ra,-1195 # 0x19d4db55
    eee0:	7bc7a0b7          	lui	ra,0x7bc7a
    eee4:	00100133          	add	sp,zero,ra
    eee8:	00000117          	auipc	sp,0x0
    eeec:	c0c10267          	jalr	tp,-1012(sp) # 0xeaf4
    eef0:	25c75117          	auipc	sp,0x25c75
    eef4:	11518193          	addi	gp,gp,277 # 0xffffffffb2832115
    eef8:	5d34e1b7          	lui	gp,0x5d34e
    eefc:	a908c897          	auipc	a7,0xa908c
    ef00:	0410e513          	ori	a0,ra,65
    ef04:	caf3f313          	andi	t1,t2,-849
    ef08:	881ce197          	auipc	gp,0x881ce
    ef0c:	0032e0b3          	or	ra,t0,gp
    ef10:	3f83c297          	auipc	t0,0x3f83c
    ef14:	e2881217          	auipc	tp,0xe2881
    ef18:	a914c3b7          	lui	t2,0xa914c
    ef1c:	69a14193          	xori	gp,sp,1690
    ef20:	d40a1137          	lui	sp,0xd40a1
    ef24:	d7a14293          	xori	t0,sp,-646
    ef28:	645f0197          	auipc	gp,0x645f0
    ef2c:	00309b33          	sll	s6,ra,gp
    ef30:	9c2f41b7          	lui	gp,0x9c2f4
    ef34:	401083b3          	sub	t2,ra,ra
    ef38:	00202133          	sgtz	sp,sp
    ef3c:	0001a2b3          	sltz	t0,gp
    ef40:	0fc1c193          	xori	gp,gp,252
    ef44:	5cfb6197          	auipc	gp,0x5cfb6
    ef48:	e6c18113          	addi	sp,gp,-404 # 0x5cfc4db0
    ef4c:	d802b037          	lui	zero,0xd802b
    ef50:	004130b3          	sltu	ra,sp,tp
    ef54:	4038d133          	sra	sp,a7,gp
    ef58:	42d55137          	lui	sp,0x42d55
    ef5c:	9483f097          	auipc	ra,0x9483f
    ef60:	0891e593          	ori	a1,gp,137
    ef64:	9bb64817          	auipc	a6,0x9bb64
    ef68:	4c51f093          	andi	ra,gp,1221
    ef6c:	013310b3          	sll	ra,t1,s3
    ef70:	46118263          	beq	gp,ra,0xf3d4
    ef74:	4600026f          	jal	tp,0xf3d4
    ef78:	48c0c193          	xori	gp,ra,1164
    ef7c:	0022e0b3          	or	ra,t0,sp
    ef80:	40015133          	sra	sp,sp,zero
    ef84:	00419233          	sll	tp,gp,tp
    ef88:	b040c093          	xori	ra,ra,-1276
    ef8c:	93aa5037          	lui	zero,0x93aa5
    ef90:	1a9151b7          	lui	gp,0x1a915
    ef94:	0031a233          	slt	tp,gp,gp
    ef98:	006120b3          	slt	ra,sp,t1
    ef9c:	65e660b7          	lui	ra,0x65e66
    efa0:	b30991b7          	lui	gp,0xb3099
    efa4:	808f3137          	lui	sp,0x808f3
    efa8:	e63e25b7          	lui	a1,0xe63e2
    efac:	10c1c193          	xori	gp,gp,268
    efb0:	b21f9117          	auipc	sp,0xb21f9
    efb4:	e400e393          	ori	t2,ra,-448
    efb8:	22d1e113          	ori	sp,gp,557
    efbc:	ccac6797          	auipc	a5,0xccac6
    efc0:	11848193          	addi	gp,s1,280 # 0x19866118
    efc4:	406f8133          	sub	sp,t6,t1
    efc8:	0011a533          	slt	a0,gp,ra
    efcc:	f3f566b7          	lui	a3,0xf3f56
    efd0:	00d681b3          	add	gp,a3,a3
    efd4:	e5470337          	lui	t1,0xe5470
    efd8:	0010c333          	xor	t1,ra,ra
    efdc:	402087b3          	sub	a5,ra,sp
    efe0:	407250b3          	sra	ra,tp,t2
    efe4:	32f950b7          	lui	ra,0x32f95
    efe8:	00004133          	xor	sp,zero,zero
    efec:	0033a333          	slt	t1,t2,gp
    eff0:	e2626193          	ori	gp,tp,-474
    eff4:	00020293          	mv	t0,tp
    eff8:	2c428663          	beq	t0,tp,0xf2c4
    effc:	0027b1b3          	sltu	gp,a5,sp
    f000:	003132b3          	sltu	t0,sp,gp
    f004:	e3bb2217          	auipc	tp,0xe3bb2
    f008:	83b0f193          	andi	gp,ra,-1989
    f00c:	40408133          	sub	sp,ra,tp
    f010:	66b2d6b7          	lui	a3,0x66b2d
    f014:	00235233          	srl	tp,t1,sp
    f018:	4051d1b3          	sra	gp,gp,t0
    f01c:	43717313          	andi	t1,sp,1079
    f020:	3e90e193          	ori	gp,ra,1001
    f024:	411ef137          	lui	sp,0x411ef
    f028:	0011c2b3          	xor	t0,gp,ra
    f02c:	e1d3b4b7          	lui	s1,0xe1d3b
    f030:	d85b41b7          	lui	gp,0xd85b4
    f034:	0021d033          	srl	zero,gp,sp
    f038:	5cb2f117          	auipc	sp,0x5cb2f
    f03c:	c410a0b7          	lui	ra,0xc410a
    f040:	0020a133          	slt	sp,ra,sp
    f044:	0040e0b3          	or	ra,ra,tp
    f048:	34d61197          	auipc	gp,0x34d61
    f04c:	ca659197          	auipc	gp,0xca659
    f050:	4011d433          	sra	s0,gp,ra
    f054:	d2821097          	auipc	ra,0xd2821
    f058:	2ee1c093          	xori	ra,gp,750
    f05c:	74367097          	auipc	ra,0x74367
    f060:	40f103b3          	sub	t2,sp,a5
    f064:	002021b3          	sgtz	gp,sp
    f068:	003fc0b3          	xor	ra,t6,gp
    f06c:	001f2233          	slt	tp,t5,ra
    f070:	0032b533          	sltu	a0,t0,gp
    f074:	0030f0b3          	and	ra,ra,gp
    f078:	17f211b7          	lui	gp,0x17f21
    f07c:	001180b3          	add	ra,gp,ra
    f080:	9e2154e3          	bge	sp,sp,0xea68
    f084:	9e2142e3          	blt	sp,sp,0xea68
    f088:	92407197          	auipc	gp,0x92407
    f08c:	00215133          	srl	sp,sp,sp
    f090:	d36f9017          	auipc	zero,0xd36f9
    f094:	3f5cde37          	lui	t3,0x3f5cd
    f098:	1a21c093          	xori	ra,gp,418
    f09c:	b4644197          	auipc	gp,0xb4644
    f0a0:	fc30f093          	andi	ra,ra,-61
    f0a4:	299421b7          	lui	gp,0x29942
    f0a8:	5830c093          	xori	ra,ra,1411
    f0ac:	00103133          	snez	sp,ra
    f0b0:	8ae18113          	addi	sp,gp,-1874 # 0x299418ae
    f0b4:	b1f10193          	addi	gp,sp,-1249 # 0x5cb3db57
    f0b8:	0020b133          	sltu	sp,ra,sp
    f0bc:	5cc950b7          	lui	ra,0x5cc95
    f0c0:	c7d270b7          	lui	ra,0xc7d27
    f0c4:	f0387117          	auipc	sp,0xf0387
    f0c8:	0090b5b3          	sltu	a1,ra,s1
    f0cc:	3415e117          	auipc	sp,0x3415e
    f0d0:	f662c113          	xori	sp,t0,-154
    f0d4:	f6d08093          	addi	ra,ra,-147 # 0xffffffffc7d26f6d
    f0d8:	001260b3          	or	ra,tp,ra
    f0dc:	0030a1b3          	slt	gp,ra,gp
    f0e0:	0012c0b3          	xor	ra,t0,ra
    f0e4:	40128133          	sub	sp,t0,ra
    f0e8:	002515b3          	sll	a1,a0,sp
    f0ec:	007211b3          	sll	gp,tp,t2
    f0f0:	4fef0097          	auipc	ra,0x4fef0
    f0f4:	8554c097          	auipc	ra,0x8554c
    f0f8:	0010f6b3          	and	a3,ra,ra
    f0fc:	40228233          	sub	tp,t0,sp
    f100:	00000097          	auipc	ra,0x0
    f104:	25008167          	jalr	sp,592(ra) # 0xf350
    f108:	0020c0b3          	xor	ra,ra,sp
    f10c:	e7c78017          	auipc	zero,0xe7c78
    f110:	b9826237          	lui	tp,0xb9826
    f114:	0011d1b3          	srl	gp,gp,ra
    f118:	61989397          	auipc	t2,0x61989
    f11c:	26406293          	ori	t0,zero,612
    f120:	08430093          	addi	ra,t1,132 # 0xffffffffe5470084
    f124:	22cfc1b7          	lui	gp,0x22cfc
    f128:	e2a640b7          	lui	ra,0xe2a64
    f12c:	003370b3          	and	ra,t1,gp
    f130:	dffc4117          	auipc	sp,0xdffc4
    f134:	185ec517          	auipc	a0,0x185ec
    f138:	d5905137          	lui	sp,0xd5905
    f13c:	0021d0b3          	srl	ra,gp,sp
    f140:	d6d81197          	auipc	gp,0xd6d81
    f144:	42ed1317          	auipc	t1,0x42ed1
    f148:	f5e94193          	xori	gp,s2,-162
    f14c:	d4322037          	lui	zero,0xd4322
    f150:	0010a133          	slt	sp,ra,ra
    f154:	4633a0b7          	lui	ra,0x4633a
    f158:	0000e3b3          	or	t2,ra,zero
    f15c:	005170b3          	and	ra,sp,t0
    f160:	ab3042b7          	lui	t0,0xab304
    f164:	98a93137          	lui	sp,0x98a93
    f168:	4a92c113          	xori	sp,t0,1193
    f16c:	002110b3          	sll	ra,sp,sp
    f170:	20344097          	auipc	ra,0x20344
    f174:	2a2da037          	lui	zero,0x2a2da
    f178:	41858133          	sub	sp,a1,s8
    f17c:	e6228093          	addi	ra,t0,-414 # 0xffffffffab303e62
    f180:	0023b0b3          	sltu	ra,t2,sp
    f184:	4070d1b3          	sra	gp,ra,t2
    f188:	f9feb0b7          	lui	ra,0xf9feb
    f18c:	097c0193          	addi	gp,s8,151 # 0xffffffffd7533e13
    f190:	60803097          	auipc	ra,0x60803
    f194:	00104133          	xor	sp,zero,ra
    f198:	40215133          	sra	sp,sp,sp
    f19c:	0021d1b3          	srl	gp,gp,sp
    f1a0:	00018113          	mv	sp,gp
    f1a4:	823108e3          	beq	sp,gp,0xe9d4
    f1a8:	40358133          	sub	sp,a1,gp
    f1ac:	407101b3          	sub	gp,sp,t2
    f1b0:	1b36f093          	andi	ra,a3,435
    f1b4:	00213333          	sltu	t1,sp,sp
    f1b8:	2570c097          	auipc	ra,0x2570c
    f1bc:	ea708193          	addi	gp,ra,-345 # 0x2571b05f
    f1c0:	0011e2b3          	or	t0,gp,ra
    f1c4:	377580b7          	lui	ra,0x37758
    f1c8:	7039a0b7          	lui	ra,0x7039a
    f1cc:	0032c1b3          	xor	gp,t0,gp
    f1d0:	401180b3          	sub	ra,gp,ra
    f1d4:	005100b3          	add	ra,sp,t0
    f1d8:	9254f317          	auipc	t1,0x9254f
    f1dc:	00317333          	and	t1,sp,gp
    f1e0:	0011e1b3          	or	gp,gp,ra
    f1e4:	9f6c61b7          	lui	gp,0x9f6c6
    f1e8:	79414093          	xori	ra,sp,1940
    f1ec:	3bd0c113          	xori	sp,ra,957
    f1f0:	9b606117          	auipc	sp,0x9b606
    f1f4:	00b27133          	and	sp,tp,a1
    f1f8:	099190b7          	lui	ra,0x9919
    f1fc:	c2c26137          	lui	sp,0xc2c26
    f200:	83155097          	auipc	ra,0x83155
    f204:	12a43097          	auipc	ra,0x12a43
    f208:	e68e30b7          	lui	ra,0xe68e3
    f20c:	d40161b7          	lui	gp,0xd4016
    f210:	0031c0b3          	xor	ra,gp,gp
    f214:	a5c14193          	xori	gp,sp,-1444
    f218:	5ed681b7          	lui	gp,0x5ed68
    f21c:	5e908b93          	addi	s7,ra,1513 # 0xffffffffe68e35e9
    f220:	0020f133          	and	sp,ra,sp
    f224:	9045db17          	auipc	s6,0x9045d
    f228:	402151b3          	sra	gp,sp,sp
    f22c:	f9016313          	ori	t1,sp,-112
    f230:	d42384e3          	beq	t2,sp,0xef78
    f234:	d45ff1ef          	jal	gp,0xef78
    f238:	e5e140b7          	lui	ra,0xe5e14
    f23c:	82b1c113          	xori	sp,gp,-2005
    f240:	0051b1b3          	sltu	gp,gp,t0
    f244:	21660217          	auipc	tp,0x21660
    f248:	9f610093          	addi	ra,sp,-1546 # 0xffffffffc2c259f6
    f24c:	bb1b7097          	auipc	ra,0xbb1b7
    f250:	0032e033          	or	zero,t0,gp
    f254:	00e0e133          	or	sp,ra,a4
    f258:	0040a033          	slt	zero,ra,tp
    f25c:	2ff0c193          	xori	gp,ra,767
    f260:	e54f51b7          	lui	gp,0xe54f5
    f264:	ab19c0b7          	lui	ra,0xab19c
    f268:	8c0250b7          	lui	ra,0x8c025
    f26c:	0033c333          	xor	t1,t2,gp
    f270:	cac08093          	addi	ra,ra,-852 # 0xffffffff8c024cac
    f274:	0013b3b3          	sltu	t2,t2,ra
    f278:	8fc1e393          	ori	t2,gp,-1796
    f27c:	403180b3          	sub	ra,gp,gp
    f280:	4796d3b7          	lui	t2,0x4796d
    f284:	00105333          	srl	t1,zero,ra
    f288:	108040b7          	lui	ra,0x10804
    f28c:	910550b7          	lui	ra,0x91055
    f290:	00211033          	sll	zero,sp,sp
    f294:	55d16093          	ori	ra,sp,1373
    f298:	fc336113          	ori	sp,t1,-61
    f29c:	40208333          	sub	t1,ra,sp
    f2a0:	007b5133          	srl	sp,s6,t2
    f2a4:	1c469217          	auipc	tp,0x1c469
    f2a8:	1c41f593          	andi	a1,gp,452
    f2ac:	40200333          	neg	t1,sp
    f2b0:	4070d7b3          	sra	a5,ra,t2
    f2b4:	85409017          	auipc	zero,0x85409
    f2b8:	0040f033          	and	zero,ra,tp
    f2bc:	00018313          	mv	t1,gp
    f2c0:	dc3304e3          	beq	t1,gp,0xf088
    f2c4:	003101b3          	add	gp,sp,gp
    f2c8:	a96ce113          	ori	sp,s9,-1386
    f2cc:	000242b3          	xor	t0,tp,zero
    f2d0:	5941f093          	andi	ra,gp,1428
    f2d4:	18c28393          	addi	t2,t0,396
    f2d8:	0021b133          	sltu	sp,gp,sp
    f2dc:	0030eeb3          	or	t4,ra,gp
    f2e0:	000222b3          	sltz	t0,tp
    f2e4:	09d8c197          	auipc	gp,0x9d8c
    f2e8:	00021133          	sll	sp,tp,zero
    f2ec:	0011d1b3          	srl	gp,gp,ra
    f2f0:	01c101b3          	add	gp,sp,t3
    f2f4:	003160b3          	or	ra,sp,gp
    f2f8:	0030e0b3          	or	ra,ra,gp
    f2fc:	002131b3          	sltu	gp,sp,sp
    f300:	f29e66b7          	lui	a3,0xf29e6
    f304:	412200b3          	sub	ra,tp,s2
    f308:	ab71c793          	xori	a5,gp,-1353
    f30c:	c7ec4137          	lui	sp,0xc7ec4
    f310:	79d2b137          	lui	sp,0x79d2b
    f314:	b6e08113          	addi	sp,ra,-1170 # 0xffffffff91054b6e
    f318:	6a241197          	auipc	gp,0x6a241
    f31c:	40208133          	sub	sp,ra,sp
    f320:	5afe4137          	lui	sp,0x5afe4
    f324:	d7252197          	auipc	gp,0xd7252
    f328:	e7a1c393          	xori	t2,gp,-390
    f32c:	112d3117          	auipc	sp,0x112d3
    f330:	00113133          	sltu	sp,sp,ra
    f334:	003d71b3          	and	gp,s10,gp
    f338:	0020a033          	slt	zero,ra,sp
    f33c:	1eacca37          	lui	s4,0x1eacc
    f340:	282b1197          	auipc	gp,0x282b1
    f344:	7fe0e093          	ori	ra,ra,2046
    f348:	8c410ee3          	beq	sp,tp,0xec24
    f34c:	8d9ff1ef          	jal	gp,0xec24
    f350:	40218133          	sub	sp,gp,sp
    f354:	002191b3          	sll	gp,gp,sp
    f358:	2c9da337          	lui	t1,0x2c9da
    f35c:	0801f197          	auipc	gp,0x801f
    f360:	7d65e793          	ori	a5,a1,2006
    f364:	b36bd197          	auipc	gp,0xb36bd
    f368:	342331b7          	lui	gp,0x34233
    f36c:	c873c0b7          	lui	ra,0xc873c
    f370:	0061b8b3          	sltu	a7,gp,t1
    f374:	3bd10013          	addi	zero,sp,957 # 0x112e26e9
    f378:	cd54d097          	auipc	ra,0xcd54d
    f37c:	83e1a097          	auipc	ra,0x83e1a
    f380:	005113b3          	sll	t2,sp,t0
    f384:	8651e113          	ori	sp,gp,-1947
    f388:	4021d0b3          	sra	ra,gp,sp
    f38c:	c7df2317          	auipc	t1,0xc7df2
    f390:	40010033          	sub	zero,sp,zero
    f394:	001f4133          	xor	sp,t5,ra
    f398:	ad425197          	auipc	gp,0xad425
    f39c:	04f16193          	ori	gp,sp,79
    f3a0:	0021b0b3          	sltu	ra,gp,sp
    f3a4:	19096a37          	lui	s4,0x19096
    f3a8:	1b7cf137          	lui	sp,0x1b7cf
    f3ac:	2307b097          	auipc	ra,0x2307b
    f3b0:	a7f20113          	addi	sp,tp,-1409 # 0x1c477d23
    f3b4:	31118213          	addi	tp,gp,785 # 0xffffffffad4346a9
    f3b8:	4027d133          	sra	sp,a5,sp
    f3bc:	001210b3          	sll	ra,tp,ra
    f3c0:	f6df1a97          	auipc	s5,0xf6df1
    f3c4:	0013f0b3          	and	ra,t2,ra
    f3c8:	8a301037          	lui	zero,0x8a301
    f3cc:	00008113          	mv	sp,ra
    f3d0:	b21100e3          	beq	sp,ra,0xeef0
    f3d4:	29117093          	andi	ra,sp,657
    f3d8:	56b7f137          	lui	sp,0x56b7f
    f3dc:	007162b3          	or	t0,sp,t2
    f3e0:	81f6d197          	auipc	gp,0x81f6d
    f3e4:	5a40c093          	xori	ra,ra,1444
    f3e8:	0070b0b3          	sltu	ra,ra,t2
    f3ec:	00318133          	add	sp,gp,gp
    f3f0:	0010b133          	sltu	sp,ra,ra
    f3f4:	0032a0b3          	slt	ra,t0,gp
    f3f8:	1694d397          	auipc	t2,0x1694d
    f3fc:	701641b7          	lui	gp,0x70164
    f400:	401002b3          	neg	t0,ra
    f404:	0021e1b3          	or	gp,gp,sp
    f408:	87605117          	auipc	sp,0x87605
    f40c:	5f11e013          	ori	zero,gp,1521
    f410:	4010d233          	sra	tp,ra,ra
    f414:	95914093          	xori	ra,sp,-1703
    f418:	d912e0b7          	lui	ra,0xd912e
    f41c:	0000b1b3          	sltu	gp,ra,zero
    f420:	565920b7          	lui	ra,0x56592
    f424:	a590e093          	ori	ra,ra,-1447
    f428:	dac0f093          	andi	ra,ra,-596
    f42c:	4ba970b7          	lui	ra,0x4ba97
    f430:	00319133          	sll	sp,gp,gp
    f434:	a77ea037          	lui	zero,0xa77ea
    f438:	002170b3          	and	ra,sp,sp
    f43c:	003161b3          	or	gp,sp,gp
    f440:	001131b3          	sltu	gp,sp,ra
    f444:	00210133          	add	sp,sp,sp
    f448:	82b31117          	auipc	sp,0x82b31
    f44c:	738c1137          	lui	sp,0x738c1
    f450:	003191b3          	sll	gp,gp,gp
    f454:	0031c6b3          	xor	a3,gp,gp
    f458:	60f0e193          	ori	gp,ra,1551
    f45c:	48d11197          	auipc	gp,0x48d11
    f460:	aa8fc137          	lui	sp,0xaa8fc
    f464:	c18fe337          	lui	t1,0xc18fe
    f468:	00038113          	mv	sp,t2
    f46c:	b87108e3          	beq	sp,t2,0xeffc
    f470:	309f9037          	lui	zero,0x309f9
    f474:	623f07b7          	lui	a5,0x623f0
    f478:	0021c133          	xor	sp,gp,sp
    f47c:	c0d1f493          	andi	s1,gp,-1011
    f480:	0020d133          	srl	sp,ra,sp
    f484:	68a20113          	addi	sp,tp,1674 # 0x68a
    f488:	31883197          	auipc	gp,0x31883
    f48c:	395720b7          	lui	ra,0x39572
    f490:	001071b3          	and	gp,zero,ra
    f494:	5afb4097          	auipc	ra,0x5afb4
    f498:	001e30b3          	sltu	ra,t3,ra
    f49c:	01417033          	and	zero,sp,s4
    f4a0:	4da06213          	ori	tp,zero,1242
    f4a4:	002101b3          	add	gp,sp,sp
    f4a8:	529981b7          	lui	gp,0x52998
    f4ac:	530db097          	auipc	ra,0x530db
    f4b0:	0041f733          	and	a4,gp,tp
    f4b4:	401183b3          	sub	t2,gp,ra
    f4b8:	005161b3          	or	gp,sp,t0
    f4bc:	0071c1b3          	xor	gp,gp,t2
    f4c0:	c8268013          	addi	zero,a3,-894 # 0xfffffffff29e5c82
    f4c4:	7315d3b7          	lui	t2,0x7315d
    f4c8:	0001e133          	or	sp,gp,zero
    f4cc:	4010d1b3          	sra	gp,ra,ra
    f4d0:	40108033          	sub	zero,ra,ra
    f4d4:	0010c0b3          	xor	ra,ra,ra
    f4d8:	0033b133          	sltu	sp,t2,gp
    f4dc:	0020d133          	srl	sp,ra,sp
    f4e0:	09cea117          	auipc	sp,0x9cea
    f4e4:	08010193          	addi	gp,sp,128 # 0x9cf9560
    f4e8:	00018193          	mv	gp,gp
    f4ec:	d43186e3          	beq	gp,gp,0xf238
    f4f0:	003102b3          	add	t0,sp,gp
    f4f4:	24345097          	auipc	ra,0x24345
    f4f8:	6da82137          	lui	sp,0x6da82
    f4fc:	48d9d0b7          	lui	ra,0x48d9d
    f500:	7102e097          	auipc	ra,0x7102e
    f504:	4141d233          	sra	tp,gp,s4
    f508:	253cd197          	auipc	gp,0x253cd
    f50c:	0020d1b3          	srl	gp,ra,sp
    f510:	0f31f093          	andi	ra,gp,243
    f514:	002100b3          	add	ra,sp,sp
    f518:	00116133          	or	sp,sp,ra
    f51c:	59814593          	xori	a1,sp,1432
    f520:	8c0951b7          	lui	gp,0x8c095
    f524:	c361f317          	auipc	t1,0xc361f
    f528:	00123133          	sltu	sp,tp,ra
    f52c:	001351b3          	srl	gp,t1,ra
    f530:	600291b7          	lui	gp,0x60029
    f534:	207c4117          	auipc	sp,0x207c4
    f538:	49579097          	auipc	ra,0x49579
    f53c:	78d1e093          	ori	ra,gp,1933
    f540:	2bb10137          	lui	sp,0x2bb10
    f544:	aee24093          	xori	ra,tp,-1298
    f548:	4031d0b3          	sra	ra,gp,gp
    f54c:	001361b3          	or	gp,t1,ra
    f550:	feb6e113          	ori	sp,a3,-21
    f554:	a6925117          	auipc	sp,0xa6925
    f558:	74def0b7          	lui	ra,0x74def
    f55c:	cd7c0097          	auipc	ra,0xcd7c0
    f560:	50310093          	addi	ra,sp,1283 # 0xffffffffa6934a57
    f564:	75a1f093          	andi	ra,gp,1882
    f568:	8eb04097          	auipc	ra,0x8eb04
    f56c:	40110133          	sub	sp,sp,ra
    f570:	eb808093          	addi	ra,ra,-328 # 0xffffffff8eb13420
    f574:	8ce941b7          	lui	gp,0x8ce94
    f578:	de814393          	xori	t2,sp,-536
    f57c:	00d181b3          	add	gp,gp,a3
    f580:	08228a63          	beq	t0,sp,0xf614
    f584:	0900016f          	jal	sp,0xf614
    f588:	75b0f013          	andi	zero,ra,1883
    f58c:	001081b3          	add	gp,ra,ra
    f590:	d5a22197          	auipc	gp,0xd5a22
    f594:	058530b7          	lui	ra,0x5853
    f598:	0010f0b3          	and	ra,ra,ra
    f59c:	40210fb3          	sub	t6,sp,sp
    f5a0:	47b30113          	addi	sp,t1,1147 # 0xffffffffc362e99f
    f5a4:	e0f27293          	andi	t0,tp,-497
    f5a8:	0061a133          	slt	sp,gp,t1
    f5ac:	9d82a137          	lui	sp,0x9d82a
    f5b0:	99a00197          	auipc	gp,0x99a00
    f5b4:	58a2e313          	ori	t1,t0,1418
    f5b8:	0031f0b3          	and	ra,gp,gp
    f5bc:	00216233          	or	tp,sp,sp
    f5c0:	95670137          	lui	sp,0x95670
    f5c4:	91cf0197          	auipc	gp,0x91cf0
    f5c8:	318fe117          	auipc	sp,0x318fe
    f5cc:	60e2e193          	ori	gp,t0,1550
    f5d0:	4021d133          	sra	sp,gp,sp
    f5d4:	2da0b137          	lui	sp,0x2da0b
    f5d8:	f88930b7          	lui	ra,0xf8893
    f5dc:	0042b0b3          	sltu	ra,t0,tp
    f5e0:	7c810193          	addi	gp,sp,1992 # 0x2da0b7c8
    f5e4:	c4a04193          	xori	gp,zero,-950
    f5e8:	c850e193          	ori	gp,ra,-891
    f5ec:	14e16493          	ori	s1,sp,334
    f5f0:	c293e193          	ori	gp,t2,-983
    f5f4:	79d47697          	auipc	a3,0x79d47
    f5f8:	0020b0b3          	sltu	ra,ra,sp
    f5fc:	3c516113          	ori	sp,sp,965
    f600:	6050a197          	auipc	gp,0x6050a
    f604:	0021a1b3          	slt	gp,gp,sp
    f608:	003100b3          	add	ra,sp,gp
    f60c:	7c218663          	beq	gp,sp,0xfdd8
    f610:	7c8001ef          	jal	gp,0xfdd8
    f614:	58914193          	xori	gp,sp,1417
    f618:	003350b3          	srl	ra,t1,gp
    f61c:	0030d233          	srl	tp,ra,gp
    f620:	e9bc8193          	addi	gp,s9,-357 # 0x325ad137
    f624:	90d14197          	auipc	gp,0x90d14
    f628:	0024e137          	lui	sp,0x24e
    f62c:	5e31c093          	xori	ra,gp,1507
    f630:	63583097          	auipc	ra,0x63583
    f634:	01829233          	sll	tp,t0,s8
    f638:	47b4c197          	auipc	gp,0x47b4c
    f63c:	0021c033          	xor	zero,gp,sp
    f640:	8741c213          	xori	tp,gp,-1932
    f644:	4030d233          	sra	tp,ra,gp
    f648:	402100b3          	sub	ra,sp,sp
    f64c:	4df940b7          	lui	ra,0x4df94
    f650:	002101b3          	add	gp,sp,sp
    f654:	33f2a317          	auipc	t1,0x33f2a
    f658:	01718393          	addi	t2,gp,23 # 0x47b5b64f
    f65c:	b7e92197          	auipc	gp,0xb7e92
    f660:	3a020113          	addi	sp,tp,928 # 0x3a0
    f664:	dd6b2137          	lui	sp,0xdd6b2
    f668:	e4d0e117          	auipc	sp,0xe4d0e
    f66c:	211ec297          	auipc	t0,0x211ec
    f670:	5581e193          	ori	gp,gp,1368
    f674:	003be233          	or	tp,s7,gp
    f678:	f2e9d197          	auipc	gp,0xf2e9d
    f67c:	00211133          	sll	sp,sp,sp
    f680:	b730f093          	andi	ra,ra,-1165
    f684:	007192b3          	sll	t0,gp,t2
    f688:	33f8c017          	auipc	zero,0x33f8c
    f68c:	93f98117          	auipc	sp,0x93f98
    f690:	8e418193          	addi	gp,gp,-1820 # 0xfffffffff2eabf5c
    f694:	877fb0b7          	lui	ra,0x877fb
    f698:	00018113          	mv	sp,gp
    f69c:	60310a63          	beq	sp,gp,0xfcb0
    f6a0:	0011d133          	srl	sp,gp,ra
    f6a4:	32aee237          	lui	tp,0x32aee
    f6a8:	0021a133          	slt	sp,gp,sp
    f6ac:	0031e1b3          	or	gp,gp,gp
    f6b0:	0010d133          	srl	sp,ra,ra
    f6b4:	4e313137          	lui	sp,0x4e313
    f6b8:	0031d033          	srl	zero,gp,gp
    f6bc:	001120b3          	slt	ra,sp,ra
    f6c0:	ebb08013          	addi	zero,ra,-325 # 0xffffffff877faebb
    f6c4:	0030e7b3          	or	a5,ra,gp
    f6c8:	0010d133          	srl	sp,ra,ra
    f6cc:	3b117593          	andi	a1,sp,945
    f6d0:	003171b3          	and	gp,sp,gp
    f6d4:	aaa0e093          	ori	ra,ra,-1366
    f6d8:	0020e133          	or	sp,ra,sp
    f6dc:	0010b133          	sltu	sp,ra,ra
    f6e0:	360d5017          	auipc	zero,0x360d5
    f6e4:	1ba1c113          	xori	sp,gp,442
    f6e8:	405181b3          	sub	gp,gp,t0
    f6ec:	00305133          	srl	sp,zero,gp
    f6f0:	9f271197          	auipc	gp,0x9f271
    f6f4:	4011d133          	sra	sp,gp,ra
    f6f8:	0020b133          	sltu	sp,ra,sp
    f6fc:	4a7bf013          	andi	zero,s7,1191
    f700:	0023d133          	srl	sp,t2,sp
    f704:	a4ce5097          	auipc	ra,0xa4ce5
    f708:	d87b0337          	lui	t1,0xd87b0
    f70c:	00314a33          	xor	s4,sp,gp
    f710:	3ee34113          	xori	sp,t1,1006
    f714:	74118663          	beq	gp,ra,0xfe60
    f718:	748001ef          	jal	gp,0xfe60
    f71c:	24aa10b7          	lui	ra,0x24aa1
    f720:	27e9a9b7          	lui	s3,0x27e9a
    f724:	00315033          	srl	zero,sp,gp
    f728:	44406117          	auipc	sp,0x44406
    f72c:	d1916297          	auipc	t0,0xd1916
    f730:	4081d0b3          	sra	ra,gp,s0
    f734:	6ba10113          	addi	sp,sp,1722 # 0x44415de2
    f738:	717590b7          	lui	ra,0x71759
    f73c:	374de137          	lui	sp,0x374de
    f740:	1a1d1197          	auipc	gp,0x1a1d1
    f744:	7611e397          	auipc	t2,0x7611e
    f748:	8d684d97          	auipc	s11,0x8d684
    f74c:	4021d1b3          	sra	gp,gp,sp
    f750:	402051b3          	sra	gp,zero,sp
    f754:	001187b3          	add	a5,gp,ra
    f758:	4010d1b3          	sra	gp,ra,ra
    f75c:	69a0c093          	xori	ra,ra,1690
    f760:	9691e337          	lui	t1,0x9691e
    f764:	0ecbc237          	lui	tp,0xecbc
    f768:	830ea137          	lui	sp,0x830ea
    f76c:	0076f0b3          	and	ra,a3,t2
    f770:	00409233          	sll	tp,ra,tp
    f774:	4b216113          	ori	sp,sp,1202
    f778:	e62be137          	lui	sp,0xe62be
    f77c:	6ed10093          	addi	ra,sp,1773 # 0xffffffffe62be6ed
    f780:	b4887317          	auipc	t1,0xb4887
    f784:	00314133          	xor	sp,sp,gp
    f788:	b06f4317          	auipc	t1,0xb06f4
    f78c:	5f41c093          	xori	ra,gp,1524
    f790:	9fd8d0b7          	lui	ra,0x9fd8d
    f794:	4f89c197          	auipc	gp,0x4f89c
    f798:	95608113          	addi	sp,ra,-1706 # 0xffffffff9fd8c956
    f79c:	2c214193          	xori	gp,sp,706
    f7a0:	006255b3          	srl	a1,tp,t1
    f7a4:	40110333          	sub	t1,sp,ra
    f7a8:	e0ad40b7          	lui	ra,0xe0ad4
    f7ac:	00611133          	sll	sp,sp,t1
    f7b0:	00208233          	add	tp,ra,sp
    f7b4:	2a31fe63          	bgeu	gp,gp,0xfa70
    f7b8:	2a31ec63          	bltu	gp,gp,0xfa70
    f7bc:	a19f7317          	auipc	t1,0xa19f7
    f7c0:	8291f093          	andi	ra,gp,-2007
    f7c4:	0071d0b3          	srl	ra,gp,t2
    f7c8:	000150b3          	srl	ra,sp,zero
    f7cc:	003ba0b3          	slt	ra,s7,gp
    f7d0:	a9408093          	addi	ra,ra,-1388 # 0xffffffffe0ad3a94
    f7d4:	003362b3          	or	t0,t1,gp
    f7d8:	40315133          	sra	sp,sp,gp
    f7dc:	7ec1f0b7          	lui	ra,0x7ec1f
    f7e0:	1176c097          	auipc	ra,0x1176c
    f7e4:	40218333          	sub	t1,gp,sp
    f7e8:	22c88097          	auipc	ra,0x22c88
    f7ec:	0033b2b3          	sltu	t0,t2,gp
    f7f0:	4036d1b3          	sra	gp,a3,gp
    f7f4:	b8f3d237          	lui	tp,0xb8f3d
    f7f8:	0a1ea0b7          	lui	ra,0xa1ea
    f7fc:	32b27093          	andi	ra,tp,811
    f800:	0012c1b3          	xor	gp,t0,ra
    f804:	ae3880b7          	lui	ra,0xae388
    f808:	cc618cb7          	lui	s9,0xcc618
    f80c:	7f70a037          	lui	zero,0x7f70a
    f810:	3a827093          	andi	ra,tp,936
    f814:	40216093          	ori	ra,sp,1026
    f818:	01a291b3          	sll	gp,t0,s10
    f81c:	0011e2b3          	or	t0,gp,ra
    f820:	156c5117          	auipc	sp,0x156c5
    f824:	33636313          	ori	t1,t1,822
    f828:	00116133          	or	sp,sp,ra
    f82c:	e5502097          	auipc	ra,0xe5502
    f830:	2fc84197          	auipc	gp,0x2fc84
    f834:	e631d6e3          	bge	gp,gp,0xf6a0
    f838:	e631c4e3          	blt	gp,gp,0xf6a0
    f83c:	ec41c393          	xori	t2,gp,-316
    f840:	2898a1b7          	lui	gp,0x2898a
    f844:	9651f113          	andi	sp,gp,-1691
    f848:	002090b3          	sll	ra,ra,sp
    f84c:	0027e0b3          	or	ra,a5,sp
    f850:	c7464197          	auipc	gp,0xc7464
    f854:	0021a133          	slt	sp,gp,sp
    f858:	001253b3          	srl	t2,tp,ra
    f85c:	4cd07197          	auipc	gp,0x4cd07
    f860:	9b25c017          	auipc	zero,0x9b25c
    f864:	d5e49197          	auipc	gp,0xd5e49
    f868:	e6be81b7          	lui	gp,0xe6be8
    f86c:	d1b1f113          	andi	sp,gp,-741
    f870:	359e9197          	auipc	gp,0x359e9
    f874:	0030d133          	srl	sp,ra,gp
    f878:	afc07093          	andi	ra,zero,-1284
    f87c:	a6f9a017          	auipc	zero,0xa6f9a
    f880:	1a47e197          	auipc	gp,0x1a47e
    f884:	0030a4b3          	slt	s1,ra,gp
    f888:	acc9f0b7          	lui	ra,0xacc9f
    f88c:	1d831137          	lui	sp,0x1d831
    f890:	003020b3          	sgtz	ra,gp
    f894:	1cb26137          	lui	sp,0x1cb26
    f898:	06f10093          	addi	ra,sp,111 # 0x1cb2606f
    f89c:	af7a4137          	lui	sp,0xaf7a4
    f8a0:	db624fb7          	lui	t6,0xdb624
    f8a4:	004241b3          	xor	gp,tp,tp
    f8a8:	00127133          	and	sp,tp,ra
    f8ac:	0015b333          	sltu	t1,a1,ra
    f8b0:	8ef14413          	xori	s0,sp,-1809
    f8b4:	6fa461b7          	lui	gp,0x6fa46
    f8b8:	0011a0b3          	slt	ra,gp,ra
    f8bc:	6e64f1b7          	lui	gp,0x6e64f
    f8c0:	45d08f93          	addi	t6,ra,1117 # 0xffffffffacc9f45d
    f8c4:	00310133          	add	sp,sp,gp
    f8c8:	96a6d0b7          	lui	ra,0x96a6d
    f8cc:	00000117          	auipc	sp,0x0
    f8d0:	228101e7          	jalr	gp,552(sp) # 0xfaf4
    f8d4:	dc1511b7          	lui	gp,0xdc151
    f8d8:	a5485337          	lui	t1,0xa5485
    f8dc:	40330133          	sub	sp,t1,gp
    f8e0:	2034d197          	auipc	gp,0x2034d
    f8e4:	2c330117          	auipc	sp,0x2c330
    f8e8:	401780b3          	sub	ra,a5,ra
    f8ec:	28d1c193          	xori	gp,gp,653
    f8f0:	b4d8a017          	auipc	zero,0xb4d8a
    f8f4:	b864d197          	auipc	gp,0xb864d
    f8f8:	550f90b7          	lui	ra,0x550f9
    f8fc:	7561c393          	xori	t2,gp,1878
    f900:	95b9c097          	auipc	ra,0x95b9c
    f904:	6541a317          	auipc	t1,0x6541a
    f908:	401dd133          	sra	sp,s11,ra
    f90c:	0b6de197          	auipc	gp,0xb6de
    f910:	92a0e093          	ori	ra,ra,-1750
    f914:	b0c59117          	auipc	sp,0xb0c59
    f918:	a0116193          	ori	gp,sp,-1535
    f91c:	cbc372b7          	lui	t0,0xcbc37
    f920:	003131b3          	sltu	gp,sp,gp
    f924:	a8f09097          	auipc	ra,0xa8f09
    f928:	cdf8b017          	auipc	zero,0xcdf8b
    f92c:	ad91c093          	xori	ra,gp,-1319
    f930:	28817113          	andi	sp,sp,648
    f934:	e90491b7          	lui	gp,0xe9049
    f938:	5cb18113          	addi	sp,gp,1483 # 0xffffffffe90495cb
    f93c:	cc930113          	addi	sp,t1,-823 # 0x654295cd
    f940:	b4c54317          	auipc	t1,0xb4c54
    f944:	37f86297          	auipc	t0,0x37f86
    f948:	61ee2117          	auipc	sp,0x61ee2
    f94c:	002172b3          	and	t0,sp,sp
    f950:	013a5117          	auipc	sp,0x13a5
    f954:	00018113          	mv	sp,gp
    f958:	c23108e3          	beq	sp,gp,0xf588
    f95c:	003150b3          	srl	ra,sp,gp
    f960:	9eb794b7          	lui	s1,0x9eb79
    f964:	0861e393          	ori	t2,gp,134
    f968:	402104b3          	sub	s1,sp,sp
    f96c:	00578fb3          	add	t6,a5,t0
    f970:	32c20037          	lui	zero,0x32c20
    f974:	b2637113          	andi	sp,t1,-1242
    f978:	003d2133          	slt	sp,s10,gp
    f97c:	002082b3          	add	t0,ra,sp
    f980:	ef437097          	auipc	ra,0xef437
    f984:	0000f133          	and	sp,ra,zero
    f988:	0d4c90b7          	lui	ra,0xd4c9
    f98c:	0021f133          	and	sp,gp,sp
    f990:	b32d30b7          	lui	ra,0xb32d3
    f994:	4010d1b3          	sra	gp,ra,ra
    f998:	d8d16093          	ori	ra,sp,-627
    f99c:	8811c093          	xori	ra,gp,-1919
    f9a0:	003100b3          	add	ra,sp,gp
    f9a4:	c4a0d037          	lui	zero,0xc4a0d
    f9a8:	494380b7          	lui	ra,0x49438
    f9ac:	40015db3          	sra	s11,sp,zero
    f9b0:	6a506337          	lui	t1,0x6a506
    f9b4:	424eb0b7          	lui	ra,0x424eb
    f9b8:	002360b3          	or	ra,t1,sp
    f9bc:	38316137          	lui	sp,0x38316
    f9c0:	9f024313          	xori	t1,tp,-1552
    f9c4:	00203f33          	snez	t5,sp
    f9c8:	403181b3          	sub	gp,gp,gp
    f9cc:	0010b0b3          	sltu	ra,ra,ra
    f9d0:	d07880b7          	lui	ra,0xd0788
    f9d4:	0531c113          	xori	sp,gp,83
    f9d8:	41d63137          	lui	sp,0x41d63
    f9dc:	e65170e3          	bgeu	sp,t0,0xf83c
    f9e0:	e4516ee3          	bltu	sp,t0,0xf83c
    f9e4:	2e5de017          	auipc	zero,0x2e5de
    f9e8:	a0918293          	addi	t0,gp,-1527
    f9ec:	5d910093          	addi	ra,sp,1497 # 0x41d635d9
    f9f0:	001141b3          	xor	gp,sp,ra
    f9f4:	e0d07197          	auipc	gp,0xe0d07
    f9f8:	00119133          	sll	sp,gp,ra
    f9fc:	5100f293          	andi	t0,ra,1296
    fa00:	a2f53137          	lui	sp,0xa2f53
    fa04:	b9d62017          	auipc	zero,0xb9d62
    fa08:	c67120b7          	lui	ra,0xc6712
    fa0c:	550be0b7          	lui	ra,0x550be
    fa10:	1073e197          	auipc	gp,0x1073e
    fa14:	e3c34013          	xori	zero,t1,-452
    fa18:	0d34c117          	auipc	sp,0xd34c
    fa1c:	bfd27193          	andi	gp,tp,-1027
    fa20:	0021fd33          	and	s10,gp,sp
    fa24:	c985fc37          	lui	s8,0xc985f
    fa28:	0050b1b3          	sltu	gp,ra,t0
    fa2c:	f780c193          	xori	gp,ra,-136
    fa30:	0031d0b3          	srl	ra,gp,gp
    fa34:	e7bd5117          	auipc	sp,0xe7bd5
    fa38:	f4955097          	auipc	ra,0xf4955
    fa3c:	999b6317          	auipc	t1,0x999b6
    fa40:	0030e233          	or	tp,ra,gp
    fa44:	fdd440b7          	lui	ra,0xfdd44
    fa48:	0123a1b3          	slt	gp,t2,s2
    fa4c:	87e26297          	auipc	t0,0x87e26
    fa50:	5ce1e193          	ori	gp,gp,1486
    fa54:	c7c14093          	xori	ra,sp,-900
    fa58:	00159133          	sll	sp,a1,ra
    fa5c:	fbe1c093          	xori	ra,gp,-66
    fa60:	0010e233          	or	tp,ra,ra
    fa64:	86310113          	addi	sp,sp,-1949 # 0xffffffffe7be4297
    fa68:	00000193          	li	gp,0
    fa6c:	1a018863          	beqz	gp,0xfc1c
    fa70:	90f49137          	lui	sp,0x90f49
    fa74:	40125133          	sra	sp,tp,ra
    fa78:	eaf040b7          	lui	ra,0xeaf04
    fa7c:	40315133          	sra	sp,sp,gp
    fa80:	6cfa2717          	auipc	a4,0x6cfa2
    fa84:	018fc097          	auipc	ra,0x18fc
    fa88:	00f0c0b3          	xor	ra,ra,a5
    fa8c:	d06000b7          	lui	ra,0xd0600
    fa90:	9ab20193          	addi	gp,tp,-1621 # 0xffffffffb8f3c9ab
    fa94:	5a938113          	addi	sp,t2,1449 # 0x7612dced
    fa98:	1137dcb7          	lui	s9,0x1137d
    fa9c:	0033d0b3          	srl	ra,t2,gp
    faa0:	005341b3          	xor	gp,t1,t0
    faa4:	401082b3          	sub	t0,ra,ra
    faa8:	3010f0b7          	lui	ra,0x3010f
    faac:	ae87c2b7          	lui	t0,0xae87c
    fab0:	2ed2c113          	xori	sp,t0,749
    fab4:	2960e093          	ori	ra,ra,662
    fab8:	01a201b3          	add	gp,tp,s10
    fabc:	16317013          	andi	zero,sp,355
    fac0:	3af1f193          	andi	gp,gp,943
    fac4:	001192b3          	sll	t0,gp,ra
    fac8:	52241217          	auipc	tp,0x52241
    facc:	654041b7          	lui	gp,0x65404
    fad0:	81c5f137          	lui	sp,0x81c5f
    fad4:	2766f317          	auipc	t1,0x2766f
    fad8:	00000513          	li	a0,0
    fadc:	23300093          	li	ra,563
    fae0:	23333137          	lui	sp,0x23333
    fae4:	00113023          	sd	ra,0(sp) # 0x23333000
    fae8:	0005006b          	0x5006b
    faec:	00000093          	li	ra,0
    faf0:	0000006f          	j	0xfaf0
    faf4:	eea8e3b7          	lui	t2,0xeea8e
    faf8:	0031f1b3          	and	gp,gp,gp
    fafc:	40310033          	sub	zero,sp,gp
    fb00:	d9a0e113          	ori	sp,ra,-614
    fb04:	0010c133          	xor	sp,ra,ra
    fb08:	2f8b0237          	lui	tp,0x2f8b0
    fb0c:	40178833          	sub	a6,a5,ra
    fb10:	0011b0b3          	sltu	ra,gp,ra
    fb14:	001320b3          	slt	ra,t1,ra
    fb18:	84514313          	xori	t1,sp,-1979
    fb1c:	0011c4b3          	xor	s1,gp,ra
    fb20:	b7fa5217          	auipc	tp,0xb7fa5
    fb24:	a1120193          	addi	gp,tp,-1519 # 0xffffffffb7fb4531
    fb28:	0070c0b3          	xor	ra,ra,t2
    fb2c:	0035b2b3          	sltu	t0,a1,gp
    fb30:	00f1f233          	and	tp,gp,a5
    fb34:	0040a1b3          	slt	gp,ra,tp
    fb38:	eb2db117          	auipc	sp,0xeb2db
    fb3c:	7631c113          	xori	sp,gp,1891
    fb40:	fb009037          	lui	zero,0xfb009
    fb44:	947101b7          	lui	gp,0x94710
    fb48:	0020b3b3          	sltu	t2,ra,sp
    fb4c:	01b62137          	lui	sp,0x1b62
    fb50:	0031b133          	sltu	sp,gp,gp
    fb54:	001691b3          	sll	gp,a3,ra
    fb58:	c6a501b7          	lui	gp,0xc6a50
    fb5c:	baf17113          	andi	sp,sp,-1105
    fb60:	00318033          	add	zero,gp,gp
    fb64:	6a546117          	auipc	sp,0x6a546
    fb68:	002091b3          	sll	gp,ra,sp
    fb6c:	01612133          	slt	sp,sp,s6
    fb70:	017220b3          	slt	ra,tp,s7
    fb74:	00008393          	mv	t2,ra
    fb78:	d4138ee3          	beq	t2,ra,0xf8d4
    fb7c:	ec80c1b7          	lui	gp,0xec80c
    fb80:	0070e0b3          	or	ra,ra,t2
    fb84:	49a1e193          	ori	gp,gp,1178
    fb88:	f6c5c437          	lui	s0,0xf6c5c
    fb8c:	e6817113          	andi	sp,sp,-408
    fb90:	00611133          	sll	sp,sp,t1
    fb94:	7e934113          	xori	sp,t1,2025
    fb98:	4e2222b7          	lui	t0,0x4e222
    fb9c:	8e817193          	andi	gp,sp,-1816
    fba0:	ebd44337          	lui	t1,0xebd44
    fba4:	393fe137          	lui	sp,0x393fe
    fba8:	1bc36193          	ori	gp,t1,444
    fbac:	d94b4217          	auipc	tp,0xd94b4
    fbb0:	0010f0b3          	and	ra,ra,ra
    fbb4:	4ce04213          	xori	tp,zero,1230
    fbb8:	0051e1b3          	or	gp,gp,t0
    fbbc:	af814113          	xori	sp,sp,-1288
    fbc0:	500b5697          	auipc	a3,0x500b5
    fbc4:	60618193          	addi	gp,gp,1542 # 0xffffffffec80c606
    fbc8:	00311033          	sll	zero,sp,gp
    fbcc:	30b0c113          	xori	sp,ra,779
    fbd0:	0021d3b3          	srl	t2,gp,sp
    fbd4:	4c37e117          	auipc	sp,0x4c37e
    fbd8:	61e0f193          	andi	gp,ra,1566
    fbdc:	2518b0b7          	lui	ra,0x2518b
    fbe0:	6a33c193          	xori	gp,t2,1699
    fbe4:	6ff08093          	addi	ra,ra,1791 # 0x2518b6ff
    fbe8:	01507133          	and	sp,zero,s5
    fbec:	401302b3          	sub	t0,t1,ra
    fbf0:	7631a117          	auipc	sp,0x7631a
    fbf4:	0001e1b3          	or	gp,gp,zero
    fbf8:	f37ed1b7          	lui	gp,0xf37ed
    fbfc:	c890c137          	lui	sp,0xc890c
    fc00:	0010b0b3          	sltu	ra,ra,ra
    fc04:	33424113          	xori	sp,tp,820
    fc08:	f490c197          	auipc	gp,0xf490c
    fc0c:	00109033          	sll	zero,ra,ra
    fc10:	d0da6017          	auipc	zero,0xd0da6
    fc14:	8c269ee3          	bne	a3,sp,0xf4f0
    fc18:	8c268ce3          	beq	a3,sp,0xf4f0
    fc1c:	003201b3          	add	gp,tp,gp
    fc20:	0020a5b3          	slt	a1,ra,sp
    fc24:	e4b3e393          	ori	t2,t2,-437
    fc28:	0011c0b3          	xor	ra,gp,ra
    fc2c:	401101b3          	sub	gp,sp,ra
    fc30:	dc8dd0b7          	lui	ra,0xdc8dd
    fc34:	00b0c0b3          	xor	ra,ra,a1
    fc38:	0041f0b3          	and	ra,gp,tp
    fc3c:	9c4c71b7          	lui	gp,0x9c4c7
    fc40:	4060d233          	sra	tp,ra,t1
    fc44:	002380b3          	add	ra,t2,sp
    fc48:	702920b7          	lui	ra,0x70292
    fc4c:	e2160197          	auipc	gp,0xe2160
    fc50:	5d5500b7          	lui	ra,0x5d550
    fc54:	64817113          	andi	sp,sp,1608
    fc58:	511080b7          	lui	ra,0x51108
    fc5c:	07ca6137          	lui	sp,0x7ca6
    fc60:	00212233          	slt	tp,sp,sp
    fc64:	adc60137          	lui	sp,0xadc60
    fc68:	72c9d197          	auipc	gp,0x72c9d
    fc6c:	002200b3          	add	ra,tp,sp
    fc70:	40215133          	sra	sp,sp,sp
    fc74:	48bc6db7          	lui	s11,0x48bc6
    fc78:	0030c133          	xor	sp,ra,gp
    fc7c:	002053b3          	srl	t2,zero,sp
    fc80:	a95d3197          	auipc	gp,0xa95d3
    fc84:	403101b3          	sub	gp,sp,gp
    fc88:	002180b3          	add	ra,gp,sp
    fc8c:	9c669197          	auipc	gp,0x9c669
    fc90:	efb0f113          	andi	sp,ra,-261
    fc94:	0023afb3          	slt	t6,t2,sp
    fc98:	61bab097          	auipc	ra,0x61bab
    fc9c:	72f0f193          	andi	gp,ra,1839
    fca0:	00515333          	srl	t1,sp,t0
    fca4:	e0d030b7          	lui	ra,0xe0d03
    fca8:	00030293          	mv	t0,t1
    fcac:	ec6288e3          	beq	t0,t1,0xfb7c
    fcb0:	c60091b7          	lui	gp,0xc6009
    fcb4:	b5ce6097          	auipc	ra,0xb5ce6
    fcb8:	247e5397          	auipc	t2,0x247e5
    fcbc:	363d71b7          	lui	gp,0x363d7
    fcc0:	01116133          	or	sp,sp,a7
    fcc4:	002100b3          	add	ra,sp,sp
    fcc8:	00338133          	add	sp,t2,gp
    fccc:	fedcc0b7          	lui	ra,0xfedcc
    fcd0:	2929c0b7          	lui	ra,0x2929c
    fcd4:	001221b3          	slt	gp,tp,ra
    fcd8:	00110333          	add	t1,sp,ra
    fcdc:	401181b3          	sub	gp,gp,ra
    fce0:	00331133          	sll	sp,t1,gp
    fce4:	003220b3          	slt	ra,tp,gp
    fce8:	0073b0b3          	sltu	ra,t2,t2
    fcec:	1073b337          	lui	t1,0x1073b
    fcf0:	83e971b7          	lui	gp,0x83e97
    fcf4:	00168333          	add	t1,a3,ra
    fcf8:	00300133          	add	sp,zero,gp
    fcfc:	c1371137          	lui	sp,0xc1371
    fd00:	882f8197          	auipc	gp,0x882f8
    fd04:	9773eb93          	ori	s7,t2,-1673
    fd08:	01e331b3          	sltu	gp,t1,t5
    fd0c:	457df037          	lui	zero,0x457df
    fd10:	d0f58137          	lui	sp,0xd0f58
    fd14:	719a90b7          	lui	ra,0x719a9
    fd18:	afb37093          	andi	ra,t1,-1285
    fd1c:	0033b1b3          	sltu	gp,t2,gp
    fd20:	7a8bf097          	auipc	ra,0x7a8bf
    fd24:	0031c0b3          	xor	ra,gp,gp
    fd28:	0021f133          	and	sp,gp,sp
    fd2c:	002020b3          	sgtz	ra,sp
    fd30:	f81c8137          	lui	sp,0xf81c8
    fd34:	00315463          	bge	sp,gp,0xfd3c
    fd38:	00314263          	blt	sp,gp,0xfd3c
    fd3c:	0010b0b3          	sltu	ra,ra,ra
    fd40:	49208293          	addi	t0,ra,1170 # 0x7a8cf1b2
    fd44:	003373b3          	and	t2,t1,gp
    fd48:	0001e2b3          	or	t0,gp,zero
    fd4c:	dc718393          	addi	t2,gp,-569 # 0xffffffff88307ac7
    fd50:	003311b3          	sll	gp,t1,gp
    fd54:	c550e193          	ori	gp,ra,-939
    fd58:	b48e71b7          	lui	gp,0xb48e7
    fd5c:	df2b9117          	auipc	sp,0xdf2b9
    fd60:	70dda497          	auipc	s1,0x70dda
    fd64:	40138133          	sub	sp,t2,ra
    fd68:	5e9193b7          	lui	t2,0x5e919
    fd6c:	4cd730b7          	lui	ra,0x4cd73
    fd70:	0060c133          	xor	sp,ra,t1
    fd74:	6411e213          	ori	tp,gp,1601
    fd78:	0010b133          	sltu	sp,ra,ra
    fd7c:	10d08013          	addi	zero,ra,269 # 0x4cd7310d
    fd80:	12b38093          	addi	ra,t2,299 # 0x5e91912b
    fd84:	f8a04b17          	auipc	s6,0xf8a04
    fd88:	0031a2b3          	slt	t0,gp,gp
    fd8c:	0011e133          	or	sp,gp,ra
    fd90:	401101b3          	sub	gp,sp,ra
    fd94:	00129133          	sll	sp,t0,ra
    fd98:	fe50c193          	xori	gp,ra,-27
    fd9c:	0022e2b3          	or	t0,t0,sp
    fda0:	e845a1b7          	lui	gp,0xe845a
    fda4:	0011e1b3          	or	gp,gp,ra
    fda8:	d056d197          	auipc	gp,0xd056d
    fdac:	beb1c0b7          	lui	ra,0xbeb1c
    fdb0:	93b8c097          	auipc	ra,0x93b8c
    fdb4:	7e2711b7          	lui	gp,0x7e271
    fdb8:	003201b3          	add	gp,tp,gp
    fdbc:	3be0e113          	ori	sp,ra,958
    fdc0:	ad4627b7          	lui	a5,0xad462
    fdc4:	00313333          	sltu	t1,sp,gp
    fdc8:	312e6117          	auipc	sp,0x312e6
    fdcc:	0021b1b3          	sltu	gp,gp,sp
    fdd0:	9e1386e3          	beq	t2,ra,0xf7bc
    fdd4:	9e9ff1ef          	jal	gp,0xf7bc
    fdd8:	95e8c297          	auipc	t0,0x95e8c
    fddc:	929920b7          	lui	ra,0x92992
    fde0:	00227133          	and	sp,tp,sp
    fde4:	0031c0b3          	xor	ra,gp,gp
    fde8:	ae244397          	auipc	t2,0xae244
    fdec:	2f8f21b7          	lui	gp,0x2f8f2
    fdf0:	9a617093          	andi	ra,sp,-1626
    fdf4:	00412133          	slt	sp,sp,tp
    fdf8:	15d0e013          	ori	zero,ra,349
    fdfc:	fca3f1b7          	lui	gp,0xfca3f
    fe00:	0030b033          	sltu	zero,ra,gp
    fe04:	01c22117          	auipc	sp,0x1c22
    fe08:	007150b3          	srl	ra,sp,t2
    fe0c:	25017213          	andi	tp,sp,592
    fe10:	40b18333          	sub	t1,gp,a1
    fe14:	447811b7          	lui	gp,0x44781
    fe18:	40118233          	sub	tp,gp,ra
    fe1c:	d3c0a1b7          	lui	gp,0xd3c0a
    fe20:	d83d31b7          	lui	gp,0xd83d3
    fe24:	bfbe80b7          	lui	ra,0xbfbe8
    fe28:	0051e1b3          	or	gp,gp,t0
    fe2c:	3b473197          	auipc	gp,0x3b473
    fe30:	0021f0b3          	and	ra,gp,sp
    fe34:	00012133          	sltz	sp,sp
    fe38:	6ecf2137          	lui	sp,0x6ecf2
    fe3c:	afa16093          	ori	ra,sp,-1286
    fe40:	726f6217          	auipc	tp,0x726f6
    fe44:	60325137          	lui	sp,0x60325
    fe48:	72f0e113          	ori	sp,ra,1839
    fe4c:	00210133          	add	sp,sp,sp
    fe50:	6a71c593          	xori	a1,gp,1703
    fe54:	19310213          	addi	tp,sp,403 # 0x60325193
    fe58:	00048113          	mv	sp,s1
    fe5c:	8c9100e3          	beq	sp,s1,0xf71c
    fe60:	402181b3          	sub	gp,gp,sp
    fe64:	49434137          	lui	sp,0x49434
    fe68:	8391c093          	xori	ra,gp,-1991
    fe6c:	fa091097          	auipc	ra,0xfa091
    fe70:	76fc5117          	auipc	sp,0x76fc5
    fe74:	0010eab3          	or	s5,ra,ra
    fe78:	07f34193          	xori	gp,t1,127
    fe7c:	0001d0b3          	srl	ra,gp,zero
    fe80:	062a01b7          	lui	gp,0x62a0
    fe84:	b6665197          	auipc	gp,0xb6665
    fe88:	6918d117          	auipc	sp,0x6918d
    fe8c:	d89bb1b7          	lui	gp,0xd89bb
    fe90:	001172b3          	and	t0,sp,ra
    fe94:	aa438113          	addi	sp,t2,-1372 # 0xffffffffae25388c
    fe98:	595a7217          	auipc	tp,0x595a7
    fe9c:	00b27113          	andi	sp,tp,11
    fea0:	003190b3          	sll	ra,gp,gp
    fea4:	002060b3          	or	ra,zero,sp
    fea8:	a305c137          	lui	sp,0xa305c
    feac:	efb18193          	addi	gp,gp,-261 # 0xffffffffd89baefb
    feb0:	00201233          	sll	tp,zero,sp
    feb4:	f9016113          	ori	sp,sp,-112
    feb8:	1004d0b7          	lui	ra,0x1004d
    febc:	b1571017          	auipc	zero,0xb1571
    fec0:	003cf1b3          	and	gp,s9,gp
    fec4:	576aa197          	auipc	gp,0x576aa
    fec8:	28c16093          	ori	ra,sp,652
    fecc:	003171b3          	and	gp,sp,gp
    fed0:	00115233          	srl	tp,sp,ra
    fed4:	0001f1b3          	and	gp,gp,zero
    fed8:	0021e133          	or	sp,gp,sp
    fedc:	0030d033          	srl	zero,ra,gp
    fee0:	00239033          	sll	zero,t2,sp
    fee4:	0011b033          	sltu	zero,gp,ra
    fee8:	0010c3b3          	xor	t2,ra,ra
    feec:	4033d1b3          	sra	gp,t2,gp
    fef0:	11f39117          	auipc	sp,0x11f39
    fef4:	01908463          	beq	ra,s9,0xfefc
    fef8:	004000ef          	jal	ra,0xfefc
    fefc:	002ca0b3          	slt	ra,s9,sp
    ff00:	de5260b7          	lui	ra,0xde526
    ff04:	2696c097          	auipc	ra,0x2696c
    ff08:	003140b3          	xor	ra,sp,gp
    ff0c:	da21b317          	auipc	t1,0xda21b
    ff10:	5b010293          	addi	t0,sp,1456 # 0x11f494a0
    ff14:	c23e2e97          	auipc	t4,0xc23e2
    ff18:	7f751117          	auipc	sp,0x7f751
    ff1c:	0053f3b3          	and	t2,t2,t0
    ff20:	00110133          	add	sp,sp,ra
    ff24:	2a614013          	xori	zero,sp,678
    ff28:	005090b3          	sll	ra,ra,t0
    ff2c:	00416b33          	or	s6,sp,tp
    ff30:	0020f0b3          	and	ra,ra,sp
    ff34:	f84c9197          	auipc	gp,0xf84c9
    ff38:	d6d0f313          	andi	t1,ra,-659
    ff3c:	00f161b3          	or	gp,sp,a5
    ff40:	1d5ab097          	auipc	ra,0x1d5ab
    ff44:	f172b637          	lui	a2,0xf172b
    ff48:	a021dae3          	bge	gp,sp,0xf95c
    ff4c:	a021c8e3          	blt	gp,sp,0xf95c
    ff50:	deadbeef          	jal	t4,0xfffffffffffeb53a
    ff54:	deadbeef          	jal	t4,0xfffffffffffeb53e
    ff58:	deadbeef          	jal	t4,0xfffffffffffeb542
    ff5c:	deadbeef          	jal	t4,0xfffffffffffeb546
    ff60:	deadbeef          	jal	t4,0xfffffffffffeb54a
    ff64:	deadbeef          	jal	t4,0xfffffffffffeb54e
    ff68:	deadbeef          	jal	t4,0xfffffffffffeb552
    ff6c:	deadbeef          	jal	t4,0xfffffffffffeb556
    ff70:	deadbeef          	jal	t4,0xfffffffffffeb55a
    ff74:	deadbeef          	jal	t4,0xfffffffffffeb55e
    ff78:	deadbeef          	jal	t4,0xfffffffffffeb562
    ff7c:	deadbeef          	jal	t4,0xfffffffffffeb566
    ff80:	deadbeef          	jal	t4,0xfffffffffffeb56a
    ff84:	deadbeef          	jal	t4,0xfffffffffffeb56e
    ff88:	deadbeef          	jal	t4,0xfffffffffffeb572
    ff8c:	deadbeef          	jal	t4,0xfffffffffffeb576
    ff90:	deadbeef          	jal	t4,0xfffffffffffeb57a
    ff94:	deadbeef          	jal	t4,0xfffffffffffeb57e
    ff98:	deadbeef          	jal	t4,0xfffffffffffeb582
    ff9c:	deadbeef          	jal	t4,0xfffffffffffeb586
    ffa0:	deadbeef          	jal	t4,0xfffffffffffeb58a
    ffa4:	deadbeef          	jal	t4,0xfffffffffffeb58e
    ffa8:	deadbeef          	jal	t4,0xfffffffffffeb592
    ffac:	deadbeef          	jal	t4,0xfffffffffffeb596
    ffb0:	deadbeef          	jal	t4,0xfffffffffffeb59a
    ffb4:	deadbeef          	jal	t4,0xfffffffffffeb59e
    ffb8:	deadbeef          	jal	t4,0xfffffffffffeb5a2
    ffbc:	deadbeef          	jal	t4,0xfffffffffffeb5a6
    ffc0:	deadbeef          	jal	t4,0xfffffffffffeb5aa
    ffc4:	deadbeef          	jal	t4,0xfffffffffffeb5ae
    ffc8:	deadbeef          	jal	t4,0xfffffffffffeb5b2
    ffcc:	deadbeef          	jal	t4,0xfffffffffffeb5b6
