
test.bin:     file format binary


Disassembly of section .data:

0000000000000000 <.data>:
       0:	00000093          	li	ra,0
       4:	00000113          	li	sp,0
       8:	00000193          	li	gp,0
       c:	002164b3          	or	s1,sp,sp
      10:	002112b3          	sll	t0,sp,sp
      14:	00011193          	slli	gp,sp,0x0
      18:	00a15393          	srli	t2,sp,0xa
      1c:	f258e617          	auipc	a2,0xf258e
      20:	00f0c033          	xor	zero,ra,a5
      24:	8a2491b7          	lui	gp,0x8a249
      28:	34618393          	addi	t2,gp,838 # 0xffffffff8a249346
      2c:	00611033          	sll	zero,sp,t1
      30:	0030d1bb          	srlw	gp,ra,gp
      34:	bf00b093          	sltiu	ra,ra,-1040
      38:	003300b3          	add	ra,t1,gp
      3c:	9539a197          	auipc	gp,0x9539a
      40:	0031b1b3          	sltu	gp,gp,gp
      44:	afd43117          	auipc	sp,0xafd43
      48:	03d09113          	slli	sp,ra,0x3d
      4c:	f7a05117          	auipc	sp,0xf7a05
      50:	7d5aa197          	auipc	gp,0x7d5aa
      54:	935d4117          	auipc	sp,0x935d4
      58:	d4c0b213          	sltiu	tp,ra,-692
      5c:	4031d43b          	sraw	s0,gp,gp
      60:	6f437197          	auipc	gp,0x6f437
      64:	01e3101b          	slliw	zero,t1,0x1e
      68:	0060a133          	slt	sp,ra,t1
      6c:	7ae1b013          	sltiu	zero,gp,1966
      70:	0231c1b3          	div	gp,gp,gp
      74:	40e2d19b          	sraiw	gp,t0,0xe
      78:	c861819b          	addiw	gp,gp,-890
      7c:	c661b193          	sltiu	gp,gp,-922
      80:	4041d09b          	sraiw	ra,gp,0x4
      84:	c0714413          	xori	s0,sp,-1017
      88:	0241c1b3          	div	gp,gp,tp
      8c:	00198263          	beq	s3,ra,0x90
      90:	2bd000ef          	jal	ra,0xb4c
      94:	0210c0b3          	div	ra,ra,ra
      98:	fb70811b          	addiw	sp,ra,-73
      9c:	401080b3          	sub	ra,ra,ra
      a0:	0010f1b3          	and	gp,ra,ra
      a4:	006781bb          	addw	gp,a5,t1
      a8:	4041533b          	sraw	t1,sp,tp
      ac:	00d1d19b          	srliw	gp,gp,0xd
      b0:	0023b1b3          	sltu	gp,t2,sp
      b4:	a52d3197          	auipc	gp,0xa52d3
      b8:	ab918313          	addi	t1,gp,-1351 # 0xffffffffa52d2b6d
      bc:	0050d133          	srl	sp,ra,t0
      c0:	40215033          	sra	zero,sp,sp
      c4:	0051919b          	slliw	gp,gp,0x5
      c8:	01e81293          	slli	t0,a6,0x1e
      cc:	401101bb          	subw	gp,sp,ra
      d0:	0010a2b3          	slt	t0,ra,ra
      d4:	4031d11b          	sraiw	sp,gp,0x3
      d8:	01b1979b          	slliw	a5,gp,0x1b
      dc:	0241f1b3          	remu	gp,gp,tp
      e0:	003161b3          	or	gp,sp,gp
      e4:	4020d13b          	sraw	sp,ra,sp
      e8:	a1f78097          	auipc	ra,0xa1f78
      ec:	9a40b337          	lui	t1,0x9a40b
      f0:	0240e133          	rem	sp,ra,tp
      f4:	006181bb          	addw	gp,gp,t1
      f8:	40318133          	sub	sp,gp,gp
      fc:	001040b3          	xor	ra,zero,ra
     100:	5b70e1b7          	lui	gp,0x5b70e
     104:	402081b3          	sub	gp,ra,sp
     108:	0171119b          	slliw	gp,sp,0x17
     10c:	0010c0b3          	xor	ra,ra,ra
     110:	0020c1b3          	xor	gp,ra,sp
     114:	01119193          	slli	gp,gp,0x11
     118:	4020513b          	sraw	sp,zero,sp
     11c:	4071d3b3          	sra	t2,gp,t2
     120:	4ed14113          	xori	sp,sp,1261
     124:	0033f2b3          	and	t0,t2,gp
     128:	00018193          	mv	gp,gp
     12c:	08318e63          	beq	gp,gp,0x1c8
     130:	87a1a093          	slti	ra,gp,-1926
     134:	4cf99317          	auipc	t1,0x4cf99
     138:	0011a133          	slt	sp,gp,ra
     13c:	4bcb1297          	auipc	t0,0x4bcb1
     140:	33107093          	andi	ra,zero,817
     144:	98cc20b7          	lui	ra,0x98cc2
     148:	4013033b          	subw	t1,t1,ra
     14c:	023370b3          	remu	ra,t1,gp
     150:	0232e133          	rem	sp,t0,gp
     154:	e950b193          	sltiu	gp,ra,-363
     158:	0020f0b3          	and	ra,ra,sp
     15c:	0221c0b3          	div	ra,gp,sp
     160:	022b1193          	slli	gp,s6,0x22
     164:	0141509b          	srliw	ra,sp,0x14
     168:	5c60811b          	addiw	sp,ra,1478
     16c:	1ac5c797          	auipc	a5,0x1ac5c
     170:	e0a34493          	xori	s1,t1,-502
     174:	22c23097          	auipc	ra,0x22c23
     178:	0011a0b3          	slt	ra,gp,ra
     17c:	b17221b7          	lui	gp,0xb1722
     180:	002701bb          	addw	gp,a4,sp
     184:	007621b3          	slt	gp,a2,t2
     188:	a6b20393          	addi	t2,tp,-1429 # 0xfffffffffffffa6b
     18c:	db8693b7          	lui	t2,0xdb869
     190:	3ba23013          	sltiu	zero,tp,954
     194:	0031113b          	sllw	sp,sp,gp
     198:	89e10093          	addi	ra,sp,-1890 # 0xffffffff935d38f2
     19c:	0010833b          	addw	t1,ra,ra
     1a0:	003281b3          	add	gp,t0,gp
     1a4:	34d2e297          	auipc	t0,0x34d2e
     1a8:	e321f113          	andi	sp,gp,-462
     1ac:	01e4a033          	slt	zero,s1,t5
     1b0:	5ed100b7          	lui	ra,0x5ed10
     1b4:	0140d09b          	srliw	ra,ra,0x14
     1b8:	02218133          	mul	sp,gp,sp
     1bc:	0045023b          	addw	tp,a0,tp
     1c0:	36019263          	bnez	gp,0x524
     1c4:	36018063          	beqz	gp,0x524
     1c8:	32f0839b          	addiw	t2,ra,815
     1cc:	0171949b          	slliw	s1,gp,0x17
     1d0:	4410be17          	auipc	t3,0x4410b
     1d4:	0030513b          	srlw	sp,zero,gp
     1d8:	03609693          	slli	a3,ra,0x36
     1dc:	428312b7          	lui	t0,0x42831
     1e0:	402081bb          	subw	gp,ra,sp
     1e4:	0020a3b3          	slt	t2,ra,sp
     1e8:	40330333          	sub	t1,t1,gp
     1ec:	3ba24337          	lui	t1,0x3ba24
     1f0:	bf815037          	lui	zero,0xbf815
     1f4:	4181529b          	sraiw	t0,sp,0x18
     1f8:	401101bb          	subw	gp,sp,ra
     1fc:	e292b193          	sltiu	gp,t0,-471
     200:	001242b3          	xor	t0,tp,ra
     204:	0021a233          	slt	tp,gp,sp
     208:	c911b113          	sltiu	sp,gp,-879
     20c:	0031c233          	xor	tp,gp,gp
     210:	00a3911b          	slliw	sp,t2,0xa
     214:	ce3f3097          	auipc	ra,0xce3f3
     218:	40510133          	sub	sp,sp,t0
     21c:	e800a093          	slti	ra,ra,-384
     220:	4b21b193          	sltiu	gp,gp,1202
     224:	0091949b          	slliw	s1,gp,0x9
     228:	4a217093          	andi	ra,sp,1186
     22c:	025503b3          	mul	t2,a0,t0
     230:	004050b3          	srl	ra,zero,tp
     234:	51720113          	addi	sp,tp,1303 # 0x517
     238:	ec9c9097          	auipc	ra,0xec9c9
     23c:	0201cdb3          	div	s11,gp,zero
     240:	001161b3          	or	gp,sp,ra
     244:	0010a133          	slt	sp,ra,ra
     248:	f6c1019b          	addiw	gp,sp,-148
     24c:	00518263          	beq	gp,t0,0x250
     250:	199006ef          	jal	a3,0xbe8
     254:	402300b3          	sub	ra,t1,sp
     258:	5ee0b093          	sltiu	ra,ra,1518
     25c:	d3413093          	sltiu	ra,sp,-716
     260:	6baee6b7          	lui	a3,0x6baee
     264:	2d4d9097          	auipc	ra,0x2d4d9
     268:	c2f8c3b7          	lui	t2,0xc2f8c
     26c:	9e71a193          	slti	gp,gp,-1561
     270:	007100b3          	add	ra,sp,t2
     274:	aae1e0b7          	lui	ra,0xaae1e
     278:	40f15113          	srai	sp,sp,0xf
     27c:	31a1c093          	xori	ra,gp,794
     280:	0060833b          	addw	t1,ra,t1
     284:	402f01bb          	subw	gp,t5,sp
     288:	0075d0bb          	srlw	ra,a1,t2
     28c:	002950b7          	lui	ra,0x295
     290:	5c60c093          	xori	ra,ra,1478
     294:	40200bb3          	neg	s7,sp
     298:	7121801b          	addiw	zero,gp,1810
     29c:	00f1b6b3          	sltu	a3,gp,a5
     2a0:	1681f013          	andi	zero,gp,360
     2a4:	0d778117          	auipc	sp,0xd778
     2a8:	021153b3          	divu	t2,sp,ra
     2ac:	0053d99b          	srliw	s3,t2,0x5
     2b0:	0221ddb3          	divu	s11,gp,sp
     2b4:	0030d1b3          	srl	gp,ra,gp
     2b8:	001101bb          	addw	gp,sp,ra
     2bc:	d5f2b193          	sltiu	gp,t0,-673
     2c0:	02530133          	mul	sp,t1,t0
     2c4:	0031f3b3          	and	t2,gp,gp
     2c8:	5271811b          	addiw	sp,gp,1319
     2cc:	007e90bb          	sllw	ra,t4,t2
     2d0:	b201a213          	slti	tp,gp,-1248
     2d4:	f3a9e117          	auipc	sp,0xf3a9e
     2d8:	00c0559b          	srliw	a1,zero,0xc
     2dc:	006081b3          	add	gp,ra,t1
     2e0:	b4218113          	addi	sp,gp,-1214 # 0xffffffffb1721b42
     2e4:	58608e63          	beq	ra,t1,0x880
     2e8:	5980026f          	jal	tp,0x880
     2ec:	6a783097          	auipc	ra,0x6a783
     2f0:	01758037          	lui	zero,0x1758
     2f4:	019791b3          	sll	gp,a5,s9
     2f8:	401301b3          	sub	gp,t1,ra
     2fc:	0212e1b3          	rem	gp,t0,ra
     300:	34e1019b          	addiw	gp,sp,846
     304:	4031d23b          	sraw	tp,gp,gp
     308:	5c7c11b7          	lui	gp,0x5c7c1
     30c:	3cd100b7          	lui	ra,0x3cd10
     310:	1501c213          	xori	tp,gp,336
     314:	ac174337          	lui	t1,0xac174
     318:	1cdb51b7          	lui	gp,0x1cdb5
     31c:	0071d1bb          	srlw	gp,gp,t2
     320:	3c216093          	ori	ra,sp,962
     324:	40318233          	sub	tp,gp,gp
     328:	002110b3          	sll	ra,sp,sp
     32c:	9580e193          	ori	gp,ra,-1704
     330:	2d60a193          	slti	gp,ra,726
     334:	003210b3          	sll	ra,tp,gp
     338:	0f62b113          	sltiu	sp,t0,246
     33c:	c3362097          	auipc	ra,0xc3362
     340:	54e0c193          	xori	gp,ra,1358
     344:	0010a0b3          	slt	ra,ra,ra
     348:	00b19193          	slli	gp,gp,0xb
     34c:	ea175017          	auipc	zero,0xea175
     350:	04c8f197          	auipc	gp,0x4c8f
     354:	005231b3          	sltu	gp,tp,t0
     358:	b0ded137          	lui	sp,0xb0ded
     35c:	71f0a093          	slti	ra,ra,1823
     360:	7df2e013          	ori	zero,t0,2015
     364:	02117bb3          	remu	s7,sp,ra
     368:	39e4b193          	sltiu	gp,s1,926
     36c:	0054119b          	slliw	gp,s0,0x5
     370:	418520b7          	lui	ra,0x41852
     374:	003180bb          	addw	ra,gp,gp
     378:	01a31393          	slli	t2,t1,0x1a
     37c:	0220d0b3          	divu	ra,ra,sp
     380:	02218033          	mul	zero,gp,sp
     384:	74308863          	beq	ra,gp,0xad4
     388:	74c000ef          	jal	ra,0xad4
     38c:	00e19193          	slli	gp,gp,0xe
     390:	6f112137          	lui	sp,0x6f112
     394:	00314333          	xor	t1,sp,gp
     398:	0160d11b          	srliw	sp,ra,0x16
     39c:	df10b213          	sltiu	tp,ra,-527
     3a0:	002191bb          	sllw	gp,gp,sp
     3a4:	01f1939b          	slliw	t2,gp,0x1f
     3a8:	72808013          	addi	zero,ra,1832 # 0x41852728
     3ac:	01b101b3          	add	gp,sp,s11
     3b0:	001350bb          	srlw	ra,t1,ra
     3b4:	41715c93          	srai	s9,sp,0x17
     3b8:	03919213          	slli	tp,gp,0x39
     3bc:	01b1901b          	slliw	zero,gp,0x1b
     3c0:	0021a333          	slt	t1,gp,sp
     3c4:	6c3d8137          	lui	sp,0x6c3d8
     3c8:	02127133          	remu	sp,tp,ra
     3cc:	a2a0ab13          	slti	s6,ra,-1494
     3d0:	02218233          	mul	tp,gp,sp
     3d4:	4040d19b          	sraiw	gp,ra,0x4
     3d8:	1be58197          	auipc	gp,0x1be58
     3dc:	0223f0b3          	remu	ra,t2,sp
     3e0:	0231f1b3          	remu	gp,gp,gp
     3e4:	01f1911b          	slliw	sp,gp,0x1f
     3e8:	003056bb          	srlw	a3,zero,gp
     3ec:	023101b3          	mul	gp,sp,gp
     3f0:	074e81b7          	lui	gp,0x74e8
     3f4:	00226133          	or	sp,tp,sp
     3f8:	ae531097          	auipc	ra,0xae531
     3fc:	e0839337          	lui	t1,0xe0839
     400:	5540e193          	ori	gp,ra,1364
     404:	5a418463          	beq	gp,tp,0x9ac
     408:	5a40016f          	jal	sp,0x9ac
     40c:	0231f1b3          	remu	gp,gp,gp
     410:	9d818313          	addi	t1,gp,-1576 # 0x74e79d8
     414:	001301bb          	addw	gp,t1,ra
     418:	aa0b33b7          	lui	t2,0xaa0b3
     41c:	0ab56137          	lui	sp,0xab56
     420:	401251b3          	sra	gp,tp,ra
     424:	ef6d81b7          	lui	gp,0xef6d8
     428:	0191169b          	slliw	a3,sp,0x19
     42c:	0ac20197          	auipc	gp,0xac20
     430:	01c3d1b3          	srl	gp,t2,t3
     434:	01e2909b          	slliw	ra,t0,0x1e
     438:	4901a093          	slti	ra,gp,1168
     43c:	57de3393          	sltiu	t2,t3,1405
     440:	4020d33b          	sraw	t1,ra,sp
     444:	003081b3          	add	gp,ra,gp
     448:	0050913b          	sllw	sp,ra,t0
     44c:	4850e097          	auipc	ra,0x4850e
     450:	00c1b8b3          	sltu	a7,gp,a2
     454:	003131b3          	sltu	gp,sp,gp
     458:	0041b233          	sltu	tp,gp,tp
     45c:	02413313          	sltiu	t1,sp,36
     460:	e1681097          	auipc	ra,0xe1681
     464:	022180b3          	mul	ra,gp,sp
     468:	03711013          	slli	zero,sp,0x37
     46c:	0141111b          	slliw	sp,sp,0x14
     470:	0260e0b3          	rem	ra,ra,t1
     474:	0041013b          	addw	sp,sp,tp
     478:	0fc0a193          	slti	gp,ra,252
     47c:	0130901b          	slliw	zero,ra,0x13
     480:	00000097          	auipc	ra,0x0
     484:	1d4082e7          	jalr	t0,468(ra) # 0x654
     488:	02d15333          	divu	t1,sp,a3
     48c:	023261b3          	rem	gp,tp,gp
     490:	0010a0b3          	slt	ra,ra,ra
     494:	01a1909b          	slliw	ra,gp,0x1a
     498:	022171b3          	remu	gp,sp,sp
     49c:	0010e133          	or	sp,ra,ra
     4a0:	0010d1bb          	srlw	gp,ra,ra
     4a4:	0023d1b3          	srl	gp,t2,sp
     4a8:	d610e093          	ori	ra,ra,-671
     4ac:	02b1d0b3          	divu	ra,gp,a1
     4b0:	00336433          	or	s0,t1,gp
     4b4:	0230f133          	remu	sp,ra,gp
     4b8:	4001d133          	sra	sp,gp,zero
     4bc:	e9e6b137          	lui	sp,0xe9e6b
     4c0:	23feddb7          	lui	s11,0x23fed
     4c4:	f9e06193          	ori	gp,zero,-98
     4c8:	020103b3          	mul	t2,sp,zero
     4cc:	59d1b113          	sltiu	sp,gp,1437
     4d0:	4010d1b3          	sra	gp,ra,ra
     4d4:	5bd26337          	lui	t1,0x5bd26
     4d8:	021561b3          	rem	gp,a0,ra
     4dc:	0030d03b          	srlw	zero,ra,gp
     4e0:	d406d197          	auipc	gp,0xd406d
     4e4:	cc1f61b7          	lui	gp,0xcc1f6
     4e8:	c6f04093          	xori	ra,zero,-913
     4ec:	d91de2b7          	lui	t0,0xd91de
     4f0:	00e1111b          	slliw	sp,sp,0xe
     4f4:	4021013b          	subw	sp,sp,sp
     4f8:	00121093          	slli	ra,tp,0x1
     4fc:	4cb77117          	auipc	sp,0x4cb77
     500:	022201b3          	mul	gp,tp,sp
     504:	ba10a193          	slti	gp,ra,-1119
     508:	d97c20b7          	lui	ra,0xd97c2
     50c:	0211c333          	div	t1,gp,ra
     510:	022100b3          	mul	ra,sp,sp
     514:	0021e1b3          	or	gp,gp,sp
     518:	36f1c197          	auipc	gp,0x36f1c
     51c:	00000297          	auipc	t0,0x0
     520:	ef028167          	jalr	sp,-272(t0) # 0x40c
     524:	b4967c97          	auipc	s9,0xb4967
     528:	4a53e137          	lui	sp,0x4a53e
     52c:	00c3909b          	slliw	ra,t2,0xc
     530:	002200bb          	addw	ra,tp,sp
     534:	0030911b          	slliw	sp,ra,0x3
     538:	2cc21117          	auipc	sp,0x2cc21
     53c:	0220d0b3          	divu	ra,ra,sp
     540:	01c1919b          	slliw	gp,gp,0x1c
     544:	028171b3          	remu	gp,sp,s0
     548:	45cff097          	auipc	ra,0x45cff
     54c:	0b71b113          	sltiu	sp,gp,183
     550:	6033f193          	andi	gp,t2,1539
     554:	56a1d017          	auipc	zero,0x56a1d
     558:	81b3009b          	addiw	ra,t1,-2021
     55c:	03309093          	slli	ra,ra,0x33
     560:	001100b3          	add	ra,sp,ra
     564:	a8500117          	auipc	sp,0xa8500
     568:	14bbf117          	auipc	sp,0x14bbf
     56c:	70816337          	lui	t1,0x70816
     570:	71da7297          	auipc	t0,0x71da7
     574:	4020d13b          	sraw	sp,ra,sp
     578:	ed71e013          	ori	zero,gp,-297
     57c:	0002d19b          	srliw	gp,t0,0x0
     580:	0221e133          	rem	sp,gp,sp
     584:	40a1d2b3          	sra	t0,gp,a0
     588:	0003c1b3          	xor	gp,t2,zero
     58c:	0023f2b3          	and	t0,t2,sp
     590:	50bd6917          	auipc	s2,0x50bd6
     594:	ab014313          	xori	t1,sp,-1360
     598:	402101bb          	subw	gp,sp,sp
     59c:	0020e0b3          	or	ra,ra,sp
     5a0:	001170b3          	and	ra,sp,ra
     5a4:	003080bb          	addw	ra,ra,gp
     5a8:	d6e17093          	andi	ra,sp,-658
     5ac:	001220b3          	slt	ra,tp,ra
     5b0:	018260b3          	or	ra,tp,s8
     5b4:	d213dce3          	bge	t2,ra,0x2ec
     5b8:	d213cae3          	blt	t2,ra,0x2ec
     5bc:	0030d1bb          	srlw	gp,ra,gp
     5c0:	e8c413b7          	lui	t2,0xe8c41
     5c4:	a5072137          	lui	sp,0xa5072
     5c8:	0220c2b3          	div	t0,ra,sp
     5cc:	4021813b          	subw	sp,gp,sp
     5d0:	21539317          	auipc	t1,0x21539
     5d4:	4fc81037          	lui	zero,0x4fc81
     5d8:	d6d7a137          	lui	sp,0xd6d7a
     5dc:	22e31097          	auipc	ra,0x22e31
     5e0:	a372821b          	addiw	tp,t0,-1481
     5e4:	0020e1b3          	or	gp,ra,sp
     5e8:	003217bb          	sllw	a5,tp,gp
     5ec:	00d0919b          	slliw	gp,ra,0xd
     5f0:	01a3109b          	slliw	ra,t1,0x1a
     5f4:	964fe1b7          	lui	gp,0x964fe
     5f8:	55304193          	xori	gp,zero,1363
     5fc:	41d2d093          	srai	ra,t0,0x1d
     600:	021145b3          	div	a1,sp,ra
     604:	023000b3          	mul	ra,zero,gp
     608:	84387137          	lui	sp,0x84387
     60c:	2144d197          	auipc	gp,0x2144d
     610:	40b58d33          	sub	s10,a1,a1
     614:	402150b3          	sra	ra,sp,sp
     618:	112c0117          	auipc	sp,0x112c0
     61c:	58d88117          	auipc	sp,0x58d88
     620:	c151e093          	ori	ra,gp,-1003
     624:	021180b3          	mul	ra,gp,ra
     628:	d802e093          	ori	ra,t0,-640
     62c:	022281b3          	mul	gp,t0,sp
     630:	4031813b          	subw	sp,gp,gp
     634:	6413b117          	auipc	sp,0x6413b
     638:	6d82019b          	addiw	gp,tp,1752
     63c:	0231f0b3          	remu	ra,gp,gp
     640:	0021d0bb          	srlw	ra,gp,sp
     644:	001102b3          	add	t0,sp,ra
     648:	401080bb          	subw	ra,ra,ra
     64c:	00000297          	auipc	t0,0x0
     650:	09428167          	jalr	sp,148(t0) # 0x6e0
     654:	02114133          	div	sp,sp,ra
     658:	00317033          	and	zero,sp,gp
     65c:	8a8480b7          	lui	ra,0x8a848
     660:	3ba98117          	auipc	sp,0x3ba98
     664:	5c61031b          	addiw	t1,sp,1478
     668:	002692bb          	sllw	t0,a3,sp
     66c:	4013013b          	subw	sp,t1,ra
     670:	abb0831b          	addiw	t1,ra,-1349
     674:	1ef032b7          	lui	t0,0x1ef03
     678:	62e1b193          	sltiu	gp,gp,1582
     67c:	8121f093          	andi	ra,gp,-2030
     680:	1f6e20b7          	lui	ra,0x1f6e2
     684:	fdea30b7          	lui	ra,0xfdea3
     688:	01511213          	slli	tp,sp,0x15
     68c:	75ed0397          	auipc	t2,0x75ed0
     690:	5c62e193          	ori	gp,t0,1478
     694:	42ff4197          	auipc	gp,0x42ff4
     698:	096911b7          	lui	gp,0x9691
     69c:	002170b3          	and	ra,sp,sp
     6a0:	0061d0b3          	srl	ra,gp,t1
     6a4:	19817193          	andi	gp,sp,408
     6a8:	006180b3          	add	ra,gp,t1
     6ac:	00b090bb          	sllw	ra,ra,a1
     6b0:	02310133          	mul	sp,sp,gp
     6b4:	16e89317          	auipc	t1,0x16e89
     6b8:	00b99013          	slli	zero,s3,0xb
     6bc:	d9464297          	auipc	t0,0xd9464
     6c0:	41615093          	srai	ra,sp,0x16
     6c4:	ed30f193          	andi	gp,ra,-301
     6c8:	7c41c113          	xori	sp,gp,1988
     6cc:	7424d1b7          	lui	gp,0x7424d
     6d0:	f890eb13          	ori	s6,ra,-119
     6d4:	0071d11b          	srliw	sp,gp,0x7
     6d8:	9a11fee3          	bgeu	gp,ra,0x94
     6dc:	9a11ece3          	bltu	gp,ra,0x94
     6e0:	1a1e8037          	lui	zero,0x1a1e8
     6e4:	6247e217          	auipc	tp,0x6247e
     6e8:	402151bb          	sraw	gp,sp,sp
     6ec:	02726133          	rem	sp,tp,t2
     6f0:	0043013b          	addw	sp,t1,tp
     6f4:	03311113          	slli	sp,sp,0x33
     6f8:	e6f1a393          	slti	t2,gp,-401
     6fc:	ef906113          	ori	sp,zero,-263
     700:	4411e093          	ori	ra,gp,1089
     704:	98ae6337          	lui	t1,0x98ae6
     708:	01719113          	slli	sp,gp,0x17
     70c:	fc11d137          	lui	sp,0xfc11d
     710:	3cf23b17          	auipc	s6,0x3cf23
     714:	64edb137          	lui	sp,0x64edb
     718:	03409113          	slli	sp,ra,0x34
     71c:	01bdd093          	srli	ra,s11,0x1b
     720:	007300bb          	addw	ra,t1,t2
     724:	00033133          	sltu	sp,t1,zero
     728:	9ec3811b          	addiw	sp,t2,-1556
     72c:	0011e0b3          	or	ra,gp,ra
     730:	020181b3          	mul	gp,gp,zero
     734:	001130b3          	sltu	ra,sp,ra
     738:	01f12233          	slt	tp,sp,t6
     73c:	40f70117          	auipc	sp,0x40f70
     740:	df61a117          	auipc	sp,0xdf61a
     744:	9cc5a097          	auipc	ra,0x9cc5a
     748:	1590c113          	xori	sp,ra,345
     74c:	0030013b          	addw	sp,zero,gp
     750:	9471009b          	addiw	ra,sp,-1721
     754:	c164a1b7          	lui	gp,0xc164a
     758:	3c10a193          	slti	gp,ra,961
     75c:	1a310a63          	beq	sp,gp,0x910
     760:	1b00006f          	j	0x910
     764:	c53fb597          	auipc	a1,0xc53fb
     768:	448670b7          	lui	ra,0x44867
     76c:	40008033          	sub	zero,ra,zero
     770:	001263b3          	or	t2,tp,ra
     774:	a8e451b7          	lui	gp,0xa8e45
     778:	0020e033          	or	zero,ra,sp
     77c:	61d0e313          	ori	t1,ra,1565
     780:	402080b3          	sub	ra,ra,sp
     784:	00713133          	sltu	sp,sp,t2
     788:	021d8133          	mul	sp,s11,ra
     78c:	022e50b3          	divu	ra,t3,sp
     790:	0030d1bb          	srlw	gp,ra,gp
     794:	226080b7          	lui	ra,0x22608
     798:	e3cd04b7          	lui	s1,0xe3cd0
     79c:	0201f0b3          	remu	ra,gp,zero
     7a0:	32d1e193          	ori	gp,gp,813
     7a4:	001363b3          	or	t2,t1,ra
     7a8:	00318cbb          	addw	s9,gp,gp
     7ac:	00610433          	add	s0,sp,t1
     7b0:	42c15793          	srai	a5,sp,0x2c
     7b4:	401181bb          	subw	gp,gp,ra
     7b8:	3bb3a193          	slti	gp,t2,955
     7bc:	7d3ea2b7          	lui	t0,0x7d3ea
     7c0:	0223f0b3          	remu	ra,t2,sp
     7c4:	44f13093          	sltiu	ra,sp,1103
     7c8:	406951bb          	sraw	gp,s2,t1
     7cc:	0231e1b3          	rem	gp,gp,gp
     7d0:	013a6197          	auipc	gp,0x13a6
     7d4:	000862b3          	or	t0,a6,zero
     7d8:	f4b0e193          	ori	gp,ra,-181
     7dc:	41c1d313          	srai	t1,gp,0x1c
     7e0:	002180b3          	add	ra,gp,sp
     7e4:	001080bb          	addw	ra,ra,ra
     7e8:	021141b3          	div	gp,sp,ra
     7ec:	00000193          	li	gp,0
     7f0:	00018263          	beqz	gp,0x7f4
     7f4:	d98aa7b7          	lui	a5,0xd98aa
     7f8:	0041b333          	sltu	t1,gp,tp
     7fc:	0230f133          	remu	sp,ra,gp
     800:	003120b3          	slt	ra,sp,gp
     804:	4012013b          	subw	sp,tp,ra
     808:	0020f033          	and	zero,ra,sp
     80c:	02110033          	mul	zero,sp,ra
     810:	026104b3          	mul	s1,sp,t1
     814:	0001b133          	sltu	sp,gp,zero
     818:	40d101b3          	sub	gp,sp,a3
     81c:	0021113b          	sllw	sp,sp,sp
     820:	7570b113          	sltiu	sp,ra,1879
     824:	4362d117          	auipc	sp,0x4362d
     828:	0e0bd0b7          	lui	ra,0xe0bd
     82c:	b511f113          	andi	sp,gp,-1199
     830:	15627117          	auipc	sp,0x15627
     834:	40208833          	sub	a6,ra,sp
     838:	294841b7          	lui	gp,0x29484
     83c:	002151bb          	srlw	gp,sp,sp
     840:	4031523b          	sraw	tp,sp,gp
     844:	005393b3          	sll	t2,t2,t0
     848:	7bcc52b7          	lui	t0,0x7bcc5
     84c:	0021d1b3          	srl	gp,gp,sp
     850:	0011a133          	slt	sp,gp,ra
     854:	0031d233          	srl	tp,gp,gp
     858:	cbe18093          	addi	ra,gp,-834 # 0x29483cbe
     85c:	9c113093          	sltiu	ra,sp,-1599
     860:	c9287197          	auipc	gp,0xc9287
     864:	0231c133          	div	sp,gp,gp
     868:	40605193          	srai	gp,zero,0x6
     86c:	01329113          	slli	sp,t0,0x13
     870:	4041d31b          	sraiw	t1,gp,0x4
     874:	5cd12093          	slti	ra,sp,1485
     878:	8a111ce3          	bne	sp,ra,0x130
     87c:	8a110ae3          	beq	sp,ra,0x130
     880:	003111bb          	sllw	gp,sp,gp
     884:	dab811b7          	lui	gp,0xdab81
     888:	021633b7          	lui	t2,0x2163
     88c:	0011911b          	slliw	sp,gp,0x1
     890:	18d0c313          	xori	t1,ra,397
     894:	99512193          	slti	gp,sp,-1643
     898:	a791a093          	slti	ra,gp,-1415
     89c:	0250c133          	div	sp,ra,t0
     8a0:	3c9ca237          	lui	tp,0x3c9ca
     8a4:	0161909b          	slliw	ra,gp,0x16
     8a8:	402352b3          	sra	t0,t1,sp
     8ac:	01b0d313          	srli	t1,ra,0x1b
     8b0:	8d42e293          	ori	t0,t0,-1836
     8b4:	c601a113          	slti	sp,gp,-928
     8b8:	00616333          	or	t1,sp,t1
     8bc:	6b418113          	addi	sp,gp,1716 # 0xffffffffdab816b4
     8c0:	00a1111b          	slliw	sp,sp,0xa
     8c4:	0001d0b3          	srl	ra,gp,zero
     8c8:	00239133          	sll	sp,t2,sp
     8cc:	0030c033          	xor	zero,ra,gp
     8d0:	0012a133          	slt	sp,t0,ra
     8d4:	8050c193          	xori	gp,ra,-2043
     8d8:	9b510117          	auipc	sp,0x9b510
     8dc:	bdb78097          	auipc	ra,0xbdb78
     8e0:	02d1c0b3          	div	ra,gp,a3
     8e4:	8f4f81b7          	lui	gp,0x8f4f8
     8e8:	fe5253b7          	lui	t2,0xfe525
     8ec:	ba61e193          	ori	gp,gp,-1114
     8f0:	00ec921b          	slliw	tp,s9,0xe
     8f4:	a9aad037          	lui	zero,0xa9aad
     8f8:	0160919b          	slliw	gp,ra,0x16
     8fc:	003e80bb          	addw	ra,t4,gp
     900:	e949f1b7          	lui	gp,0xe949f
     904:	7ed58137          	lui	sp,0x7ed58
     908:	b82180e3          	beq	gp,sp,0x488
     90c:	b7dff1ef          	jal	gp,0x488
     910:	00110233          	add	tp,sp,ra
     914:	001220b3          	slt	ra,tp,ra
     918:	553f3097          	auipc	ra,0x553f3
     91c:	01259193          	slli	gp,a1,0x12
     920:	004191bb          	sllw	gp,gp,tp
     924:	9ef1a193          	slti	gp,gp,-1553
     928:	82310393          	addi	t2,sp,-2013 # 0x7ed57823
     92c:	fea30397          	auipc	t2,0xfea30
     930:	4031013b          	subw	sp,sp,gp
     934:	b891f193          	andi	gp,gp,-1143
     938:	8ac1e197          	auipc	gp,0x8ac1e
     93c:	403383bb          	subw	t2,t2,gp
     940:	4021d23b          	sraw	tp,gp,sp
     944:	027081b3          	mul	gp,ra,t2
     948:	eb51cd93          	xori	s11,gp,-331
     94c:	0070f1b3          	and	gp,ra,t2
     950:	72513313          	sltiu	t1,sp,1829
     954:	e86a1137          	lui	sp,0xe86a1
     958:	0326c1b7          	lui	gp,0x326c
     95c:	0243c7b3          	div	a5,t2,tp
     960:	a380f693          	andi	a3,ra,-1480
     964:	0020d1bb          	srlw	gp,ra,sp
     968:	ca418093          	addi	ra,gp,-860 # 0x326bca4
     96c:	0020c1b3          	xor	gp,ra,sp
     970:	012f81b7          	lui	gp,0x12f8
     974:	c32bb117          	auipc	sp,0xc32bb
     978:	53318493          	addi	s1,gp,1331 # 0x12f8533
     97c:	e536b117          	auipc	sp,0xe536b
     980:	01211033          	sll	zero,sp,s2
     984:	01f0d11b          	srliw	sp,ra,0x1f
     988:	03c11093          	slli	ra,sp,0x3c
     98c:	00b1919b          	slliw	gp,gp,0xb
     990:	01a0f133          	and	sp,ra,s10
     994:	42cab3b7          	lui	t2,0x42cab
     998:	0071513b          	srlw	sp,sp,t2
     99c:	406350bb          	sraw	ra,t1,t1
     9a0:	003171b3          	and	gp,sp,gp
     9a4:	dd8170e3          	bgeu	sp,s8,0x764
     9a8:	db816ee3          	bltu	sp,s8,0x764
     9ac:	add1809b          	addiw	ra,gp,-1315
     9b0:	43f89337          	lui	t1,0x43f89
     9b4:	01b1d11b          	srliw	sp,gp,0x1b
     9b8:	b2de6137          	lui	sp,0xb2de6
     9bc:	00315133          	srl	sp,sp,gp
     9c0:	000110bb          	sllw	ra,sp,zero
     9c4:	77039197          	auipc	gp,0x77039
     9c8:	520f5317          	auipc	t1,0x520f5
     9cc:	0b17c113          	xori	sp,a5,177
     9d0:	43b7ccb7          	lui	s9,0x43b7c
     9d4:	0203f133          	remu	sp,t2,zero
     9d8:	4010823b          	subw	tp,ra,ra
     9dc:	0011d333          	srl	t1,gp,ra
     9e0:	0221c133          	div	sp,gp,sp
     9e4:	e510f193          	andi	gp,ra,-431
     9e8:	0031823b          	addw	tp,gp,gp
     9ec:	d893c117          	auipc	sp,0xd893c
     9f0:	dc876037          	lui	zero,0xdc876
     9f4:	0031a133          	slt	sp,gp,gp
     9f8:	401ed13b          	sraw	sp,t4,ra
     9fc:	0510819b          	addiw	gp,ra,81
     a00:	0271c1b3          	div	gp,gp,t2
     a04:	9eacb0b7          	lui	ra,0x9eacb
     a08:	007c969b          	slliw	a3,s9,0x7
     a0c:	0221c0b3          	div	ra,gp,sp
     a10:	40e1d19b          	sraiw	gp,gp,0xe
     a14:	03115193          	srli	gp,sp,0x31
     a18:	a5c4e197          	auipc	gp,0xa5c4e
     a1c:	003091b3          	sll	gp,ra,gp
     a20:	402080b3          	sub	ra,ra,sp
     a24:	d130a093          	slti	ra,ra,-749
     a28:	026f41b3          	div	gp,t5,t1
     a2c:	132e54b7          	lui	s1,0x132e5
     a30:	ba724013          	xori	zero,tp,-1113
     a34:	390a4197          	auipc	gp,0x390a4
     a38:	4031503b          	sraw	zero,sp,gp
     a3c:	b87080e3          	beq	ra,t2,0x5bc
     a40:	b7dff16f          	jal	sp,0x5bc
     a44:	0121011b          	addiw	sp,sp,18
     a48:	4046d11b          	sraiw	sp,a3,0x4
     a4c:	002158b3          	srl	a7,sp,sp
     a50:	01d19093          	slli	ra,gp,0x1d
     a54:	401181bb          	subw	gp,gp,ra
     a58:	0231e0b3          	rem	ra,gp,gp
     a5c:	dc70b193          	sltiu	gp,ra,-569
     a60:	0210d0b3          	divu	ra,ra,ra
     a64:	d15103b7          	lui	t2,0xd1510
     a68:	ede08113          	addi	sp,ra,-290 # 0xffffffff9eacaede
     a6c:	0007b0b3          	sltu	ra,a5,zero
     a70:	0211d1b3          	divu	gp,gp,ra
     a74:	0223f0b3          	remu	ra,t2,sp
     a78:	005311b3          	sll	gp,t1,t0
     a7c:	0241fa33          	remu	s4,gp,tp
     a80:	0231e2b3          	rem	t0,gp,gp
     a84:	024e40b3          	div	ra,t3,tp
     a88:	401150b3          	sra	ra,sp,ra
     a8c:	3b696017          	auipc	zero,0x3b696
     a90:	40e1519b          	sraiw	gp,sp,0xe
     a94:	a2854317          	auipc	t1,0xa2854
     a98:	006041b3          	xor	gp,zero,t1
     a9c:	4030013b          	negw	sp,gp
     aa0:	4101013b          	subw	sp,sp,a6
     aa4:	01e1119b          	slliw	gp,sp,0x1e
     aa8:	e7fcc217          	auipc	tp,0xe7fcc
     aac:	e3908113          	addi	sp,ra,-455
     ab0:	4021d1bb          	sraw	gp,gp,sp
     ab4:	6cd2f113          	andi	sp,t0,1741
     ab8:	6a0911b7          	lui	gp,0x6a091
     abc:	4020d1bb          	sraw	gp,ra,sp
     ac0:	8e136613          	ori	a2,t1,-1823
     ac4:	22218093          	addi	ra,gp,546 # 0x6a091222
     ac8:	d0d3819b          	addiw	gp,t2,-755
     acc:	00308263          	beq	ra,gp,0xad0
     ad0:	f84ff0ef          	jal	ra,0x254
     ad4:	0360d1b3          	divu	gp,ra,s6
     ad8:	0015113b          	sllw	sp,a0,ra
     adc:	0172129b          	slliw	t0,tp,0x17
     ae0:	0230c4b3          	div	s1,ra,gp
     ae4:	0010d133          	srl	sp,ra,ra
     ae8:	0c5583b7          	lui	t2,0xc558
     aec:	0082911b          	slliw	sp,t0,0x8
     af0:	02516133          	rem	sp,sp,t0
     af4:	4391f113          	andi	sp,gp,1081
     af8:	00119133          	sll	sp,gp,ra
     afc:	0031b0b3          	sltu	ra,gp,gp
     b00:	d1208093          	addi	ra,ra,-750
     b04:	4010813b          	subw	sp,ra,ra
     b08:	0060d0bb          	srlw	ra,ra,t1
     b0c:	090ce217          	auipc	tp,0x90ce
     b10:	0fbcc1b7          	lui	gp,0xfbcc
     b14:	4041d033          	sra	zero,gp,tp
     b18:	96ca1037          	lui	zero,0x96ca1
     b1c:	02507133          	remu	sp,zero,t0
     b20:	0141511b          	srliw	sp,sp,0x14
     b24:	6100869b          	addiw	a3,ra,1552
     b28:	10bf7117          	auipc	sp,0x10bf7
     b2c:	84512793          	slti	a5,sp,-1979
     b30:	9075b0b7          	lui	ra,0x9075b
     b34:	0170d633          	srl	a2,ra,s7
     b38:	8f70f193          	andi	gp,ra,-1801
     b3c:	03319013          	slli	zero,gp,0x33
     b40:	aee5b237          	lui	tp,0xaee5b
     b44:	f03080e3          	beq	ra,gp,0xa44
     b48:	efdff7ef          	jal	a5,0xa44
     b4c:	4001513b          	sraw	sp,sp,zero
     b50:	01009533          	sll	a0,ra,a6
     b54:	79d20137          	lui	sp,0x79d20
     b58:	003191bb          	sllw	gp,gp,gp
     b5c:	d0aeb397          	auipc	t2,0xd0aeb
     b60:	71b10593          	addi	a1,sp,1819 # 0x79d2071b
     b64:	f201b137          	lui	sp,0xf201b
     b68:	0041101b          	slliw	zero,sp,0x4
     b6c:	4060d0b3          	sra	ra,ra,t1
     b70:	0021e133          	or	sp,gp,sp
     b74:	42407e37          	lui	t3,0x42407
     b78:	00f2919b          	slliw	gp,t0,0xf
     b7c:	d5b1809b          	addiw	ra,gp,-677
     b80:	4021d2b3          	sra	t0,gp,sp
     b84:	4ce6a313          	slti	t1,a3,1230
     b88:	4021803b          	subw	zero,gp,sp
     b8c:	8810c1b7          	lui	gp,0x8810c
     b90:	e93b40b7          	lui	ra,0xe93b4
     b94:	20f0f113          	andi	sp,ra,527
     b98:	d9a1e313          	ori	t1,gp,-614
     b9c:	35ab21b7          	lui	gp,0x35ab2
     ba0:	becc4093          	xori	ra,s8,-1044
     ba4:	4023d0bb          	sraw	ra,t2,sp
     ba8:	40d1549b          	sraiw	s1,sp,0xd
     bac:	2a83c117          	auipc	sp,0x2a83c
     bb0:	3fd1c613          	xori	a2,gp,1021
     bb4:	0032f1b3          	and	gp,t0,gp
     bb8:	47818893          	addi	a7,gp,1144 # 0x35ab2478
     bbc:	00209133          	sll	sp,ra,sp
     bc0:	ff832113          	slti	sp,t1,-8
     bc4:	003080b3          	add	ra,ra,gp
     bc8:	0030d83b          	srlw	a6,ra,gp
     bcc:	0002d13b          	srlw	sp,t0,zero
     bd0:	be254cb7          	lui	s9,0xbe254
     bd4:	78d41097          	auipc	ra,0x78d41
     bd8:	4dfc70b7          	lui	ra,0x4dfc7
     bdc:	4030d1bb          	sraw	gp,ra,gp
     be0:	00330263          	beq	t1,gp,0xbe4
     be4:	fa8ff1ef          	jal	gp,0x38c
     be8:	0007c133          	xor	sp,a5,zero
     bec:	46ee63b7          	lui	t2,0x46ee6
     bf0:	0231c233          	div	tp,gp,gp
     bf4:	00c0959b          	slliw	a1,ra,0xc
     bf8:	5741021b          	addiw	tp,sp,1396
     bfc:	0031a233          	slt	tp,gp,gp
     c00:	00521f93          	slli	t6,tp,0x5
     c04:	01c1d59b          	srliw	a1,gp,0x1c
     c08:	0010a6b3          	slt	a3,ra,ra
     c0c:	0011dc3b          	srlw	s8,gp,ra
     c10:	4012823b          	subw	tp,t0,ra
     c14:	5b30c493          	xori	s1,ra,1459
     c18:	c6c0831b          	addiw	t1,ra,-916
     c1c:	4dc56117          	auipc	sp,0x4dc56
     c20:	002080bb          	addw	ra,ra,sp
     c24:	8850b193          	sltiu	gp,ra,-1915
     c28:	001171b3          	and	gp,sp,ra
     c2c:	38e16093          	ori	ra,sp,910
     c30:	01c1d89b          	srliw	a7,gp,0x1c
     c34:	8ab08113          	addi	sp,ra,-1877 # 0x4dfc68ab
     c38:	b921019b          	addiw	gp,sp,-1134
     c3c:	02211013          	slli	zero,sp,0x22
     c40:	424cf3b7          	lui	t2,0x424cf
     c44:	0021a3b3          	slt	t2,gp,sp
     c48:	0064d0b3          	srl	ra,s1,t1
     c4c:	0d697397          	auipc	t2,0xd697
     c50:	3458f137          	lui	sp,0x3458f
     c54:	5ad0e113          	ori	sp,ra,1453
     c58:	022161b3          	rem	gp,sp,sp
     c5c:	fe9714b7          	lui	s1,0xfe971
     c60:	00910263          	beq	sp,s1,0xc64
     c64:	0d5000ef          	jal	ra,0x1538
     c68:	fa418213          	addi	tp,gp,-92
     c6c:	e1475117          	auipc	sp,0xe1475
     c70:	0681039b          	addiw	t2,sp,104
     c74:	86908113          	addi	sp,ra,-1943
     c78:	41635093          	srai	ra,t1,0x16
     c7c:	01f0909b          	slliw	ra,ra,0x1f
     c80:	3d90809b          	addiw	ra,ra,985
     c84:	00214133          	xor	sp,sp,sp
     c88:	4fd86397          	auipc	t2,0x4fd86
     c8c:	0021129b          	slliw	t0,sp,0x2
     c90:	02308033          	mul	zero,ra,gp
     c94:	5d83809b          	addiw	ra,t2,1496
     c98:	01015333          	srl	t1,sp,a6
     c9c:	0031a0b3          	slt	ra,gp,gp
     ca0:	402080bb          	subw	ra,ra,sp
     ca4:	002091b3          	sll	gp,ra,sp
     ca8:	022182b3          	mul	t0,gp,sp
     cac:	f400c093          	xori	ra,ra,-192
     cb0:	02b144b3          	div	s1,sp,a1
     cb4:	b49b55b7          	lui	a1,0xb49b5
     cb8:	0290b013          	sltiu	zero,ra,41
     cbc:	00113333          	sltu	t1,sp,ra
     cc0:	007144b3          	xor	s1,sp,t2
     cc4:	4062d1bb          	sraw	gp,t0,t1
     cc8:	bd946117          	auipc	sp,0xbd946
     ccc:	405280bb          	subw	ra,t0,t0
     cd0:	021170b3          	remu	ra,sp,ra
     cd4:	006381b3          	add	gp,t2,t1
     cd8:	0013e2b3          	or	t0,t2,ra
     cdc:	dd60019b          	addiw	gp,zero,-554
     ce0:	0253c133          	div	sp,t2,t0
     ce4:	24523113          	sltiu	sp,tp,581
     ce8:	0261d1b3          	divu	gp,gp,t1
     cec:	4041033b          	subw	t1,sp,tp
     cf0:	bec1f093          	andi	ra,gp,-1044
     cf4:	0a208463          	beq	ra,sp,0xd9c
     cf8:	0a4000ef          	jal	ra,0xd9c
     cfc:	55f13193          	sltiu	gp,sp,1375
     d00:	02117133          	remu	sp,sp,ra
     d04:	a5c8c097          	auipc	ra,0xa5c8c
     d08:	0044d23b          	srlw	tp,s1,tp
     d0c:	0093909b          	slliw	ra,t2,0x9
     d10:	0031d0b3          	srl	ra,gp,gp
     d14:	022260b3          	rem	ra,tp,sp
     d18:	003091bb          	sllw	gp,ra,gp
     d1c:	20f17113          	andi	sp,sp,527
     d20:	40238133          	sub	sp,t2,sp
     d24:	021162b3          	rem	t0,sp,ra
     d28:	8cdad097          	auipc	ra,0x8cdad
     d2c:	02110233          	mul	tp,sp,ra
     d30:	0033a333          	slt	t1,t2,gp
     d34:	aa42809b          	addiw	ra,t0,-1372
     d38:	3a8401b7          	lui	gp,0x3a840
     d3c:	936df237          	lui	tp,0x936df
     d40:	631b6d17          	auipc	s10,0x631b6
     d44:	0020a133          	slt	sp,ra,sp
     d48:	022060b3          	rem	ra,zero,sp
     d4c:	4071511b          	sraiw	sp,sp,0x7
     d50:	cebd4097          	auipc	ra,0xcebd4
     d54:	0a70b113          	sltiu	sp,ra,167
     d58:	afc47197          	auipc	gp,0xafc47
     d5c:	00111333          	sll	t1,sp,ra
     d60:	0066f6b3          	and	a3,a3,t1
     d64:	b1b28793          	addi	a5,t0,-1253 # 0x7bcc4b1b
     d68:	0090919b          	slliw	gp,ra,0x9
     d6c:	00209133          	sll	sp,ra,sp
     d70:	00623093          	sltiu	ra,tp,6
     d74:	0023513b          	srlw	sp,t1,sp
     d78:	0091913b          	sllw	sp,gp,s1
     d7c:	0030f1b3          	and	gp,ra,gp
     d80:	00e19093          	slli	ra,gp,0xe
     d84:	8d4d8197          	auipc	gp,0x8d4d8
     d88:	1271811b          	addiw	sp,gp,295
     d8c:	5580b013          	sltiu	zero,ra,1368
     d90:	0230e0b3          	rem	ra,ra,gp
     d94:	00008093          	mv	ra,ra
     d98:	46108c63          	beq	ra,ra,0x1210
     d9c:	0171111b          	slliw	sp,sp,0x17
     da0:	3288f117          	auipc	sp,0x3288f
     da4:	01f7919b          	slliw	gp,a5,0x1f
     da8:	0171909b          	slliw	ra,gp,0x17
     dac:	f900e193          	ori	gp,ra,-112
     db0:	4111511b          	sraiw	sp,sp,0x11
     db4:	4112d09b          	sraiw	ra,t0,0x11
     db8:	00fc01bb          	addw	gp,s8,a5
     dbc:	6290811b          	addiw	sp,ra,1577
     dc0:	00308133          	add	sp,ra,gp
     dc4:	337991b7          	lui	gp,0x33799
     dc8:	d8234397          	auipc	t2,0xd8234
     dcc:	023272b3          	remu	t0,tp,gp
     dd0:	5f03f113          	andi	sp,t2,1520
     dd4:	0187919b          	slliw	gp,a5,0x18
     dd8:	e68221b7          	lui	gp,0xe6822
     ddc:	000080b3          	add	ra,ra,zero
     de0:	4090d31b          	sraiw	t1,ra,0x9
     de4:	0191d69b          	srliw	a3,gp,0x19
     de8:	297c9137          	lui	sp,0x297c9
     dec:	bd824093          	xori	ra,tp,-1064
     df0:	001381b3          	add	gp,t2,ra
     df4:	f7762137          	lui	sp,0xf7762
     df8:	42915193          	srai	gp,sp,0x29
     dfc:	bc27b197          	auipc	gp,0xbc27b
     e00:	0231e0b3          	rem	ra,gp,gp
     e04:	49b1a293          	slti	t0,gp,1179
     e08:	4151511b          	sraiw	sp,sp,0x15
     e0c:	00b9e133          	or	sp,s3,a1
     e10:	42415193          	srai	gp,sp,0x24
     e14:	0232f133          	remu	sp,t0,gp
     e18:	01b15313          	srli	t1,sp,0x1b
     e1c:	7fc10093          	addi	ra,sp,2044 # 0xfffffffff77627fc
     e20:	0191911b          	slliw	sp,gp,0x19
     e24:	402051b3          	sra	gp,zero,sp
     e28:	40130133          	sub	sp,t1,ra
     e2c:	61908263          	beq	ra,s9,0x1430
     e30:	600001ef          	jal	gp,0x1430
     e34:	003001bb          	addw	gp,zero,gp
     e38:	db81019b          	addiw	gp,sp,-584
     e3c:	0011d0b3          	srl	ra,gp,ra
     e40:	ebd1019b          	addiw	gp,sp,-323
     e44:	022683b3          	mul	t2,a3,sp
     e48:	00721033          	sll	zero,tp,t2
     e4c:	5d076117          	auipc	sp,0x5d076
     e50:	21517113          	andi	sp,sp,533
     e54:	5d0501b7          	lui	gp,0x5d050
     e58:	0970e293          	ori	t0,ra,151
     e5c:	2a41009b          	addiw	ra,sp,676
     e60:	001030b3          	snez	ra,ra
     e64:	4d853117          	auipc	sp,0x4d853
     e68:	02230133          	mul	sp,t1,sp
     e6c:	154fb393          	sltiu	t2,t6,340
     e70:	0021f033          	and	zero,gp,sp
     e74:	00210333          	add	t1,sp,sp
     e78:	69229137          	lui	sp,0x69229
     e7c:	02011193          	slli	gp,sp,0x20
     e80:	01d2981b          	slliw	a6,t0,0x1d
     e84:	0211c133          	div	sp,gp,ra
     e88:	8bfa4897          	auipc	a7,0x8bfa4
     e8c:	4010d13b          	sraw	sp,ra,ra
     e90:	01f19193          	slli	gp,gp,0x1f
     e94:	89875397          	auipc	t2,0x89875
     e98:	00f0813b          	addw	sp,ra,a5
     e9c:	023157b3          	divu	a5,sp,gp
     ea0:	0031003b          	addw	zero,sp,gp
     ea4:	1c613393          	sltiu	t2,sp,454
     ea8:	404081b3          	sub	gp,ra,tp
     eac:	00509093          	slli	ra,ra,0x5
     eb0:	0001111b          	slliw	sp,sp,0x0
     eb4:	6b7d90b7          	lui	ra,0x6b7d9
     eb8:	0020c1b3          	xor	gp,ra,sp
     ebc:	00008493          	mv	s1,ra
     ec0:	e2148ee3          	beq	s1,ra,0xcfc
     ec4:	0193111b          	slliw	sp,t1,0x19
     ec8:	003280b3          	add	ra,t0,gp
     ecc:	b911019b          	addiw	gp,sp,-1135
     ed0:	8d60c093          	xori	ra,ra,-1834
     ed4:	0020f233          	and	tp,ra,sp
     ed8:	0220c133          	div	sp,ra,sp
     edc:	e28671b7          	lui	gp,0xe2867
     ee0:	002053bb          	srlw	t2,zero,sp
     ee4:	006111bb          	sllw	gp,sp,t1
     ee8:	12147037          	lui	zero,0x12147
     eec:	8384d017          	auipc	zero,0x8384d
     ef0:	002123b3          	slt	t2,sp,sp
     ef4:	4021803b          	subw	zero,gp,sp
     ef8:	1f6e41b7          	lui	gp,0x1f6e4
     efc:	4031813b          	subw	sp,gp,gp
     f00:	f8e4c117          	auipc	sp,0xf8e4c
     f04:	fdcef193          	andi	gp,t4,-36
     f08:	001991b3          	sll	gp,s3,ra
     f0c:	4af3009b          	addiw	ra,t1,1199
     f10:	403100b3          	sub	ra,sp,gp
     f14:	001153bb          	srlw	t2,sp,ra
     f18:	002217bb          	sllw	a5,tp,sp
     f1c:	0021a033          	slt	zero,gp,sp
     f20:	7d00a317          	auipc	t1,0x7d00a
     f24:	b322a1b7          	lui	gp,0xb322a
     f28:	6f73e197          	auipc	gp,0x6f73e
     f2c:	0021e133          	or	sp,gp,sp
     f30:	006150b3          	srl	ra,sp,t1
     f34:	02411193          	slli	gp,sp,0x24
     f38:	56113293          	sltiu	t0,sp,1377
     f3c:	4ea7e213          	ori	tp,a5,1258
     f40:	4535b293          	sltiu	t0,a1,1107
     f44:	00000697          	auipc	a3,0x0
     f48:	008680e7          	jalr	8(a3) # 0xf4c
     f4c:	4090d19b          	sraiw	gp,ra,0x9
     f50:	efb241b7          	lui	gp,0xefb24
     f54:	c1b0809b          	addiw	ra,ra,-997
     f58:	95b16193          	ori	gp,sp,-1701
     f5c:	01419193          	slli	gp,gp,0x14
     f60:	d7a12093          	slti	ra,sp,-646
     f64:	4edb4137          	lui	sp,0x4edb4
     f68:	0021df33          	srl	t5,gp,sp
     f6c:	4ffc30b7          	lui	ra,0x4ffc3
     f70:	40515233          	sra	tp,sp,t0
     f74:	00236333          	or	t1,t1,sp
     f78:	02d25133          	divu	sp,tp,a3
     f7c:	00509113          	slli	sp,ra,0x5
     f80:	00223133          	sltu	sp,tp,sp
     f84:	0131991b          	slliw	s2,gp,0x13
     f88:	00408333          	add	t1,ra,tp
     f8c:	5465cab7          	lui	s5,0x5465c
     f90:	1b11c093          	xori	ra,gp,433
     f94:	02115133          	divu	sp,sp,ra
     f98:	0081119b          	slliw	gp,sp,0x8
     f9c:	c73a049b          	addiw	s1,s4,-909
     fa0:	0043921b          	slliw	tp,t2,0x4
     fa4:	4041519b          	sraiw	gp,sp,0x4
     fa8:	40408333          	sub	t1,ra,tp
     fac:	02110133          	mul	sp,sp,ra
     fb0:	0211d033          	divu	zero,gp,ra
     fb4:	0210c2b3          	div	t0,ra,ra
     fb8:	17f79037          	lui	zero,0x17f79
     fbc:	8aab8137          	lui	sp,0x8aab8
     fc0:	e34771b7          	lui	gp,0xe3477
     fc4:	0071111b          	slliw	sp,sp,0x7
     fc8:	87035217          	auipc	tp,0x87035
     fcc:	401080b3          	sub	ra,ra,ra
     fd0:	b46ee1b7          	lui	gp,0xb46ee
     fd4:	003150b3          	srl	ra,sp,gp
     fd8:	2a21da63          	bge	gp,sp,0x128c
     fdc:	2a21c863          	blt	gp,sp,0x128c
     fe0:	0121d11b          	srliw	sp,gp,0x12
     fe4:	506e019b          	addiw	gp,t3,1286
     fe8:	40a0d193          	srai	gp,ra,0xa
     fec:	01b0931b          	slliw	t1,ra,0x1b
     ff0:	0221f133          	remu	sp,gp,sp
     ff4:	01011193          	slli	gp,sp,0x10
     ff8:	0141929b          	slliw	t0,gp,0x14
     ffc:	71bcf097          	auipc	ra,0x71bcf
    1000:	f62262b7          	lui	t0,0xf6226
    1004:	ac0010b7          	lui	ra,0xac001
    1008:	0021ddb3          	srl	s11,gp,sp
    100c:	00b0931b          	slliw	t1,ra,0xb
    1010:	003307bb          	addw	a5,t1,gp
    1014:	0210e133          	rem	sp,ra,ra
    1018:	40d3519b          	sraiw	gp,t1,0xd
    101c:	4661e013          	ori	zero,gp,1126
    1020:	0000913b          	sllw	sp,ra,zero
    1024:	5562e137          	lui	sp,0x5562e
    1028:	0010f0b3          	and	ra,ra,ra
    102c:	02d1e1b3          	rem	gp,gp,a3
    1030:	023341b3          	div	gp,t1,gp
    1034:	caa6c1b7          	lui	gp,0xcaa6c
    1038:	001150bb          	srlw	ra,sp,ra
    103c:	0261e2b3          	rem	t0,gp,t1
    1040:	03a15093          	srli	ra,sp,0x3a
    1044:	16b28117          	auipc	sp,0x16b28
    1048:	2f6da097          	auipc	ra,0x2f6da
    104c:	00a1d693          	srli	a3,gp,0xa
    1050:	19627313          	andi	t1,tp,406
    1054:	000187bb          	addw	a5,gp,zero
    1058:	c870f193          	andi	gp,ra,-889
    105c:	02a153b3          	divu	t2,sp,a0
    1060:	0040f133          	and	sp,ra,tp
    1064:	08388e63          	beq	a7,gp,0x1100
    1068:	0980016f          	jal	sp,0x1100
    106c:	7ef3f1b7          	lui	gp,0x7ef3f
    1070:	657ea137          	lui	sp,0x657ea
    1074:	00323033          	sltu	zero,tp,gp
    1078:	02107133          	remu	sp,zero,ra
    107c:	63d1819b          	addiw	gp,gp,1597
    1080:	023080b3          	mul	ra,ra,gp
    1084:	3cbe5197          	auipc	gp,0x3cbe5
    1088:	5eb5b1b7          	lui	gp,0x5eb5b
    108c:	ef463397          	auipc	t2,0xef463
    1090:	00208233          	add	tp,ra,sp
    1094:	40b10133          	sub	sp,sp,a1
    1098:	02201113          	slli	sp,zero,0x22
    109c:	41ccd29b          	sraiw	t0,s9,0x1c
    10a0:	00218233          	add	tp,gp,sp
    10a4:	4260d093          	srai	ra,ra,0x26
    10a8:	41ecf037          	lui	zero,0x41ecf
    10ac:	7818f097          	auipc	ra,0x7818f
    10b0:	0011013b          	addw	sp,sp,ra
    10b4:	0030c0b3          	xor	ra,ra,gp
    10b8:	96410093          	addi	ra,sp,-1692 # 0x657e9964
    10bc:	ac50011b          	addiw	sp,zero,-1339
    10c0:	3ebe8113          	addi	sp,t4,1003
    10c4:	407151b3          	sra	gp,sp,t2
    10c8:	406380b3          	sub	ra,t2,t1
    10cc:	a5d08013          	addi	zero,ra,-1443 # 0x7818fb09
    10d0:	7cb4811b          	addiw	sp,s1,1995
    10d4:	0001f0b3          	and	ra,gp,zero
    10d8:	6d1a1037          	lui	zero,0x6d1a1
    10dc:	ae617093          	andi	ra,sp,-1306
    10e0:	9914a193          	slti	gp,s1,-1647
    10e4:	4c099397          	auipc	t2,0x4c099
    10e8:	c182e093          	ori	ra,t0,-1000
    10ec:	d5b34293          	xori	t0,t1,-677
    10f0:	0028c033          	xor	zero,a7,sp
    10f4:	403080bb          	subw	ra,ra,gp
    10f8:	b652d8e3          	bge	t0,t0,0xc68
    10fc:	b652c6e3          	blt	t0,t0,0xc68
    1100:	3710f193          	andi	gp,ra,881
    1104:	0020b233          	sltu	tp,ra,sp
    1108:	0097b5b7          	lui	a1,0x97b
    110c:	df1e87b7          	lui	a5,0xdf1e8
    1110:	022d81b3          	mul	gp,s11,sp
    1114:	021160b3          	rem	ra,sp,ra
    1118:	0210f933          	remu	s2,ra,ra
    111c:	402250bb          	sraw	ra,tp,sp
    1120:	81e12993          	slti	s3,sp,-2018
    1124:	4d8d011b          	addiw	sp,s10,1240
    1128:	02b160b3          	rem	ra,sp,a1
    112c:	e76af2b7          	lui	t0,0xe76af
    1130:	3352809b          	addiw	ra,t0,821
    1134:	cc618293          	addi	t0,gp,-826 # 0x5eb5acc6
    1138:	5160c0b7          	lui	ra,0x5160c
    113c:	8a98f137          	lui	sp,0x8a98f
    1140:	001212b3          	sll	t0,tp,ra
    1144:	4d9aa097          	auipc	ra,0x4d9aa
    1148:	2f916197          	auipc	gp,0x2f916
    114c:	a210e093          	ori	ra,ra,-1503
    1150:	b6ee7037          	lui	zero,0xb6ee7
    1154:	6df89237          	lui	tp,0x6df89
    1158:	0020a5b3          	slt	a1,ra,sp
    115c:	026f9093          	slli	ra,t6,0x26
    1160:	19b0b017          	auipc	zero,0x19b0b
    1164:	001554bb          	srlw	s1,a0,ra
    1168:	cbb08093          	addi	ra,ra,-837 # 0x4d9aadff
    116c:	9b82019b          	addiw	gp,tp,-1608
    1170:	0011ab33          	slt	s6,gp,ra
    1174:	00c1509b          	srliw	ra,sp,0xc
    1178:	00010113          	mv	sp,sp
    117c:	22210a63          	beq	sp,sp,0x13b0
    1180:	401181bb          	subw	gp,gp,ra
    1184:	3e11809b          	addiw	ra,gp,993
    1188:	023373b3          	remu	t2,t1,gp
    118c:	01d6929b          	slliw	t0,a3,0x1d
    1190:	0011133b          	sllw	t1,sp,ra
    1194:	0020a133          	slt	sp,ra,sp
    1198:	40308133          	sub	sp,ra,gp
    119c:	8a083137          	lui	sp,0x8a083
    11a0:	0241e1b3          	rem	gp,gp,tp
    11a4:	020141b3          	div	gp,sp,zero
    11a8:	2cc13013          	sltiu	zero,sp,716
    11ac:	4020d1b3          	sra	gp,ra,sp
    11b0:	007081b3          	add	gp,ra,t2
    11b4:	f3d13097          	auipc	ra,0xf3d13
    11b8:	eae2e213          	ori	tp,t0,-338
    11bc:	01825193          	srli	gp,tp,0x18
    11c0:	0010d133          	srl	sp,ra,ra
    11c4:	400152bb          	sraw	t0,sp,zero
    11c8:	01c11193          	slli	gp,sp,0x1c
    11cc:	002fd03b          	srlw	zero,t6,sp
    11d0:	4021d23b          	sraw	tp,gp,sp
    11d4:	37068393          	addi	t2,a3,880
    11d8:	521fe3b7          	lui	t2,0x521fe
    11dc:	b8202113          	slti	sp,zero,-1150
    11e0:	62b5e117          	auipc	sp,0x62b5e
    11e4:	40318133          	sub	sp,gp,gp
    11e8:	07a0a193          	slti	gp,ra,122
    11ec:	02710333          	mul	t1,sp,t2
    11f0:	152df137          	lui	sp,0x152df
    11f4:	25674197          	auipc	gp,0x25674
    11f8:	0011a0b3          	slt	ra,gp,ra
    11fc:	4002d0b3          	sra	ra,t0,zero
    1200:	0021d0b3          	srl	ra,gp,sp
    1204:	0161911b          	slliw	sp,gp,0x16
    1208:	00008093          	mv	ra,ra
    120c:	dc108ae3          	beq	ra,ra,0xfe0
    1210:	02617133          	remu	sp,sp,t1
    1214:	a790a193          	slti	gp,ra,-1415
    1218:	002053bb          	srlw	t2,zero,sp
    121c:	03416e33          	rem	t3,sp,s4
    1220:	022160b3          	rem	ra,sp,sp
    1224:	1f414193          	xori	gp,sp,500
    1228:	000080b3          	add	ra,ra,zero
    122c:	724bf1b7          	lui	gp,0x724bf
    1230:	00214133          	xor	sp,sp,sp
    1234:	003351b3          	srl	gp,t1,gp
    1238:	0021d133          	srl	sp,gp,sp
    123c:	9d335117          	auipc	sp,0x9d335
    1240:	03409693          	slli	a3,ra,0x34
    1244:	76893137          	lui	sp,0x76893
    1248:	b70511b7          	lui	gp,0xb7051
    124c:	c5a0c197          	auipc	gp,0xc5a0c
    1250:	005111bb          	sllw	gp,sp,t0
    1254:	413081bb          	subw	gp,ra,s3
    1258:	197c0337          	lui	t1,0x197c0
    125c:	02338333          	mul	t1,t2,gp
    1260:	8f92811b          	addiw	sp,t0,-1799
    1264:	5cc10e97          	auipc	t4,0x5cc10
    1268:	cb2c40b7          	lui	ra,0xcb2c4
    126c:	fdc0819b          	addiw	gp,ra,-36
    1270:	022270b3          	remu	ra,tp,sp
    1274:	0251d133          	divu	sp,gp,t0
    1278:	8d717213          	andi	tp,sp,-1833
    127c:	a3ea8317          	auipc	t1,0xa3ea8
    1280:	d1a10337          	lui	t1,0xd1a10
    1284:	00018113          	mv	sp,gp
    1288:	c2310ee3          	beq	sp,gp,0xec4
    128c:	01d1931b          	slliw	t1,gp,0x1d
    1290:	575ba197          	auipc	gp,0x575ba
    1294:	d0289097          	auipc	ra,0xd0289
    1298:	d80f1137          	lui	sp,0xd80f1
    129c:	41a0811b          	addiw	sp,ra,1050
    12a0:	00105333          	srl	t1,zero,ra
    12a4:	b894f1b7          	lui	gp,0xb894f
    12a8:	412dc197          	auipc	gp,0x412dc
    12ac:	25bf3137          	lui	sp,0x25bf3
    12b0:	9f07d137          	lui	sp,0x9f07d
    12b4:	403181bb          	subw	gp,gp,gp
    12b8:	41b1531b          	sraiw	t1,sp,0x1b
    12bc:	0091d11b          	srliw	sp,gp,0x9
    12c0:	0010d0bb          	srlw	ra,ra,ra
    12c4:	ca4f5137          	lui	sp,0xca4f5
    12c8:	0180d113          	srli	sp,ra,0x18
    12cc:	4013503b          	sraw	zero,t1,ra
    12d0:	0142511b          	srliw	sp,tp,0x14
    12d4:	404081bb          	subw	gp,ra,tp
    12d8:	021040b3          	div	ra,zero,ra
    12dc:	0311d093          	srli	ra,gp,0x31
    12e0:	5c503093          	sltiu	ra,zero,1477
    12e4:	681cf1b7          	lui	gp,0x681cf
    12e8:	d0304113          	xori	sp,zero,-765
    12ec:	bb90f093          	andi	ra,ra,-1095
    12f0:	0026c1b3          	xor	gp,a3,sp
    12f4:	02214133          	div	sp,sp,sp
    12f8:	02916133          	rem	sp,sp,s1
    12fc:	401150b3          	sra	ra,sp,ra
    1300:	000181b3          	add	gp,gp,zero
    1304:	002261b3          	or	gp,tp,sp
    1308:	40f153b3          	sra	t2,sp,a5
    130c:	00000117          	auipc	sp,0x0
    1310:	2b0101e7          	jalr	gp,688(sp) # 0x15bc
    1314:	004080bb          	addw	ra,ra,tp
    1318:	00f561b7          	lui	gp,0xf56
    131c:	3f9cd117          	auipc	sp,0x3f9cd
    1320:	8c00b193          	sltiu	gp,ra,-1856
    1324:	00109233          	sll	tp,ra,ra
    1328:	0023923b          	sllw	tp,t2,sp
    132c:	37308193          	addi	gp,ra,883 # 0xffffffffd028a607
    1330:	0eec91b7          	lui	gp,0xeec9
    1334:	37213193          	sltiu	gp,sp,882
    1338:	41515193          	srai	gp,sp,0x15
    133c:	9fc5f197          	auipc	gp,0x9fc5f
    1340:	0190d31b          	srliw	t1,ra,0x19
    1344:	f221811b          	addiw	sp,gp,-222
    1348:	006081bb          	addw	gp,ra,t1
    134c:	f0669097          	auipc	ra,0xf0669
    1350:	29069337          	lui	t1,0x29069
    1354:	db4700b7          	lui	ra,0xdb470
    1358:	4011d693          	srai	a3,gp,0x1
    135c:	0210c0b3          	div	ra,ra,ra
    1360:	0221c133          	div	sp,gp,sp
    1364:	ae3af117          	auipc	sp,0xae3af
    1368:	0041111b          	slliw	sp,sp,0x4
    136c:	0021113b          	sllw	sp,sp,sp
    1370:	0230d0b3          	divu	ra,ra,gp
    1374:	69618193          	addi	gp,gp,1686 # 0xffffffff9fc609d2
    1378:	41f1d113          	srai	sp,gp,0x1f
    137c:	4031033b          	subw	t1,sp,gp
    1380:	001190b3          	sll	ra,gp,ra
    1384:	023ed197          	auipc	gp,0x23ed
    1388:	0020f1b3          	and	gp,ra,sp
    138c:	8372009b          	addiw	ra,tp,-1993
    1390:	01a1509b          	srliw	ra,sp,0x1a
    1394:	10b17397          	auipc	t2,0x10b17
    1398:	402080b3          	sub	ra,ra,sp
    139c:	f701c093          	xori	ra,gp,-144
    13a0:	d081f013          	andi	zero,gp,-760
    13a4:	0040813b          	addw	sp,ra,tp
    13a8:	00410263          	beq	sp,tp,0x13ac
    13ac:	03d001ef          	jal	gp,0x1be8
    13b0:	05f22013          	slti	zero,tp,95
    13b4:	002140b3          	xor	ra,sp,sp
    13b8:	ffa18513          	addi	a0,gp,-6 # 0x23ee37e
    13bc:	dd2fc137          	lui	sp,0xdd2fc
    13c0:	026261b3          	rem	gp,tp,t1
    13c4:	4001813b          	subw	sp,gp,zero
    13c8:	f4c0c193          	xori	gp,ra,-180
    13cc:	42332013          	slti	zero,t1,1059
    13d0:	02b181b3          	mul	gp,gp,a1
    13d4:	0191119b          	slliw	gp,sp,0x19
    13d8:	55a01317          	auipc	t1,0x55a01
    13dc:	40118233          	sub	tp,gp,ra
    13e0:	8410f113          	andi	sp,ra,-1983
    13e4:	4032513b          	sraw	sp,tp,gp
    13e8:	23f1a193          	slti	gp,gp,575
    13ec:	0141921b          	slliw	tp,gp,0x14
    13f0:	4024d3bb          	sraw	t2,s1,sp
    13f4:	0051111b          	slliw	sp,sp,0x5
    13f8:	4a008137          	lui	sp,0x4a008
    13fc:	5b813193          	sltiu	gp,sp,1464
    1400:	8aa210b7          	lui	ra,0x8aa21
    1404:	1828d137          	lui	sp,0x1828d
    1408:	023181b3          	mul	gp,gp,gp
    140c:	cecc2237          	lui	tp,0xcecc2
    1410:	0023a033          	slt	zero,t2,sp
    1414:	fb413113          	sltiu	sp,sp,-76
    1418:	004150bb          	srlw	ra,sp,tp
    141c:	403081b3          	sub	gp,ra,gp
    1420:	77aed417          	auipc	s0,0x77aed
    1424:	7130b013          	sltiu	zero,ra,1811
    1428:	00020193          	mv	gp,tp
    142c:	20418c63          	beq	gp,tp,0x1644
    1430:	003213b3          	sll	t2,tp,gp
    1434:	02d0f133          	remu	sp,ra,a3
    1438:	d9e0b193          	sltiu	gp,ra,-610
    143c:	76c8b497          	auipc	s1,0x76c8b
    1440:	0000e133          	or	sp,ra,zero
    1444:	15814193          	xori	gp,sp,344
    1448:	0231e1b3          	rem	gp,gp,gp
    144c:	eaf1f193          	andi	gp,gp,-337
    1450:	0010d3bb          	srlw	t2,ra,ra
    1454:	0220e1b3          	rem	gp,ra,sp
    1458:	4033d193          	srai	gp,t2,0x3
    145c:	0010d1b3          	srl	gp,ra,ra
    1460:	f627f197          	auipc	gp,0xf627f
    1464:	403b51bb          	sraw	gp,s6,gp
    1468:	0073109b          	slliw	ra,t1,0x7
    146c:	8ef6f097          	auipc	ra,0x8ef6f
    1470:	4cb940b7          	lui	ra,0x4cb94
    1474:	00b19133          	sll	sp,gp,a1
    1478:	0203d0b3          	divu	ra,t2,zero
    147c:	00f1db3b          	srlw	s6,gp,a5
    1480:	c036d0b7          	lui	ra,0xc036d
    1484:	41b0d19b          	sraiw	gp,ra,0x1b
    1488:	0031111b          	slliw	sp,sp,0x3
    148c:	00312333          	slt	t1,sp,gp
    1490:	e600f193          	andi	gp,ra,-416
    1494:	00318133          	add	sp,gp,gp
    1498:	4020d133          	sra	sp,ra,sp
    149c:	0050a1b3          	slt	gp,ra,t0
    14a0:	02916b33          	rem	s6,sp,s1
    14a4:	001080b3          	add	ra,ra,ra
    14a8:	00220333          	add	t1,tp,sp
    14ac:	003174b3          	and	s1,sp,gp
    14b0:	cc2298e3          	bne	t0,sp,0x1180
    14b4:	cc2286e3          	beq	t0,sp,0x1180
    14b8:	401151b3          	sra	gp,sp,ra
    14bc:	01f0911b          	slliw	sp,ra,0x1f
    14c0:	c8a0a093          	slti	ra,ra,-886
    14c4:	7384e117          	auipc	sp,0x7384e
    14c8:	401180bb          	subw	ra,gp,ra
    14cc:	fb872137          	lui	sp,0xfb872
    14d0:	0011f2b3          	and	t0,gp,ra
    14d4:	83347137          	lui	sp,0x83347
    14d8:	00212133          	slt	sp,sp,sp
    14dc:	0051833b          	addw	t1,gp,t0
    14e0:	0030f133          	and	sp,ra,gp
    14e4:	00229133          	sll	sp,t0,sp
    14e8:	0241809b          	addiw	ra,gp,36
    14ec:	0011dd3b          	srlw	s10,gp,ra
    14f0:	1381819b          	addiw	gp,gp,312
    14f4:	42a25113          	srai	sp,tp,0x2a
    14f8:	f641a313          	slti	t1,gp,-156
    14fc:	3250809b          	addiw	ra,ra,805
    1500:	02e09113          	slli	sp,ra,0x2e
    1504:	0030d11b          	srliw	sp,ra,0x3
    1508:	0074933b          	sllw	t1,s1,t2
    150c:	ee1053b7          	lui	t2,0xee105
    1510:	00129d33          	sll	s10,t0,ra
    1514:	00e1911b          	slliw	sp,gp,0xe
    1518:	2b59c1b7          	lui	gp,0x2b59c
    151c:	002190bb          	sllw	ra,gp,sp
    1520:	0031f2b3          	and	t0,gp,gp
    1524:	80a60137          	lui	sp,0x80a60
    1528:	0bd44137          	lui	sp,0xbd44
    152c:	b96d3117          	auipc	sp,0xb96d3
    1530:	00000197          	auipc	gp,0x0
    1534:	de4180e7          	jalr	-540(gp) # 0x1314
    1538:	a8716093          	ori	ra,sp,-1401
    153c:	0060e1b3          	or	gp,ra,t1
    1540:	129e45b7          	lui	a1,0x129e4
    1544:	ee51f393          	andi	t2,gp,-283
    1548:	70514093          	xori	ra,sp,1797
    154c:	459f7217          	auipc	tp,0x459f7
    1550:	40218e33          	sub	t3,gp,sp
    1554:	401182bb          	subw	t0,gp,ra
    1558:	c8004037          	lui	zero,0xc8004
    155c:	70708193          	addi	gp,ra,1799 # 0xffffffffc036d707
    1560:	4000d1bb          	sraw	gp,ra,zero
    1564:	51517093          	andi	ra,sp,1301
    1568:	25012113          	slti	sp,sp,592
    156c:	0220c2b3          	div	t0,ra,sp
    1570:	02b0d3b3          	divu	t2,ra,a1
    1574:	0041f133          	and	sp,gp,tp
    1578:	0011b133          	sltu	sp,gp,ra
    157c:	f2011237          	lui	tp,0xf2011
    1580:	d8c5f013          	andi	zero,a1,-628
    1584:	aa099117          	auipc	sp,0xaa099
    1588:	001150b3          	srl	ra,sp,ra
    158c:	0081d19b          	srliw	gp,gp,0x8
    1590:	0070d03b          	srlw	zero,ra,t2
    1594:	40110133          	sub	sp,sp,ra
    1598:	02114133          	div	sp,sp,ra
    159c:	63312193          	slti	gp,sp,1587
    15a0:	b8560137          	lui	sp,0xb8560
    15a4:	0013f1b3          	and	gp,t2,ra
    15a8:	001161b3          	or	gp,sp,ra
    15ac:	402381bb          	subw	gp,t2,sp
    15b0:	0033d23b          	srlw	tp,t2,gp
    15b4:	881310e3          	bne	t1,ra,0xe34
    15b8:	86130ee3          	beq	t1,ra,0xe34
    15bc:	0036c0b3          	xor	ra,a3,gp
    15c0:	785e3d37          	lui	s10,0x785e3
    15c4:	41d0d11b          	sraiw	sp,ra,0x1d
    15c8:	822ee197          	auipc	gp,0x822ee
    15cc:	0030913b          	sllw	sp,ra,gp
    15d0:	002097b3          	sll	a5,ra,sp
    15d4:	db0680b7          	lui	ra,0xdb068
    15d8:	2fe1b013          	sltiu	zero,gp,766
    15dc:	0071109b          	slliw	ra,sp,0x7
    15e0:	2110c093          	xori	ra,ra,529
    15e4:	c9233193          	sltiu	gp,t1,-878
    15e8:	0030e1b3          	or	gp,ra,gp
    15ec:	001110bb          	sllw	ra,sp,ra
    15f0:	3c714093          	xori	ra,sp,967
    15f4:	8d90c193          	xori	gp,ra,-1831
    15f8:	402150b3          	sra	ra,sp,sp
    15fc:	03309d13          	slli	s10,ra,0x33
    1600:	d9728193          	addi	gp,t0,-617 # 0xffffffffe76aed97
    1604:	e3fe2137          	lui	sp,0xe3fe2
    1608:	0a110b1b          	addiw	s6,sp,161
    160c:	8ae2f193          	andi	gp,t0,-1874
    1610:	40b0813b          	subw	sp,ra,a1
    1614:	0061d33b          	srlw	t1,gp,t1
    1618:	003250bb          	srlw	ra,tp,gp
    161c:	4020d133          	sra	sp,ra,sp
    1620:	0021c133          	xor	sp,gp,sp
    1624:	a3983217          	auipc	tp,0xa3983
    1628:	001491bb          	sllw	gp,s1,ra
    162c:	d6983137          	lui	sp,0xd6983
    1630:	00515133          	srl	sp,sp,t0
    1634:	0011d13b          	srlw	sp,gp,ra
    1638:	6fd30293          	addi	t0,t1,1789 # 0x55a02ad5
    163c:	a20088e3          	beqz	ra,0x106c
    1640:	a2dff36f          	jal	t1,0x106c
    1644:	01f1509b          	srliw	ra,sp,0x1f
    1648:	0023b3b3          	sltu	t2,t2,sp
    164c:	00313133          	sltu	sp,sp,gp
    1650:	10e1cb93          	xori	s7,gp,270
    1654:	e440b1b7          	lui	gp,0xe440b
    1658:	65d8d097          	auipc	ra,0x65d8d
    165c:	01b19113          	slli	sp,gp,0x1b
    1660:	0032513b          	srlw	sp,tp,gp
    1664:	da168097          	auipc	ra,0xda168
    1668:	01f29593          	slli	a1,t0,0x1f
    166c:	401181b3          	sub	gp,gp,ra
    1670:	2fa1f193          	andi	gp,gp,762
    1674:	00418133          	add	sp,gp,tp
    1678:	496337b7          	lui	a5,0x49633
    167c:	ef261097          	auipc	ra,0xef261
    1680:	e3702113          	slti	sp,zero,-457
    1684:	4f3a4117          	auipc	sp,0x4f3a4
    1688:	0230d233          	divu	tp,ra,gp
    168c:	0005c133          	xor	sp,a1,zero
    1690:	4080d193          	srai	gp,ra,0x8
    1694:	40138133          	sub	sp,t2,ra
    1698:	0180531b          	srliw	t1,zero,0x18
    169c:	02217fb3          	remu	t6,sp,sp
    16a0:	db00f493          	andi	s1,ra,-592
    16a4:	c9651097          	auipc	ra,0xc9651
    16a8:	dbd76197          	auipc	gp,0xdbd76
    16ac:	1360821b          	addiw	tp,ra,310
    16b0:	42015313          	srai	t1,sp,0x20
    16b4:	e6cdd197          	auipc	gp,0xe6cdd
    16b8:	005090b3          	sll	ra,ra,t0
    16bc:	dd94a117          	auipc	sp,0xdd94a
    16c0:	0069ad33          	slt	s10,s3,t1
    16c4:	0201d133          	divu	sp,gp,zero
    16c8:	00e1929b          	slliw	t0,gp,0xe
    16cc:	00111333          	sll	t1,sp,ra
    16d0:	df6184e3          	beq	gp,s6,0x14b8
    16d4:	de5ff1ef          	jal	gp,0x14b8
    16d8:	0020e133          	or	sp,ra,sp
    16dc:	01b1919b          	slliw	gp,gp,0x1b
    16e0:	00f19813          	slli	a6,gp,0xf
    16e4:	0070c0b3          	xor	ra,ra,t2
    16e8:	57c1e113          	ori	sp,gp,1404
    16ec:	0221d133          	divu	sp,gp,sp
    16f0:	59d0811b          	addiw	sp,ra,1437
    16f4:	001220b3          	slt	ra,tp,ra
    16f8:	003098b3          	sll	a7,ra,gp
    16fc:	e3716193          	ori	gp,sp,-457
    1700:	dc30e113          	ori	sp,ra,-573
    1704:	1fb2f113          	andi	sp,t0,507
    1708:	f49c73b7          	lui	t2,0xf49c7
    170c:	00809093          	slli	ra,ra,0x8
    1710:	43f51697          	auipc	a3,0x43f51
    1714:	3aaf81b7          	lui	gp,0x3aaf8
    1718:	037f00b3          	mul	ra,t5,s7
    171c:	0020a2b3          	slt	t0,ra,sp
    1720:	46f63297          	auipc	t0,0x46f63
    1724:	8a40c193          	xori	gp,ra,-1884
    1728:	0050e0b3          	or	ra,ra,t0
    172c:	00731133          	sll	sp,t1,t2
    1730:	026166b3          	rem	a3,sp,t1
    1734:	ed812393          	slti	t2,sp,-296
    1738:	4021d233          	sra	tp,gp,sp
    173c:	32c0a113          	slti	sp,ra,812
    1740:	0171d09b          	srliw	ra,gp,0x17
    1744:	0013c933          	xor	s2,t2,ra
    1748:	4020d133          	sra	sp,ra,sp
    174c:	402180b3          	sub	ra,gp,sp
    1750:	501a8a63          	beq	s5,ra,0x1c64
    1754:	510000ef          	jal	ra,0x1c64
    1758:	d8616113          	ori	sp,sp,-634
    175c:	0331d393          	srli	t2,gp,0x33
    1760:	0021113b          	sllw	sp,sp,sp
    1764:	d699f197          	auipc	gp,0xd699f
    1768:	02f0e033          	rem	zero,ra,a5
    176c:	0361d393          	srli	t2,gp,0x36
    1770:	0021a1b3          	slt	gp,gp,sp
    1774:	943961b7          	lui	gp,0x94396
    1778:	51fbb1b7          	lui	gp,0x51fbb
    177c:	0231c0b3          	div	ra,gp,gp
    1780:	0027d23b          	srlw	tp,a5,sp
    1784:	001111b3          	sll	gp,sp,ra
    1788:	4011d1bb          	sraw	gp,gp,ra
    178c:	0140111b          	slliw	sp,zero,0x14
    1790:	59f3b513          	sltiu	a0,t2,1439
    1794:	00e8111b          	slliw	sp,a6,0xe
    1798:	11818293          	addi	t0,gp,280 # 0x51fbb118
    179c:	97c1a113          	slti	sp,gp,-1668
    17a0:	f1226117          	auipc	sp,0xf1226
    17a4:	02f11093          	slli	ra,sp,0x2f
    17a8:	178cb097          	auipc	ra,0x178cb
    17ac:	9a939197          	auipc	gp,0x9a939
    17b0:	17213193          	sltiu	gp,sp,370
    17b4:	007020b3          	sgtz	ra,t2
    17b8:	19f7811b          	addiw	sp,a5,415
    17bc:	97c5c297          	auipc	t0,0x97c5c
    17c0:	7a41019b          	addiw	gp,sp,1956
    17c4:	000cd1bb          	srlw	gp,s9,zero
    17c8:	8cb78097          	auipc	ra,0x8cb78
    17cc:	21d2b097          	auipc	ra,0x21d2b
    17d0:	0031013b          	addw	sp,sp,gp
    17d4:	03e09113          	slli	sp,ra,0x3e
    17d8:	411f509b          	sraiw	ra,t5,0x11
    17dc:	0021b333          	sltu	t1,gp,sp
    17e0:	42b51517          	auipc	a0,0x42b51
    17e4:	62118663          	beq	gp,ra,0x1e10
    17e8:	628003ef          	jal	t2,0x1e10
    17ec:	32e43eb7          	lui	t4,0x32e43
    17f0:	a075a037          	lui	zero,0xa075a
    17f4:	e4d0f393          	andi	t2,ra,-435
    17f8:	0341d093          	srli	ra,gp,0x34
    17fc:	405181b3          	sub	gp,gp,t0
    1800:	0101129b          	slliw	t0,sp,0x10
    1804:	00219133          	sll	sp,gp,sp
    1808:	403287bb          	subw	a5,t0,gp
    180c:	03601093          	slli	ra,zero,0x36
    1810:	004215bb          	sllw	a1,tp,tp
    1814:	eb01a293          	slti	t0,gp,-336
    1818:	19e600b7          	lui	ra,0x19e60
    181c:	b6d8e117          	auipc	sp,0xb6d8e
    1820:	0021b1b3          	sltu	gp,gp,sp
    1824:	02215133          	divu	sp,sp,sp
    1828:	7711b693          	sltiu	a3,gp,1905
    182c:	ffa8e093          	ori	ra,a7,-6
    1830:	00308133          	add	sp,ra,gp
    1834:	023140b3          	div	ra,sp,gp
    1838:	026143b3          	div	t2,sp,t1
    183c:	32b2f0b7          	lui	ra,0x32b2f
    1840:	03f0f0b3          	remu	ra,ra,t6
    1844:	c00aa217          	auipc	tp,0xc00aa
    1848:	4020d133          	sra	sp,ra,sp
    184c:	02604133          	div	sp,zero,t1
    1850:	01a1513b          	srlw	sp,sp,s10
    1854:	006390bb          	sllw	ra,t2,t1
    1858:	00f38333          	add	t1,t2,a5
    185c:	615b4cb7          	lui	s9,0x615b4
    1860:	4021013b          	subw	sp,sp,sp
    1864:	0022f1b3          	and	gp,t0,sp
    1868:	0210c1b3          	div	gp,ra,ra
    186c:	0021113b          	sllw	sp,sp,sp
    1870:	cbf2011b          	addiw	sp,tp,-833
    1874:	02214fb3          	div	t6,sp,sp
    1878:	00168263          	beq	a3,ra,0x187c
    187c:	3b1003ef          	jal	t2,0x242c
    1880:	001090b3          	sll	ra,ra,ra
    1884:	0051d1bb          	srlw	gp,gp,t0
    1888:	bfc8f137          	lui	sp,0xbfc8f
    188c:	a558c0b7          	lui	ra,0xa558c
    1890:	92eeb117          	auipc	sp,0x92eeb
    1894:	403101b3          	sub	gp,sp,gp
    1898:	03b0f1b3          	remu	gp,ra,s11
    189c:	0021c3b3          	xor	t2,gp,sp
    18a0:	0180f233          	and	tp,ra,s8
    18a4:	e5c37113          	andi	sp,t1,-420
    18a8:	0051b3b3          	sltu	t2,gp,t0
    18ac:	0042a1b3          	slt	gp,t0,tp
    18b0:	001713bb          	sllw	t2,a4,ra
    18b4:	e0070097          	auipc	ra,0xe0070
    18b8:	e650f093          	andi	ra,ra,-411
    18bc:	08a3c137          	lui	sp,0x8a3c
    18c0:	4201d013          	srai	zero,gp,0x20
    18c4:	407150bb          	sraw	ra,sp,t2
    18c8:	a3d1c313          	xori	t1,gp,-1475
    18cc:	4010d133          	sra	sp,ra,ra
    18d0:	401084bb          	subw	s1,ra,ra
    18d4:	00621313          	slli	t1,tp,0x6
    18d8:	0210d533          	divu	a0,ra,ra
    18dc:	af81c193          	xori	gp,gp,-1288
    18e0:	0090e0b3          	or	ra,ra,s1
    18e4:	2cb9f297          	auipc	t0,0x2cb9f
    18e8:	b0e12193          	slti	gp,sp,-1266
    18ec:	4032d33b          	sraw	t1,t0,gp
    18f0:	c020e093          	ori	ra,ra,-1022
    18f4:	0051813b          	addw	sp,gp,t0
    18f8:	02148133          	mul	sp,s1,ra
    18fc:	00132133          	slt	sp,t1,ra
    1900:	f27c0317          	auipc	t1,0xf27c0
    1904:	00018113          	mv	sp,gp
    1908:	62310a63          	beq	sp,gp,0x1f3c
    190c:	ef0bf193          	andi	gp,s7,-272
    1910:	0021123b          	sllw	tp,sp,sp
    1914:	fed3011b          	addiw	sp,t1,-19
    1918:	eb2761b7          	lui	gp,0xeb276
    191c:	8fe3b117          	auipc	sp,0x8fe3b
    1920:	0060b033          	sltu	zero,ra,t1
    1924:	009171b3          	and	gp,sp,s1
    1928:	0040913b          	sllw	sp,ra,tp
    192c:	0151d09b          	srliw	ra,gp,0x15
    1930:	0023f333          	and	t1,t2,sp
    1934:	29d2f013          	andi	zero,t0,669
    1938:	00313133          	sltu	sp,sp,gp
    193c:	68c1f213          	andi	tp,gp,1676
    1940:	7e3f9037          	lui	zero,0x7e3f9
    1944:	c891b113          	sltiu	sp,gp,-887
    1948:	0032a133          	slt	sp,t0,gp
    194c:	023103b3          	mul	t2,sp,gp
    1950:	00511bbb          	sllw	s7,sp,t0
    1954:	00106133          	or	sp,zero,ra
    1958:	0021a1b3          	slt	gp,gp,sp
    195c:	03b1d293          	srli	t0,gp,0x3b
    1960:	00d21093          	slli	ra,tp,0xd
    1964:	00c1111b          	slliw	sp,sp,0xc
    1968:	36cf6117          	auipc	sp,0x36cf6
    196c:	4100d11b          	sraiw	sp,ra,0x10
    1970:	021270b3          	remu	ra,tp,ra
    1974:	0030e1b3          	or	gp,ra,gp
    1978:	f8a61317          	auipc	t1,0xf8a61
    197c:	00e1c0b3          	xor	ra,gp,a4
    1980:	dc012093          	slti	ra,sp,-576
    1984:	08007093          	andi	ra,zero,128
    1988:	dc00d8e3          	bgez	ra,0x1758
    198c:	dc00c6e3          	bltz	ra,0x1758
    1990:	413301b3          	sub	gp,t1,s3
    1994:	ed7ea197          	auipc	gp,0xed7ea
    1998:	00c120b3          	slt	ra,sp,a2
    199c:	e5a1e093          	ori	ra,gp,-422
    19a0:	0380d237          	lui	tp,0x380d
    19a4:	be31c093          	xori	ra,gp,-1053
    19a8:	c4a0c313          	xori	t1,ra,-950
    19ac:	01706233          	or	tp,zero,s7
    19b0:	022100b3          	mul	ra,sp,sp
    19b4:	005152bb          	srlw	t0,sp,t0
    19b8:	403151bb          	sraw	gp,sp,gp
    19bc:	4a213097          	auipc	ra,0x4a213
    19c0:	01e1119b          	slliw	gp,sp,0x1e
    19c4:	cbbe7237          	lui	tp,0xcbbe7
    19c8:	0230e333          	rem	t1,ra,gp
    19cc:	8b2890b7          	lui	ra,0x8b289
    19d0:	0180d193          	srli	gp,ra,0x18
    19d4:	d610001b          	addiw	zero,zero,-671
    19d8:	0020f0b3          	and	ra,ra,sp
    19dc:	0161139b          	slliw	t2,sp,0x16
    19e0:	00711133          	sll	sp,sp,t2
    19e4:	403207b3          	sub	a5,tp,gp
    19e8:	4ce24693          	xori	a3,tp,1230
    19ec:	001256b3          	srl	a3,tp,ra
    19f0:	c0918093          	addi	ra,gp,-1015 # 0xffffffffed7eb59d
    19f4:	6593c193          	xori	gp,t2,1625
    19f8:	3f995317          	auipc	t1,0x3f995
    19fc:	008c911b          	slliw	sp,s9,0x8
    1a00:	0025a133          	slt	sp,a1,sp
    1a04:	64622493          	slti	s1,tp,1606
    1a08:	002b80bb          	addw	ra,s7,sp
    1a0c:	0210c133          	div	sp,ra,ra
    1a10:	001f5233          	srl	tp,t5,ra
    1a14:	002181b3          	add	gp,gp,sp
    1a18:	14311063          	bne	sp,gp,0x1b58
    1a1c:	12310e63          	beq	sp,gp,0x1b58
    1a20:	0062d29b          	srliw	t0,t0,0x6
    1a24:	54d12393          	slti	t2,sp,1357
    1a28:	0131519b          	srliw	gp,sp,0x13
    1a2c:	b800b293          	sltiu	t0,ra,-1152
    1a30:	d2a0811b          	addiw	sp,ra,-726
    1a34:	f2ff4097          	auipc	ra,0xf2ff4
    1a38:	8704d117          	auipc	sp,0x8704d
    1a3c:	00d3a0b3          	slt	ra,t2,a3
    1a40:	0211f0b3          	remu	ra,gp,ra
    1a44:	ef9b9117          	auipc	sp,0xef9b9
    1a48:	03611193          	slli	gp,sp,0x36
    1a4c:	0010d2b3          	srl	t0,ra,ra
    1a50:	001190bb          	sllw	ra,gp,ra
    1a54:	0bd3b113          	sltiu	sp,t2,189
    1a58:	0030f233          	and	tp,ra,gp
    1a5c:	02b0d093          	srli	ra,ra,0x2b
    1a60:	0010e1b3          	or	gp,ra,ra
    1a64:	98823597          	auipc	a1,0x98823
    1a68:	2118a117          	auipc	sp,0x2118a
    1a6c:	00315133          	srl	sp,sp,gp
    1a70:	40fc813b          	subw	sp,s9,a5
    1a74:	02225133          	divu	sp,tp,sp
    1a78:	c9013397          	auipc	t2,0xc9013
    1a7c:	155be0b7          	lui	ra,0x155be
    1a80:	86903093          	sltiu	ra,zero,-1943
    1a84:	6c83b1b7          	lui	gp,0x6c83b
    1a88:	01eaf197          	auipc	gp,0x1eaf
    1a8c:	003197bb          	sllw	a5,gp,gp
    1a90:	402300bb          	subw	ra,t1,sp
    1a94:	40015133          	sra	sp,sp,zero
    1a98:	006411b3          	sll	gp,s0,t1
    1a9c:	002691bb          	sllw	gp,a3,sp
    1aa0:	e691e193          	ori	gp,gp,-407
    1aa4:	b5d2019b          	addiw	gp,tp,-1187
    1aa8:	62117a63          	bgeu	sp,ra,0x20dc
    1aac:	62116863          	bltu	sp,ra,0x20dc
    1ab0:	0020f0b3          	and	ra,ra,sp
    1ab4:	461871b7          	lui	gp,0x46187
    1ab8:	5bf3f197          	auipc	gp,0x5bf3f
    1abc:	0040d11b          	srliw	sp,ra,0x4
    1ac0:	03111213          	slli	tp,sp,0x31
    1ac4:	0011a133          	slt	sp,gp,ra
    1ac8:	027fa117          	auipc	sp,0x27fa
    1acc:	0002119b          	slliw	gp,tp,0x0
    1ad0:	404100b3          	sub	ra,sp,tp
    1ad4:	212c6097          	auipc	ra,0x212c6
    1ad8:	0011d133          	srl	sp,gp,ra
    1adc:	001ad0b3          	srl	ra,s5,ra
    1ae0:	03d30097          	auipc	ra,0x3d30
    1ae4:	40110133          	sub	sp,sp,ra
    1ae8:	0071d1b3          	srl	gp,gp,t2
    1aec:	00f0131b          	slliw	t1,zero,0xf
    1af0:	4cc42397          	auipc	t2,0x4cc42
    1af4:	30c5e5b7          	lui	a1,0x30c5e
    1af8:	615a1117          	auipc	sp,0x615a1
    1afc:	0141e133          	or	sp,gp,s4
    1b00:	0210c3b3          	div	t2,ra,ra
    1b04:	a5212093          	slti	ra,sp,-1454
    1b08:	0210f133          	remu	sp,ra,ra
    1b0c:	5060e093          	ori	ra,ra,1286
    1b10:	40d15293          	srai	t0,sp,0xd
    1b14:	001b911b          	slliw	sp,s7,0x1
    1b18:	0c673097          	auipc	ra,0xc673
    1b1c:	c54671b7          	lui	gp,0xc5467
    1b20:	3e00a193          	slti	gp,ra,992
    1b24:	2fe06093          	ori	ra,zero,766
    1b28:	99b18113          	addi	sp,gp,-1637 # 0xffffffffc546699b
    1b2c:	c441e193          	ori	gp,gp,-956
    1b30:	4121d09b          	sraiw	ra,gp,0x12
    1b34:	abe2a093          	slti	ra,t0,-1346
    1b38:	41c10313          	addi	t1,sp,1052 # 0x615a2f14
    1b3c:	0260e133          	rem	sp,ra,t1
    1b40:	002186bb          	addw	a3,gp,sp
    1b44:	5d6600b7          	lui	ra,0x5d660
    1b48:	42882197          	auipc	gp,0x42882
    1b4c:	02d0e2b3          	rem	t0,ra,a3
    1b50:	4e628e63          	beq	t0,t1,0x204c
    1b54:	4f8000ef          	jal	ra,0x204c
    1b58:	02b55013          	srli	zero,a0,0x2b
    1b5c:	0167e0b3          	or	ra,a5,s6
    1b60:	00324033          	xor	zero,tp,gp
    1b64:	020101b3          	mul	gp,sp,zero
    1b68:	0010a1b3          	slt	gp,ra,ra
    1b6c:	0231d133          	divu	sp,gp,gp
    1b70:	026e63b3          	rem	t2,t3,t1
    1b74:	a43e7117          	auipc	sp,0xa43e7
    1b78:	4020d333          	sra	t1,ra,sp
    1b7c:	0191111b          	slliw	sp,sp,0x19
    1b80:	eb3970b7          	lui	ra,0xeb397
    1b84:	001c7133          	and	sp,s8,ra
    1b88:	0261c4b3          	div	s1,gp,t1
    1b8c:	401580b3          	sub	ra,a1,ra
    1b90:	07d1a493          	slti	s1,gp,125
    1b94:	c970e113          	ori	sp,ra,-873
    1b98:	43b15113          	srai	sp,sp,0x3b
    1b9c:	002901bb          	addw	gp,s2,sp
    1ba0:	4070d23b          	sraw	tp,ra,t2
    1ba4:	003351b3          	srl	gp,t1,gp
    1ba8:	0021dab3          	srl	s5,gp,sp
    1bac:	a2b36193          	ori	gp,t1,-1493
    1bb0:	4011d4bb          	sraw	s1,gp,ra
    1bb4:	0231f133          	remu	sp,gp,gp
    1bb8:	0021913b          	sllw	sp,gp,sp
    1bbc:	4020d1b3          	sra	gp,ra,sp
    1bc0:	9111019b          	addiw	gp,sp,-1775
    1bc4:	01b32133          	slt	sp,t1,s11
    1bc8:	0220e233          	rem	tp,ra,sp
    1bcc:	0010d133          	srl	sp,ra,ra
    1bd0:	0bd1011b          	addiw	sp,sp,189
    1bd4:	d610b1b7          	lui	gp,0xd610b
    1bd8:	aa7ff137          	lui	sp,0xaa7ff
    1bdc:	0025b5b3          	sltu	a1,a1,sp
    1be0:	00000197          	auipc	gp,0x0
    1be4:	1b0180e7          	jalr	432(gp) # 0x1d90
    1be8:	4070d1b3          	sra	gp,ra,t2
    1bec:	0273c233          	div	tp,t2,t2
    1bf0:	001092bb          	sllw	t0,ra,ra
    1bf4:	0a72b393          	sltiu	t2,t0,167
    1bf8:	7d1b21b7          	lui	gp,0x7d1b2
    1bfc:	402151b3          	sra	gp,sp,sp
    1c00:	57a67217          	auipc	tp,0x57a67
    1c04:	41415113          	srai	sp,sp,0x14
    1c08:	d2506193          	ori	gp,zero,-731
    1c0c:	49f1e213          	ori	tp,gp,1183
    1c10:	01be9293          	slli	t0,t4,0x1b
    1c14:	d93c7ab7          	lui	s5,0xd93c7
    1c18:	0071013b          	addw	sp,sp,t2
    1c1c:	63217113          	andi	sp,sp,1586
    1c20:	0131981b          	slliw	a6,gp,0x13
    1c24:	fe913113          	sltiu	sp,sp,-23
    1c28:	0011a133          	slt	sp,gp,ra
    1c2c:	4010d1b3          	sra	gp,ra,ra
    1c30:	009c909b          	slliw	ra,s9,0x9
    1c34:	022150b3          	divu	ra,sp,sp
    1c38:	0030a133          	slt	sp,ra,gp
    1c3c:	00749133          	sll	sp,s1,t2
    1c40:	406180bb          	subw	ra,gp,t1
    1c44:	0010d1b3          	srl	gp,ra,ra
    1c48:	bb725117          	auipc	sp,0xbb725
    1c4c:	fc2a2117          	auipc	sp,0xfc2a2
    1c50:	02217333          	remu	t1,sp,sp
    1c54:	0020a0b3          	slt	ra,ra,sp
    1c58:	0251e0b3          	rem	ra,gp,t0
    1c5c:	50410263          	beq	sp,tp,0x2160
    1c60:	500001ef          	jal	gp,0x2160
    1c64:	5281009b          	addiw	ra,sp,1320
    1c68:	00316133          	or	sp,sp,gp
    1c6c:	f5078117          	auipc	sp,0xf5078
    1c70:	020181b3          	mul	gp,gp,zero
    1c74:	01a1d093          	srli	ra,gp,0x1a
    1c78:	003080b3          	add	ra,ra,gp
    1c7c:	697090b7          	lui	ra,0x69709
    1c80:	25e3819b          	addiw	gp,t2,606
    1c84:	e2e1809b          	addiw	ra,gp,-466
    1c88:	42515313          	srai	t1,sp,0x25
    1c8c:	72b94f37          	lui	t5,0x72b94
    1c90:	006161b3          	or	gp,sp,t1
    1c94:	a3d3e193          	ori	gp,t2,-1475
    1c98:	f950819b          	addiw	gp,ra,-107
    1c9c:	4031813b          	subw	sp,gp,gp
    1ca0:	0004c1b3          	xor	gp,s1,zero
    1ca4:	43d15293          	srai	t0,sp,0x3d
    1ca8:	ead9a193          	slti	gp,s3,-339
    1cac:	3a8ea097          	auipc	ra,0x3a8ea
    1cb0:	4141519b          	sraiw	gp,sp,0x14
    1cb4:	00b0d1bb          	srlw	gp,ra,a1
    1cb8:	584f1117          	auipc	sp,0x584f1
    1cbc:	beb38113          	addi	sp,t2,-1045 # 0x4cc436db
    1cc0:	4032d133          	sra	sp,t0,gp
    1cc4:	4143501b          	sraiw	zero,t1,0x14
    1cc8:	0211e133          	rem	sp,gp,ra
    1ccc:	0020f0b3          	and	ra,ra,sp
    1cd0:	b8c0e193          	ori	gp,ra,-1140
    1cd4:	e59c4117          	auipc	sp,0xe59c4
    1cd8:	00231133          	sll	sp,t1,sp
    1cdc:	111bd6b7          	lui	a3,0x111bd
    1ce0:	0060a0b3          	slt	ra,ra,t1
    1ce4:	cc616137          	lui	sp,0xcc616
    1ce8:	0010d4b3          	srl	s1,ra,ra
    1cec:	002081bb          	addw	gp,ra,sp
    1cf0:	0131109b          	slliw	ra,sp,0x13
    1cf4:	023201b3          	mul	gp,tp,gp
    1cf8:	e769d117          	auipc	sp,0xe769d
    1cfc:	00d1119b          	slliw	gp,sp,0xd
    1d00:	00010113          	mv	sp,sp
    1d04:	b6210ee3          	beq	sp,sp,0x1880
    1d08:	001110b3          	sll	ra,sp,ra
    1d0c:	632af317          	auipc	t1,0x632af
    1d10:	d2e19697          	auipc	a3,0xd2e19
    1d14:	001351bb          	srlw	gp,t1,ra
    1d18:	40f150bb          	sraw	ra,sp,a5
    1d1c:	02525193          	srli	gp,tp,0x25
    1d20:	07017093          	andi	ra,sp,112
    1d24:	00009193          	slli	gp,ra,0x0
    1d28:	402301b3          	sub	gp,t1,sp
    1d2c:	7b11d137          	lui	sp,0x7b11d
    1d30:	02914d33          	div	s10,sp,s1
    1d34:	0121901b          	slliw	zero,gp,0x12
    1d38:	4012d1bb          	sraw	gp,t0,ra
    1d3c:	70c1b193          	sltiu	gp,gp,1804
    1d40:	4323d313          	srai	t1,t2,0x32
    1d44:	4071d81b          	sraiw	a6,gp,0x7
    1d48:	402287b3          	sub	a5,t0,sp
    1d4c:	0210e1b3          	rem	gp,ra,ra
    1d50:	0083539b          	srliw	t2,t1,0x8
    1d54:	022100b3          	mul	ra,sp,sp
    1d58:	0231d233          	divu	tp,gp,gp
    1d5c:	e8112193          	slti	gp,sp,-383
    1d60:	5f11f193          	andi	gp,gp,1521
    1d64:	0040d013          	srli	zero,ra,0x4
    1d68:	0031f2b3          	and	t0,gp,gp
    1d6c:	024382b3          	mul	t0,t2,tp
    1d70:	449bc193          	xori	gp,s7,1097
    1d74:	00215033          	srl	zero,sp,sp
    1d78:	0212c033          	div	zero,t0,ra
    1d7c:	001a20b3          	slt	ra,s4,ra
    1d80:	41a1d113          	srai	sp,gp,0x1a
    1d84:	02210133          	mul	sp,sp,sp
    1d88:	00058993          	mv	s3,a1
    1d8c:	c8b98ae3          	beq	s3,a1,0x1a20
    1d90:	0031d1b3          	srl	gp,gp,gp
    1d94:	001061b3          	or	gp,zero,ra
    1d98:	3d61819b          	addiw	gp,gp,982
    1d9c:	c1724193          	xori	gp,tp,-1001
    1da0:	02018033          	mul	zero,gp,zero
    1da4:	1cd7b397          	auipc	t2,0x1cd7b
    1da8:	c4d6a197          	auipc	gp,0xc4d6a
    1dac:	7fcf90b7          	lui	ra,0x7fcf9
    1db0:	f6920593          	addi	a1,tp,-151 # 0x57a68b69
    1db4:	7409f117          	auipc	sp,0x7409f
    1db8:	0010d11b          	srliw	sp,ra,0x1
    1dbc:	03509093          	slli	ra,ra,0x35
    1dc0:	69f13213          	sltiu	tp,sp,1695
    1dc4:	5cbab017          	auipc	zero,0x5cbab
    1dc8:	0fc6d137          	lui	sp,0xfc6d
    1dcc:	3a01f013          	andi	zero,gp,928
    1dd0:	0020b0b3          	sltu	ra,ra,sp
    1dd4:	1b544093          	xori	ra,s0,437
    1dd8:	026142b3          	div	t0,sp,t1
    1ddc:	8b49f217          	auipc	tp,0x8b49f
    1de0:	005141b3          	xor	gp,sp,t0
    1de4:	0023919b          	slliw	gp,t2,0x2
    1de8:	19728117          	auipc	sp,0x19728
    1dec:	dad82137          	lui	sp,0xdad82
    1df0:	0030b5b3          	sltu	a1,ra,gp
    1df4:	002141b3          	xor	gp,sp,sp
    1df8:	0010d13b          	srlw	sp,ra,ra
    1dfc:	0026813b          	addw	sp,a3,sp
    1e00:	02f0d1b3          	divu	gp,ra,a5
    1e04:	16f10213          	addi	tp,sp,367 # 0xffffffffdad8216f
    1e08:	00000117          	auipc	sp,0x0
    1e0c:	1c0101e7          	jalr	gp,448(sp) # 0x1fc8
    1e10:	d0f10b1b          	addiw	s6,sp,-753
    1e14:	0061d13b          	srlw	sp,gp,t1
    1e18:	8bd1a093          	slti	ra,gp,-1859
    1e1c:	a9361137          	lui	sp,0xa9361
    1e20:	8331b217          	auipc	tp,0x8331b
    1e24:	b1504393          	xori	t2,zero,-1259
    1e28:	0241c133          	div	sp,gp,tp
    1e2c:	00415ab3          	srl	s5,sp,tp
    1e30:	0012a1b3          	slt	gp,t0,ra
    1e34:	02419093          	slli	ra,gp,0x24
    1e38:	dea22393          	slti	t2,tp,-534
    1e3c:	01f1119b          	slliw	gp,sp,0x1f
    1e40:	09b0c113          	xori	sp,ra,155
    1e44:	dd80c093          	xori	ra,ra,-552
    1e48:	cd68d2b7          	lui	t0,0xcd68d
    1e4c:	0021d1b3          	srl	gp,gp,sp
    1e50:	9e627113          	andi	sp,tp,-1562
    1e54:	0010e133          	or	sp,ra,ra
    1e58:	0250d1b3          	divu	gp,ra,t0
    1e5c:	0121d193          	srli	gp,gp,0x12
    1e60:	0101111b          	slliw	sp,sp,0x10
    1e64:	020081b3          	mul	gp,ra,zero
    1e68:	82a97117          	auipc	sp,0x82a97
    1e6c:	00018133          	add	sp,gp,zero
    1e70:	0070023b          	addw	tp,zero,t2
    1e74:	8cffd137          	lui	sp,0x8cffd
    1e78:	001191bb          	sllw	gp,gp,ra
    1e7c:	4162d31b          	sraiw	t1,t0,0x16
    1e80:	4026d1bb          	sraw	gp,a3,sp
    1e84:	0020813b          	addw	sp,ra,sp
    1e88:	00239333          	sll	t1,t2,sp
    1e8c:	0236f233          	remu	tp,a3,gp
    1e90:	0200c133          	div	sp,ra,zero
    1e94:	0023f133          	and	sp,t2,sp
    1e98:	c565b117          	auipc	sp,0xc565b
    1e9c:	cec1801b          	addiw	zero,gp,-788
    1ea0:	ca97b137          	lui	sp,0xca97b
    1ea4:	e512e217          	auipc	tp,0xe512e
    1ea8:	00008193          	mv	gp,ra
    1eac:	821186e3          	beq	gp,ra,0x16d8
    1eb0:	130de037          	lui	zero,0x130de
    1eb4:	02136133          	rem	sp,t1,ra
    1eb8:	94a68097          	auipc	ra,0x94a68
    1ebc:	402156b3          	sra	a3,sp,sp
    1ec0:	964643b7          	lui	t2,0x96464
    1ec4:	3340011b          	addiw	sp,zero,820
    1ec8:	007118b3          	sll	a7,sp,t2
    1ecc:	ca417093          	andi	ra,sp,-860
    1ed0:	00237133          	and	sp,t1,sp
    1ed4:	40b0d11b          	sraiw	sp,ra,0xb
    1ed8:	06302113          	slti	sp,zero,99
    1edc:	4030013b          	negw	sp,gp
    1ee0:	003000bb          	addw	ra,zero,gp
    1ee4:	1bb4b117          	auipc	sp,0x1bb4b
    1ee8:	4de0a193          	slti	gp,ra,1246
    1eec:	0032933b          	sllw	t1,t0,gp
    1ef0:	bde3e293          	ori	t0,t2,-1058
    1ef4:	002190b3          	sll	ra,gp,sp
    1ef8:	002170b3          	and	ra,sp,sp
    1efc:	e958f117          	auipc	sp,0xe958f
    1f00:	0061f1b3          	and	gp,gp,t1
    1f04:	03819113          	slli	sp,gp,0x38
    1f08:	026160b3          	rem	ra,sp,t1
    1f0c:	01408133          	add	sp,ra,s4
    1f10:	592b3117          	auipc	sp,0x592b3
    1f14:	efc15097          	auipc	ra,0xefc15
    1f18:	dcc9e093          	ori	ra,s3,-564
    1f1c:	ad435197          	auipc	gp,0xad435
    1f20:	0211e333          	rem	t1,gp,ra
    1f24:	4023013b          	subw	sp,t1,sp
    1f28:	62c22193          	slti	gp,tp,1580
    1f2c:	d221e113          	ori	sp,gp,-734
    1f30:	0011a1b3          	slt	gp,gp,ra
    1f34:	00000197          	auipc	gp,0x0
    1f38:	dd4180e7          	jalr	-556(gp) # 0x1d08
    1f3c:	0010d23b          	srlw	tp,ra,ra
    1f40:	c1617093          	andi	ra,sp,-1002
    1f44:	cbf33793          	sltiu	a5,t1,-833
    1f48:	021270b3          	remu	ra,tp,ra
    1f4c:	8140e113          	ori	sp,ra,-2028
    1f50:	ef034217          	auipc	tp,0xef034
    1f54:	40128133          	sub	sp,t0,ra
    1f58:	f842d0b7          	lui	ra,0xf842d
    1f5c:	4011d0b3          	sra	ra,gp,ra
    1f60:	009102bb          	addw	t0,sp,s1
    1f64:	0150503b          	srlw	zero,zero,s5
    1f68:	c380f093          	andi	ra,ra,-968
    1f6c:	00a15093          	srli	ra,sp,0xa
    1f70:	d79b4497          	auipc	s1,0xd79b4
    1f74:	f592c1b7          	lui	gp,0xf592c
    1f78:	03311293          	slli	t0,sp,0x33
    1f7c:	26c83197          	auipc	gp,0x26c83
    1f80:	83c12293          	slti	t0,sp,-1988
    1f84:	020100b3          	mul	ra,sp,zero
    1f88:	00311233          	sll	tp,sp,gp
    1f8c:	0011013b          	addw	sp,sp,ra
    1f90:	001080b3          	add	ra,ra,ra
    1f94:	005080b3          	add	ra,ra,t0
    1f98:	cca10113          	addi	sp,sp,-822 # 0x592b4bda
    1f9c:	4020d133          	sra	sp,ra,sp
    1fa0:	0033f6b3          	and	a3,t2,gp
    1fa4:	0030e133          	or	sp,ra,gp
    1fa8:	00414133          	xor	sp,sp,tp
    1fac:	0241e0b3          	rem	ra,gp,tp
    1fb0:	bdc81117          	auipc	sp,0xbdc81
    1fb4:	01f0109b          	slliw	ra,zero,0x1f
    1fb8:	29ebb337          	lui	t1,0x29ebb
    1fbc:	ecb311b7          	lui	gp,0xecb31
    1fc0:	00018113          	mv	sp,gp
    1fc4:	ee3106e3          	beq	sp,gp,0x1eb0
    1fc8:	02f1d133          	divu	sp,gp,a5
    1fcc:	0031913b          	sllw	sp,gp,gp
    1fd0:	ba00a213          	slti	tp,ra,-1120
    1fd4:	4043813b          	subw	sp,t2,tp
    1fd8:	0010a333          	slt	t1,ra,ra
    1fdc:	6f102113          	slti	sp,zero,1777
    1fe0:	003350bb          	srlw	ra,t1,gp
    1fe4:	41d3d11b          	sraiw	sp,t2,0x1d
    1fe8:	402281bb          	subw	gp,t0,sp
    1fec:	0112909b          	slliw	ra,t0,0x11
    1ff0:	0000c0b3          	xor	ra,ra,zero
    1ff4:	4a0ae097          	auipc	ra,0x4a0ae
    1ff8:	4030d33b          	sraw	t1,ra,gp
    1ffc:	0020c333          	xor	t1,ra,sp
    2000:	001d10bb          	sllw	ra,s10,ra
    2004:	071b9237          	lui	tp,0x71b9
    2008:	409081bb          	subw	gp,ra,s1
    200c:	cf31f117          	auipc	sp,0xcf31f
    2010:	0010d0b3          	srl	ra,ra,ra
    2014:	4021d1bb          	sraw	gp,gp,sp
    2018:	00b312b3          	sll	t0,t1,a1
    201c:	f3414193          	xori	gp,sp,-204
    2020:	c352b117          	auipc	sp,0xc352b
    2024:	023087b3          	mul	a5,ra,gp
    2028:	0040a033          	slt	zero,ra,tp
    202c:	018eb097          	auipc	ra,0x18eb
    2030:	01511f1b          	slliw	t5,sp,0x15
    2034:	01117097          	auipc	ra,0x1117
    2038:	401080bb          	subw	ra,ra,ra
    203c:	2bc4f3b7          	lui	t2,0x2bc4f
    2040:	0052d1b3          	srl	gp,t0,t0
    2044:	a63086e3          	beq	ra,gp,0x1ab0
    2048:	a69ff0ef          	jal	ra,0x1ab0
    204c:	401181b3          	sub	gp,gp,ra
    2050:	4090d3b3          	sra	t2,ra,s1
    2054:	4161d193          	srai	gp,gp,0x16
    2058:	343851b7          	lui	gp,0x34385
    205c:	00a28333          	add	t1,t0,a0
    2060:	13014093          	xori	ra,sp,304
    2064:	0030a233          	slt	tp,ra,gp
    2068:	002141b3          	xor	gp,sp,sp
    206c:	4011503b          	sraw	zero,sp,ra
    2070:	fed13193          	sltiu	gp,sp,-19
    2074:	023173b3          	remu	t2,sp,gp
    2078:	023181b3          	mul	gp,gp,gp
    207c:	0031d133          	srl	sp,gp,gp
    2080:	f0e13093          	sltiu	ra,sp,-242
    2084:	ac816193          	ori	gp,sp,-1336
    2088:	030a1013          	slli	zero,s4,0x30
    208c:	95003193          	sltiu	gp,zero,-1712
    2090:	0250f133          	remu	sp,ra,t0
    2094:	4190d01b          	sraiw	zero,ra,0x19
    2098:	f5f5a1b7          	lui	gp,0xf5f5a
    209c:	4750f193          	andi	gp,ra,1141
    20a0:	02dbb197          	auipc	gp,0x2dbb
    20a4:	3d81011b          	addiw	sp,sp,984
    20a8:	002140b3          	xor	ra,sp,sp
    20ac:	c3d1b093          	sltiu	ra,gp,-963
    20b0:	002291bb          	sllw	gp,t0,sp
    20b4:	0011e033          	or	zero,gp,ra
    20b8:	01b3d19b          	srliw	gp,t2,0x1b
    20bc:	41c0b113          	sltiu	sp,ra,1052
    20c0:	0011c1b3          	xor	gp,gp,ra
    20c4:	43815093          	srai	ra,sp,0x38
    20c8:	6330b193          	sltiu	gp,ra,1587
    20cc:	402088bb          	subw	a7,ra,sp
    20d0:	4ab0e013          	ori	zero,ra,1195
    20d4:	82218ce3          	beq	gp,sp,0x190c
    20d8:	835ff16f          	jal	sp,0x190c
    20dc:	a7b4a197          	auipc	gp,0xa7b4a
    20e0:	023070b3          	remu	ra,zero,gp
    20e4:	4020d7bb          	sraw	a5,ra,sp
    20e8:	4020d2b3          	sra	t0,ra,sp
    20ec:	00210133          	add	sp,sp,sp
    20f0:	00221133          	sll	sp,tp,sp
    20f4:	466c0137          	lui	sp,0x466c0
    20f8:	003030b3          	snez	ra,gp
    20fc:	d0c1e1b7          	lui	gp,0xd0c1e
    2100:	9b11f313          	andi	t1,gp,-1615
    2104:	c6a6f113          	andi	sp,a3,-918
    2108:	171b81b7          	lui	gp,0x171b8
    210c:	f020f093          	andi	ra,ra,-254
    2110:	021350b3          	divu	ra,t1,ra
    2114:	72f13093          	sltiu	ra,sp,1839
    2118:	4031513b          	sraw	sp,sp,gp
    211c:	8581b093          	sltiu	ra,gp,-1960
    2120:	39a11197          	auipc	gp,0x39a11
    2124:	02b0d893          	srli	a7,ra,0x2b
    2128:	f5ed2137          	lui	sp,0xf5ed2
    212c:	0212c133          	div	sp,t0,ra
    2130:	9f1e7113          	andi	sp,t3,-1551
    2134:	0ff1021b          	addiw	tp,sp,255
    2138:	0120909b          	slliw	ra,ra,0x12
    213c:	a4018113          	addi	sp,gp,-1472 # 0x39a12b60
    2140:	005080bb          	addw	ra,ra,t0
    2144:	003091bb          	sllw	gp,ra,gp
    2148:	00107133          	and	sp,zero,ra
    214c:	002151b3          	srl	gp,sp,sp
    2150:	b5e2e317          	auipc	t1,0xb5e2e
    2154:	00b0e0b3          	or	ra,ra,a1
    2158:	00110263          	beq	sp,ra,0x215c
    215c:	e90ff06f          	j	0x17ec
    2160:	8ee2c297          	auipc	t0,0x8ee2c
    2164:	0230d113          	srli	sp,ra,0x23
    2168:	40e1519b          	sraiw	gp,sp,0xe
    216c:	401004bb          	negw	s1,ra
    2170:	0026d11b          	srliw	sp,a3,0x2
    2174:	0031b2b3          	sltu	t0,gp,gp
    2178:	4090519b          	sraiw	gp,zero,0x9
    217c:	403101bb          	subw	gp,sp,gp
    2180:	9157d697          	auipc	a3,0x9157d
    2184:	0041d2b3          	srl	t0,gp,tp
    2188:	056b4197          	auipc	gp,0x56b4
    218c:	0e208593          	addi	a1,ra,226 # 0x1119116
    2190:	00d0911b          	slliw	sp,ra,0xd
    2194:	01f1d21b          	srliw	tp,gp,0x1f
    2198:	4020d23b          	sraw	tp,ra,sp
    219c:	02709093          	slli	ra,ra,0x27
    21a0:	4021d1bb          	sraw	gp,gp,sp
    21a4:	301ce137          	lui	sp,0x301ce
    21a8:	00308133          	add	sp,ra,gp
    21ac:	00519033          	sll	zero,gp,t0
    21b0:	41815113          	srai	sp,sp,0x18
    21b4:	11122397          	auipc	t2,0x11122
    21b8:	84d1e293          	ori	t0,gp,-1971
    21bc:	47a1b637          	lui	a2,0x47a1b
    21c0:	0031d03b          	srlw	zero,gp,gp
    21c4:	002272b3          	and	t0,tp,sp
    21c8:	4371d313          	srai	t1,gp,0x37
    21cc:	74293137          	lui	sp,0x74293
    21d0:	46d0809b          	addiw	ra,ra,1133
    21d4:	e652d2b7          	lui	t0,0xe652d
    21d8:	402752b3          	sra	t0,a4,sp
    21dc:	8cf1e193          	ori	gp,gp,-1841
    21e0:	0030e1b3          	or	gp,ra,gp
    21e4:	0782b093          	sltiu	ra,t0,120
    21e8:	00118263          	beq	gp,ra,0x21ec
    21ec:	fa4ff16f          	jal	sp,0x1990
    21f0:	4046023b          	subw	tp,a2,tp
    21f4:	9de9a197          	auipc	gp,0x9de9a
    21f8:	0328c397          	auipc	t2,0x328c
    21fc:	0031e1b3          	or	gp,gp,gp
    2200:	02310233          	mul	tp,sp,gp
    2204:	4de0c093          	xori	ra,ra,1246
    2208:	00007033          	and	zero,zero,zero
    220c:	6916f1b7          	lui	gp,0x6916f
    2210:	fec50097          	auipc	ra,0xfec50
    2214:	5230a013          	slti	zero,ra,1315
    2218:	0080d09b          	srliw	ra,ra,0x8
    221c:	4aa0a113          	slti	sp,ra,1194
    2220:	0043913b          	sllw	sp,t2,tp
    2224:	dc9b01b7          	lui	gp,0xdc9b0
    2228:	6acb5117          	auipc	sp,0x6acb5
    222c:	7d353197          	auipc	gp,0x7d353
    2230:	1dd4b117          	auipc	sp,0x1dd4b
    2234:	0291f0b3          	remu	ra,gp,s1
    2238:	7bc1009b          	addiw	ra,sp,1980
    223c:	4060d11b          	sraiw	sp,ra,0x6
    2240:	00213633          	sltu	a2,sp,sp
    2244:	0232c2b3          	div	t0,t0,gp
    2248:	2991e293          	ori	t0,gp,665
    224c:	b991009b          	addiw	ra,sp,-1127
    2250:	0191931b          	slliw	t1,gp,0x19
    2254:	e5bd80b7          	lui	ra,0xe5bd8
    2258:	e1c470b7          	lui	ra,0xe1c47
    225c:	0010101b          	slliw	zero,zero,0x1
    2260:	0010833b          	addw	t1,ra,ra
    2264:	3a589337          	lui	t1,0x3a589
    2268:	001001bb          	addw	gp,zero,ra
    226c:	0001013b          	addw	sp,sp,zero
    2270:	0030f0b3          	and	ra,ra,gp
    2274:	41b206bb          	subw	a3,tp,s11
    2278:	00209e3b          	sllw	t3,ra,sp
    227c:	7ce10c63          	beq	sp,a4,0x2a54
    2280:	7d4002ef          	jal	t0,0x2a54
    2284:	ce10b013          	sltiu	zero,ra,-799
    2288:	40215133          	sra	sp,sp,sp
    228c:	0021533b          	srlw	t1,sp,sp
    2290:	d8edf397          	auipc	t2,0xd8edf
    2294:	a602821b          	addiw	tp,t0,-1440
    2298:	02414333          	div	t1,sp,tp
    229c:	109f2417          	auipc	s0,0x109f2
    22a0:	01a0911b          	slliw	sp,ra,0x1a
    22a4:	8111f693          	andi	a3,gp,-2031
    22a8:	001781b3          	add	gp,a5,ra
    22ac:	b2f1039b          	addiw	t2,sp,-1233
    22b0:	356710b7          	lui	ra,0x35671
    22b4:	431601b7          	lui	gp,0x43160
    22b8:	d4872237          	lui	tp,0xd4872
    22bc:	e6110093          	addi	ra,sp,-415 # 0x1dd4d091
    22c0:	c36b6197          	auipc	gp,0xc36b6
    22c4:	001170b3          	and	ra,sp,ra
    22c8:	00618133          	add	sp,gp,t1
    22cc:	001380bb          	addw	ra,t2,ra
    22d0:	8c876017          	auipc	zero,0x8c876
    22d4:	e911e113          	ori	sp,gp,-367
    22d8:	4211d093          	srai	ra,gp,0x21
    22dc:	c7bfe197          	auipc	gp,0xc7bfe
    22e0:	01535393          	srli	t2,t1,0x15
    22e4:	00410193          	addi	gp,sp,4
    22e8:	74ea11b7          	lui	gp,0x74ea1
    22ec:	e232e197          	auipc	gp,0xe232e
    22f0:	0b71f193          	andi	gp,gp,183
    22f4:	023051b3          	divu	gp,zero,gp
    22f8:	0034d1bb          	srlw	gp,s1,gp
    22fc:	b711809b          	addiw	ra,gp,-1167
    2300:	43515113          	srai	sp,sp,0x35
    2304:	0060e1b3          	or	gp,ra,t1
    2308:	08208663          	beq	ra,sp,0x2394
    230c:	0880016f          	jal	sp,0x2394
    2310:	0024c133          	xor	sp,s1,sp
    2314:	0011d0b3          	srl	ra,gp,ra
    2318:	2410e093          	ori	ra,ra,577
    231c:	02115133          	divu	sp,sp,ra
    2320:	1b3630b7          	lui	ra,0x1b363
    2324:	16d2e193          	ori	gp,t0,365
    2328:	2c78d0b7          	lui	ra,0x2c78d
    232c:	0020d0bb          	srlw	ra,ra,sp
    2330:	1e45c197          	auipc	gp,0x1e45c
    2334:	02218133          	mul	sp,gp,sp
    2338:	3202e0b7          	lui	ra,0x3202e
    233c:	01d17133          	and	sp,sp,t4
    2340:	0010bc33          	sltu	s8,ra,ra
    2344:	0174d013          	srli	zero,s1,0x17
    2348:	0041d1bb          	srlw	gp,gp,tp
    234c:	02337133          	remu	sp,t1,gp
    2350:	02337133          	remu	sp,t1,gp
    2354:	0060d0b3          	srl	ra,ra,t1
    2358:	00b25293          	srli	t0,tp,0xb
    235c:	a321e093          	ori	ra,gp,-1486
    2360:	4032d19b          	sraiw	gp,t0,0x3
    2364:	0011f3b3          	and	t2,gp,ra
    2368:	006cd3b3          	srl	t2,s9,t1
    236c:	90110693          	addi	a3,sp,-1791
    2370:	2cf37193          	andi	gp,t1,719
    2374:	0190911b          	slliw	sp,ra,0x19
    2378:	40f0549b          	sraiw	s1,zero,0xf
    237c:	4c56f237          	lui	tp,0x4c56f
    2380:	67c97197          	auipc	gp,0x67c97
    2384:	40acd19b          	sraiw	gp,s9,0xa
    2388:	7111809b          	addiw	ra,gp,1809
    238c:	1012fe63          	bgeu	t0,ra,0x24a8
    2390:	1012ec63          	bltu	t0,ra,0x24a8
    2394:	e4702297          	auipc	t0,0xe4702
    2398:	0001113b          	sllw	sp,sp,zero
    239c:	403183bb          	subw	t2,gp,gp
    23a0:	c991b113          	sltiu	sp,gp,-871
    23a4:	a8208197          	auipc	gp,0xa8208
    23a8:	46422737          	lui	a4,0x46422
    23ac:	f9d1021b          	addiw	tp,sp,-99
    23b0:	003251bb          	srlw	gp,tp,gp
    23b4:	8dde6117          	auipc	sp,0x8dde6
    23b8:	fe79a337          	lui	t1,0xfe79a
    23bc:	00109233          	sll	tp,ra,ra
    23c0:	c110c113          	xori	sp,ra,-1007
    23c4:	9310e193          	ori	gp,ra,-1743
    23c8:	000040b3          	xor	ra,zero,zero
    23cc:	ea005397          	auipc	t2,0xea005
    23d0:	01310133          	add	sp,sp,s3
    23d4:	022171b3          	remu	gp,sp,sp
    23d8:	8f0d4137          	lui	sp,0x8f0d4
    23dc:	002111b3          	sll	gp,sp,sp
    23e0:	003b9d93          	slli	s11,s7,0x3
    23e4:	02f1f0b3          	remu	ra,gp,a5
    23e8:	0031113b          	sllw	sp,sp,gp
    23ec:	bfb18093          	addi	ra,gp,-1029 # 0xffffffffa8209f9f
    23f0:	01d3109b          	slliw	ra,t1,0x1d
    23f4:	0021913b          	sllw	sp,gp,sp
    23f8:	02114133          	div	sp,sp,ra
    23fc:	0032e0b3          	or	ra,t0,gp
    2400:	2d81a193          	slti	gp,gp,728
    2404:	01b49113          	slli	sp,s1,0x1b
    2408:	025173b3          	remu	t2,sp,t0
    240c:	28e220b7          	lui	ra,0x28e22
    2410:	35f711b7          	lui	gp,0x35f71
    2414:	0150511b          	srliw	sp,zero,0x15
    2418:	43335313          	srai	t1,t1,0x33
    241c:	eab13113          	sltiu	sp,sp,-341
    2420:	005080b3          	add	ra,ra,t0
    2424:	74330663          	beq	t1,gp,0x2b70
    2428:	748001ef          	jal	gp,0x2b70
    242c:	5df1011b          	addiw	sp,sp,1503
    2430:	73003113          	sltiu	sp,zero,1840
    2434:	f2123197          	auipc	gp,0xf2123
    2438:	1c5503b7          	lui	t2,0x1c550
    243c:	d1e1809b          	addiw	ra,gp,-738
    2440:	4070d1b3          	sra	gp,ra,t2
    2444:	608ca0b7          	lui	ra,0x608ca
    2448:	23108193          	addi	gp,ra,561 # 0x608ca231
    244c:	403100b3          	sub	ra,sp,gp
    2450:	001281bb          	addw	gp,t0,ra
    2454:	002182bb          	addw	t0,gp,sp
    2458:	0073931b          	slliw	t1,t2,0x7
    245c:	006050bb          	srlw	ra,zero,t1
    2460:	403101b3          	sub	gp,sp,gp
    2464:	00307133          	and	sp,zero,gp
    2468:	d66bbab7          	lui	s5,0xd66bb
    246c:	0037b2b3          	sltu	t0,a5,gp
    2470:	400281b3          	sub	gp,t0,zero
    2474:	001301b3          	add	gp,t1,ra
    2478:	01b1c3b3          	xor	t2,gp,s11
    247c:	001c7033          	and	zero,s8,ra
    2480:	0223c1b3          	div	gp,t2,sp
    2484:	f20760b7          	lui	ra,0xf2076
    2488:	400151bb          	sraw	gp,sp,zero
    248c:	874fd097          	auipc	ra,0x874fd
    2490:	023171b3          	remu	gp,sp,gp
    2494:	02648133          	mul	sp,s1,t1
    2498:	f25200b7          	lui	ra,0xf2520
    249c:	808de137          	lui	sp,0x808de
    24a0:	3e308863          	beq	ra,gp,0x2890
    24a4:	3ec000ef          	jal	ra,0x2890
    24a8:	0350d793          	srli	a5,ra,0x35
    24ac:	02f17333          	remu	t1,sp,a5
    24b0:	01c2d013          	srli	zero,t0,0x1c
    24b4:	2631b013          	sltiu	zero,gp,611
    24b8:	41a1d11b          	sraiw	sp,gp,0x1a
    24bc:	bee91097          	auipc	ra,0xbee91
    24c0:	021150b3          	divu	ra,sp,ra
    24c4:	40f1b313          	sltiu	t1,gp,1039
    24c8:	4315d193          	srai	gp,a1,0x31
    24cc:	0032d133          	srl	sp,t0,gp
    24d0:	4a251137          	lui	sp,0x4a251
    24d4:	00512233          	slt	tp,sp,t0
    24d8:	76d7d117          	auipc	sp,0x76d7d
    24dc:	3e91bf13          	sltiu	t5,gp,1001
    24e0:	4181d11b          	sraiw	sp,gp,0x18
    24e4:	40a78333          	sub	t1,a5,a0
    24e8:	76d0a113          	slti	sp,ra,1901
    24ec:	0031a133          	slt	sp,gp,gp
    24f0:	023381b3          	mul	gp,t2,gp
    24f4:	403151b3          	sra	gp,sp,gp
    24f8:	004003bb          	addw	t2,zero,tp
    24fc:	001b3133          	sltu	sp,s6,ra
    2500:	423d2197          	auipc	gp,0x423d2
    2504:	6a313093          	sltiu	ra,sp,1699
    2508:	0070f033          	and	zero,ra,t2
    250c:	0031911b          	slliw	sp,gp,0x3
    2510:	ebe56317          	auipc	t1,0xebe56
    2514:	0010f033          	and	zero,ra,ra
    2518:	023075b3          	remu	a1,zero,gp
    251c:	e07fc1b7          	lui	gp,0xe07fc
    2520:	007213b3          	sll	t2,tp,t2
    2524:	e6473197          	auipc	gp,0xe6473
    2528:	2e308263          	beq	ra,gp,0x280c
    252c:	2e0000ef          	jal	ra,0x280c
    2530:	39a191b7          	lui	gp,0x39a19
    2534:	0030e0b3          	or	ra,ra,gp
    2538:	80d95197          	auipc	gp,0x80d95
    253c:	023160b3          	rem	ra,sp,gp
    2540:	0180919b          	slliw	gp,ra,0x18
    2544:	0110d09b          	srliw	ra,ra,0x11
    2548:	401081b3          	sub	gp,ra,ra
    254c:	abf9b197          	auipc	gp,0xabf9b
    2550:	16e5c093          	xori	ra,a1,366
    2554:	4031d13b          	sraw	sp,gp,gp
    2558:	003105b3          	add	a1,sp,gp
    255c:	cca921b7          	lui	gp,0xcca92
    2560:	01421293          	slli	t0,tp,0x14
    2564:	19183137          	lui	sp,0x19183
    2568:	0250c133          	div	sp,ra,t0
    256c:	15333013          	sltiu	zero,t1,339
    2570:	3501011b          	addiw	sp,sp,848
    2574:	0120909b          	slliw	ra,ra,0x12
    2578:	0216d1b3          	divu	gp,a3,ra
    257c:	5e20b093          	sltiu	ra,ra,1506
    2580:	5b307193          	andi	gp,zero,1459
    2584:	1ff78117          	auipc	sp,0x1ff78
    2588:	0071c133          	xor	sp,gp,t2
    258c:	402250b3          	sra	ra,tp,sp
    2590:	23f1031b          	addiw	t1,sp,575
    2594:	ad51019b          	addiw	gp,sp,-1323
    2598:	6e089197          	auipc	gp,0x6e089
    259c:	002150bb          	srlw	ra,sp,sp
    25a0:	8399a1b7          	lui	gp,0x8399a
    25a4:	403151b3          	sra	gp,sp,gp
    25a8:	002271b3          	and	gp,tp,sp
    25ac:	b2a2b313          	sltiu	t1,t0,-1238
    25b0:	64218063          	beq	gp,sp,0x2bf0
    25b4:	63c0016f          	jal	sp,0x2bf0
    25b8:	5cc921b7          	lui	gp,0x5cc92
    25bc:	0231d0b3          	divu	ra,gp,gp
    25c0:	a3d1e313          	ori	t1,gp,-1475
    25c4:	95313193          	sltiu	gp,sp,-1709
    25c8:	403380bb          	subw	ra,t2,gp
    25cc:	85012193          	slti	gp,sp,-1968
    25d0:	0153519b          	srliw	gp,t1,0x15
    25d4:	4b31011b          	addiw	sp,sp,1203
    25d8:	9e6061b7          	lui	gp,0x9e606
    25dc:	0230c0b3          	div	ra,ra,gp
    25e0:	bb40e137          	lui	sp,0xbb40e
    25e4:	dfc2839b          	addiw	t2,t0,-516
    25e8:	40d1833b          	subw	t1,gp,a3
    25ec:	b700a113          	slti	sp,ra,-1168
    25f0:	2f34c2b7          	lui	t0,0x2f34c
    25f4:	021081b3          	mul	gp,ra,ra
    25f8:	b5156137          	lui	sp,0xb5156
    25fc:	cd1ed1b7          	lui	gp,0xcd1ed
    2600:	5bc1b193          	sltiu	gp,gp,1468
    2604:	40e10333          	sub	t1,sp,a4
    2608:	4001d0bb          	sraw	ra,gp,zero
    260c:	005280bb          	addw	ra,t0,t0
    2610:	023251b3          	divu	gp,tp,gp
    2614:	76fe93b7          	lui	t2,0x76fe9
    2618:	0241d133          	divu	sp,gp,tp
    261c:	002141b3          	xor	gp,sp,sp
    2620:	023261b3          	rem	gp,tp,gp
    2624:	003030b3          	snez	ra,gp
    2628:	3311d0b7          	lui	ra,0x3311d
    262c:	feb7f313          	andi	t1,a5,-21
    2630:	3b512093          	slti	ra,sp,949
    2634:	403000bb          	negw	ra,gp
    2638:	c47186e3          	beq	gp,t2,0x2284
    263c:	c49ff0ef          	jal	ra,0x2284
    2640:	024261b3          	rem	gp,tp,tp
    2644:	41a2d21b          	sraiw	tp,t0,0x1a
    2648:	40635113          	srai	sp,t1,0x6
    264c:	021300b3          	mul	ra,t1,ra
    2650:	f7e18113          	addi	sp,gp,-130 # 0xffffffffcd1ecf7e
    2654:	003090b3          	sll	ra,ra,gp
    2658:	0021013b          	addw	sp,sp,sp
    265c:	0002d33b          	srlw	t1,t0,zero
    2660:	bd8d9037          	lui	zero,0xbd8d9
    2664:	0211d1b3          	divu	gp,gp,ra
    2668:	00a1921b          	slliw	tp,gp,0xa
    266c:	8fd540b7          	lui	ra,0x8fd54
    2670:	402080b3          	sub	ra,ra,sp
    2674:	4bd0f093          	andi	ra,ra,1213
    2678:	0121129b          	slliw	t0,sp,0x12
    267c:	00f1139b          	slliw	t2,sp,0xf
    2680:	0cce6137          	lui	sp,0xcce6
    2684:	01fa109b          	slliw	ra,s4,0x1f
    2688:	b3172037          	lui	zero,0xb3172
    268c:	132cf1b7          	lui	gp,0x132cf
    2690:	f399f137          	lui	sp,0xf399f
    2694:	40b0d193          	srai	gp,ra,0xb
    2698:	401151bb          	sraw	gp,sp,ra
    269c:	1eb1a193          	slti	gp,gp,491
    26a0:	02314133          	div	sp,sp,gp
    26a4:	9727f097          	auipc	ra,0x9727f
    26a8:	07f56137          	lui	sp,0x7f56
    26ac:	03411093          	slli	ra,sp,0x34
    26b0:	191f8117          	auipc	sp,0x191f8
    26b4:	a079f037          	lui	zero,0xa079f
    26b8:	02118133          	mul	sp,gp,ra
    26bc:	b4675117          	auipc	sp,0xb4675
    26c0:	00233233          	sltu	tp,t1,sp
    26c4:	40219863          	bne	gp,sp,0x2ad4
    26c8:	40218663          	beq	gp,sp,0x2ad4
    26cc:	4097d69b          	sraiw	a3,a5,0x9
    26d0:	0391d0b3          	divu	ra,gp,s9
    26d4:	4073d0bb          	sraw	ra,t2,t2
    26d8:	00329abb          	sllw	s5,t0,gp
    26dc:	57f1809b          	addiw	ra,gp,1407
    26e0:	67b3f097          	auipc	ra,0x67b3f
    26e4:	5481a813          	slti	a6,gp,1352
    26e8:	0021a0b3          	slt	ra,gp,sp
    26ec:	3e61811b          	addiw	sp,gp,998
    26f0:	003141b3          	xor	gp,sp,gp
    26f4:	2f80e593          	ori	a1,ra,760
    26f8:	a8908013          	addi	zero,ra,-1399 # 0x67b41169
    26fc:	00002133          	sltz	sp,zero
    2700:	0091b133          	sltu	sp,gp,s1
    2704:	4060803b          	subw	zero,ra,t1
    2708:	0021c033          	xor	zero,gp,sp
    270c:	02f09093          	slli	ra,ra,0x2f
    2710:	023360b3          	rem	ra,t1,gp
    2714:	0020f133          	and	sp,ra,sp
    2718:	02615113          	srli	sp,sp,0x26
    271c:	0010a133          	slt	sp,ra,ra
    2720:	411e5193          	srai	gp,t3,0x11
    2724:	0370d093          	srli	ra,ra,0x37
    2728:	b57d31b7          	lui	gp,0xb57d3
    272c:	4122509b          	sraiw	ra,tp,0x12
    2730:	003380bb          	addw	ra,t2,gp
    2734:	6c078397          	auipc	t2,0x6c078
    2738:	0041d113          	srli	sp,gp,0x4
    273c:	32b2c093          	xori	ra,t0,811
    2740:	43b25093          	srai	ra,tp,0x3b
    2744:	0181919b          	slliw	gp,gp,0x18
    2748:	021141b3          	div	gp,sp,ra
    274c:	00909113          	slli	sp,ra,0x9
    2750:	0121519b          	srliw	gp,sp,0x12
    2754:	bcd0f113          	andi	sp,ra,-1075
    2758:	003129b3          	slt	s3,sp,gp
    275c:	400351b3          	sra	gp,t1,zero
    2760:	9681011b          	addiw	sp,sp,-1688
    2764:	82c1019b          	addiw	gp,sp,-2004
    2768:	00018093          	mv	ra,gp
    276c:	ba3082e3          	beq	ra,gp,0x2310
    2770:	00f1d19b          	srliw	gp,gp,0xf
    2774:	b0b1a313          	slti	t1,gp,-1269
    2778:	003080bb          	addw	ra,ra,gp
    277c:	b39fd197          	auipc	gp,0xb39fd
    2780:	4ed0009b          	addiw	ra,zero,1261
    2784:	9ad88097          	auipc	ra,0x9ad88
    2788:	403081b3          	sub	gp,ra,gp
    278c:	40e107b3          	sub	a5,sp,a4
    2790:	e0f1869b          	addiw	a3,gp,-497
    2794:	0021d13b          	srlw	sp,gp,sp
    2798:	02219593          	slli	a1,gp,0x22
    279c:	5bb0e093          	ori	ra,ra,1467
    27a0:	021060b3          	rem	ra,zero,ra
    27a4:	001110bb          	sllw	ra,sp,ra
    27a8:	04722117          	auipc	sp,0x4722
    27ac:	cec23393          	sltiu	t2,tp,-788
    27b0:	14b45137          	lui	sp,0x14b45
    27b4:	0011d1b3          	srl	gp,gp,ra
    27b8:	00230033          	add	zero,t1,sp
    27bc:	02515233          	divu	tp,sp,t0
    27c0:	c811c193          	xori	gp,gp,-895
    27c4:	0031f3b3          	and	t2,gp,gp
    27c8:	0230f0b3          	remu	ra,ra,gp
    27cc:	7163e113          	ori	sp,t2,1814
    27d0:	4190d01b          	sraiw	zero,ra,0x19
    27d4:	007101bb          	addw	gp,sp,t2
    27d8:	1f7277b7          	lui	a5,0x1f727
    27dc:	63f31237          	lui	tp,0x63f31
    27e0:	002060b3          	or	ra,zero,sp
    27e4:	0000c1b3          	xor	gp,ra,zero
    27e8:	02d1f233          	remu	tp,gp,a3
    27ec:	402180b3          	sub	ra,gp,sp
    27f0:	f0fc7093          	andi	ra,s8,-241
    27f4:	402251b3          	sra	gp,tp,sp
    27f8:	f1816293          	ori	t0,sp,-232
    27fc:	8761c193          	xori	gp,gp,-1930
    2800:	2e70d397          	auipc	t2,0x2e70d
    2804:	00010193          	mv	gp,sp
    2808:	d22184e3          	beq	gp,sp,0x2530
    280c:	77d1819b          	addiw	gp,gp,1917
    2810:	12c0c113          	xori	sp,ra,300
    2814:	405181bb          	subw	gp,gp,t0
    2818:	000152b3          	srl	t0,sp,zero
    281c:	003110bb          	sllw	ra,sp,gp
    2820:	a892b137          	lui	sp,0xa892b
    2824:	0213f333          	remu	t1,t2,ra
    2828:	001a113b          	sllw	sp,s4,ra
    282c:	bb5c9297          	auipc	t0,0xbb5c9
    2830:	3807b097          	auipc	ra,0x3807b
    2834:	00515f33          	srl	t5,sp,t0
    2838:	548e7117          	auipc	sp,0x548e7
    283c:	002611bb          	sllw	gp,a2,sp
    2840:	0220c2b3          	div	t0,ra,sp
    2844:	fc90049b          	addiw	s1,zero,-55
    2848:	0ae0809b          	addiw	ra,ra,174
    284c:	001053b3          	srl	t2,zero,ra
    2850:	8a900213          	li	tp,-1879
    2854:	b6308113          	addi	sp,ra,-1181 # 0x3807d393
    2858:	0010913b          	sllw	sp,ra,ra
    285c:	40225133          	sra	sp,tp,sp
    2860:	4031d19b          	sraiw	gp,gp,0x3
    2864:	42d15113          	srai	sp,sp,0x2d
    2868:	c7f17137          	lui	sp,0xc7f17
    286c:	b4f1bd93          	sltiu	s11,gp,-1201
    2870:	003482b3          	add	t0,s1,gp
    2874:	002201b3          	add	gp,tp,sp
    2878:	c91ac1b7          	lui	gp,0xc91ac
    287c:	a0f12093          	slti	ra,sp,-1521
    2880:	0211e7b3          	rem	a5,gp,ra
    2884:	f6e85137          	lui	sp,0xf6e85
    2888:	76238e63          	beq	t2,sp,0x3004
    288c:	7780016f          	jal	sp,0x3004
    2890:	003101b3          	add	gp,sp,gp
    2894:	b2370297          	auipc	t0,0xb2370
    2898:	0071e333          	or	t1,gp,t2
    289c:	0221e0b3          	rem	ra,gp,sp
    28a0:	56b80197          	auipc	gp,0x56b80
    28a4:	00338233          	add	tp,t2,gp
    28a8:	00210133          	add	sp,sp,sp
    28ac:	22443037          	lui	zero,0x22443
    28b0:	426700b7          	lui	ra,0x42670
    28b4:	8de33197          	auipc	gp,0x8de33
    28b8:	01f0f133          	and	sp,ra,t6
    28bc:	4020d2bb          	sraw	t0,ra,sp
    28c0:	022040b3          	div	ra,zero,sp
    28c4:	b7d1c113          	xori	sp,gp,-1155
    28c8:	dfe0e113          	ori	sp,ra,-514
    28cc:	3540011b          	addiw	sp,zero,852
    28d0:	0220f1b3          	remu	gp,ra,sp
    28d4:	402058b3          	sra	a7,zero,sp
    28d8:	8cad4197          	auipc	gp,0x8cad4
    28dc:	0066b033          	sltu	zero,a3,t1
    28e0:	002091bb          	sllw	gp,ra,sp
    28e4:	fc01e693          	ori	a3,gp,-64
    28e8:	00710b33          	add	s6,sp,t2
    28ec:	033080b3          	mul	ra,ra,s3
    28f0:	0180d89b          	srliw	a7,ra,0x18
    28f4:	d38052b7          	lui	t0,0xd3805
    28f8:	0051d1bb          	srlw	gp,gp,t0
    28fc:	03f10233          	mul	tp,sp,t6
    2900:	2330c113          	xori	sp,ra,563
    2904:	0041c1b3          	xor	gp,gp,tp
    2908:	40b353bb          	sraw	t2,t1,a1
    290c:	41b1d11b          	sraiw	sp,gp,0x1b
    2910:	0223c133          	div	sp,t2,sp
    2914:	08946297          	auipc	t0,0x8946
    2918:	40a0d09b          	sraiw	ra,ra,0xa
    291c:	c8538ee3          	beq	t2,t0,0x25b8
    2920:	c99ff1ef          	jal	gp,0x25b8
    2924:	007190b3          	sll	ra,gp,t2
    2928:	006051bb          	srlw	gp,zero,t1
    292c:	0082119b          	slliw	gp,tp,0x8
    2930:	0261d333          	divu	t1,gp,t1
    2934:	4230d113          	srai	sp,ra,0x23
    2938:	40210133          	sub	sp,sp,sp
    293c:	71d1819b          	addiw	gp,gp,1821
    2940:	0101d793          	srli	a5,gp,0x10
    2944:	0221e1b3          	rem	gp,gp,sp
    2948:	0112931b          	slliw	t1,t0,0x11
    294c:	0001d11b          	srliw	sp,gp,0x0
    2950:	0014d1bb          	srlw	gp,s1,ra
    2954:	56182797          	auipc	a5,0x56182
    2958:	c450af37          	lui	t5,0xc450a
    295c:	02d14113          	xori	sp,sp,45
    2960:	4010803b          	subw	zero,ra,ra
    2964:	0031913b          	sllw	sp,gp,gp
    2968:	00511133          	sll	sp,sp,t0
    296c:	0030a1b3          	slt	gp,ra,gp
    2970:	00323133          	sltu	sp,tp,gp
    2974:	0232dc33          	divu	s8,t0,gp
    2978:	8810019b          	addiw	gp,zero,-1919
    297c:	52a17113          	andi	sp,sp,1322
    2980:	00108233          	add	tp,ra,ra
    2984:	001091b3          	sll	gp,ra,ra
    2988:	a43641b7          	lui	gp,0xa4364
    298c:	41b0d19b          	sraiw	gp,ra,0x1b
    2990:	0010a4b3          	slt	s1,ra,ra
    2994:	01d3119b          	slliw	gp,t1,0x1d
    2998:	002291bb          	sllw	gp,t0,sp
    299c:	0211d0b3          	divu	ra,gp,ra
    29a0:	9ca10013          	addi	zero,sp,-1590 # 0xfffffffff6e849ca
    29a4:	9c927093          	andi	ra,tp,-1591
    29a8:	003270b3          	and	ra,tp,gp
    29ac:	5260c093          	xori	ra,ra,1318
    29b0:	4021513b          	sraw	sp,sp,sp
    29b4:	00038113          	mv	sp,t2
    29b8:	00710263          	beq	sp,t2,0x29bc
    29bc:	002dd33b          	srlw	t1,s11,sp
    29c0:	000252b3          	srl	t0,tp,zero
    29c4:	0261d1b3          	divu	gp,gp,t1
    29c8:	53313113          	sltiu	sp,sp,1331
    29cc:	01b0121b          	slliw	tp,zero,0x1b
    29d0:	ecea7113          	andi	sp,s4,-306
    29d4:	0023b3b3          	sltu	t2,t2,sp
    29d8:	01a2519b          	srliw	gp,tp,0x1a
    29dc:	00c0919b          	slliw	gp,ra,0xc
    29e0:	9f46e017          	auipc	zero,0x9f46e
    29e4:	0231c0b3          	div	ra,gp,gp
    29e8:	50218193          	addi	gp,gp,1282 # 0xffffffffa4364502
    29ec:	00c1911b          	slliw	sp,gp,0xc
    29f0:	0021a133          	slt	sp,gp,sp
    29f4:	0244e1b3          	rem	gp,s1,tp
    29f8:	02c35113          	srli	sp,t1,0x2c
    29fc:	405158bb          	sraw	a7,sp,t0
    2a00:	41b351b3          	sra	gp,t1,s11
    2a04:	42c3f113          	andi	sp,t2,1068
    2a08:	0112109b          	slliw	ra,tp,0x11
    2a0c:	001129b3          	slt	s3,sp,ra
    2a10:	4001d23b          	sraw	tp,gp,zero
    2a14:	00d1e133          	or	sp,gp,a3
    2a18:	0441a113          	slti	sp,gp,68
    2a1c:	402382bb          	subw	t0,t2,sp
    2a20:	f0c05137          	lui	sp,0xf0c05
    2a24:	402151bb          	sraw	gp,sp,sp
    2a28:	b5f1011b          	addiw	sp,sp,-1185
    2a2c:	0010c1b3          	xor	gp,ra,ra
    2a30:	4062d6bb          	sraw	a3,t0,t1
    2a34:	fef18393          	addi	t2,gp,-17
    2a38:	003110bb          	sllw	ra,sp,gp
    2a3c:	b6903093          	sltiu	ra,zero,-1175
    2a40:	02f01093          	slli	ra,zero,0x2f
    2a44:	01b35013          	srli	zero,t1,0x1b
    2a48:	62848237          	lui	tp,0x62848
    2a4c:	be11fae3          	bgeu	gp,ra,0x2640
    2a50:	be11e8e3          	bltu	gp,ra,0x2640
    2a54:	00315093          	srli	ra,sp,0x3
    2a58:	adb08113          	addi	sp,ra,-1317 # 0x4266fadb
    2a5c:	f8c33137          	lui	sp,0xf8c33
    2a60:	403150bb          	sraw	ra,sp,gp
    2a64:	4051d19b          	sraiw	gp,gp,0x5
    2a68:	c9f1f4b7          	lui	s1,0xc9f1f
    2a6c:	6d7f3193          	sltiu	gp,t5,1751
    2a70:	003881bb          	addw	gp,a7,gp
    2a74:	00016133          	or	sp,sp,zero
    2a78:	02216133          	rem	sp,sp,sp
    2a7c:	a2535117          	auipc	sp,0xa2535
    2a80:	ca313193          	sltiu	gp,sp,-861
    2a84:	004332b3          	sltu	t0,t1,tp
    2a88:	ceb17013          	andi	zero,sp,-789
    2a8c:	0220e233          	rem	tp,ra,sp
    2a90:	01111113          	slli	sp,sp,0x11
    2a94:	28114a13          	xori	s4,sp,641
    2a98:	40710133          	sub	sp,sp,t2
    2a9c:	2c796137          	lui	sp,0x2c796
    2aa0:	01d14133          	xor	sp,sp,t4
    2aa4:	c65502b7          	lui	t0,0xc6550
    2aa8:	67532197          	auipc	gp,0x67532
    2aac:	001131b3          	sltu	gp,sp,ra
    2ab0:	0061d11b          	srliw	sp,gp,0x6
    2ab4:	74efc017          	auipc	zero,0x74efc
    2ab8:	402280b3          	sub	ra,t0,sp
    2abc:	0022b133          	sltu	sp,t0,sp
    2ac0:	95124113          	xori	sp,tp,-1711
    2ac4:	33bc0137          	lui	sp,0x33bc0
    2ac8:	b1d5f197          	auipc	gp,0xb1d5f
    2acc:	e4208ce3          	beq	ra,sp,0x2924
    2ad0:	e55ff16f          	jal	sp,0x2924
    2ad4:	0010b333          	sltu	t1,ra,ra
    2ad8:	903e5117          	auipc	sp,0x903e5
    2adc:	022000b3          	mul	ra,zero,sp
    2ae0:	0323e1b3          	rem	gp,t2,s2
    2ae4:	03410133          	mul	sp,sp,s4
    2ae8:	00236133          	or	sp,t1,sp
    2aec:	11fe5917          	auipc	s2,0x11fe5
    2af0:	0071013b          	addw	sp,sp,t2
    2af4:	b4259137          	lui	sp,0xb4259
    2af8:	022251b3          	divu	gp,tp,sp
    2afc:	0021a033          	slt	zero,gp,sp
    2b00:	082ef697          	auipc	a3,0x82ef
    2b04:	001060b3          	or	ra,zero,ra
    2b08:	9fd0b293          	sltiu	t0,ra,-1539
    2b0c:	20f20193          	addi	gp,tp,527 # 0x6284820f
    2b10:	55ee8237          	lui	tp,0x55ee8
    2b14:	0210f3b3          	remu	t2,ra,ra
    2b18:	96f6c317          	auipc	t1,0x96f6c
    2b1c:	00221133          	sll	sp,tp,sp
    2b20:	403101b3          	sub	gp,sp,gp
    2b24:	02115133          	divu	sp,sp,ra
    2b28:	04d0e113          	ori	sp,ra,77
    2b2c:	403300bb          	subw	ra,t1,gp
    2b30:	01b0e333          	or	t1,ra,s11
    2b34:	0b658693          	addi	a3,a1,182 # 0x30c5e0b6
    2b38:	00005193          	srli	gp,zero,0x0
    2b3c:	1b516593          	ori	a1,sp,437
    2b40:	8e93009b          	addiw	ra,t1,-1815
    2b44:	01d1511b          	srliw	sp,sp,0x1d
    2b48:	0141519b          	srliw	gp,sp,0x14
    2b4c:	0021f133          	and	sp,gp,sp
    2b50:	01d1109b          	slliw	ra,sp,0x1d
    2b54:	3493011b          	addiw	sp,t1,841
    2b58:	fa6a4317          	auipc	t1,0xfa6a4
    2b5c:	03211113          	slli	sp,sp,0x32
    2b60:	0021e1b3          	or	gp,gp,sp
    2b64:	d7ed60b7          	lui	ra,0xd7ed6
    2b68:	00018113          	mv	sp,gp
    2b6c:	c03102e3          	beq	sp,gp,0x2770
    2b70:	dfaf6113          	ori	sp,t5,-518
    2b74:	a530009b          	addiw	ra,zero,-1453
    2b78:	0231d0b3          	divu	ra,gp,gp
    2b7c:	401100bb          	subw	ra,sp,ra
    2b80:	03519113          	slli	sp,gp,0x35
    2b84:	00d0c233          	xor	tp,ra,a3
    2b88:	023371b3          	remu	gp,t1,gp
    2b8c:	401ed13b          	sraw	sp,t4,ra
    2b90:	0021911b          	slliw	sp,gp,0x2
    2b94:	4031d13b          	sraw	sp,gp,gp
    2b98:	526cb197          	auipc	gp,0x526cb
    2b9c:	0230d133          	divu	sp,ra,gp
    2ba0:	0030d0b3          	srl	ra,ra,gp
    2ba4:	4080d11b          	sraiw	sp,ra,0x8
    2ba8:	1c60e313          	ori	t1,ra,454
    2bac:	000b5097          	auipc	ra,0xb5
    2bb0:	ac5820b7          	lui	ra,0xac582
    2bb4:	0110919b          	slliw	gp,ra,0x11
    2bb8:	002111bb          	sllw	gp,sp,sp
    2bbc:	00609e3b          	sllw	t3,ra,t1
    2bc0:	40a1d11b          	sraiw	sp,gp,0xa
    2bc4:	9ed23197          	auipc	gp,0x9ed23
    2bc8:	0210d313          	srli	t1,ra,0x21
    2bcc:	2e2c11b7          	lui	gp,0x2e2c1
    2bd0:	3b34a093          	slti	ra,s1,947
    2bd4:	00f1111b          	slliw	sp,sp,0xf
    2bd8:	a6e2fc37          	lui	s8,0xa6e2f
    2bdc:	0074e0b3          	or	ra,s1,t2
    2be0:	0170919b          	slliw	gp,ra,0x17
    2be4:	0207f0b3          	remu	ra,a5,zero
    2be8:	00308263          	beq	ra,gp,0x2bec
    2bec:	e04ff16f          	jal	sp,0x21f0
    2bf0:	8ee17113          	andi	sp,sp,-1810
    2bf4:	fdf8a417          	auipc	s0,0xfdf8a
    2bf8:	0021d313          	srli	t1,gp,0x2
    2bfc:	00330333          	add	t1,t1,gp
    2c00:	002150b3          	srl	ra,sp,sp
    2c04:	00231733          	sll	a4,t1,sp
    2c08:	0171109b          	slliw	ra,sp,0x17
    2c0c:	611c21b7          	lui	gp,0x611c2
    2c10:	22524117          	auipc	sp,0x22524
    2c14:	401c01bb          	subw	gp,s8,ra
    2c18:	18608193          	addi	gp,ra,390 # 0xffffffffac582186
    2c1c:	40b1531b          	sraiw	t1,sp,0xb
    2c20:	4041013b          	subw	sp,sp,tp
    2c24:	00011293          	slli	t0,sp,0x0
    2c28:	eeddf097          	auipc	ra,0xeeddf
    2c2c:	40218133          	sub	sp,gp,sp
    2c30:	0081511b          	srliw	sp,sp,0x8
    2c34:	0011543b          	srlw	s0,sp,ra
    2c38:	39685097          	auipc	ra,0x39685
    2c3c:	03a88ab7          	lui	s5,0x3a88
    2c40:	022af0b3          	remu	ra,s5,sp
    2c44:	402181bb          	subw	gp,gp,sp
    2c48:	001107bb          	addw	a5,sp,ra
    2c4c:	407350bb          	sraw	ra,t1,t2
    2c50:	402080b3          	sub	ra,ra,sp
    2c54:	1ee24113          	xori	sp,tp,494
    2c58:	dd13e0b7          	lui	ra,0xdd13e
    2c5c:	9b9bb197          	auipc	gp,0x9b9bb
    2c60:	4013d1b3          	sra	gp,t2,ra
    2c64:	974ce1b7          	lui	gp,0x974ce
    2c68:	0030b133          	sltu	sp,ra,gp
    2c6c:	0cb1019b          	addiw	gp,sp,203
    2c70:	45555037          	lui	zero,0x45555
    2c74:	11347197          	auipc	gp,0x11347
    2c78:	405150b3          	sra	ra,sp,t0
    2c7c:	00000597          	auipc	a1,0x0
    2c80:	008580e7          	jalr	8(a1) # 0x2c84
    2c84:	01a11193          	slli	gp,sp,0x1a
    2c88:	01909013          	slli	zero,ra,0x19
    2c8c:	4021d13b          	sraw	sp,gp,sp
    2c90:	0050511b          	srliw	sp,zero,0x5
    2c94:	f970e193          	ori	gp,ra,-105
    2c98:	0231f0b3          	remu	ra,gp,gp
    2c9c:	00e1119b          	slliw	gp,sp,0xe
    2ca0:	0010b133          	sltu	sp,ra,ra
    2ca4:	6b2b31b7          	lui	gp,0x6b2b3
    2ca8:	00318133          	add	sp,gp,gp
    2cac:	21a0e093          	ori	ra,ra,538
    2cb0:	c741a397          	auipc	t2,0xc741a
    2cb4:	1f7ae097          	auipc	ra,0x1f7ae
    2cb8:	0021113b          	sllw	sp,sp,sp
    2cbc:	40505133          	sra	sp,zero,t0
    2cc0:	0061813b          	addw	sp,gp,t1
    2cc4:	0001121b          	slliw	tp,sp,0x0
    2cc8:	00fba0b7          	lui	ra,0xfba
    2ccc:	0041a1b3          	slt	gp,gp,tp
    2cd0:	19144397          	auipc	t2,0x19144
    2cd4:	d251019b          	addiw	gp,sp,-731
    2cd8:	02911213          	slli	tp,sp,0x29
    2cdc:	1266f097          	auipc	ra,0x1266f
    2ce0:	00116133          	or	sp,sp,ra
    2ce4:	e7e01197          	auipc	gp,0xe7e01
    2ce8:	4061033b          	subw	t1,sp,t1
    2cec:	001680bb          	addw	ra,a3,ra
    2cf0:	d691e093          	ori	ra,gp,-663
    2cf4:	931b3037          	lui	zero,0x931b3
    2cf8:	023050b3          	divu	ra,zero,gp
    2cfc:	f706a393          	slti	t2,a3,-144
    2d00:	7c30811b          	addiw	sp,ra,1987
    2d04:	e55ab7b7          	lui	a5,0xe55ab
    2d08:	ee20b193          	sltiu	gp,ra,-286
    2d0c:	0250d333          	divu	t1,ra,t0
    2d10:	9a200ee3          	beq	zero,sp,0x26cc
    2d14:	9b9ff0ef          	jal	ra,0x26cc
    2d18:	a25e50b7          	lui	ra,0xa25e5
    2d1c:	0050d1b3          	srl	gp,ra,t0
    2d20:	a9a08093          	addi	ra,ra,-1382 # 0xffffffffa25e4a9a
    2d24:	0121121b          	slliw	tp,sp,0x12
    2d28:	8c986137          	lui	sp,0x8c986
    2d2c:	bf38e117          	auipc	sp,0xbf38e
    2d30:	0050dd13          	srli	s10,ra,0x5
    2d34:	0221f133          	remu	sp,gp,sp
    2d38:	24108113          	addi	sp,ra,577
    2d3c:	24708113          	addi	sp,ra,583
    2d40:	0021c3b3          	xor	t2,gp,sp
    2d44:	4041d333          	sra	t1,gp,tp
    2d48:	7831019b          	addiw	gp,sp,1923
    2d4c:	e45880b7          	lui	ra,0xe4588
    2d50:	02117bb3          	remu	s7,sp,ra
    2d54:	30833093          	sltiu	ra,t1,776
    2d58:	001121b3          	slt	gp,sp,ra
    2d5c:	3ecf8197          	auipc	gp,0x3ecf8
    2d60:	42a05193          	srai	gp,zero,0x2a
    2d64:	0011c0b3          	xor	ra,gp,ra
    2d68:	200de037          	lui	zero,0x200de
    2d6c:	95b8d097          	auipc	ra,0x95b8d
    2d70:	40118133          	sub	sp,gp,ra
    2d74:	002160b3          	or	ra,sp,sp
    2d78:	002090b3          	sll	ra,ra,sp
    2d7c:	ed519097          	auipc	ra,0xed519
    2d80:	55c54137          	lui	sp,0x55c54
    2d84:	01208113          	addi	sp,ra,18 # 0xffffffffed51bd8e
    2d88:	0071109b          	slliw	ra,sp,0x7
    2d8c:	d1012113          	slti	sp,sp,-752
    2d90:	14d13113          	sltiu	sp,sp,333
    2d94:	4062d19b          	sraiw	gp,t0,0x6
    2d98:	64308063          	beq	ra,gp,0x33d8
    2d9c:	63c000ef          	jal	ra,0x33d8
    2da0:	026101b3          	mul	gp,sp,t1
    2da4:	cae9e137          	lui	sp,0xcae9e
    2da8:	b8732137          	lui	sp,0xb8732
    2dac:	007091b3          	sll	gp,ra,t2
    2db0:	0010c133          	xor	sp,ra,ra
    2db4:	4baac7b7          	lui	a5,0x4baac
    2db8:	1341019b          	addiw	gp,sp,308
    2dbc:	43923137          	lui	sp,0x43923
    2dc0:	02118533          	mul	a0,gp,ra
    2dc4:	bb176137          	lui	sp,0xbb176
    2dc8:	0010919b          	slliw	gp,ra,0x1
    2dcc:	61e13093          	sltiu	ra,sp,1566
    2dd0:	4bb0e097          	auipc	ra,0x4bb0e
    2dd4:	9e805097          	auipc	ra,0x9e805
    2dd8:	0003d0b3          	srl	ra,t2,zero
    2ddc:	0021523b          	srlw	tp,sp,sp
    2de0:	003180b3          	add	ra,gp,gp
    2de4:	0190919b          	slliw	gp,ra,0x19
    2de8:	0001d1bb          	srlw	gp,gp,zero
    2dec:	98114113          	xori	sp,sp,-1663
    2df0:	0221e133          	rem	sp,gp,sp
    2df4:	5c20819b          	addiw	gp,ra,1474
    2df8:	022140b3          	div	ra,sp,sp
    2dfc:	0182911b          	slliw	sp,t0,0x18
    2e00:	00312133          	slt	sp,sp,gp
    2e04:	8d9a6097          	auipc	ra,0x8d9a6
    2e08:	0020929b          	slliw	t0,ra,0x2
    2e0c:	37092237          	lui	tp,0x37092
    2e10:	0213d1b3          	divu	gp,t2,ra
    2e14:	69fcc237          	lui	tp,0x69fcc
    2e18:	0020d09b          	srliw	ra,ra,0x2
    2e1c:	0021c133          	xor	sp,gp,sp
    2e20:	007133b3          	sltu	t2,sp,t2
    2e24:	4233d193          	srai	gp,t2,0x23
    2e28:	2ac9b097          	auipc	ra,0x2ac9b
    2e2c:	ee2176e3          	bgeu	sp,sp,0x2d18
    2e30:	ee2164e3          	bltu	sp,sp,0x2d18
    2e34:	0081911b          	slliw	sp,gp,0x8
    2e38:	002093bb          	sllw	t2,ra,sp
    2e3c:	0c214093          	xori	ra,sp,194
    2e40:	ee40f1b7          	lui	gp,0xee40f
    2e44:	02214133          	div	sp,sp,sp
    2e48:	02d24013          	xori	zero,tp,45
    2e4c:	03015093          	srli	ra,sp,0x30
    2e50:	001011b3          	sll	gp,zero,ra
    2e54:	0232f0b3          	remu	ra,t0,gp
    2e58:	9063801b          	addiw	zero,t2,-1786
    2e5c:	bcc700b7          	lui	ra,0xbcc70
    2e60:	c95d81b7          	lui	gp,0xc95d8
    2e64:	4111d093          	srai	ra,gp,0x11
    2e68:	0040d8b3          	srl	a7,ra,tp
    2e6c:	6de38137          	lui	sp,0x6de38
    2e70:	1efaf1b7          	lui	gp,0x1efaf
    2e74:	10b1b793          	sltiu	a5,gp,267
    2e78:	400150b3          	sra	ra,sp,zero
    2e7c:	c04521b7          	lui	gp,0xc0452
    2e80:	7051c193          	xori	gp,gp,1797
    2e84:	02316133          	rem	sp,sp,gp
    2e88:	02214133          	div	sp,sp,sp
    2e8c:	023101b3          	mul	gp,sp,gp
    2e90:	001100bb          	addw	ra,sp,ra
    2e94:	3e0bc117          	auipc	sp,0x3e0bc
    2e98:	0091913b          	sllw	sp,gp,s1
    2e9c:	9ed3821b          	addiw	tp,t2,-1555
    2ea0:	8fa49117          	auipc	sp,0x8fa49
    2ea4:	0220d1b3          	divu	gp,ra,sp
    2ea8:	00208133          	add	sp,ra,sp
    2eac:	4010d033          	sra	zero,ra,ra
    2eb0:	56f0b193          	sltiu	gp,ra,1391
    2eb4:	2ee36097          	auipc	ra,0x2ee36
    2eb8:	003192b3          	sll	t0,gp,gp
    2ebc:	41e0d11b          	sraiw	sp,ra,0x1e
    2ec0:	003190b3          	sll	ra,gp,gp
    2ec4:	00238263          	beq	t2,sp,0x2ec8
    2ec8:	0790016f          	jal	sp,0x3740
    2ecc:	03c10133          	mul	sp,sp,t3
    2ed0:	b860831b          	addiw	t1,ra,-1146
    2ed4:	0010803b          	addw	zero,ra,ra
    2ed8:	9740b113          	sltiu	sp,ra,-1676
    2edc:	4060d1bb          	sraw	gp,ra,t1
    2ee0:	00117333          	and	t1,sp,ra
    2ee4:	02317e33          	remu	t3,sp,gp
    2ee8:	000081b3          	add	gp,ra,zero
    2eec:	022070b3          	remu	ra,zero,sp
    2ef0:	407351bb          	sraw	gp,t1,t2
    2ef4:	00319133          	sll	sp,gp,gp
    2ef8:	0010f0b3          	and	ra,ra,ra
    2efc:	0032503b          	srlw	zero,tp,gp
    2f00:	0031f933          	and	s2,gp,gp
    2f04:	03a160b3          	rem	ra,sp,s10
    2f08:	0052f0b3          	and	ra,t0,t0
    2f0c:	007150bb          	srlw	ra,sp,t2
    2f10:	55551137          	lui	sp,0x55551
    2f14:	401101b3          	sub	gp,sp,ra
    2f18:	01e2131b          	slliw	t1,tp,0x1e
    2f1c:	0023d113          	srli	sp,t2,0x2
    2f20:	0030f133          	and	sp,ra,gp
    2f24:	0016f1b3          	and	gp,a3,ra
    2f28:	c20b6137          	lui	sp,0xc20b6
    2f2c:	003111b3          	sll	gp,sp,gp
    2f30:	001f1133          	sll	sp,t5,ra
    2f34:	0021cfb3          	xor	t6,gp,sp
    2f38:	009681bb          	addw	gp,a3,s1
    2f3c:	eec14013          	xori	zero,sp,-276
    2f40:	617a30b7          	lui	ra,0x617a3
    2f44:	0182529b          	srliw	t0,tp,0x18
    2f48:	be80f113          	andi	sp,ra,-1048
    2f4c:	1c7d8137          	lui	sp,0x1c7d8
    2f50:	16610113          	addi	sp,sp,358 # 0x1c7d8166
    2f54:	0021b133          	sltu	sp,gp,sp
    2f58:	002193b3          	sll	t2,gp,sp
    2f5c:	00030193          	mv	gp,t1
    2f60:	ec618ae3          	beq	gp,t1,0x2e34
    2f64:	47870197          	auipc	gp,0x47870
    2f68:	ac3d4137          	lui	sp,0xac3d4
    2f6c:	006910bb          	sllw	ra,s2,t1
    2f70:	002061b3          	or	gp,zero,sp
    2f74:	54d17193          	andi	gp,sp,1357
    2f78:	0023f133          	and	sp,t2,sp
    2f7c:	00318133          	add	sp,gp,gp
    2f80:	0020d8b3          	srl	a7,ra,sp
    2f84:	41b1d09b          	sraiw	ra,gp,0x1b
    2f88:	0043519b          	srliw	gp,t1,0x4
    2f8c:	024340b3          	div	ra,t1,tp
    2f90:	8a10e093          	ori	ra,ra,-1887
    2f94:	a093829b          	addiw	t0,t2,-1527
    2f98:	0132119b          	slliw	gp,tp,0x13
    2f9c:	e130a113          	slti	sp,ra,-493
    2fa0:	3ed1e113          	ori	sp,gp,1005
    2fa4:	d32a0217          	auipc	tp,0xd32a0
    2fa8:	01b11093          	slli	ra,sp,0x1b
    2fac:	0210c1b3          	div	gp,ra,ra
    2fb0:	02015033          	divu	zero,sp,zero
    2fb4:	03909093          	slli	ra,ra,0x39
    2fb8:	00309133          	sll	sp,ra,gp
    2fbc:	002101bb          	addw	gp,sp,sp
    2fc0:	007110b3          	sll	ra,sp,t2
    2fc4:	2ce0e093          	ori	ra,ra,718
    2fc8:	0030c3b3          	xor	t2,ra,gp
    2fcc:	406100bb          	subw	ra,sp,t1
    2fd0:	db799117          	auipc	sp,0xdb799
    2fd4:	001201b3          	add	gp,tp,ra
    2fd8:	02809193          	slli	gp,ra,0x28
    2fdc:	003181b3          	add	gp,gp,gp
    2fe0:	0061c333          	xor	t1,gp,t1
    2fe4:	ea7ea337          	lui	t1,0xea7ea
    2fe8:	6ad7f1b7          	lui	gp,0x6ad7f
    2fec:	402150bb          	sraw	ra,sp,sp
    2ff0:	01c1109b          	slliw	ra,sp,0x1c
    2ff4:	0221c2b3          	div	t0,gp,sp
    2ff8:	4011d133          	sra	sp,gp,ra
    2ffc:	46220663          	beq	tp,sp,0x3468
    3000:	468001ef          	jal	gp,0x3468
    3004:	4071511b          	sraiw	sp,sp,0x7
    3008:	40305233          	sra	tp,zero,gp
    300c:	00e1801b          	addiw	zero,gp,14
    3010:	3b31819b          	addiw	gp,gp,947
    3014:	00111193          	slli	gp,sp,0x1
    3018:	b640f0b7          	lui	ra,0xb640f
    301c:	aa46a137          	lui	sp,0xaa46a
    3020:	d4c17113          	andi	sp,sp,-692
    3024:	0231d133          	divu	sp,gp,gp
    3028:	73b2b1b7          	lui	gp,0x73b2b
    302c:	b78ce117          	auipc	sp,0xb78ce
    3030:	0011a2b3          	slt	t0,gp,ra
    3034:	b6052137          	lui	sp,0xb6052
    3038:	de61b093          	sltiu	ra,gp,-538
    303c:	0183161b          	slliw	a2,t1,0x18
    3040:	0011c133          	xor	sp,gp,ra
    3044:	02d19213          	slli	tp,gp,0x2d
    3048:	5f316313          	ori	t1,sp,1523
    304c:	0023b033          	sltu	zero,t2,sp
    3050:	8130c337          	lui	t1,0x8130c
    3054:	0220d133          	divu	sp,ra,sp
    3058:	00509333          	sll	t1,ra,t0
    305c:	0021c133          	xor	sp,gp,sp
    3060:	2d23a1b7          	lui	gp,0x2d23a
    3064:	001081bb          	addw	gp,ra,ra
    3068:	0030513b          	srlw	sp,zero,gp
    306c:	00314333          	xor	t1,sp,gp
    3070:	0221d0b3          	divu	ra,gp,sp
    3074:	0113d09b          	srliw	ra,t2,0x11
    3078:	a7d12093          	slti	ra,sp,-1411
    307c:	2a70809b          	addiw	ra,ra,679
    3080:	0d78b193          	sltiu	gp,a7,215
    3084:	401a50b3          	sra	ra,s4,ra
    3088:	0021119b          	slliw	gp,sp,0x2
    308c:	12219663          	bne	gp,sp,0x31b8
    3090:	12218463          	beq	gp,sp,0x31b8
    3094:	0014d1b3          	srl	gp,s1,ra
    3098:	179936b7          	lui	a3,0x17993
    309c:	6e718793          	addi	a5,gp,1767 # 0x2d23a6e7
    30a0:	0111d0bb          	srlw	ra,gp,a7
    30a4:	0172519b          	srliw	gp,tp,0x17
    30a8:	e7db1097          	auipc	ra,0xe7db1
    30ac:	414e509b          	sraiw	ra,t3,0x14
    30b0:	f6a27137          	lui	sp,0xf6a27
    30b4:	0020e7b3          	or	a5,ra,sp
    30b8:	407150b3          	sra	ra,sp,t2
    30bc:	02010133          	mul	sp,sp,zero
    30c0:	6620e193          	ori	gp,ra,1634
    30c4:	99d0e013          	ori	zero,ra,-1635
    30c8:	8d600093          	li	ra,-1834
    30cc:	02c0d113          	srli	sp,ra,0x2c
    30d0:	16496137          	lui	sp,0x16496
    30d4:	40310eb3          	sub	t4,sp,gp
    30d8:	998bb197          	auipc	gp,0x998bb
    30dc:	d8c1b193          	sltiu	gp,gp,-628
    30e0:	8498d137          	lui	sp,0x8498d
    30e4:	1b527117          	auipc	sp,0x1b527
    30e8:	7d5c6117          	auipc	sp,0x7d5c6
    30ec:	4070d9bb          	sraw	s3,ra,t2
    30f0:	73f8a137          	lui	sp,0x73f8a
    30f4:	0021f1b3          	and	gp,gp,sp
    30f8:	707e5117          	auipc	sp,0x707e5
    30fc:	40208133          	sub	sp,ra,sp
    3100:	0231c7b3          	div	a5,gp,gp
    3104:	ce8c1017          	auipc	zero,0xce8c1
    3108:	6e451097          	auipc	ra,0x6e451
    310c:	f6f09297          	auipc	t0,0xf6f09
    3110:	ce783f17          	auipc	t5,0xce783
    3114:	00214233          	xor	tp,sp,sp
    3118:	0021d2b3          	srl	t0,gp,sp
    311c:	729a4117          	auipc	sp,0x729a4
    3120:	9501a113          	slti	sp,gp,-1712
    3124:	0181901b          	slliw	zero,gp,0x18
    3128:	11b08113          	addi	sp,ra,283 # 0x6e454223
    312c:	0047003b          	addw	zero,a4,tp
    3130:	18309663          	bne	ra,gp,0x32bc
    3134:	18308463          	beq	ra,gp,0x32bc
    3138:	403289bb          	subw	s3,t0,gp
    313c:	bc6801b7          	lui	gp,0xbc680
    3140:	401180b3          	sub	ra,gp,ra
    3144:	0021e133          	or	sp,gp,sp
    3148:	bbe3b117          	auipc	sp,0xbbe3b
    314c:	004a11b3          	sll	gp,s4,tp
    3150:	6ab323b7          	lui	t2,0x6ab32
    3154:	ae318093          	addi	ra,gp,-1309 # 0xffffffffbc67fae3
    3158:	0041d133          	srl	sp,gp,tp
    315c:	000ce133          	or	sp,s9,zero
    3160:	5eb08093          	addi	ra,ra,1515
    3164:	4031503b          	sraw	zero,sp,gp
    3168:	0031833b          	addw	t1,gp,gp
    316c:	02108133          	mul	sp,ra,ra
    3170:	4e412093          	slti	ra,sp,1252
    3174:	c221f593          	andi	a1,gp,-990
    3178:	4113509b          	sraiw	ra,t1,0x11
    317c:	0041919b          	slliw	gp,gp,0x4
    3180:	a972e097          	auipc	ra,0xa972e
    3184:	001102bb          	addw	t0,sp,ra
    3188:	7c8b0097          	auipc	ra,0x7c8b0
    318c:	006161b3          	or	gp,sp,t1
    3190:	002330b3          	sltu	ra,t1,sp
    3194:	401481b3          	sub	gp,s1,ra
    3198:	01c2119b          	slliw	gp,tp,0x1c
    319c:	41a15193          	srai	gp,sp,0x1a
    31a0:	0261d133          	divu	sp,gp,t1
    31a4:	0051513b          	srlw	sp,sp,t0
    31a8:	410181bb          	subw	gp,gp,a6
    31ac:	0201c133          	div	sp,gp,zero
    31b0:	00030093          	mv	ra,t1
    31b4:	34608063          	beq	ra,t1,0x34f4
    31b8:	02511393          	slli	t2,sp,0x25
    31bc:	b290e193          	ori	gp,ra,-1239
    31c0:	302d2137          	lui	sp,0x302d2
    31c4:	000151bb          	srlw	gp,sp,zero
    31c8:	0031b0b3          	sltu	ra,gp,gp
    31cc:	0020a1b3          	slt	gp,ra,sp
    31d0:	89ed33b7          	lui	t2,0x89ed3
    31d4:	00481133          	sll	sp,a6,tp
    31d8:	030262b3          	rem	t0,tp,a6
    31dc:	001150bb          	srlw	ra,sp,ra
    31e0:	283a4117          	auipc	sp,0x283a4
    31e4:	001128b3          	slt	a7,sp,ra
    31e8:	d61e3397          	auipc	t2,0xd61e3
    31ec:	402380b3          	sub	ra,t2,sp
    31f0:	0120131b          	slliw	t1,zero,0x12
    31f4:	fdd0b493          	sltiu	s1,ra,-35
    31f8:	b0c7d017          	auipc	zero,0xb0c7d
    31fc:	bbc1a113          	slti	sp,gp,-1092
    3200:	03a5d213          	srli	tp,a1,0x3a
    3204:	3dd45117          	auipc	sp,0x3dd45
    3208:	4075d03b          	sraw	zero,a1,t2
    320c:	b5512093          	slti	ra,sp,-1195
    3210:	41c0d39b          	sraiw	t2,ra,0x1c
    3214:	61907113          	andi	sp,zero,1561
    3218:	003152bb          	srlw	t0,sp,gp
    321c:	022003b3          	mul	t2,zero,sp
    3220:	4002513b          	sraw	sp,tp,zero
    3224:	0032c0b3          	xor	ra,t0,gp
    3228:	00129fbb          	sllw	t6,t0,ra
    322c:	00220133          	add	sp,tp,sp
    3230:	1ebf6517          	auipc	a0,0x1ebf6
    3234:	b66086e3          	beq	ra,t1,0x2da0
    3238:	b69ff1ef          	jal	gp,0x2da0
    323c:	3351e093          	ori	ra,gp,821
    3240:	b12e9117          	auipc	sp,0xb12e9
    3244:	0170d09b          	srliw	ra,ra,0x17
    3248:	00109133          	sll	sp,ra,ra
    324c:	c8918113          	addi	sp,gp,-887
    3250:	19bf31b7          	lui	gp,0x19bf3
    3254:	00217b33          	and	s6,sp,sp
    3258:	e3ea1097          	auipc	ra,0xe3ea1
    325c:	0010d13b          	srlw	sp,ra,ra
    3260:	0241d0b3          	divu	ra,gp,tp
    3264:	0270ee33          	rem	t3,ra,t2
    3268:	40e25313          	srai	t1,tp,0xe
    326c:	4030d133          	sra	sp,ra,gp
    3270:	0210e0b3          	rem	ra,ra,ra
    3274:	5aab81b7          	lui	gp,0x5aab8
    3278:	f4048097          	auipc	ra,0xf4048
    327c:	d552a113          	slti	sp,t0,-683
    3280:	3fb7b117          	auipc	sp,0x3fb7b
    3284:	0232f3b3          	remu	t2,t0,gp
    3288:	0001911b          	slliw	sp,gp,0x0
    328c:	2233b093          	sltiu	ra,t2,547
    3290:	406180b3          	sub	ra,gp,t1
    3294:	002283b3          	add	t2,t0,sp
    3298:	0031e133          	or	sp,gp,gp
    329c:	d3b121b7          	lui	gp,0xd3b12
    32a0:	404100b3          	sub	ra,sp,tp
    32a4:	b151b093          	sltiu	ra,gp,-1259
    32a8:	4931b093          	sltiu	ra,gp,1171
    32ac:	79510093          	addi	ra,sp,1941 # 0x3fb7ea15
    32b0:	4170d113          	srai	sp,ra,0x17
    32b4:	00000797          	auipc	a5,0x0
    32b8:	c18781e7          	jalr	gp,-1000(a5) # 0x2ecc
    32bc:	004ad11b          	srliw	sp,s5,0x4
    32c0:	9f043237          	lui	tp,0x9f043
    32c4:	4af33117          	auipc	sp,0x4af33
    32c8:	40d05193          	srai	gp,zero,0xd
    32cc:	4081521b          	sraiw	tp,sp,0x8
    32d0:	00218233          	add	tp,gp,sp
    32d4:	00f279b3          	and	s3,tp,a5
    32d8:	68c640b7          	lui	ra,0x68c64
    32dc:	59c40697          	auipc	a3,0x59c40
    32e0:	012101bb          	addw	gp,sp,s2
    32e4:	02124133          	div	sp,tp,ra
    32e8:	0192d193          	srli	gp,t0,0x19
    32ec:	d54b81b7          	lui	gp,0xd54b8
    32f0:	64c6a093          	slti	ra,a3,1612
    32f4:	412280bb          	subw	ra,t0,s2
    32f8:	000310bb          	sllw	ra,t1,zero
    32fc:	4171531b          	sraiw	t1,sp,0x17
    3300:	0001509b          	srliw	ra,sp,0x0
    3304:	7ea70417          	auipc	s0,0x7ea70
    3308:	0232c1b3          	div	gp,t0,gp
    330c:	0246e1b3          	rem	gp,a3,tp
    3310:	01b0919b          	slliw	gp,ra,0x1b
    3314:	0012e1b3          	or	gp,t0,ra
    3318:	4040d0bb          	sraw	ra,ra,tp
    331c:	01a2109b          	slliw	ra,tp,0x1a
    3320:	beb13117          	auipc	sp,0xbeb13
    3324:	0010d0bb          	srlw	ra,ra,ra
    3328:	000190b3          	sll	ra,gp,zero
    332c:	014163b3          	or	t2,sp,s4
    3330:	000031b3          	snez	gp,zero
    3334:	3691da63          	bge	gp,s1,0x36a8
    3338:	3691c863          	blt	gp,s1,0x36a8
    333c:	3f515137          	lui	sp,0x3f515
    3340:	002181b3          	add	gp,gp,sp
    3344:	001081b3          	add	gp,ra,ra
    3348:	021141b3          	div	gp,sp,ra
    334c:	c0dfa097          	auipc	ra,0xc0dfa
    3350:	0230e333          	rem	t1,ra,gp
    3354:	4090d1b3          	sra	gp,ra,s1
    3358:	03509113          	slli	sp,ra,0x35
    335c:	00218133          	add	sp,gp,sp
    3360:	0160a093          	slti	ra,ra,22
    3364:	02204133          	div	sp,zero,sp
    3368:	00109693          	slli	a3,ra,0x1
    336c:	f9cc9117          	auipc	sp,0xf9cc9
    3370:	003210bb          	sllw	ra,tp,gp
    3374:	7b75c113          	xori	sp,a1,1975
    3378:	7cd5e237          	lui	tp,0x7cd5e
    337c:	b281b0b7          	lui	ra,0xb281b
    3380:	402204bb          	subw	s1,tp,sp
    3384:	0210c1b3          	div	gp,ra,ra
    3388:	83113193          	sltiu	gp,sp,-1999
    338c:	0012119b          	slliw	gp,tp,0x1
    3390:	b1112013          	slti	zero,sp,-1263
    3394:	b9e3b097          	auipc	ra,0xb9e3b
    3398:	1027c3b7          	lui	t2,0x1027c
    339c:	0270c1b3          	div	gp,ra,t2
    33a0:	a1810113          	addi	sp,sp,-1512 # 0xfffffffff9ccbd84
    33a4:	d6b24313          	xori	t1,tp,-661
    33a8:	59f1809b          	addiw	ra,gp,1439
    33ac:	3c5a6f37          	lui	t5,0x3c5a6
    33b0:	0030d13b          	srlw	sp,ra,gp
    33b4:	fd69d097          	auipc	ra,0xfd69d
    33b8:	4170813b          	subw	sp,ra,s7
    33bc:	0050911b          	slliw	sp,ra,0x5
    33c0:	78808c9b          	addiw	s9,ra,1928
    33c4:	0010f133          	and	sp,ra,ra
    33c8:	a6287237          	lui	tp,0xa6287
    33cc:	01f1949b          	slliw	s1,gp,0x1f
    33d0:	00030393          	mv	t2,t1
    33d4:	e66384e3          	beq	t2,t1,0x323c
    33d8:	00d090bb          	sllw	ra,ra,a3
    33dc:	76f33113          	sltiu	sp,t1,1903
    33e0:	0503811b          	addiw	sp,t2,80
    33e4:	28e160b7          	lui	ra,0x28e16
    33e8:	a9d2d317          	auipc	t1,0xa9d2d
    33ec:	05a734b7          	lui	s1,0x5a73
    33f0:	7cb1f113          	andi	sp,gp,1995
    33f4:	40e0d11b          	sraiw	sp,ra,0xe
    33f8:	401086bb          	subw	a3,ra,ra
    33fc:	0020e1b3          	or	gp,ra,sp
    3400:	00e1121b          	slliw	tp,sp,0xe
    3404:	fe1c10b7          	lui	ra,0xfe1c1
    3408:	01711333          	sll	t1,sp,s7
    340c:	b777e397          	auipc	t2,0xb777e
    3410:	0173d19b          	srliw	gp,t2,0x17
    3414:	003180b3          	add	ra,gp,gp
    3418:	0211e133          	rem	sp,gp,ra
    341c:	400880b3          	sub	ra,a7,zero
    3420:	99010093          	addi	ra,sp,-1648
    3424:	021340b3          	div	ra,t1,ra
    3428:	00b1509b          	srliw	ra,sp,0xb
    342c:	84b13093          	sltiu	ra,sp,-1973
    3430:	401150bb          	sraw	ra,sp,ra
    3434:	53b601b7          	lui	gp,0x53b60
    3438:	4030523b          	sraw	tp,zero,gp
    343c:	00513333          	sltu	t1,sp,t0
    3440:	fec73117          	auipc	sp,0xfec73
    3444:	267b8017          	auipc	zero,0x267b8
    3448:	402051bb          	sraw	gp,zero,sp
    344c:	022140b3          	div	ra,sp,sp
    3450:	0200e133          	rem	sp,ra,zero
    3454:	0011919b          	slliw	gp,gp,0x1
    3458:	0002a233          	sltz	tp,t0
    345c:	ec6991b7          	lui	gp,0xec699
    3460:	00000317          	auipc	t1,0x0
    3464:	1b4301e7          	jalr	gp,436(t1) # 0x3614
    3468:	a140c393          	xori	t2,ra,-1516
    346c:	4142d133          	sra	sp,t0,s4
    3470:	00c0d09b          	srliw	ra,ra,0xc
    3474:	3a612193          	slti	gp,sp,934
    3478:	026350b3          	divu	ra,t1,t1
    347c:	9779b137          	lui	sp,0x9779b
    3480:	2c914193          	xori	gp,sp,713
    3484:	ffd03397          	auipc	t2,0xffd03
    3488:	bfe29117          	auipc	sp,0xbfe29
    348c:	4941001b          	addiw	zero,sp,1172
    3490:	1d52b097          	auipc	ra,0x1d52b
    3494:	24a040b7          	lui	ra,0x24a04
    3498:	407380bb          	subw	ra,t2,t2
    349c:	42470b97          	auipc	s7,0x42470
    34a0:	0211e1b3          	rem	gp,gp,ra
    34a4:	0171111b          	slliw	sp,sp,0x17
    34a8:	1b52b197          	auipc	gp,0x1b52b
    34ac:	0041509b          	srliw	ra,sp,0x4
    34b0:	0031e0b3          	or	ra,gp,gp
    34b4:	49b0c113          	xori	sp,ra,1179
    34b8:	5b788037          	lui	zero,0x5b788
    34bc:	0011d033          	srl	zero,gp,ra
    34c0:	88602093          	slti	ra,zero,-1914
    34c4:	3ab6f0b7          	lui	ra,0x3ab6f
    34c8:	7cb0c937          	lui	s2,0x7cb0c
    34cc:	02315233          	divu	tp,sp,gp
    34d0:	4021d3b3          	sra	t2,gp,sp
    34d4:	66e16113          	ori	sp,sp,1646
    34d8:	4032d1b3          	sra	gp,t0,gp
    34dc:	81266137          	lui	sp,0x81266
    34e0:	0031933b          	sllw	t1,gp,gp
    34e4:	00109113          	slli	sp,ra,0x1
    34e8:	00e1109b          	slliw	ra,sp,0xe
    34ec:	08118e63          	beq	gp,ra,0x3588
    34f0:	098000ef          	jal	ra,0x3588
    34f4:	0023a0b3          	slt	ra,t2,sp
    34f8:	0020b6b3          	sltu	a3,ra,sp
    34fc:	e6f1011b          	addiw	sp,sp,-401
    3500:	077a2237          	lui	tp,0x77a2
    3504:	f211841b          	addiw	s0,gp,-223
    3508:	de4ba6b7          	lui	a3,0xde4ba
    350c:	b4803093          	sltiu	ra,zero,-1208
    3510:	0250d1b3          	divu	gp,ra,t0
    3514:	9f350097          	auipc	ra,0x9f350
    3518:	0212f7b3          	remu	a5,t0,ra
    351c:	401381bb          	subw	gp,t2,ra
    3520:	a8914093          	xori	ra,sp,-1399
    3524:	0030833b          	addw	t1,ra,gp
    3528:	91118193          	addi	gp,gp,-1775 # 0x1b52ddb9
    352c:	001231b3          	sltu	gp,tp,ra
    3530:	cc31b097          	auipc	ra,0xcc31b
    3534:	4011503b          	sraw	zero,sp,ra
    3538:	0221c0b3          	div	ra,gp,sp
    353c:	a0427113          	andi	sp,tp,-1532
    3540:	022180b3          	mul	ra,gp,sp
    3544:	0131901b          	slliw	zero,gp,0x13
    3548:	0030d7bb          	srlw	a5,ra,gp
    354c:	009150b3          	srl	ra,sp,s1
    3550:	023450b3          	divu	ra,s0,gp
    3554:	cd055117          	auipc	sp,0xcd055
    3558:	0050d23b          	srlw	tp,ra,t0
    355c:	4e34809b          	addiw	ra,s1,1251
    3560:	99cf3337          	lui	t1,0x99cf3
    3564:	03f09193          	slli	gp,ra,0x3f
    3568:	01b1111b          	slliw	sp,sp,0x1b
    356c:	003182bb          	addw	t0,gp,gp
    3570:	5c267113          	andi	sp,a2,1474
    3574:	0361d113          	srli	sp,gp,0x36
    3578:	d982a0b7          	lui	ra,0xd982a
    357c:	001691b3          	sll	gp,a3,ra
    3580:	b0319ae3          	bne	gp,gp,0x3094
    3584:	b03188e3          	beq	gp,gp,0x3094
    3588:	811d0097          	auipc	ra,0x811d0
    358c:	01179113          	slli	sp,a5,0x11
    3590:	02115233          	divu	tp,sp,ra
    3594:	6720f593          	andi	a1,ra,1650
    3598:	68ada917          	auipc	s2,0x68ada
    359c:	4031d1bb          	sraw	gp,gp,gp
    35a0:	0011a1b3          	slt	gp,gp,ra
    35a4:	03409093          	slli	ra,ra,0x34
    35a8:	4028d0bb          	sraw	ra,a7,sp
    35ac:	405050b3          	sra	ra,zero,t0
    35b0:	00b1539b          	srliw	t2,sp,0xb
    35b4:	03111193          	slli	gp,sp,0x31
    35b8:	00113133          	sltu	sp,sp,ra
    35bc:	005191bb          	sllw	gp,gp,t0
    35c0:	97312093          	slti	ra,sp,-1677
    35c4:	0004d33b          	srlw	t1,s1,zero
    35c8:	6913f113          	andi	sp,t2,1681
    35cc:	01c0d113          	srli	sp,ra,0x1c
    35d0:	46bb6117          	auipc	sp,0x46bb6
    35d4:	4181511b          	sraiw	sp,sp,0x18
    35d8:	0031113b          	sllw	sp,sp,gp
    35dc:	0111119b          	slliw	gp,sp,0x11
    35e0:	38f1831b          	addiw	t1,gp,911
    35e4:	001080b3          	add	ra,ra,ra
    35e8:	0591c013          	xori	zero,gp,89
    35ec:	68251017          	auipc	zero,0x68251
    35f0:	8d0db097          	auipc	ra,0x8d0db
    35f4:	401200b3          	sub	ra,tp,ra
    35f8:	0023e4b3          	or	s1,t2,sp
    35fc:	0061c5b3          	xor	a1,gp,t1
    3600:	90dfd197          	auipc	gp,0x90dfd
    3604:	e78cf2b7          	lui	t0,0xe78cf
    3608:	0033feb3          	and	t4,t2,gp
    360c:	1c217463          	bgeu	sp,sp,0x37d4
    3610:	1c216263          	bltu	sp,sp,0x37d4
    3614:	0026b0b3          	sltu	ra,a3,sp
    3618:	86fa4017          	auipc	zero,0x86fa4
    361c:	003180b3          	add	ra,gp,gp
    3620:	98d3e0b7          	lui	ra,0x98d3e
    3624:	4231d313          	srai	t1,gp,0x23
    3628:	0220d6b3          	divu	a3,ra,sp
    362c:	9490ce93          	xori	t4,ra,-1719
    3630:	a210a193          	slti	gp,ra,-1503
    3634:	1cb8a337          	lui	t1,0x1cb8a
    3638:	3d461197          	auipc	gp,0x3d461
    363c:	f208c1b7          	lui	gp,0xf208c
    3640:	00c11213          	slli	tp,sp,0xc
    3644:	4036d0bb          	sraw	ra,a3,gp
    3648:	370cf117          	auipc	sp,0x370cf
    364c:	00312133          	slt	sp,sp,gp
    3650:	02238133          	mul	sp,t2,sp
    3654:	0021a1b3          	slt	gp,gp,sp
    3658:	021080b3          	mul	ra,ra,ra
    365c:	002180bb          	addw	ra,gp,sp
    3660:	7b59b797          	auipc	a5,0x7b59b
    3664:	3cf38693          	addi	a3,t2,975 # 0xffffffffffd06853
    3668:	01d1d11b          	srliw	sp,gp,0x1d
    366c:	00ec909b          	slliw	ra,s9,0xe
    3670:	00a1913b          	sllw	sp,gp,a0
    3674:	01609313          	slli	t1,ra,0x16
    3678:	4061d1bb          	sraw	gp,gp,t1
    367c:	5ef8009b          	addiw	ra,a6,1519
    3680:	002030b3          	snez	ra,sp
    3684:	9d89a137          	lui	sp,0x9d89a
    3688:	6110c193          	xori	gp,ra,1553
    368c:	fa408317          	auipc	t1,0xfa408
    3690:	022080b3          	mul	ra,ra,sp
    3694:	914bb137          	lui	sp,0x914bb
    3698:	aaa61117          	auipc	sp,0xaaa61
    369c:	40b1519b          	sraiw	gp,sp,0xb
    36a0:	a8218ce3          	beq	gp,sp,0x3138
    36a4:	a95ff0ef          	jal	ra,0x3138
    36a8:	9332e093          	ori	ra,t0,-1741
    36ac:	0001933b          	sllw	t1,gp,zero
    36b0:	f8d04017          	auipc	zero,0xf8d04
    36b4:	02314133          	div	sp,sp,gp
    36b8:	71fdd1b7          	lui	gp,0x71fdd
    36bc:	5b4d81b7          	lui	gp,0x5b4d8
    36c0:	1041f413          	andi	s0,gp,260
    36c4:	bb222193          	slti	gp,tp,-1102
    36c8:	feea2017          	auipc	zero,0xfeea2
    36cc:	00710033          	add	zero,sp,t2
    36d0:	002091bb          	sllw	gp,ra,sp
    36d4:	7c50811b          	addiw	sp,ra,1989
    36d8:	0221e333          	rem	t1,gp,sp
    36dc:	4032d0bb          	sraw	ra,t0,gp
    36e0:	77b27093          	andi	ra,tp,1915
    36e4:	bcd071b7          	lui	gp,0xbcd07
    36e8:	4e33a0b7          	lui	ra,0x4e33a
    36ec:	9ec631b7          	lui	gp,0x9ec63
    36f0:	4052d0bb          	sraw	ra,t0,t0
    36f4:	00c2909b          	slliw	ra,t0,0xc
    36f8:	40f181bb          	subw	gp,gp,a5
    36fc:	4003d11b          	sraiw	sp,t2,0x0
    3700:	005082b3          	add	t0,ra,t0
    3704:	41b15333          	sra	t1,sp,s11
    3708:	00019093          	slli	ra,gp,0x0
    370c:	03a0df13          	srli	t5,ra,0x3a
    3710:	023de2b3          	rem	t0,s11,gp
    3714:	bed330b7          	lui	ra,0xbed33
    3718:	003150b3          	srl	ra,sp,gp
    371c:	0071b033          	sltu	zero,gp,t2
    3720:	bf11809b          	addiw	ra,gp,-1039
    3724:	01d1111b          	slliw	sp,sp,0x1d
    3728:	cb2563b7          	lui	t2,0xcb256
    372c:	9ab39237          	lui	tp,0x9ab39
    3730:	6900819b          	addiw	gp,ra,1680
    3734:	002308b3          	add	a7,t1,sp
    3738:	c02092e3          	bne	ra,sp,0x333c
    373c:	c02080e3          	beq	ra,sp,0x333c
    3740:	6b6a2137          	lui	sp,0x6b6a2
    3744:	a02d2097          	auipc	ra,0xa02d2
    3748:	8394aa17          	auipc	s4,0x8394a
    374c:	00a15113          	srli	sp,sp,0xa
    3750:	1f536013          	ori	zero,t1,501
    3754:	64c13313          	sltiu	t1,sp,1612
    3758:	718efb17          	auipc	s6,0x718ef
    375c:	40208233          	sub	tp,ra,sp
    3760:	021080b3          	mul	ra,ra,ra
    3764:	0070b0b3          	sltu	ra,ra,t2
    3768:	bcecf3b7          	lui	t2,0xbcecf
    376c:	7d33afb7          	lui	t6,0x7d33a
    3770:	0013b333          	sltu	t1,t2,ra
    3774:	02337133          	remu	sp,t1,gp
    3778:	001191bb          	sllw	gp,gp,ra
    377c:	0230d2b3          	divu	t0,ra,gp
    3780:	df0a80b7          	lui	ra,0xdf0a8
    3784:	6419f017          	auipc	zero,0x6419f
    3788:	47f1809b          	addiw	ra,gp,1151
    378c:	c14ea037          	lui	zero,0xc14ea
    3790:	ac718293          	addi	t0,gp,-1337 # 0xffffffff9ec62ac7
    3794:	001caa33          	slt	s4,s9,ra
    3798:	0213c333          	div	t1,t2,ra
    379c:	4031d0bb          	sraw	ra,gp,gp
    37a0:	02618ab3          	mul	s5,gp,t1
    37a4:	cf8d3197          	auipc	gp,0xcf8d3
    37a8:	0020d1bb          	srlw	gp,ra,sp
    37ac:	d950a313          	slti	t1,ra,-619
    37b0:	402201b3          	sub	gp,tp,sp
    37b4:	f9237137          	lui	sp,0xf9237
    37b8:	403180b3          	sub	ra,gp,gp
    37bc:	02e15013          	srli	zero,sp,0x2e
    37c0:	021100b3          	mul	ra,sp,ra
    37c4:	80ef70b7          	lui	ra,0x80ef7
    37c8:	023081b3          	mul	gp,ra,gp
    37cc:	00610263          	beq	sp,t1,0x37d0
    37d0:	f94ff0ef          	jal	ra,0x2f64
    37d4:	922991b7          	lui	gp,0x92299
    37d8:	001180bb          	addw	ra,gp,ra
    37dc:	001120b3          	slt	ra,sp,ra
    37e0:	fe9c2397          	auipc	t2,0xfe9c2
    37e4:	00219033          	sll	zero,gp,sp
    37e8:	024151b3          	divu	gp,sp,tp
    37ec:	f02b5017          	auipc	zero,0xf02b5
    37f0:	0010d2bb          	srlw	t0,ra,ra
    37f4:	0180919b          	slliw	gp,ra,0x18
    37f8:	01e08333          	add	t1,ra,t5
    37fc:	0211c0b3          	div	ra,gp,ra
    3800:	204d4117          	auipc	sp,0x204d4
    3804:	00203133          	snez	sp,sp
    3808:	00d1c1b3          	xor	gp,gp,a3
    380c:	0221d133          	divu	sp,gp,sp
    3810:	150c1597          	auipc	a1,0x150c1
    3814:	84339297          	auipc	t0,0x84339
    3818:	0012d133          	srl	sp,t0,ra
    381c:	0101909b          	slliw	ra,gp,0x10
    3820:	02c01193          	slli	gp,zero,0x2c
    3824:	029050b3          	divu	ra,zero,s1
    3828:	0201d0b3          	divu	ra,gp,zero
    382c:	4031d03b          	sraw	zero,gp,gp
    3830:	002071b3          	and	gp,zero,sp
    3834:	0011b0b3          	sltu	ra,gp,ra
    3838:	4020d233          	sra	tp,ra,sp
    383c:	402150b3          	sra	ra,sp,sp
    3840:	7d3cd0b7          	lui	ra,0x7d3cd
    3844:	407105bb          	subw	a1,sp,t2
    3848:	00915093          	srli	ra,sp,0x9
    384c:	59208193          	addi	gp,ra,1426 # 0x7d3cd592
    3850:	0200d1b3          	divu	gp,ra,zero
    3854:	42208863          	beq	ra,sp,0x3c84
    3858:	42c000ef          	jal	ra,0x3c84
    385c:	a6e261b7          	lui	gp,0xa6e26
    3860:	968b10b7          	lui	ra,0x968b1
    3864:	402050b3          	sra	ra,zero,sp
    3868:	7b51809b          	addiw	ra,gp,1973
    386c:	0020e0b3          	or	ra,ra,sp
    3870:	03e5d193          	srli	gp,a1,0x3e
    3874:	000102b3          	add	t0,sp,zero
    3878:	42512193          	slti	gp,sp,1061
    387c:	0017d0b3          	srl	ra,a5,ra
    3880:	27cc2237          	lui	tp,0x27cc2
    3884:	0223f133          	remu	sp,t2,sp
    3888:	40215133          	sra	sp,sp,sp
    388c:	00909093          	slli	ra,ra,0x9
    3890:	98a3c213          	xori	tp,t2,-1654
    3894:	02521a13          	slli	s4,tp,0x25
    3898:	5e0fb5b7          	lui	a1,0x5e0fb
    389c:	db2e11b7          	lui	gp,0xdb2e1
    38a0:	0033c1b3          	xor	gp,t2,gp
    38a4:	401100bb          	subw	ra,sp,ra
    38a8:	0020e133          	or	sp,ra,sp
    38ac:	76dd41b7          	lui	gp,0x76dd4
    38b0:	0fb63337          	lui	t1,0xfb63
    38b4:	0211d193          	srli	gp,gp,0x21
    38b8:	00123233          	sltu	tp,tp,ra
    38bc:	0070b3b3          	sltu	t2,ra,t2
    38c0:	4dc0e213          	ori	tp,ra,1244
    38c4:	0267d033          	divu	zero,a5,t1
    38c8:	023151b3          	divu	gp,sp,gp
    38cc:	5b441137          	lui	sp,0x5b441
    38d0:	40310133          	sub	sp,sp,gp
    38d4:	78f34113          	xori	sp,t1,1935
    38d8:	03f11193          	slli	gp,sp,0x3f
    38dc:	ba53a313          	slti	t1,t2,-1115
    38e0:	02134133          	div	sp,t1,ra
    38e4:	5551a093          	slti	ra,gp,1365
    38e8:	002181b3          	add	gp,gp,sp
    38ec:	022080b3          	mul	ra,ra,sp
    38f0:	0062921b          	slliw	tp,t0,0x6
    38f4:	001141b3          	xor	gp,sp,ra
    38f8:	1c61da63          	bge	gp,t1,0x3acc
    38fc:	1c61c863          	blt	gp,t1,0x3acc
    3900:	4021d13b          	sraw	sp,gp,sp
    3904:	021060b3          	rem	ra,zero,ra
    3908:	790f7097          	auipc	ra,0x790f7
    390c:	6a7b3197          	auipc	gp,0x6a7b3
    3910:	00d0b1b3          	sltu	gp,ra,a3
    3914:	0010d13b          	srlw	sp,ra,ra
    3918:	023361b3          	rem	gp,t1,gp
    391c:	0206c0b3          	div	ra,a3,zero
    3920:	022241b3          	div	gp,tp,sp
    3924:	27434113          	xori	sp,t1,628
    3928:	401181bb          	subw	gp,gp,ra
    392c:	4300d093          	srai	ra,ra,0x30
    3930:	403186b3          	sub	a3,gp,gp
    3934:	6ba8e0b7          	lui	ra,0x6ba8e
    3938:	026580b3          	mul	ra,a1,t1
    393c:	00411193          	slli	gp,sp,0x4
    3940:	4051d33b          	sraw	t1,gp,t0
    3944:	0022513b          	srlw	sp,tp,sp
    3948:	1f64e197          	auipc	gp,0x1f64e
    394c:	ad843593          	sltiu	a1,s0,-1320
    3950:	8e0ff197          	auipc	gp,0x8e0ff
    3954:	08803093          	sltiu	ra,zero,136
    3958:	021982b3          	mul	t0,s3,ra
    395c:	0181519b          	srliw	gp,sp,0x18
    3960:	76c87197          	auipc	gp,0x76c87
    3964:	0030af33          	slt	t5,ra,gp
    3968:	022151b3          	divu	gp,sp,sp
    396c:	00e01093          	slli	ra,zero,0xe
    3970:	46916093          	ori	ra,sp,1129
    3974:	b6d56117          	auipc	sp,0xb6d56
    3978:	62e15337          	lui	t1,0x62e15
    397c:	0023d13b          	srlw	sp,t2,sp
    3980:	001000bb          	addw	ra,zero,ra
    3984:	00010113          	mv	sp,sp
    3988:	46210863          	beq	sp,sp,0x3df8
    398c:	004285bb          	addw	a1,t0,tp
    3990:	01c1919b          	slliw	gp,gp,0x1c
    3994:	3f813197          	auipc	gp,0x3f813
    3998:	03f04237          	lui	tp,0x3f04
    399c:	00615233          	srl	tp,sp,t1
    39a0:	c6214193          	xori	gp,sp,-926
    39a4:	0020d0b3          	srl	ra,ra,sp
    39a8:	0070813b          	addw	sp,ra,t2
    39ac:	23cc0097          	auipc	ra,0x23cc0
    39b0:	f10d81b7          	lui	gp,0xf10d8
    39b4:	00515033          	srl	zero,sp,t0
    39b8:	b7118093          	addi	ra,gp,-1167 # 0xfffffffff10d7b71
    39bc:	27c6831b          	addiw	t1,a3,636
    39c0:	402101bb          	subw	gp,sp,sp
    39c4:	3ba83137          	lui	sp,0x3ba83
    39c8:	0040911b          	slliw	sp,ra,0x4
    39cc:	6c41a593          	slti	a1,gp,1732
    39d0:	01e19193          	slli	gp,gp,0x1e
    39d4:	0051f0b3          	and	ra,gp,t0
    39d8:	0010e0b3          	or	ra,ra,ra
    39dc:	89012093          	slti	ra,sp,-1904
    39e0:	5281e137          	lui	sp,0x5281e
    39e4:	4020d333          	sra	t1,ra,sp
    39e8:	00f2d233          	srl	tp,t0,a5
    39ec:	01811e9b          	slliw	t4,sp,0x18
    39f0:	02210bb3          	mul	s7,sp,sp
    39f4:	4021d1bb          	sraw	gp,gp,sp
    39f8:	402100bb          	subw	ra,sp,sp
    39fc:	4045d1bb          	sraw	gp,a1,tp
    3a00:	a1132113          	slti	sp,t1,-1519
    3a04:	0170909b          	slliw	ra,ra,0x17
    3a08:	5bc1a393          	slti	t2,gp,1468
    3a0c:	3f61a0b7          	lui	ra,0x3f61a
    3a10:	a5b0a0b7          	lui	ra,0xa5b0a
    3a14:	c27b8197          	auipc	gp,0xc27b8
    3a18:	004157b3          	srl	a5,sp,tp
    3a1c:	00128263          	beq	t0,ra,0x3a20
    3a20:	111001ef          	jal	gp,0x4330
    3a24:	f6f86297          	auipc	t0,0xf6f86
    3a28:	024270b3          	remu	ra,tp,tp
    3a2c:	a8f1b093          	sltiu	ra,gp,-1393
    3a30:	b8a473b7          	lui	t2,0xb8a47
    3a34:	f240b193          	sltiu	gp,ra,-220
    3a38:	953a2c37          	lui	s8,0x953a2
    3a3c:	41c1529b          	sraiw	t0,sp,0x1c
    3a40:	0231d1b3          	divu	gp,gp,gp
    3a44:	0021813b          	addw	sp,gp,sp
    3a48:	001132b3          	sltu	t0,sp,ra
    3a4c:	024151b3          	divu	gp,sp,tp
    3a50:	fc31b093          	sltiu	ra,gp,-61
    3a54:	0026b233          	sltu	tp,a3,sp
    3a58:	9fc4b8b7          	lui	a7,0x9fc4b
    3a5c:	cdf1801b          	addiw	zero,gp,-801
    3a60:	fbf0e113          	ori	sp,ra,-65
    3a64:	402180bb          	subw	ra,gp,sp
    3a68:	42e1d093          	srai	ra,gp,0x2e
    3a6c:	38e0c093          	xori	ra,ra,910
    3a70:	02a09313          	slli	t1,ra,0x2a
    3a74:	4020513b          	sraw	sp,zero,sp
    3a78:	02615233          	divu	tp,sp,t1
    3a7c:	9df6f137          	lui	sp,0x9df6f
    3a80:	57751237          	lui	tp,0x57751
    3a84:	63ae6137          	lui	sp,0x63ae6
    3a88:	f2416193          	ori	gp,sp,-220
    3a8c:	0030b1b3          	sltu	gp,ra,gp
    3a90:	54a5e117          	auipc	sp,0x54a5e
    3a94:	000191bb          	sllw	gp,gp,zero
    3a98:	8391019b          	addiw	gp,sp,-1991
    3a9c:	401101b3          	sub	gp,sp,ra
    3aa0:	02c09113          	slli	sp,ra,0x2c
    3aa4:	02f150b3          	divu	ra,sp,a5
    3aa8:	c2917313          	andi	t1,sp,-983
    3aac:	0011d133          	srl	sp,gp,ra
    3ab0:	42b15093          	srai	ra,sp,0x2b
    3ab4:	b6b16117          	auipc	sp,0xb6b16
    3ab8:	8c124213          	xori	tp,tp,-1855
    3abc:	f740a193          	slti	gp,ra,-140
    3ac0:	4d91e313          	ori	t1,gp,1241
    3ac4:	ec5104e3          	beq	sp,t0,0x398c
    3ac8:	ec5ff16f          	jal	sp,0x398c
    3acc:	6b5b6317          	auipc	t1,0x6b5b6
    3ad0:	b7317193          	andi	gp,sp,-1165
    3ad4:	80b1829b          	addiw	t0,gp,-2037
    3ad8:	0061f133          	and	sp,gp,t1
    3adc:	49028093          	addi	ra,t0,1168 # 0xfffffffff6f89eb4
    3ae0:	d0912113          	slti	sp,sp,-759
    3ae4:	50a17117          	auipc	sp,0x50a17
    3ae8:	f651e093          	ori	ra,gp,-155
    3aec:	003240b3          	xor	ra,tp,gp
    3af0:	004101b3          	add	gp,sp,tp
    3af4:	4010d19b          	sraiw	gp,ra,0x1
    3af8:	003150bb          	srlw	ra,sp,gp
    3afc:	025173b3          	remu	t2,sp,t0
    3b00:	00509193          	slli	gp,ra,0x5
    3b04:	40e4d01b          	sraiw	zero,s1,0xe
    3b08:	a7c17213          	andi	tp,sp,-1412
    3b0c:	1a27d137          	lui	sp,0x1a27d
    3b10:	022a9693          	slli	a3,s5,0x22
    3b14:	004081b3          	add	gp,ra,tp
    3b18:	4121d19b          	sraiw	gp,gp,0x12
    3b1c:	5c41a093          	slti	ra,gp,1476
    3b20:	d010801b          	addiw	zero,ra,-767
    3b24:	004150b3          	srl	ra,sp,tp
    3b28:	6271f093          	andi	ra,gp,1575
    3b2c:	022340b3          	div	ra,t1,sp
    3b30:	84614313          	xori	t1,sp,-1978
    3b34:	95733113          	sltiu	sp,t1,-1705
    3b38:	2df32113          	slti	sp,t1,735
    3b3c:	002107bb          	addw	a5,sp,sp
    3b40:	a6e12113          	slti	sp,sp,-1426
    3b44:	40d083bb          	subw	t2,ra,a3
    3b48:	ef908093          	addi	ra,ra,-263 # 0xffffffffa5b09ef9
    3b4c:	0012b033          	sltu	zero,t0,ra
    3b50:	1951e193          	ori	gp,gp,405
    3b54:	0211c5b3          	div	a1,gp,ra
    3b58:	d851e1b7          	lui	gp,0xd851e
    3b5c:	7220fa63          	bgeu	ra,sp,0x4290
    3b60:	7220e863          	bltu	ra,sp,0x4290
    3b64:	1fd1f213          	andi	tp,gp,509
    3b68:	022153b3          	divu	t2,sp,sp
    3b6c:	001796bb          	sllw	a3,a5,ra
    3b70:	0c210b97          	auipc	s7,0xc210
    3b74:	b876b113          	sltiu	sp,a3,-1145
    3b78:	0031a0b3          	slt	ra,gp,gp
    3b7c:	0031103b          	sllw	zero,sp,gp
    3b80:	0001131b          	slliw	t1,sp,0x0
    3b84:	0060d233          	srl	tp,ra,t1
    3b88:	c2503097          	auipc	ra,0xc2503
    3b8c:	a1723093          	sltiu	ra,tp,-1513
    3b90:	31a06137          	lui	sp,0x31a06
    3b94:	402100b3          	sub	ra,sp,sp
    3b98:	0091d1b3          	srl	gp,gp,s1
    3b9c:	001170b3          	and	ra,sp,ra
    3ba0:	40538133          	sub	sp,t2,t0
    3ba4:	54c4d7b7          	lui	a5,0x54c4d
    3ba8:	01111333          	sll	t1,sp,a7
    3bac:	2932d197          	auipc	gp,0x2932d
    3bb0:	048c7193          	andi	gp,s8,72
    3bb4:	0011f1b3          	and	gp,gp,ra
    3bb8:	0020d23b          	srlw	tp,ra,sp
    3bbc:	02215233          	divu	tp,sp,sp
    3bc0:	022156b3          	divu	a3,sp,sp
    3bc4:	0020b0b3          	sltu	ra,ra,sp
    3bc8:	e5023113          	sltiu	sp,tp,-432
    3bcc:	0f372017          	auipc	zero,0xf372
    3bd0:	00c0d09b          	srliw	ra,ra,0xc
    3bd4:	02f1f3b3          	remu	t2,gp,a5
    3bd8:	00118133          	add	sp,gp,ra
    3bdc:	002161b3          	or	gp,sp,sp
    3be0:	00b08133          	add	sp,ra,a1
    3be4:	0032f133          	and	sp,t0,gp
    3be8:	001157b3          	srl	a5,sp,ra
    3bec:	0231f133          	remu	sp,gp,gp
    3bf0:	0020a133          	slt	sp,ra,sp
    3bf4:	0021a1b3          	slt	gp,gp,sp
    3bf8:	62110063          	beq	sp,ra,0x4218
    3bfc:	61c0016f          	jal	sp,0x4218
    3c00:	93ef8117          	auipc	sp,0x93ef8
    3c04:	0007abb3          	sltz	s7,a5
    3c08:	53ce31b7          	lui	gp,0x53ce3
    3c0c:	44cf2617          	auipc	a2,0x44cf2
    3c10:	327a12b7          	lui	t0,0x327a1
    3c14:	c451f813          	andi	a6,gp,-955
    3c18:	4011d333          	sra	t1,gp,ra
    3c1c:	ece17093          	andi	ra,sp,-306
    3c20:	6376e093          	ori	ra,a3,1591
    3c24:	b2a3b113          	sltiu	sp,t2,-1238
    3c28:	401282bb          	subw	t0,t0,ra
    3c2c:	000290bb          	sllw	ra,t0,zero
    3c30:	005140b3          	xor	ra,sp,t0
    3c34:	40d1d1b3          	sra	gp,gp,a3
    3c38:	403380bb          	subw	ra,t2,gp
    3c3c:	02215133          	divu	sp,sp,sp
    3c40:	003090bb          	sllw	ra,ra,gp
    3c44:	4182509b          	sraiw	ra,tp,0x18
    3c48:	a0c0a013          	slti	zero,ra,-1524
    3c4c:	0230d333          	divu	t1,ra,gp
    3c50:	9bd7a5b7          	lui	a1,0x9bd7a
    3c54:	f3116093          	ori	ra,sp,-207
    3c58:	0230f2b3          	remu	t0,ra,gp
    3c5c:	3bd1819b          	addiw	gp,gp,957
    3c60:	bcbd4117          	auipc	sp,0xbcbd4
    3c64:	e2518193          	addi	gp,gp,-475 # 0x53ce2e25
    3c68:	403680b3          	sub	ra,a3,gp
    3c6c:	c831039b          	addiw	t2,sp,-893
    3c70:	3bec11b7          	lui	gp,0x3bec1
    3c74:	004320b3          	slt	ra,t1,tp
    3c78:	24e0a093          	slti	ra,ra,590
    3c7c:	50608663          	beq	ra,t1,0x4188
    3c80:	508001ef          	jal	gp,0x4188
    3c84:	0210d1b3          	divu	gp,ra,ra
    3c88:	fb6281b7          	lui	gp,0xfb628
    3c8c:	02b05113          	srli	sp,zero,0x2b
    3c90:	f291c193          	xori	gp,gp,-215
    3c94:	73b20113          	addi	sp,tp,1851 # 0x5775173b
    3c98:	407100bb          	subw	ra,sp,t2
    3c9c:	4031d133          	sra	sp,gp,gp
    3ca0:	fd159297          	auipc	t0,0xfd159
    3ca4:	76a3011b          	addiw	sp,t1,1898
    3ca8:	f831011b          	addiw	sp,sp,-125
    3cac:	1011039b          	addiw	t2,sp,257
    3cb0:	41d1511b          	sraiw	sp,sp,0x1d
    3cb4:	21e89097          	auipc	ra,0x21e89
    3cb8:	9881f193          	andi	gp,gp,-1656
    3cbc:	00217133          	and	sp,sp,sp
    3cc0:	2351f493          	andi	s1,gp,565
    3cc4:	403100bb          	subw	ra,sp,gp
    3cc8:	2eb09137          	lui	sp,0x2eb09
    3ccc:	65016093          	ori	ra,sp,1616
    3cd0:	8590811b          	addiw	sp,ra,-1959
    3cd4:	0012e1b3          	or	gp,t0,ra
    3cd8:	00212133          	slt	sp,sp,sp
    3cdc:	7620e293          	ori	t0,ra,1890
    3ce0:	63159097          	auipc	ra,0x63159
    3ce4:	0021513b          	srlw	sp,sp,sp
    3ce8:	0232d733          	divu	a4,t0,gp
    3cec:	748bc197          	auipc	gp,0x748bc
    3cf0:	0170d39b          	srliw	t2,ra,0x17
    3cf4:	00a0111b          	slliw	sp,zero,0xa
    3cf8:	002251b3          	srl	gp,tp,sp
    3cfc:	00008093          	mv	ra,ra
    3d00:	b4108ee3          	beq	ra,ra,0x385c
    3d04:	43a0d313          	srai	t1,ra,0x3a
    3d08:	00e19013          	slli	zero,gp,0xe
    3d0c:	00d12233          	slt	tp,sp,a3
    3d10:	5c443117          	auipc	sp,0x5c443
    3d14:	02316c33          	rem	s8,sp,gp
    3d18:	006080b3          	add	ra,ra,t1
    3d1c:	00515193          	srli	gp,sp,0x5
    3d20:	002031b3          	snez	gp,sp
    3d24:	d360e193          	ori	gp,ra,-714
    3d28:	a7487197          	auipc	gp,0xa7487
    3d2c:	dfb14193          	xori	gp,sp,-517
    3d30:	002301bb          	addw	gp,t1,sp
    3d34:	4fc8e017          	auipc	zero,0x4fc8e
    3d38:	4030023b          	negw	tp,gp
    3d3c:	0191d393          	srli	t2,gp,0x19
    3d40:	d36e3193          	sltiu	gp,t3,-714
    3d44:	5aa0e193          	ori	gp,ra,1450
    3d48:	da81011b          	addiw	sp,sp,-600
    3d4c:	2f012193          	slti	gp,sp,752
    3d50:	08313313          	sltiu	t1,sp,131
    3d54:	8c2da097          	auipc	ra,0x8c2da
    3d58:	02138eb3          	mul	t4,t2,ra
    3d5c:	5f016093          	ori	ra,sp,1520
    3d60:	8b1bb113          	sltiu	sp,s7,-1871
    3d64:	00606133          	or	sp,zero,t1
    3d68:	0040b133          	sltu	sp,ra,tp
    3d6c:	020151b3          	divu	gp,sp,zero
    3d70:	5810b093          	sltiu	ra,ra,1409
    3d74:	aa0f1097          	auipc	ra,0xaa0f1
    3d78:	24510c63          	beq	sp,t0,0x3fd0
    3d7c:	254000ef          	jal	ra,0x3fd0
    3d80:	00b0919b          	slliw	gp,ra,0xb
    3d84:	01f1521b          	srliw	tp,sp,0x1f
    3d88:	002111bb          	sllw	gp,sp,sp
    3d8c:	64074097          	auipc	ra,0x64074
    3d90:	c7298217          	auipc	tp,0xc7298
    3d94:	0011d1b3          	srl	gp,gp,ra
    3d98:	414e0197          	auipc	gp,0x414e0
    3d9c:	00527133          	and	sp,tp,t0
    3da0:	4012d33b          	sraw	t1,t0,ra
    3da4:	003181bb          	addw	gp,gp,gp
    3da8:	82df0097          	auipc	ra,0x82df0
    3dac:	0021d01b          	srliw	zero,gp,0x2
    3db0:	60827193          	andi	gp,tp,1544
    3db4:	023370b3          	remu	ra,t1,gp
    3db8:	e41a10b7          	lui	ra,0xe41a1
    3dbc:	e9b4f093          	andi	ra,s1,-357
    3dc0:	a7a1811b          	addiw	sp,gp,-1414
    3dc4:	40f3d23b          	sraw	tp,t2,a5
    3dc8:	4023013b          	subw	sp,t1,sp
    3dcc:	002151bb          	srlw	gp,sp,sp
    3dd0:	1d12b017          	auipc	zero,0x1d12b
    3dd4:	022366b3          	rem	a3,t1,sp
    3dd8:	002170b3          	and	ra,sp,sp
    3ddc:	402281b3          	sub	gp,t0,sp
    3de0:	8080a117          	auipc	sp,0x8080a
    3de4:	02208233          	mul	tp,ra,sp
    3de8:	4140d11b          	sraiw	sp,ra,0x14
    3dec:	88c22393          	slti	t2,tp,-1908
    3df0:	00000317          	auipc	t1,0x0
    3df4:	c3430167          	jalr	sp,-972(t1) # 0x3a24
    3df8:	0b40829b          	addiw	t0,ra,180
    3dfc:	85b391b7          	lui	gp,0x85b39
    3e00:	a480e213          	ori	tp,ra,-1464
    3e04:	4021d2b3          	sra	t0,gp,sp
    3e08:	2a71a313          	slti	t1,gp,679
    3e0c:	4810e0b7          	lui	ra,0x4810e
    3e10:	0021d133          	srl	sp,gp,sp
    3e14:	001121b3          	slt	gp,sp,ra
    3e18:	391f5197          	auipc	gp,0x391f5
    3e1c:	5890e093          	ori	ra,ra,1417
    3e20:	efe38137          	lui	sp,0xefe38
    3e24:	3820b113          	sltiu	sp,ra,898
    3e28:	0030b1b3          	sltu	gp,ra,gp
    3e2c:	4e6b51b7          	lui	gp,0x4e6b5
    3e30:	4021803b          	subw	zero,gp,sp
    3e34:	00209133          	sll	sp,ra,sp
    3e38:	41c1511b          	sraiw	sp,sp,0x1c
    3e3c:	4e5fc0b7          	lui	ra,0x4e5fc
    3e40:	4011d11b          	sraiw	sp,gp,0x1
    3e44:	cdc0a193          	slti	gp,ra,-804
    3e48:	dd6fd117          	auipc	sp,0xdd6fd
    3e4c:	403e5233          	sra	tp,t3,gp
    3e50:	f7cb4113          	xori	sp,s6,-132
    3e54:	a49784b7          	lui	s1,0xa4978
    3e58:	0062d01b          	srliw	zero,t0,0x6
    3e5c:	001112b3          	sll	t0,sp,ra
    3e60:	0221c2b3          	div	t0,gp,sp
    3e64:	a26db317          	auipc	t1,0xa26db
    3e68:	0191909b          	slliw	ra,gp,0x19
    3e6c:	02bf2037          	lui	zero,0x2bf2
    3e70:	00e0d093          	srli	ra,ra,0xe
    3e74:	d25dd297          	auipc	t0,0xd25dd
    3e78:	0033523b          	srlw	tp,t1,gp
    3e7c:	7942f1b7          	lui	gp,0x7942f
    3e80:	403380bb          	subw	ra,t2,gp
    3e84:	2621d463          	bge	gp,sp,0x40ec
    3e88:	2621c263          	blt	gp,sp,0x40ec
    3e8c:	022180b3          	mul	ra,gp,sp
    3e90:	002174b3          	and	s1,sp,sp
    3e94:	00315133          	srl	sp,sp,gp
    3e98:	402150bb          	sraw	ra,sp,sp
    3e9c:	4021013b          	subw	sp,sp,sp
    3ea0:	006ec0b3          	xor	ra,t4,t1
    3ea4:	02120233          	mul	tp,tp,ra
    3ea8:	563371b7          	lui	gp,0x56337
    3eac:	401151bb          	sraw	gp,sp,ra
    3eb0:	4231811b          	addiw	sp,gp,1059
    3eb4:	003fd1b3          	srl	gp,t6,gp
    3eb8:	4051d0bb          	sraw	ra,gp,t0
    3ebc:	00d1b233          	sltu	tp,gp,a3
    3ec0:	0001133b          	sllw	t1,sp,zero
    3ec4:	111200b7          	lui	ra,0x11120
    3ec8:	0020e0b3          	or	ra,ra,sp
    3ecc:	02611193          	slli	gp,sp,0x26
    3ed0:	003101b3          	add	gp,sp,gp
    3ed4:	97a79197          	auipc	gp,0x97a79
    3ed8:	36d1fe93          	andi	t4,gp,877
    3edc:	0010813b          	addw	sp,ra,ra
    3ee0:	e8fbb313          	sltiu	t1,s7,-369
    3ee4:	0031dc3b          	srlw	s8,gp,gp
    3ee8:	4102513b          	sraw	sp,tp,a6
    3eec:	7efee1b7          	lui	gp,0x7efee
    3ef0:	d980f193          	andi	gp,ra,-616
    3ef4:	00b23133          	sltu	sp,tp,a1
    3ef8:	0210c0b3          	div	ra,ra,ra
    3efc:	003080bb          	addw	ra,ra,gp
    3f00:	0230d1b3          	divu	gp,ra,gp
    3f04:	3b21a693          	slti	a3,gp,946
    3f08:	7eced097          	auipc	ra,0x7eced
    3f0c:	0143911b          	slliw	sp,t2,0x14
    3f10:	5f3d0197          	auipc	gp,0x5f3d0
    3f14:	022140b3          	div	ra,sp,sp
    3f18:	c670b193          	sltiu	gp,ra,-921
    3f1c:	08b091b7          	lui	gp,0x8b09
    3f20:	00000097          	auipc	ra,0x0
    3f24:	c44083e7          	jalr	t2,-956(ra) # 0x3b64
    3f28:	75fb1197          	auipc	gp,0x75fb1
    3f2c:	025101b3          	mul	gp,sp,t0
    3f30:	ad6e53b7          	lui	t2,0xad6e5
    3f34:	01a1b0b3          	sltu	ra,gp,s10
    3f38:	f27a0037          	lui	zero,0xf27a0
    3f3c:	0221f333          	remu	t1,gp,sp
    3f40:	252f2237          	lui	tp,0x252f2
    3f44:	b8113013          	sltiu	zero,sp,-1151
    3f48:	0221c1b3          	div	gp,gp,sp
    3f4c:	03b16133          	rem	sp,sp,s11
    3f50:	31f08113          	addi	sp,ra,799
    3f54:	0022903b          	sllw	zero,t0,sp
    3f58:	f81df093          	andi	ra,s11,-127
    3f5c:	004110bb          	sllw	ra,sp,tp
    3f60:	000290bb          	sllw	ra,t0,zero
    3f64:	02e09193          	slli	gp,ra,0x2e
    3f68:	0030d133          	srl	sp,ra,gp
    3f6c:	04a02117          	auipc	sp,0x4a02
    3f70:	0213e333          	rem	t1,t2,ra
    3f74:	0061813b          	addw	sp,gp,t1
    3f78:	020180b3          	mul	ra,gp,zero
    3f7c:	0062e133          	or	sp,t0,t1
    3f80:	c091b193          	sltiu	gp,gp,-1015
    3f84:	0051b1b3          	sltu	gp,gp,t0
    3f88:	02d1009b          	addiw	ra,sp,45
    3f8c:	3a4b4197          	auipc	gp,0x3a4b4
    3f90:	0011511b          	srliw	sp,sp,0x1
    3f94:	b20b5337          	lui	t1,0xb20b5
    3f98:	0091109b          	slliw	ra,sp,0x9
    3f9c:	024150b3          	divu	ra,sp,tp
    3fa0:	43a6d193          	srai	gp,a3,0x3a
    3fa4:	4061511b          	sraiw	sp,sp,0x6
    3fa8:	41c0d093          	srai	ra,ra,0x1c
    3fac:	ef464317          	auipc	t1,0xef464
    3fb0:	e060c093          	xori	ra,ra,-506
    3fb4:	00da50bb          	srlw	ra,s4,a3
    3fb8:	8490c113          	xori	sp,ra,-1975
    3fbc:	003160b3          	or	ra,sp,gp
    3fc0:	00212133          	slt	sp,sp,sp
    3fc4:	0022a133          	slt	sp,t0,sp
    3fc8:	0a415063          	bge	sp,tp,0x4068
    3fcc:	08414e63          	blt	sp,tp,0x4068
    3fd0:	0db1811b          	addiw	sp,gp,219
    3fd4:	00108133          	add	sp,ra,ra
    3fd8:	149f1537          	lui	a0,0x149f1
    3fdc:	aedf10b7          	lui	ra,0xaedf1
    3fe0:	0033e033          	or	zero,t2,gp
    3fe4:	535ed137          	lui	sp,0x535ed
    3fe8:	002101bb          	addw	gp,sp,sp
    3fec:	0041111b          	slliw	sp,sp,0x4
    3ff0:	4171d0b3          	sra	ra,gp,s7
    3ff4:	002356bb          	srlw	a3,t1,sp
    3ff8:	fe8041b7          	lui	gp,0xfe804
    3ffc:	0020e333          	or	t1,ra,sp
    4000:	8db1011b          	addiw	sp,sp,-1829
    4004:	0021d0b3          	srl	ra,gp,sp
    4008:	4090d19b          	sraiw	gp,ra,0x9
    400c:	00511093          	slli	ra,sp,0x5
    4010:	00316133          	or	sp,sp,gp
    4014:	d9238193          	addi	gp,t2,-622 # 0xffffffffad6e4d92
    4018:	9f233293          	sltiu	t0,t1,-1550
    401c:	01a69093          	slli	ra,a3,0x1a
    4020:	44f300b7          	lui	ra,0x44f30
    4024:	00013133          	sltu	sp,sp,zero
    4028:	002090b3          	sll	ra,ra,sp
    402c:	4040d09b          	sraiw	ra,ra,0x4
    4030:	cd8ada37          	lui	s4,0xcd8ad
    4034:	0ef37113          	andi	sp,t1,239
    4038:	fb306113          	ori	sp,zero,-77
    403c:	004c6333          	or	t1,s8,tp
    4040:	0025d1bb          	srlw	gp,a1,sp
    4044:	def41137          	lui	sp,0xdef41
    4048:	000030b3          	snez	ra,zero
    404c:	a0d0e337          	lui	t1,0xa0d0e
    4050:	e3b5f193          	andi	gp,a1,-453
    4054:	ac59d7b7          	lui	a5,0xac59d
    4058:	f1040217          	auipc	tp,0xf1040
    405c:	003101bb          	addw	gp,sp,gp
    4060:	00008093          	mv	ra,ra
    4064:	e21084e3          	beq	ra,ra,0x3e8c
    4068:	15417113          	andi	sp,sp,340
    406c:	1d6030b7          	lui	ra,0x1d603
    4070:	0191d49b          	srliw	s1,gp,0x19
    4074:	d00e11b7          	lui	gp,0xd00e1
    4078:	e9f0a213          	slti	tp,ra,-353
    407c:	84069097          	auipc	ra,0x84069
    4080:	002201b3          	add	gp,tp,sp
    4084:	0bef4197          	auipc	gp,0xbef4
    4088:	d0bdb0b7          	lui	ra,0xd0bdb
    408c:	08f1afb7          	lui	t6,0x8f1a
    4090:	0011503b          	srlw	zero,sp,ra
    4094:	0023503b          	srlw	zero,t1,sp
    4098:	001151bb          	srlw	gp,sp,ra
    409c:	01d1f133          	and	sp,gp,t4
    40a0:	003081b3          	add	gp,ra,gp
    40a4:	543081b7          	lui	gp,0x54308
    40a8:	002150bb          	srlw	ra,sp,sp
    40ac:	2d74a3b7          	lui	t2,0x2d74a
    40b0:	0030a3b3          	slt	t2,ra,gp
    40b4:	00308d3b          	addw	s10,ra,gp
    40b8:	eae0b193          	sltiu	gp,ra,-338
    40bc:	0050c0b3          	xor	ra,ra,t0
    40c0:	88eda6b7          	lui	a3,0x88eda
    40c4:	023101b3          	mul	gp,sp,gp
    40c8:	00004233          	xor	tp,zero,zero
    40cc:	c072021b          	addiw	tp,tp,-1017
    40d0:	4034d113          	srai	sp,s1,0x3
    40d4:	082dd117          	auipc	sp,0x82dd
    40d8:	2366d117          	auipc	sp,0x2366d
    40dc:	46214193          	xori	gp,sp,1122
    40e0:	cab3b093          	sltiu	ra,t2,-853
    40e4:	00010113          	mv	sp,sp
    40e8:	80210ce3          	beq	sp,sp,0x3900
    40ec:	d4242137          	lui	sp,0xd4242
    40f0:	02b4e3b3          	rem	t2,s1,a1
    40f4:	0030a333          	slt	t1,ra,gp
    40f8:	00418133          	add	sp,gp,tp
    40fc:	cf9ff117          	auipc	sp,0xcf9ff
    4100:	003141b3          	xor	gp,sp,gp
    4104:	d16b64b7          	lui	s1,0xd16b6
    4108:	0015e433          	or	s0,a1,ra
    410c:	0210f133          	remu	sp,ra,ra
    4110:	81f58a37          	lui	s4,0x81f58
    4114:	3e9910b7          	lui	ra,0x3e991
    4118:	01cc909b          	slliw	ra,s9,0x1c
    411c:	0220e0b3          	rem	ra,ra,sp
    4120:	fac0c093          	xori	ra,ra,-84
    4124:	fde06293          	ori	t0,zero,-34
    4128:	22530117          	auipc	sp,0x22530
    412c:	0140d11b          	srliw	sp,ra,0x14
    4130:	002093bb          	sllw	t2,ra,sp
    4134:	002141b3          	xor	gp,sp,sp
    4138:	001162b3          	or	t0,sp,ra
    413c:	00fd969b          	slliw	a3,s11,0xf
    4140:	6ccbf1b7          	lui	gp,0x6ccbf
    4144:	007119b3          	sll	s3,sp,t2
    4148:	e10c1117          	auipc	sp,0xe10c1
    414c:	a3f3d117          	auipc	sp,0xa3f3d
    4150:	00121133          	sll	sp,tp,ra
    4154:	cbfcc1b7          	lui	gp,0xcbfcc
    4158:	402081bb          	subw	gp,ra,sp
    415c:	40115133          	sra	sp,sp,ra
    4160:	0160911b          	slliw	sp,ra,0x16
    4164:	406080bb          	subw	ra,ra,t1
    4168:	0d31b313          	sltiu	t1,gp,211
    416c:	022171b3          	remu	gp,sp,sp
    4170:	0005d13b          	srlw	sp,a1,zero
    4174:	004051bb          	srlw	gp,zero,tp
    4178:	406153bb          	sraw	t2,sp,t1
    417c:	71a14293          	xori	t0,sp,1818
    4180:	00008113          	mv	sp,ra
    4184:	be110ee3          	beq	sp,ra,0x3d80
    4188:	4032013b          	subw	sp,tp,gp
    418c:	29e16213          	ori	tp,sp,670
    4190:	7ac3c013          	xori	zero,t2,1964
    4194:	41d1d09b          	sraiw	ra,gp,0x1d
    4198:	02d160b3          	rem	ra,sp,a3
    419c:	0790f197          	auipc	gp,0x790f
    41a0:	000180b3          	add	ra,gp,zero
    41a4:	003115b3          	sll	a1,sp,gp
    41a8:	b981a813          	slti	a6,gp,-1128
    41ac:	00114133          	xor	sp,sp,ra
    41b0:	c0ca6197          	auipc	gp,0xc0ca6
    41b4:	56e1039b          	addiw	t2,sp,1390
    41b8:	0fc13113          	sltiu	sp,sp,252
    41bc:	73f32193          	slti	gp,t1,1855
    41c0:	4d438093          	addi	ra,t2,1236 # 0x2d74a4d4
    41c4:	002112b3          	sll	t0,sp,sp
    41c8:	614d41b7          	lui	gp,0x614d4
    41cc:	01efd39b          	srliw	t2,t6,0x1e
    41d0:	3971b313          	sltiu	t1,gp,919
    41d4:	0031b133          	sltu	sp,gp,gp
    41d8:	023160b3          	rem	ra,sp,gp
    41dc:	c353a097          	auipc	ra,0xc353a
    41e0:	021140b3          	div	ra,sp,ra
    41e4:	49b31197          	auipc	gp,0x49b31
    41e8:	0262c0b3          	div	ra,t0,t1
    41ec:	0011c233          	xor	tp,gp,ra
    41f0:	4072013b          	subw	sp,tp,t2
    41f4:	ea581337          	lui	t1,0xea581
    41f8:	00f121b3          	slt	gp,sp,a5
    41fc:	0041a133          	slt	sp,gp,tp
    4200:	bcc3019b          	addiw	gp,t1,-1076
    4204:	4e7272b7          	lui	t0,0x4e727
    4208:	4e60b1b7          	lui	gp,0x4e60b
    420c:	f3b23017          	auipc	zero,0xf3b23
    4210:	ae13dae3          	bge	t2,ra,0x3d04
    4214:	ae13c8e3          	blt	t2,ra,0x3d04
    4218:	b675a693          	slti	a3,a1,-1177
    421c:	021047b3          	div	a5,zero,ra
    4220:	022171b3          	remu	gp,sp,sp
    4224:	0021d13b          	srlw	sp,gp,sp
    4228:	006391bb          	sllw	gp,t2,t1
    422c:	4010d1bb          	sraw	gp,ra,ra
    4230:	f1f39337          	lui	t1,0xf1f39
    4234:	18b1f093          	andi	ra,gp,395
    4238:	00c10133          	add	sp,sp,a2
    423c:	001001b3          	add	gp,zero,ra
    4240:	0231e033          	rem	zero,gp,gp
    4244:	68d2c197          	auipc	gp,0x68d2c
    4248:	6da1829b          	addiw	t0,gp,1754
    424c:	02404133          	div	sp,zero,tp
    4250:	8530e193          	ori	gp,ra,-1965
    4254:	400150bb          	sraw	ra,sp,zero
    4258:	06d111b7          	lui	gp,0x6d11
    425c:	0221c0b3          	div	ra,gp,sp
    4260:	4011d1bb          	sraw	gp,gp,ra
    4264:	ce00a313          	slti	t1,ra,-800
    4268:	6c32c113          	xori	sp,t0,1731
    426c:	00277233          	and	tp,a4,sp
    4270:	0190911b          	slliw	sp,ra,0x19
    4274:	0173901b          	slliw	zero,t2,0x17
    4278:	820bca37          	lui	s4,0x820bc
    427c:	0033a033          	slt	zero,t2,gp
    4280:	e4a931b7          	lui	gp,0xe4a93
    4284:	001141b3          	xor	gp,sp,ra
    4288:	ca20d0e3          	bge	ra,sp,0x3f28
    428c:	c820cee3          	blt	ra,sp,0x3f28
    4290:	402150bb          	sraw	ra,sp,sp
    4294:	00d1909b          	slliw	ra,gp,0xd
    4298:	0011c0b3          	xor	ra,gp,ra
    429c:	194b51b7          	lui	gp,0x194b5
    42a0:	0210d133          	divu	sp,ra,ra
    42a4:	e1d56197          	auipc	gp,0xe1d56
    42a8:	e4648193          	addi	gp,s1,-442 # 0xffffffffd16b5e46
    42ac:	eacda0b7          	lui	ra,0xeacda
    42b0:	401154b3          	sra	s1,sp,ra
    42b4:	fc718193          	addi	gp,gp,-57 # 0xffffffffe1d5a26b
    42b8:	003091b3          	sll	gp,ra,gp
    42bc:	0033d0bb          	srlw	ra,t2,gp
    42c0:	402301bb          	subw	gp,t1,sp
    42c4:	0230c0b3          	div	ra,ra,gp
    42c8:	001291bb          	sllw	gp,t0,ra
    42cc:	001141b3          	xor	gp,sp,ra
    42d0:	0121911b          	slliw	sp,gp,0x12
    42d4:	005140b3          	xor	ra,sp,t0
    42d8:	6df0d197          	auipc	gp,0x6df0d
    42dc:	02b6d0b3          	divu	ra,a3,a1
    42e0:	003e803b          	addw	zero,t4,gp
    42e4:	002210b3          	sll	ra,tp,sp
    42e8:	839991b7          	lui	gp,0x83999
    42ec:	0220e1b3          	rem	gp,ra,sp
    42f0:	03d180b3          	mul	ra,gp,t4
    42f4:	0033919b          	slliw	gp,t2,0x3
    42f8:	02717133          	remu	sp,sp,t2
    42fc:	5f658193          	addi	gp,a1,1526 # 0xffffffff9bd7a5f6
    4300:	43e1d113          	srai	sp,gp,0x3e
    4304:	1a05b213          	sltiu	tp,a1,416
    4308:	c3460117          	auipc	sp,0xc3460
    430c:	4027d09b          	sraiw	ra,a5,0x2
    4310:	021081b3          	mul	gp,ra,ra
    4314:	8fe04093          	xori	ra,zero,-1794
    4318:	02214bb3          	div	s7,sp,sp
    431c:	c4ead097          	auipc	ra,0xc4ead
    4320:	002110bb          	sllw	ra,sp,sp
    4324:	d1b1011b          	addiw	sp,sp,-741
    4328:	8c018ce3          	beqz	gp,0x3c00
    432c:	8d5ff26f          	jal	tp,0x3c00
    4330:	0070d19b          	srliw	gp,ra,0x7
    4334:	05c95437          	lui	s0,0x5c95
    4338:	402200b3          	sub	ra,tp,sp
    433c:	0240e133          	rem	sp,ra,tp
    4340:	5224b3b7          	lui	t2,0x5224b
    4344:	00d09113          	slli	sp,ra,0xd
    4348:	76c04293          	xori	t0,zero,1900
    434c:	00236033          	or	zero,t1,sp
    4350:	cd4251b7          	lui	gp,0xcd425
    4354:	f7e0c193          	xori	gp,ra,-130
    4358:	0093919b          	slliw	gp,t2,0x9
    435c:	0210f1b3          	remu	gp,ra,ra
    4360:	7888e0b7          	lui	ra,0x7888e
    4364:	3d913293          	sltiu	t0,sp,985
    4368:	a7f17113          	andi	sp,sp,-1409
    436c:	0221f4b3          	remu	s1,gp,sp
    4370:	405a0dbb          	subw	s11,s4,t0
    4374:	cf6f16b7          	lui	a3,0xcf6f1
    4378:	0012d233          	srl	tp,t0,ra
    437c:	0230d933          	divu	s2,ra,gp
    4380:	4021d23b          	sraw	tp,gp,sp
    4384:	006106bb          	addw	a3,sp,t1
    4388:	020380b3          	mul	ra,t2,zero
    438c:	8d12e097          	auipc	ra,0x8d12e
    4390:	003080b3          	add	ra,ra,gp
    4394:	9281009b          	addiw	ra,sp,-1752
    4398:	dce3a137          	lui	sp,0xdce3a
    439c:	d816a137          	lui	sp,0xd816a
    43a0:	43f4d113          	srai	sp,s1,0x3f
    43a4:	02208033          	mul	zero,ra,sp
    43a8:	4f7d5237          	lui	tp,0x4f7d5
    43ac:	0100931b          	slliw	t1,ra,0x10
    43b0:	fb4b4097          	auipc	ra,0xfb4b4
    43b4:	0061a9b3          	slt	s3,gp,t1
    43b8:	00310263          	beq	sp,gp,0x43bc
    43bc:	1d1001ef          	jal	gp,0x4d8c
    43c0:	020240b3          	div	ra,tp,zero
    43c4:	0070921b          	slliw	tp,ra,0x7
    43c8:	7caf76b7          	lui	a3,0x7caf7
    43cc:	eac8b097          	auipc	ra,0xeac8b
    43d0:	022140b3          	div	ra,sp,sp
    43d4:	4110d11b          	sraiw	sp,ra,0x11
    43d8:	01a1131b          	slliw	t1,sp,0x1a
    43dc:	00215133          	srl	sp,sp,sp
    43e0:	0031113b          	sllw	sp,sp,gp
    43e4:	652ea117          	auipc	sp,0x652ea
    43e8:	d802d217          	auipc	tp,0xd802d
    43ec:	75fdb337          	lui	t1,0x75fdb
    43f0:	c0ed6097          	auipc	ra,0xc0ed6
    43f4:	0a90811b          	addiw	sp,ra,169
    43f8:	0207f0b3          	remu	ra,a5,zero
    43fc:	8115b1b7          	lui	gp,0x8115b
    4400:	acbe4137          	lui	sp,0xacbe4
    4404:	01619113          	slli	sp,gp,0x16
    4408:	0011b1b3          	sltu	gp,gp,ra
    440c:	8be18193          	addi	gp,gp,-1858 # 0xffffffff8115a8be
    4410:	4031d13b          	sraw	sp,gp,gp
    4414:	00200133          	add	sp,zero,sp
    4418:	785b1197          	auipc	gp,0x785b1
    441c:	02d143b3          	div	t2,sp,a3
    4420:	0037e133          	or	sp,a5,gp
    4424:	003081bb          	addw	gp,ra,gp
    4428:	3e4ad137          	lui	sp,0x3e4ad
    442c:	0071e133          	or	sp,gp,t2
    4430:	0036a133          	slt	sp,a3,gp
    4434:	0011833b          	addw	t1,gp,ra
    4438:	d2e0b113          	sltiu	sp,ra,-722
    443c:	02d180b3          	mul	ra,gp,a3
    4440:	022045b3          	div	a1,zero,sp
    4444:	26215863          	bge	sp,sp,0x46b4
    4448:	26214663          	blt	sp,sp,0x46b4
    444c:	87fb2217          	auipc	tp,0x87fb2
    4450:	24e18093          	addi	ra,gp,590 # 0x785b5666
    4454:	bca2819b          	addiw	gp,t0,-1078
    4458:	30c0e193          	ori	gp,ra,780
    445c:	0d49f0b7          	lui	ra,0xd49f
    4460:	7fa92337          	lui	t1,0x7fa92
    4464:	003371b3          	and	gp,t1,gp
    4468:	0241c1b3          	div	gp,gp,tp
    446c:	000381bb          	addw	gp,t2,zero
    4470:	ab516e37          	lui	t3,0xab516
    4474:	40235133          	sra	sp,t1,sp
    4478:	93a29137          	lui	sp,0x93a29
    447c:	56e08013          	addi	zero,ra,1390 # 0xd49f56e
    4480:	00007133          	and	sp,zero,zero
    4484:	0231e1b3          	rem	gp,gp,gp
    4488:	0030b1b3          	sltu	gp,ra,gp
    448c:	76818013          	addi	zero,gp,1896
    4490:	3a986137          	lui	sp,0x3a986
    4494:	64dea137          	lui	sp,0x64dea
    4498:	44de0117          	auipc	sp,0x44de0
    449c:	e0e0c213          	xori	tp,ra,-498
    44a0:	4030d3bb          	sraw	t2,ra,gp
    44a4:	a601019b          	addiw	gp,sp,-1440
    44a8:	a6dc9197          	auipc	gp,0xa6dc9
    44ac:	4e21011b          	addiw	sp,sp,1250
    44b0:	bb516113          	ori	sp,sp,-1099
    44b4:	ff31a093          	slti	ra,gp,-13
    44b8:	a9118193          	addi	gp,gp,-1391 # 0xffffffffa6dccf39
    44bc:	0030f1b3          	and	gp,ra,gp
    44c0:	23626593          	ori	a1,tp,566
    44c4:	5880b193          	sltiu	gp,ra,1416
    44c8:	aaa67197          	auipc	gp,0xaaa67
    44cc:	083d2397          	auipc	t2,0x83d2
    44d0:	f141a137          	lui	sp,0xf141a
    44d4:	41515693          	srai	a3,sp,0x15
    44d8:	02217333          	remu	t1,sp,sp
    44dc:	0141501b          	srliw	zero,sp,0x14
    44e0:	002381bb          	addw	gp,t2,sp
    44e4:	00018e93          	mv	t4,gp
    44e8:	6e3e8863          	beq	t4,gp,0x4bd8
    44ec:	a9b20097          	auipc	ra,0xa9b20
    44f0:	4010d3b3          	sra	t2,ra,ra
    44f4:	002152b3          	srl	t0,sp,sp
    44f8:	0afc0117          	auipc	sp,0xafc0
    44fc:	022161b3          	rem	gp,sp,sp
    4500:	9bdfd1b7          	lui	gp,0x9bdfd
    4504:	03231193          	slli	gp,t1,0x32
    4508:	8c956097          	auipc	ra,0x8c956
    450c:	00e1919b          	slliw	gp,gp,0xe
    4510:	403050bb          	sraw	ra,zero,gp
    4514:	99a34337          	lui	t1,0x99a34
    4518:	021357b3          	divu	a5,t1,ra
    451c:	b1918193          	addi	gp,gp,-1255 # 0xffffffff9bdfcb19
    4520:	41618033          	sub	zero,gp,s6
    4524:	0020d0b3          	srl	ra,ra,sp
    4528:	023286b3          	mul	a3,t0,gp
    452c:	0221f4b3          	remu	s1,gp,sp
    4530:	582f31b7          	lui	gp,0x582f3
    4534:	01c3939b          	slliw	t2,t2,0x1c
    4538:	0231c133          	div	sp,gp,gp
    453c:	6853d137          	lui	sp,0x6853d
    4540:	4061d133          	sra	sp,gp,t1
    4544:	0221c0b3          	div	ra,gp,sp
    4548:	4012511b          	sraiw	sp,tp,0x1
    454c:	2340c193          	xori	gp,ra,564
    4550:	84f0a113          	slti	sp,ra,-1969
    4554:	023160b3          	rem	ra,sp,gp
    4558:	9ac16113          	ori	sp,sp,-1620
    455c:	4030513b          	sraw	sp,zero,gp
    4560:	6031e113          	ori	sp,gp,1539
    4564:	71038097          	auipc	ra,0x71038
    4568:	41a15093          	srai	ra,sp,0x1a
    456c:	cd27e213          	ori	tp,a5,-814
    4570:	32efc137          	lui	sp,0x32efc
    4574:	6f508863          	beq	ra,s5,0x4c64
    4578:	6ec0016f          	jal	sp,0x4c64
    457c:	9c2ca337          	lui	t1,0x9c2ca
    4580:	0061d0b3          	srl	ra,gp,t1
    4584:	01d0d11b          	srliw	sp,ra,0x1d
    4588:	0020a133          	slt	sp,ra,sp
    458c:	02310333          	mul	t1,sp,gp
    4590:	0110d11b          	srliw	sp,ra,0x11
    4594:	000530b3          	sltu	ra,a0,zero
    4598:	0211e133          	rem	sp,gp,ra
    459c:	85c14093          	xori	ra,sp,-1956
    45a0:	4100d3bb          	sraw	t2,ra,a6
    45a4:	ff9c01b7          	lui	gp,0xff9c0
    45a8:	0030e1b3          	or	gp,ra,gp
    45ac:	c400811b          	addiw	sp,ra,-960
    45b0:	008cd11b          	srliw	sp,s9,0x8
    45b4:	e055a337          	lui	t1,0xe055a
    45b8:	35bcb197          	auipc	gp,0x35bcb
    45bc:	2480a193          	slti	gp,ra,584
    45c0:	4020d0b3          	sra	ra,ra,sp
    45c4:	03609193          	slli	gp,ra,0x36
    45c8:	01c19493          	slli	s1,gp,0x1c
    45cc:	5f5de097          	auipc	ra,0x5f5de
    45d0:	005740b3          	xor	ra,a4,t0
    45d4:	401181b3          	sub	gp,gp,ra
    45d8:	02137233          	remu	tp,t1,ra
    45dc:	01e0a2b3          	slt	t0,ra,t5
    45e0:	1a21039b          	addiw	t2,sp,418
    45e4:	003c70b3          	and	ra,s8,gp
    45e8:	d9f5e193          	ori	gp,a1,-609
    45ec:	00116233          	or	tp,sp,ra
    45f0:	002190bb          	sllw	ra,gp,sp
    45f4:	02915193          	srli	gp,sp,0x29
    45f8:	004121b3          	slt	gp,sp,tp
    45fc:	17865297          	auipc	t0,0x17865
    4600:	002f8133          	add	sp,t6,sp
    4604:	0021f1b3          	and	gp,gp,sp
    4608:	00018213          	mv	tp,gp
    460c:	52320c63          	beq	tp,gp,0x4b44
    4610:	004113bb          	sllw	t2,sp,tp
    4614:	02115133          	divu	sp,sp,ra
    4618:	86214097          	auipc	ra,0x86214
    461c:	013c7117          	auipc	sp,0x13c7
    4620:	0013529b          	srliw	t0,t1,0x1
    4624:	003fd0b3          	srl	ra,t6,gp
    4628:	bc007193          	andi	gp,zero,-1088
    462c:	00203133          	snez	sp,sp
    4630:	3ba820b7          	lui	ra,0x3ba82
    4634:	001181b3          	add	gp,gp,ra
    4638:	2250029b          	addiw	t0,zero,549
    463c:	0210e3b3          	rem	t2,ra,ra
    4640:	0020e433          	or	s0,ra,sp
    4644:	402051b3          	sra	gp,zero,sp
    4648:	00e3919b          	slliw	gp,t2,0xe
    464c:	e37611b7          	lui	gp,0xe3761
    4650:	dd16f093          	andi	ra,a3,-559
    4654:	00308a33          	add	s4,ra,gp
    4658:	a8104913          	xori	s2,zero,-1407
    465c:	003110bb          	sllw	ra,sp,gp
    4660:	003191b3          	sll	gp,gp,gp
    4664:	00427133          	and	sp,tp,tp
    4668:	0010813b          	addw	sp,ra,ra
    466c:	02736033          	rem	zero,t1,t2
    4670:	470a0117          	auipc	sp,0x470a0
    4674:	407582bb          	subw	t0,a1,t2
    4678:	01b1909b          	slliw	ra,gp,0x1b
    467c:	02811093          	slli	ra,sp,0x28
    4680:	003f6133          	or	sp,t5,gp
    4684:	00a110b3          	sll	ra,sp,a0
    4688:	ef3c7197          	auipc	gp,0xef3c7
    468c:	f82a3117          	auipc	sp,0xf82a3
    4690:	3e10c113          	xori	sp,ra,993
    4694:	0038023b          	addw	tp,a6,gp
    4698:	0031933b          	sllw	t1,gp,gp
    469c:	a1ef9117          	auipc	sp,0xa1ef9
    46a0:	5e712113          	slti	sp,sp,1511
    46a4:	402150b3          	sra	ra,sp,sp
    46a8:	0231c1b3          	div	gp,gp,gp
    46ac:	12218263          	beq	gp,sp,0x47d0
    46b0:	1200016f          	jal	sp,0x47d0
    46b4:	0011d1b3          	srl	gp,gp,ra
    46b8:	0021113b          	sllw	sp,sp,sp
    46bc:	7bf9b3b7          	lui	t2,0x7bf9b
    46c0:	0161111b          	slliw	sp,sp,0x16
    46c4:	007140b3          	xor	ra,sp,t2
    46c8:	5c61039b          	addiw	t2,sp,1478
    46cc:	0741b093          	sltiu	ra,gp,116
    46d0:	0041d133          	srl	sp,gp,tp
    46d4:	007190b3          	sll	ra,gp,t2
    46d8:	3d95c297          	auipc	t0,0x3d95c
    46dc:	40614393          	xori	t2,sp,1030
    46e0:	b3ac2197          	auipc	gp,0xb3ac2
    46e4:	00b19693          	slli	a3,gp,0xb
    46e8:	00218b33          	add	s6,gp,sp
    46ec:	59c02113          	slti	sp,zero,1436
    46f0:	00106233          	or	tp,zero,ra
    46f4:	003191bb          	sllw	gp,gp,gp
    46f8:	0221f0b3          	remu	ra,gp,sp
    46fc:	7f714113          	xori	sp,sp,2039
    4700:	f14e70b7          	lui	ra,0xf14e7
    4704:	403085b3          	sub	a1,ra,gp
    4708:	0881a113          	slti	sp,gp,136
    470c:	ca397117          	auipc	sp,0xca397
    4710:	41e0a193          	slti	gp,ra,1054
    4714:	87b02117          	auipc	sp,0x87b02
    4718:	40015093          	srai	ra,sp,0x0
    471c:	aa710093          	addi	ra,sp,-1369 # 0xffffffff87b061bb
    4720:	0690839b          	addiw	t2,ra,105
    4724:	0b80f313          	andi	t1,ra,184
    4728:	00352ab3          	slt	s5,a0,gp
    472c:	3fda5137          	lui	sp,0x3fda5
    4730:	400181bb          	subw	gp,gp,zero
    4734:	0210e133          	rem	sp,ra,ra
    4738:	1c320463          	beq	tp,gp,0x4900
    473c:	1c40016f          	jal	sp,0x4900
    4740:	00500033          	add	zero,zero,t0
    4744:	f0012093          	slti	ra,sp,-256
    4748:	79d60217          	auipc	tp,0x79d60
    474c:	3eaa6197          	auipc	gp,0x3eaa6
    4750:	0070c0b3          	xor	ra,ra,t2
    4754:	401080b3          	sub	ra,ra,ra
    4758:	0112d09b          	srliw	ra,t0,0x11
    475c:	46512193          	slti	gp,sp,1125
    4760:	00f1511b          	srliw	sp,sp,0xf
    4764:	0051b1b3          	sltu	gp,gp,t0
    4768:	d1fee0b7          	lui	ra,0xd1fee
    476c:	0023121b          	slliw	tp,t1,0x2
    4770:	edf1c213          	xori	tp,gp,-289
    4774:	32818093          	addi	ra,gp,808 # 0x3eaaaa74
    4778:	016ff133          	and	sp,t6,s6
    477c:	4011d2b3          	sra	t0,gp,ra
    4780:	4001813b          	subw	sp,gp,zero
    4784:	d5b1819b          	addiw	gp,gp,-677
    4788:	b1b3e193          	ori	gp,t2,-1253
    478c:	29e5f117          	auipc	sp,0x29e5f
    4790:	fc772e17          	auipc	t3,0xfc772
    4794:	0051119b          	slliw	gp,sp,0x5
    4798:	7ecd01b7          	lui	gp,0x7ecd0
    479c:	0023e1b3          	or	gp,t2,sp
    47a0:	0011e0b3          	or	ra,gp,ra
    47a4:	e81fb197          	auipc	gp,0xe81fb
    47a8:	a8fce317          	auipc	t1,0xa8fce
    47ac:	a3837313          	andi	t1,t1,-1480
    47b0:	0070a1b3          	slt	gp,ra,t2
    47b4:	003480b3          	add	ra,s1,gp
    47b8:	0022d133          	srl	sp,t0,sp
    47bc:	02316133          	rem	sp,sp,gp
    47c0:	003b60b3          	or	ra,s6,gp
    47c4:	40118133          	sub	sp,gp,ra
    47c8:	52220a63          	beq	tp,sp,0x4cfc
    47cc:	530001ef          	jal	gp,0x4cfc
    47d0:	da21c093          	xori	ra,gp,-606
    47d4:	002196b3          	sll	a3,gp,sp
    47d8:	0041109b          	slliw	ra,sp,0x4
    47dc:	0031f033          	and	zero,gp,gp
    47e0:	ad35c113          	xori	sp,a1,-1325
    47e4:	4060d1bb          	sraw	gp,ra,t1
    47e8:	0232e233          	rem	tp,t0,gp
    47ec:	c0269317          	auipc	t1,0xc0269
    47f0:	b590a093          	slti	ra,ra,-1191
    47f4:	8d9be317          	auipc	t1,0x8d9be
    47f8:	00122133          	slt	sp,tp,ra
    47fc:	4030d13b          	sraw	sp,ra,gp
    4800:	001350bb          	srlw	ra,t1,ra
    4804:	77303193          	sltiu	gp,zero,1907
    4808:	206cc097          	auipc	ra,0x206cc
    480c:	40115193          	srai	gp,sp,0x1
    4810:	00c3919b          	slliw	gp,t2,0xc
    4814:	0090d233          	srl	tp,ra,s1
    4818:	42c0d113          	srai	sp,ra,0x2c
    481c:	000170b3          	and	ra,sp,zero
    4820:	0161941b          	slliw	s0,gp,0x16
    4824:	91bfc237          	lui	tp,0x91bfc
    4828:	0191131b          	slliw	t1,sp,0x19
    482c:	2b013193          	sltiu	gp,sp,688
    4830:	40f1d0b3          	sra	ra,gp,a5
    4834:	31f10093          	addi	ra,sp,799 # 0x29e63aab
    4838:	0070909b          	slliw	ra,ra,0x7
    483c:	00219133          	sll	sp,gp,sp
    4840:	d6d3f113          	andi	sp,t2,-659
    4844:	00207033          	and	zero,zero,sp
    4848:	40515133          	sra	sp,sp,t0
    484c:	d2200137          	lui	sp,0xd2200
    4850:	001a4e33          	xor	t3,s4,ra
    4854:	00119133          	sll	sp,gp,ra
    4858:	7649a097          	auipc	ra,0x7649a
    485c:	c820f8e3          	bgeu	ra,sp,0x44ec
    4860:	c820e6e3          	bltu	ra,sp,0x44ec
    4864:	0010d1b3          	srl	gp,ra,ra
    4868:	81614093          	xori	ra,sp,-2026
    486c:	0020013b          	addw	sp,zero,sp
    4870:	022ce133          	rem	sp,s9,sp
    4874:	57027197          	auipc	gp,0x57027
    4878:	0237f133          	remu	sp,a5,gp
    487c:	4041013b          	subw	sp,sp,tp
    4880:	00114133          	xor	sp,sp,ra
    4884:	b04730b7          	lui	ra,0xb0473
    4888:	1a812113          	slti	sp,sp,424
    488c:	7a01811b          	addiw	sp,gp,1952
    4890:	ec31821b          	addiw	tp,gp,-317
    4894:	403300bb          	subw	ra,t1,gp
    4898:	003101bb          	addw	gp,sp,gp
    489c:	003190bb          	sllw	ra,gp,gp
    48a0:	6131a113          	slti	sp,gp,1555
    48a4:	63668797          	auipc	a5,0x63668
    48a8:	02230133          	mul	sp,t1,sp
    48ac:	ca83819b          	addiw	gp,t2,-856
    48b0:	22899117          	auipc	sp,0x22899
    48b4:	19773097          	auipc	ra,0x19773
    48b8:	0011c3b3          	xor	t2,gp,ra
    48bc:	0001d2b3          	srl	t0,gp,zero
    48c0:	cf368097          	auipc	ra,0xcf368
    48c4:	2bc62193          	slti	gp,a2,700
    48c8:	45e2e093          	ori	ra,t0,1118
    48cc:	346c91b7          	lui	gp,0x346c9
    48d0:	4f20b113          	sltiu	sp,ra,1266
    48d4:	5c53019b          	addiw	gp,t1,1477
    48d8:	627d40b7          	lui	ra,0x627d4
    48dc:	8f51c213          	xori	tp,gp,-1803
    48e0:	00210133          	add	sp,sp,sp
    48e4:	73f23fb7          	lui	t6,0x73f23
    48e8:	02f7d0b3          	divu	ra,a5,a5
    48ec:	406101bb          	subw	gp,sp,t1
    48f0:	4010d1bb          	sraw	gp,ra,ra
    48f4:	401203bb          	subw	t2,tp,ra
    48f8:	00018313          	mv	t1,gp
    48fc:	c83300e3          	beq	t1,gp,0x457c
    4900:	0063d2b3          	srl	t0,t2,t1
    4904:	4030813b          	subw	sp,ra,gp
    4908:	03509793          	slli	a5,ra,0x35
    490c:	1a563097          	auipc	ra,0x1a563
    4910:	0212e1b3          	rem	gp,t0,ra
    4914:	897a6093          	ori	ra,s4,-1897
    4918:	0023013b          	addw	sp,t1,sp
    491c:	4032513b          	sraw	sp,tp,gp
    4920:	002073b3          	and	t2,zero,sp
    4924:	e4f660b7          	lui	ra,0xe4f66
    4928:	000131b3          	sltu	gp,sp,zero
    492c:	1030a193          	slti	gp,ra,259
    4930:	6b74b8b7          	lui	a7,0x6b74b
    4934:	01b180bb          	addw	ra,gp,s11
    4938:	401103b3          	sub	t2,sp,ra
    493c:	cd4cd117          	auipc	sp,0xcd4cd
    4940:	bcb1f1b7          	lui	gp,0xbcb1f
    4944:	9d50e193          	ori	gp,ra,-1579
    4948:	4003d113          	srai	sp,t2,0x0
    494c:	7eb10137          	lui	sp,0x7eb10
    4950:	01f0919b          	slliw	gp,ra,0x1f
    4954:	52c14093          	xori	ra,sp,1324
    4958:	65d1e113          	ori	sp,gp,1629
    495c:	41e0d11b          	sraiw	sp,ra,0x1e
    4960:	0231d133          	divu	sp,gp,gp
    4964:	0020803b          	addw	zero,ra,sp
    4968:	b0a3f1b7          	lui	gp,0xb0a3f
    496c:	020141b3          	div	gp,sp,zero
    4970:	023080b3          	mul	ra,ra,gp
    4974:	006381b3          	add	gp,t2,t1
    4978:	4e4e9037          	lui	zero,0x4e4e9
    497c:	e760f193          	andi	gp,ra,-394
    4980:	69aebb37          	lui	s6,0x69aeb
    4984:	0041c2b3          	xor	t0,gp,tp
    4988:	0232e6b3          	rem	a3,t0,gp
    498c:	0071909b          	slliw	ra,gp,0x7
    4990:	402b0133          	sub	sp,s6,sp
    4994:	00098113          	mv	sp,s3
    4998:	01310263          	beq	sp,s3,0x499c
    499c:	40cd7197          	auipc	gp,0x40cd7
    49a0:	6841a093          	slti	ra,gp,1668
    49a4:	4042523b          	sraw	tp,tp,tp
    49a8:	6551c193          	xori	gp,gp,1621
    49ac:	f6498137          	lui	sp,0xf6498
    49b0:	7921809b          	addiw	ra,gp,1938
    49b4:	b90693b7          	lui	t2,0xb9069
    49b8:	cd610393          	addi	t2,sp,-810 # 0xfffffffff6497cd6
    49bc:	0031d11b          	srliw	sp,gp,0x3
    49c0:	c1e2f093          	andi	ra,t0,-994
    49c4:	0201f0b3          	remu	ra,gp,zero
    49c8:	0b43e317          	auipc	t1,0xb43e
    49cc:	4b01f293          	andi	t0,gp,1200
    49d0:	953d4117          	auipc	sp,0x953d4
    49d4:	0020d13b          	srlw	sp,ra,sp
    49d8:	0021e0b3          	or	ra,gp,sp
    49dc:	3d3b8197          	auipc	gp,0x3d3b8
    49e0:	e1379137          	lui	sp,0xe1379
    49e4:	b0d0f193          	andi	gp,ra,-1267
    49e8:	0050d13b          	srlw	sp,ra,t0
    49ec:	e9318093          	addi	ra,gp,-365 # 0x3d3bc86f
    49f0:	0000539b          	srliw	t2,zero,0x0
    49f4:	0025d3bb          	srlw	t2,a1,sp
    49f8:	004331b3          	sltu	gp,t1,tp
    49fc:	00d161b3          	or	gp,sp,a3
    4a00:	0041911b          	slliw	sp,gp,0x4
    4a04:	3d948697          	auipc	a3,0x3d948
    4a08:	4c888017          	auipc	zero,0x4c888
    4a0c:	0011139b          	slliw	t2,sp,0x1
    4a10:	753fe497          	auipc	s1,0x753fe
    4a14:	a110af13          	slti	t5,ra,-1519
    4a18:	0221c1b3          	div	gp,gp,sp
    4a1c:	34a1c113          	xori	sp,gp,842
    4a20:	00310133          	add	sp,sp,gp
    4a24:	4031f263          	bgeu	gp,gp,0x4e28
    4a28:	4031e063          	bltu	gp,gp,0x4e28
    4a2c:	5020a413          	slti	s0,ra,1282
    4a30:	4031d13b          	sraw	sp,gp,gp
    4a34:	23808113          	addi	sp,ra,568 # 0xffffffffe4f66238
    4a38:	ee317113          	andi	sp,sp,-285
    4a3c:	02921193          	slli	gp,tp,0x29
    4a40:	24cd8097          	auipc	ra,0x24cd8
    4a44:	a49a20b7          	lui	ra,0xa49a2
    4a48:	196fb197          	auipc	gp,0x196fb
    4a4c:	0031c0b3          	xor	ra,gp,gp
    4a50:	01d0909b          	slliw	ra,ra,0x1d
    4a54:	4030d0bb          	sraw	ra,ra,gp
    4a58:	022053b3          	divu	t2,zero,sp
    4a5c:	0111911b          	slliw	sp,gp,0x11
    4a60:	0031a0b3          	slt	ra,gp,gp
    4a64:	f8c13013          	sltiu	zero,sp,-116
    4a68:	b44cc317          	auipc	t1,0xb44cc
    4a6c:	4021533b          	sraw	t1,sp,sp
    4a70:	d9d33137          	lui	sp,0xd9d33
    4a74:	07b7a093          	slti	ra,a5,123
    4a78:	f7c783b7          	lui	t2,0xf7c78
    4a7c:	023e3313          	sltiu	t1,t3,35
    4a80:	6cd1c193          	xori	gp,gp,1741
    4a84:	8a813213          	sltiu	tp,sp,-1880
    4a88:	8880f0b7          	lui	ra,0x8880f
    4a8c:	99aa5317          	auipc	t1,0x99aa5
    4a90:	0000d133          	srl	sp,ra,zero
    4a94:	022200b3          	mul	ra,tp,sp
    4a98:	009110bb          	sllw	ra,sp,s1
    4a9c:	bb50a013          	slti	zero,ra,-1099
    4aa0:	0030d1bb          	srlw	gp,ra,gp
    4aa4:	b3797017          	auipc	zero,0xb3797
    4aa8:	8bd13113          	sltiu	sp,sp,-1859
    4aac:	43625193          	srai	gp,tp,0x36
    4ab0:	402180b3          	sub	ra,gp,sp
    4ab4:	003101b3          	add	gp,sp,gp
    4ab8:	da1376e3          	bgeu	t1,ra,0x4864
    4abc:	da1364e3          	bltu	t1,ra,0x4864
    4ac0:	0020aab3          	slt	s5,ra,sp
    4ac4:	c501b013          	sltiu	zero,gp,-944
    4ac8:	02330333          	mul	t1,t1,gp
    4acc:	6cad5017          	auipc	zero,0x6cad5
    4ad0:	02315133          	divu	sp,sp,gp
    4ad4:	3af17313          	andi	t1,sp,943
    4ad8:	cad56093          	ori	ra,a0,-851
    4adc:	4031579b          	sraiw	a5,sp,0x3
    4ae0:	8be1c193          	xori	gp,gp,-1858
    4ae4:	0030d0bb          	srlw	ra,ra,gp
    4ae8:	a2b7f037          	lui	zero,0xa2b7f
    4aec:	0010f3b3          	and	t2,ra,ra
    4af0:	c5913113          	sltiu	sp,sp,-935
    4af4:	58318113          	addi	sp,gp,1411 # 0x196fffcb
    4af8:	0014e1b3          	or	gp,s1,ra
    4afc:	024081b3          	mul	gp,ra,tp
    4b00:	c87eb117          	auipc	sp,0xc87eb
    4b04:	002391bb          	sllw	gp,t2,sp
    4b08:	40b10113          	addi	sp,sp,1035 # 0xffffffffc87eff0b
    4b0c:	8958f137          	lui	sp,0x8958f
    4b10:	87efd117          	auipc	sp,0x87efd
    4b14:	004311b3          	sll	gp,t1,tp
    4b18:	e451019b          	addiw	gp,sp,-443
    4b1c:	7c0de2b7          	lui	t0,0x7c0de
    4b20:	0260f1b3          	remu	gp,ra,t1
    4b24:	00112c33          	slt	s8,sp,ra
    4b28:	10e7e197          	auipc	gp,0x10e7e
    4b2c:	0011b333          	sltu	t1,gp,ra
    4b30:	6f8353b7          	lui	t2,0x6f835
    4b34:	9ea5e1b7          	lui	gp,0x9ea5e
    4b38:	01619193          	slli	gp,gp,0x16
    4b3c:	c04302e3          	beq	t1,tp,0x4740
    4b40:	c01ff0ef          	jal	ra,0x4740
    4b44:	0031e0b3          	or	ra,gp,gp
    4b48:	403101b3          	sub	gp,sp,gp
    4b4c:	ac41e2b7          	lui	t0,0xac41e
    4b50:	0000c0b3          	xor	ra,ra,zero
    4b54:	6fd30113          	addi	sp,t1,1789 # 0xffffffff99aaa189
    4b58:	0064813b          	addw	sp,s1,t1
    4b5c:	082e8317          	auipc	t1,0x82e8
    4b60:	4a617193          	andi	gp,sp,1190
    4b64:	4021d13b          	sraw	sp,gp,sp
    4b68:	90d24113          	xori	sp,tp,-1779
    4b6c:	01a1d31b          	srliw	t1,gp,0x1a
    4b70:	5878a0b7          	lui	ra,0x5878a
    4b74:	c0a06e13          	ori	t3,zero,-1014
    4b78:	c830c093          	xori	ra,ra,-893
    4b7c:	0020d99b          	srliw	s3,ra,0x2
    4b80:	02210033          	mul	zero,sp,sp
    4b84:	6cd9a0b7          	lui	ra,0x6cd9a
    4b88:	4380c193          	xori	gp,ra,1080
    4b8c:	c759a117          	auipc	sp,0xc759a
    4b90:	dc30b113          	sltiu	sp,ra,-573
    4b94:	0171109b          	slliw	ra,sp,0x17
    4b98:	0251e1b3          	rem	gp,gp,t0
    4b9c:	001111bb          	sllw	gp,sp,ra
    4ba0:	5a416293          	ori	t0,sp,1444
    4ba4:	403100b3          	sub	ra,sp,gp
    4ba8:	02b180b3          	mul	ra,gp,a1
    4bac:	0013013b          	addw	sp,t1,ra
    4bb0:	02609113          	slli	sp,ra,0x26
    4bb4:	faf03197          	auipc	gp,0xfaf03
    4bb8:	917ba197          	auipc	gp,0x917ba
    4bbc:	006090b3          	sll	ra,ra,t1
    4bc0:	47aa90b7          	lui	ra,0x47aa9
    4bc4:	4021d13b          	sraw	sp,gp,sp
    4bc8:	c9e27213          	andi	tp,tp,-866
    4bcc:	403350b3          	sra	ra,t1,gp
    4bd0:	00008093          	mv	ra,ra
    4bd4:	34108c63          	beq	ra,ra,0x4f2c
    4bd8:	0011e133          	or	sp,gp,ra
    4bdc:	23d12793          	slti	a5,sp,573
    4be0:	00217333          	and	t1,sp,sp
    4be4:	2a3931b7          	lui	gp,0x2a393
    4be8:	e1a1d337          	lui	t1,0xe1a1d
    4bec:	4021d7bb          	sraw	a5,gp,sp
    4bf0:	002081b3          	add	gp,ra,sp
    4bf4:	876a40b7          	lui	ra,0x876a4
    4bf8:	0023c133          	xor	sp,t2,sp
    4bfc:	0012a333          	slt	t1,t0,ra
    4c00:	1020d137          	lui	sp,0x1020d
    4c04:	ab71a113          	slti	sp,gp,-1353
    4c08:	f5f38193          	addi	gp,t2,-161 # 0x6f834f5f
    4c0c:	d0d6ff13          	andi	t5,a3,-755
    4c10:	01609113          	slli	sp,ra,0x16
    4c14:	5c4ca037          	lui	zero,0x5c4ca
    4c18:	022171b3          	remu	gp,sp,sp
    4c1c:	002081bb          	addw	gp,ra,sp
    4c20:	03001313          	slli	t1,zero,0x30
    4c24:	40e1d23b          	sraw	tp,gp,a4
    4c28:	01b0519b          	srliw	gp,zero,0x1b
    4c2c:	bcda6e37          	lui	t3,0xbcda6
    4c30:	00715133          	srl	sp,sp,t2
    4c34:	40d1521b          	sraiw	tp,sp,0xd
    4c38:	c8402213          	slti	tp,zero,-892
    4c3c:	c2991197          	auipc	gp,0xc2991
    4c40:	0010921b          	slliw	tp,ra,0x1
    4c44:	00f1511b          	srliw	sp,sp,0xf
    4c48:	003082b3          	add	t0,ra,gp
    4c4c:	34441237          	lui	tp,0x34441
    4c50:	0007d1b3          	srl	gp,a5,zero
    4c54:	d8604093          	xori	ra,zero,-634
    4c58:	02237233          	remu	tp,t1,sp
    4c5c:	00010113          	mv	sp,sp
    4c60:	dc2106e3          	beq	sp,sp,0x4a2c
    4c64:	8b993137          	lui	sp,0x8b993
    4c68:	003360b3          	or	ra,t1,gp
    4c6c:	ff4da1b7          	lui	gp,0xff4da
    4c70:	40130133          	sub	sp,t1,ra
    4c74:	002141b3          	xor	gp,sp,sp
    4c78:	025ce133          	rem	sp,s9,t0
    4c7c:	a8c0b093          	sltiu	ra,ra,-1396
    4c80:	40f0d13b          	sraw	sp,ra,a5
    4c84:	0010d193          	srli	gp,ra,0x1
    4c88:	01e39233          	sll	tp,t2,t5
    4c8c:	f9d34013          	xori	zero,t1,-99
    4c90:	98032093          	slti	ra,t1,-1664
    4c94:	0033d0bb          	srlw	ra,t2,gp
    4c98:	005161b3          	or	gp,sp,t0
    4c9c:	00115133          	srl	sp,sp,ra
    4ca0:	002121b3          	slt	gp,sp,sp
    4ca4:	021dd1b3          	divu	gp,s11,ra
    4ca8:	0211e2b3          	rem	t0,gp,ra
    4cac:	57610213          	addi	tp,sp,1398 # 0xffffffff8b993576
    4cb0:	e02b7137          	lui	sp,0xe02b7
    4cb4:	0021f1b3          	and	gp,gp,sp
    4cb8:	193f2197          	auipc	gp,0x193f2
    4cbc:	00310133          	add	sp,sp,gp
    4cc0:	c771011b          	addiw	sp,sp,-905
    4cc4:	9ef29137          	lui	sp,0x9ef29
    4cc8:	66b4c393          	xori	t2,s1,1643
    4ccc:	164df137          	lui	sp,0x164df
    4cd0:	403080b3          	sub	ra,ra,gp
    4cd4:	02a15113          	srli	sp,sp,0x2a
    4cd8:	0231d1b3          	divu	gp,gp,gp
    4cdc:	4031d13b          	sraw	sp,gp,gp
    4ce0:	a7039c97          	auipc	s9,0xa7039
    4ce4:	0231e1b3          	rem	gp,gp,gp
    4ce8:	00236b33          	or	s6,t1,sp
    4cec:	330bf117          	auipc	sp,0x330bf
    4cf0:	d9508f9b          	addiw	t6,ra,-619
    4cf4:	00000117          	auipc	sp,0x0
    4cf8:	dcc105e7          	jalr	a1,-564(sp) # 0x4ac0
    4cfc:	4010893b          	subw	s2,ra,ra
    4d00:	02608293          	addi	t0,ra,38 # 0xffffffff876a4026
    4d04:	00310033          	add	zero,sp,gp
    4d08:	0051a0b3          	slt	ra,gp,t0
    4d0c:	0011f133          	and	sp,gp,ra
    4d10:	00214133          	xor	sp,sp,sp
    4d14:	402200b3          	sub	ra,tp,sp
    4d18:	fb91a093          	slti	ra,gp,-71
    4d1c:	13a14093          	xori	ra,sp,314
    4d20:	0221e133          	rem	sp,gp,sp
    4d24:	0013c133          	xor	sp,t2,ra
    4d28:	00a2119b          	slliw	gp,tp,0xa
    4d2c:	403103bb          	subw	t2,sp,gp
    4d30:	0230c3b3          	div	t2,ra,gp
    4d34:	00712233          	slt	tp,sp,t2
    4d38:	36506093          	ori	ra,zero,869
    4d3c:	e041b013          	sltiu	zero,gp,-508
    4d40:	002101b3          	add	gp,sp,sp
    4d44:	00ca4137          	lui	sp,0xca4
    4d48:	27fe0017          	auipc	zero,0x27fe0
    4d4c:	74a74137          	lui	sp,0x74a74
    4d50:	7db9d137          	lui	sp,0x7db9d
    4d54:	c0d26137          	lui	sp,0xc0d26
    4d58:	403253bb          	sraw	t2,tp,gp
    4d5c:	0021e1b3          	or	gp,gp,sp
    4d60:	c010809b          	addiw	ra,ra,-1023
    4d64:	ab5a8137          	lui	sp,0xab5a8
    4d68:	c73de193          	ori	gp,s11,-909
    4d6c:	02000a33          	mul	s4,zero,zero
    4d70:	0075a0b3          	slt	ra,a1,t2
    4d74:	adb0c093          	xori	ra,ra,-1317
    4d78:	00311393          	slli	t2,sp,0x3
    4d7c:	40135133          	sra	sp,t1,ra
    4d80:	3cb12093          	slti	ra,sp,971
    4d84:	00300263          	beq	zero,gp,0x4d88
    4d88:	e38ff0ef          	jal	ra,0x43c0
    4d8c:	1d43f093          	andi	ra,t2,468
    4d90:	002192bb          	sllw	t0,gp,sp
    4d94:	7331811b          	addiw	sp,gp,1843
    4d98:	022300b3          	mul	ra,t1,sp
    4d9c:	0051919b          	slliw	gp,gp,0x5
    4da0:	002091b3          	sll	gp,ra,sp
    4da4:	0061b6b3          	sltu	a3,gp,t1
    4da8:	42b15013          	srai	zero,sp,0x2b
    4dac:	e21341b7          	lui	gp,0xe2134
    4db0:	000002b3          	add	t0,zero,zero
    4db4:	30f1b093          	sltiu	ra,gp,783
    4db8:	3a30811b          	addiw	sp,ra,931
    4dbc:	0031d0b3          	srl	ra,gp,gp
    4dc0:	69a0a193          	slti	gp,ra,1690
    4dc4:	0100911b          	slliw	sp,ra,0x10
    4dc8:	36218793          	addi	a5,gp,866 # 0xffffffffe2134362
    4dcc:	105480b7          	lui	ra,0x10548
    4dd0:	9ad1059b          	addiw	a1,sp,-1619
    4dd4:	03469393          	slli	t2,a3,0x34
    4dd8:	0022113b          	sllw	sp,tp,sp
    4ddc:	0021e233          	or	tp,gp,sp
    4de0:	c0bda337          	lui	t1,0xc0bda
    4de4:	02116133          	rem	sp,sp,ra
    4de8:	02420133          	mul	sp,tp,tp
    4dec:	402151bb          	sraw	gp,sp,sp
    4df0:	0110d19b          	srliw	gp,ra,0x11
    4df4:	41e5531b          	sraiw	t1,a0,0x1e
    4df8:	001301b3          	add	gp,t1,ra
    4dfc:	0a80f193          	andi	gp,ra,168
    4e00:	0010e2b3          	or	t0,ra,ra
    4e04:	40218333          	sub	t1,gp,sp
    4e08:	0021d0bb          	srlw	ra,gp,sp
    4e0c:	00e171b3          	and	gp,sp,a4
    4e10:	ff930113          	addi	sp,t1,-7 # 0xffffffffc0bd9ff9
    4e14:	e600b197          	auipc	gp,0xe600b
    4e18:	4d68a1b7          	lui	gp,0x4d68a
    4e1c:	0020d333          	srl	t1,ra,sp
    4e20:	00608263          	beq	ra,t1,0x4e24
    4e24:	fecff26f          	jal	tp,0x4610
    4e28:	0241e4b3          	rem	s1,gp,tp
    4e2c:	00314333          	xor	t1,sp,gp
    4e30:	f287a0b7          	lui	ra,0xf287a
    4e34:	56122113          	slti	sp,tp,1377
    4e38:	3b002113          	slti	sp,zero,944
    4e3c:	f1b36113          	ori	sp,t1,-229
    4e40:	4199509b          	sraiw	ra,s2,0x19
    4e44:	190030b7          	lui	ra,0x19003
    4e48:	2f727113          	andi	sp,tp,759
    4e4c:	003360b3          	or	ra,t1,gp
    4e50:	0203d0b3          	divu	ra,t2,zero
    4e54:	4031013b          	subw	sp,sp,gp
    4e58:	0051bdb3          	sltu	s11,gp,t0
    4e5c:	c4d43137          	lui	sp,0xc4d43
    4e60:	fae2a793          	slti	a5,t0,-82
    4e64:	ee60811b          	addiw	sp,ra,-282
    4e68:	2221f397          	auipc	t2,0x2221f
    4e6c:	173f5017          	auipc	zero,0x173f5
    4e70:	4151d093          	srai	ra,gp,0x15
    4e74:	f7130317          	auipc	t1,0xf7130
    4e78:	4c0d3197          	auipc	gp,0x4c0d3
    4e7c:	006092b3          	sll	t0,ra,t1
    4e80:	46514393          	xori	t2,sp,1125
    4e84:	b945b197          	auipc	gp,0xb945b
    4e88:	1c91019b          	addiw	gp,sp,457
    4e8c:	003090bb          	sllw	ra,ra,gp
    4e90:	00309133          	sll	sp,ra,gp
    4e94:	0023c133          	xor	sp,t2,sp
    4e98:	01c1509b          	srliw	ra,sp,0x1c
    4e9c:	4071509b          	sraiw	ra,sp,0x7
    4ea0:	00168133          	add	sp,a3,ra
    4ea4:	e23fb097          	auipc	ra,0xe23fb
    4ea8:	00008193          	mv	gp,ra
    4eac:	00118263          	beq	gp,ra,0x4eb0
    4eb0:	4011d6bb          	sraw	a3,gp,ra
    4eb4:	402152bb          	sraw	t0,sp,sp
    4eb8:	002160b3          	or	ra,sp,sp
    4ebc:	4793e113          	ori	sp,t2,1145
    4ec0:	01611293          	slli	t0,sp,0x16
    4ec4:	02301693          	slli	a3,zero,0x23
    4ec8:	0251d0b3          	divu	ra,gp,t0
    4ecc:	403182b3          	sub	t0,gp,gp
    4ed0:	0010b133          	sltu	sp,ra,ra
    4ed4:	4001813b          	subw	sp,gp,zero
    4ed8:	7dd14093          	xori	ra,sp,2013
    4edc:	0025f233          	and	tp,a1,sp
    4ee0:	0550811b          	addiw	sp,ra,85
    4ee4:	002090b3          	sll	ra,ra,sp
    4ee8:	4019d333          	sra	t1,s3,ra
    4eec:	b070e193          	ori	gp,ra,-1273
    4ef0:	0a730137          	lui	sp,0xa730
    4ef4:	00218133          	add	sp,gp,sp
    4ef8:	f296e093          	ori	ra,a3,-215
    4efc:	8441e213          	ori	tp,gp,-1980
    4f00:	9ff0011b          	addiw	sp,zero,-1537
    4f04:	4021d11b          	sraiw	sp,gp,0x2
    4f08:	516890b7          	lui	ra,0x51689
    4f0c:	4101d11b          	sraiw	sp,gp,0x10
    4f10:	2967c037          	lui	zero,0x2967c
    4f14:	5101c813          	xori	a6,gp,1296
    4f18:	001341b3          	xor	gp,t1,ra
    4f1c:	002180bb          	addw	ra,gp,sp
    4f20:	00311e3b          	sllw	t3,sp,gp
    4f24:	01210263          	beq	sp,s2,0x4f28
    4f28:	d24ff5ef          	jal	a1,0x444c
    4f2c:	0073d0bb          	srlw	ra,t2,t2
    4f30:	4060d0bb          	sraw	ra,ra,t1
    4f34:	f681f113          	andi	sp,gp,-152
    4f38:	02209093          	slli	ra,ra,0x22
    4f3c:	405187b3          	sub	a5,gp,t0
    4f40:	00d100b3          	add	ra,sp,a3
    4f44:	a5e0801b          	addiw	zero,ra,-1442
    4f48:	002161b3          	or	gp,sp,sp
    4f4c:	002210b3          	sll	ra,tp,sp
    4f50:	41a8513b          	sraw	sp,a6,s10
    4f54:	002141b3          	xor	gp,sp,sp
    4f58:	4030d2b3          	sra	t0,ra,gp
    4f5c:	0011913b          	sllw	sp,gp,ra
    4f60:	43764197          	auipc	gp,0x43764
    4f64:	401101bb          	subw	gp,sp,ra
    4f68:	8ca9e1b7          	lui	gp,0x8ca9e
    4f6c:	0232e5b3          	rem	a1,t0,gp
    4f70:	2751011b          	addiw	sp,sp,629
    4f74:	04d16213          	ori	tp,sp,77
    4f78:	02615133          	divu	sp,sp,t1
    4f7c:	55a1c317          	auipc	t1,0x55a1c
    4f80:	022241b3          	div	gp,tp,sp
    4f84:	8b4540b7          	lui	ra,0x8b454
    4f88:	0060903b          	sllw	zero,ra,t1
    4f8c:	a8d27193          	andi	gp,tp,-1395
    4f90:	001091b3          	sll	gp,ra,ra
    4f94:	02610133          	mul	sp,sp,t1
    4f98:	3350e093          	ori	ra,ra,821
    4f9c:	0121d313          	srli	t1,gp,0x12
    4fa0:	0323d193          	srli	gp,t2,0x32
    4fa4:	0080a093          	slti	ra,ra,8
    4fa8:	46e430b7          	lui	ra,0x46e43
    4fac:	00117133          	and	sp,sp,ra
    4fb0:	5081a213          	slti	tp,gp,1288
    4fb4:	00010263          	beqz	sp,0x4fb8
    4fb8:	0d9003ef          	jal	t2,0x5890
    4fbc:	dab02113          	slti	sp,zero,-597
    4fc0:	001180bb          	addw	ra,gp,ra
    4fc4:	0191111b          	slliw	sp,sp,0x19
    4fc8:	8230001b          	addiw	zero,zero,-2013
    4fcc:	001491b3          	sll	gp,s1,ra
    4fd0:	34d26117          	auipc	sp,0x34d26
    4fd4:	0020b1b3          	sltu	gp,ra,sp
    4fd8:	8da0009b          	addiw	ra,zero,-1830
    4fdc:	0030d133          	srl	sp,ra,gp
    4fe0:	0827811b          	addiw	sp,a5,130
    4fe4:	0012823b          	addw	tp,t0,ra
    4fe8:	0220e1b3          	rem	gp,ra,sp
    4fec:	73b0b193          	sltiu	gp,ra,1851
    4ff0:	4011d233          	sra	tp,gp,ra
    4ff4:	40110133          	sub	sp,sp,ra
    4ff8:	001011bb          	sllw	gp,zero,ra
    4ffc:	92d02113          	slti	sp,zero,-1747
    5000:	6dff00b7          	lui	ra,0x6dff0
    5004:	565f21b7          	lui	gp,0x565f2
    5008:	0230d233          	divu	tp,ra,gp
    500c:	f578d337          	lui	t1,0xf578d
    5010:	02216133          	rem	sp,sp,sp
    5014:	4031d0b3          	sra	ra,gp,gp
    5018:	00010033          	add	zero,sp,zero
    501c:	02210133          	mul	sp,sp,sp
    5020:	bf51b113          	sltiu	sp,gp,-1035
    5024:	4ee0f193          	andi	gp,ra,1262
    5028:	d0b43137          	lui	sp,0xd0b43
    502c:	6b7bd137          	lui	sp,0x6b7bd
    5030:	00310263          	beq	sp,gp,0x5034
    5034:	0e5000ef          	jal	ra,0x5918
    5038:	00f041b3          	xor	gp,zero,a5
    503c:	0060909b          	slliw	ra,ra,0x6
    5040:	4000d0bb          	sraw	ra,ra,zero
    5044:	e4f26137          	lui	sp,0xe4f26
    5048:	0012d2bb          	srlw	t0,t0,ra
    504c:	cce16093          	ori	ra,sp,-818
    5050:	023080b3          	mul	ra,ra,gp
    5054:	02517133          	remu	sp,sp,t0
    5058:	406100b3          	sub	ra,sp,t1
    505c:	98cd31b7          	lui	gp,0x98cd3
    5060:	0775b197          	auipc	gp,0x775b
    5064:	b1933193          	sltiu	gp,t1,-1255
    5068:	507fd137          	lui	sp,0x507fd
    506c:	f5023093          	sltiu	ra,tp,-176
    5070:	0030d333          	srl	t1,ra,gp
    5074:	1890a193          	slti	gp,ra,393
    5078:	044e4297          	auipc	t0,0x44e4
    507c:	40d7d293          	srai	t0,a5,0xd
    5080:	005041b3          	xor	gp,zero,t0
    5084:	9e77a197          	auipc	gp,0x9e77a
    5088:	4060d0b3          	sra	ra,ra,t1
    508c:	1df36093          	ori	ra,t1,479
    5090:	003211bb          	sllw	gp,tp,gp
    5094:	d947f013          	andi	zero,a5,-620
    5098:	d753a193          	slti	gp,t2,-651
    509c:	f9f97137          	lui	sp,0xf9f97
    50a0:	3f01f093          	andi	ra,gp,1008
    50a4:	2f232093          	slti	ra,t1,754
    50a8:	4151511b          	sraiw	sp,sp,0x15
    50ac:	40210233          	sub	tp,sp,sp
    50b0:	0011b3b3          	sltu	t2,gp,ra
    50b4:	74ba3137          	lui	sp,0x74ba3
    50b8:	02214233          	div	tp,sp,sp
    50bc:	02109093          	slli	ra,ra,0x21
    50c0:	2cd0fe63          	bgeu	ra,a3,0x539c
    50c4:	2cd0ec63          	bltu	ra,a3,0x539c
    50c8:	a297b1b7          	lui	gp,0xa297b
    50cc:	3a03011b          	addiw	sp,t1,928
    50d0:	0221e5b3          	rem	a1,gp,sp
    50d4:	0237e133          	rem	sp,a5,gp
    50d8:	003164b3          	or	s1,sp,gp
    50dc:	f7716313          	ori	t1,sp,-137
    50e0:	aa928193          	addi	gp,t0,-1367 # 0x44e8b21
    50e4:	0261d1b3          	divu	gp,gp,t1
    50e8:	002100bb          	addw	ra,sp,sp
    50ec:	d18842b7          	lui	t0,0xd1884
    50f0:	efb12113          	slti	sp,sp,-261
    50f4:	00b16133          	or	sp,sp,a1
    50f8:	00119093          	slli	ra,gp,0x1
    50fc:	0062c0b3          	xor	ra,t0,t1
    5100:	b49be097          	auipc	ra,0xb49be
    5104:	4061d0b3          	sra	ra,gp,t1
    5108:	43e15093          	srai	ra,sp,0x3e
    510c:	0024d1bb          	srlw	gp,s1,sp
    5110:	42c5b137          	lui	sp,0x42c5b
    5114:	07e0e113          	ori	sp,ra,126
    5118:	002ad1b3          	srl	gp,s5,sp
    511c:	a36d41b7          	lui	gp,0xa36d4
    5120:	003110b3          	sll	ra,sp,gp
    5124:	80513093          	sltiu	ra,sp,-2043
    5128:	e521019b          	addiw	gp,sp,-430
    512c:	31308093          	addi	ra,ra,787 # 0xffffffffb49c3413
    5130:	4050813b          	subw	sp,ra,t0
    5134:	0081509b          	srliw	ra,sp,0x8
    5138:	005350b3          	srl	ra,t1,t0
    513c:	4030d1b3          	sra	gp,ra,gp
    5140:	4a813593          	sltiu	a1,sp,1192
    5144:	aaf1b193          	sltiu	gp,gp,-1361
    5148:	7d06a093          	slti	ra,a3,2000
    514c:	02514133          	div	sp,sp,t0
    5150:	0043e033          	or	zero,t2,tp
    5154:	4111511b          	sraiw	sp,sp,0x11
    5158:	00000117          	auipc	sp,0x0
    515c:	2d010267          	jalr	tp,720(sp) # 0x5428
    5160:	ad0342b7          	lui	t0,0xad034
    5164:	00d121b3          	slt	gp,sp,a3
    5168:	42a15193          	srai	gp,sp,0x2a
    516c:	7fc0c113          	xori	sp,ra,2044
    5170:	0220c333          	div	t1,ra,sp
    5174:	4bd5a113          	slti	sp,a1,1213
    5178:	fc471137          	lui	sp,0xfc471
    517c:	cd91e093          	ori	ra,gp,-807
    5180:	0053c3b3          	xor	t2,t2,t0
    5184:	138a61b7          	lui	gp,0x138a6
    5188:	28829117          	auipc	sp,0x28829
    518c:	0021e633          	or	a2,gp,sp
    5190:	0021b1b3          	sltu	gp,gp,sp
    5194:	01e0d09b          	srliw	ra,ra,0x1e
    5198:	0031b0b3          	sltu	ra,gp,gp
    519c:	0060e6b3          	or	a3,ra,t1
    51a0:	acf10093          	addi	ra,sp,-1329 # 0x2882dc57
    51a4:	002181b3          	add	gp,gp,sp
    51a8:	00f12133          	slt	sp,sp,a5
    51ac:	0020a133          	slt	sp,ra,sp
    51b0:	0266e333          	rem	t1,a3,t1
    51b4:	02326133          	rem	sp,tp,gp
    51b8:	00e11713          	slli	a4,sp,0xe
    51bc:	4062813b          	subw	sp,t0,t1
    51c0:	402151bb          	sraw	gp,sp,sp
    51c4:	d85f4197          	auipc	gp,0xd85f4
    51c8:	0017813b          	addw	sp,a5,ra
    51cc:	b710819b          	addiw	gp,ra,-1167
    51d0:	022173b3          	remu	t2,sp,sp
    51d4:	a7ff1297          	auipc	t0,0xa7ff1
    51d8:	01c0911b          	slliw	sp,ra,0x1c
    51dc:	5001e313          	ori	t1,gp,1280
    51e0:	d9208f9b          	addiw	t6,ra,-622
    51e4:	76322113          	slti	sp,tp,1891
    51e8:	00000117          	auipc	sp,0x0
    51ec:	3e0101e7          	jalr	gp,992(sp) # 0x55c8
    51f0:	16827337          	lui	t1,0x16827
    51f4:	002010bb          	sllw	ra,zero,sp
    51f8:	405180b3          	sub	ra,gp,t0
    51fc:	0030a5b3          	slt	a1,ra,gp
    5200:	317d5097          	auipc	ra,0x317d5
    5204:	0030b1b3          	sltu	gp,ra,gp
    5208:	022161b3          	rem	gp,sp,sp
    520c:	03519093          	slli	ra,gp,0x35
    5210:	b0c500b7          	lui	ra,0xb0c50
    5214:	9915e1b7          	lui	gp,0x9915e
    5218:	26c420b7          	lui	ra,0x26c42
    521c:	f660009b          	addiw	ra,zero,-154
    5220:	008111bb          	sllw	gp,sp,s0
    5224:	005690bb          	sllw	ra,a3,t0
    5228:	0020909b          	slliw	ra,ra,0x2
    522c:	0132519b          	srliw	gp,tp,0x13
    5230:	0020f0b3          	and	ra,ra,sp
    5234:	42425437          	lui	s0,0x42425
    5238:	0010513b          	srlw	sp,zero,ra
    523c:	401050bb          	sraw	ra,zero,ra
    5240:	6580f113          	andi	sp,ra,1624
    5244:	10c1b813          	sltiu	a6,gp,268
    5248:	0172d09b          	srliw	ra,t0,0x17
    524c:	403080b3          	sub	ra,ra,gp
    5250:	0086919b          	slliw	gp,a3,0x8
    5254:	0232f133          	remu	sp,t0,gp
    5258:	00609133          	sll	sp,ra,t1
    525c:	0041d133          	srl	sp,gp,tp
    5260:	79f08193          	addi	gp,ra,1951 # 0x26c4279f
    5264:	177ca313          	slti	t1,s9,375
    5268:	5034d463          	bge	s1,gp,0x5770
    526c:	5034c263          	blt	s1,gp,0x5770
    5270:	400101bb          	subw	gp,sp,zero
    5274:	2ac00313          	li	t1,684
    5278:	e1e4d137          	lui	sp,0xe1e4d
    527c:	004e0133          	add	sp,t3,tp
    5280:	00617133          	and	sp,sp,t1
    5284:	6801c093          	xori	ra,gp,1664
    5288:	23012213          	slti	tp,sp,560
    528c:	42a2d393          	srai	t2,t0,0x2a
    5290:	dc810693          	addi	a3,sp,-568 # 0xffffffffe1e4cdc8
    5294:	6b41b013          	sltiu	zero,gp,1716
    5298:	91959017          	auipc	zero,0x91959
    529c:	00c0511b          	srliw	sp,zero,0xc
    52a0:	40e2511b          	sraiw	sp,tp,0xe
    52a4:	12773117          	auipc	sp,0x12773
    52a8:	7d908193          	addi	gp,ra,2009
    52ac:	02f371b3          	remu	gp,t1,a5
    52b0:	ce3eb497          	auipc	s1,0xce3eb
    52b4:	0290d093          	srli	ra,ra,0x29
    52b8:	be07c097          	auipc	ra,0xbe07c
    52bc:	b9d0811b          	addiw	sp,ra,-1123
    52c0:	d0528593          	addi	a1,t0,-763 # 0xffffffffa7ff5ed9
    52c4:	62bbf093          	andi	ra,s7,1579
    52c8:	0031f133          	and	sp,gp,gp
    52cc:	4010ddb3          	sra	s11,ra,ra
    52d0:	41e0d29b          	sraiw	t0,ra,0x1e
    52d4:	6139d117          	auipc	sp,0x6139d
    52d8:	4360b093          	sltiu	ra,ra,1078
    52dc:	00c0919b          	slliw	gp,ra,0xc
    52e0:	01009093          	slli	ra,ra,0x10
    52e4:	00b1931b          	slliw	t1,gp,0xb
    52e8:	00329ab3          	sll	s5,t0,gp
    52ec:	e780f113          	andi	sp,ra,-392
    52f0:	0010f1b3          	and	gp,ra,ra
    52f4:	e9c6c093          	xori	ra,a3,-356
    52f8:	00213133          	sltu	sp,sp,sp
    52fc:	00000e17          	auipc	t3,0x0
    5300:	1b4e01e7          	jalr	gp,436(t3) # 0x54b0
    5304:	0110511b          	srliw	sp,zero,0x11
    5308:	4050813b          	subw	sp,ra,t0
    530c:	002390b3          	sll	ra,t2,sp
    5310:	007100b3          	add	ra,sp,t2
    5314:	40310c3b          	subw	s8,sp,gp
    5318:	001180b3          	add	ra,gp,ra
    531c:	88cba137          	lui	sp,0x88cba
    5320:	0021f033          	and	zero,gp,sp
    5324:	40d2d09b          	sraiw	ra,t0,0xd
    5328:	1fc13113          	sltiu	sp,sp,508
    532c:	4051d19b          	sraiw	gp,gp,0x5
    5330:	eea16093          	ori	ra,sp,-278
    5334:	0110539b          	srliw	t2,zero,0x11
    5338:	97f1811b          	addiw	sp,gp,-1665
    533c:	eebac3b7          	lui	t2,0xeebac
    5340:	0250f133          	remu	sp,ra,t0
    5344:	00e140b3          	xor	ra,sp,a4
    5348:	40d0d03b          	sraw	zero,ra,a3
    534c:	020081b3          	mul	gp,ra,zero
    5350:	02210033          	mul	zero,sp,sp
    5354:	001600b3          	add	ra,a2,ra
    5358:	00ea521b          	srliw	tp,s4,0xe
    535c:	1b9b61b7          	lui	gp,0x1b9b6
    5360:	121aa117          	auipc	sp,0x121aa
    5364:	8cc66117          	auipc	sp,0x8cc66
    5368:	0037c0b3          	xor	ra,a5,gp
    536c:	a3818193          	addi	gp,gp,-1480 # 0x1b9b5a38
    5370:	40178333          	sub	t1,a5,ra
    5374:	4abfa1b7          	lui	gp,0x4abfa
    5378:	8231a293          	slti	t0,gp,-2013
    537c:	41e25013          	srai	zero,tp,0x1e
    5380:	6b04d397          	auipc	t2,0x6b04d
    5384:	003091b3          	sll	gp,ra,gp
    5388:	00109d33          	sll	s10,ra,ra
    538c:	40900033          	neg	zero,s1
    5390:	0039833b          	addw	t1,s3,gp
    5394:	48320263          	beq	tp,gp,0x5818
    5398:	4800026f          	jal	tp,0x5818
    539c:	16e21197          	auipc	gp,0x16e21
    53a0:	4150d11b          	sraiw	sp,ra,0x15
    53a4:	70cf0317          	auipc	t1,0x70cf0
    53a8:	4011813b          	subw	sp,gp,ra
    53ac:	dfb4b313          	sltiu	t1,s1,-517
    53b0:	401201b3          	sub	gp,tp,ra
    53b4:	006151bb          	srlw	gp,sp,t1
    53b8:	3180011b          	addiw	sp,zero,792
    53bc:	113aa197          	auipc	gp,0x113aa
    53c0:	0022d1bb          	srlw	gp,t0,sp
    53c4:	30904093          	xori	ra,zero,777
    53c8:	0c502097          	auipc	ra,0xc502
    53cc:	92388337          	lui	t1,0x92388
    53d0:	0002513b          	srlw	sp,tp,zero
    53d4:	c6004197          	auipc	gp,0xc6004
    53d8:	022241b3          	div	gp,tp,sp
    53dc:	0173d11b          	srliw	sp,t2,0x17
    53e0:	02115133          	divu	sp,sp,ra
    53e4:	003083bb          	addw	t2,ra,gp
    53e8:	ad5f5197          	auipc	gp,0xad5f5
    53ec:	4050d1b3          	sra	gp,ra,t0
    53f0:	022081b3          	mul	gp,ra,sp
    53f4:	0212c133          	div	sp,t0,ra
    53f8:	5d6890b7          	lui	ra,0x5d689
    53fc:	01a25193          	srli	gp,tp,0x1a
    5400:	58890097          	auipc	ra,0x58890
    5404:	e8002017          	auipc	zero,0xe8002
    5408:	0200f533          	remu	a0,ra,zero
    540c:	0372c333          	div	t1,t0,s7
    5410:	00411133          	sll	sp,sp,tp
    5414:	405282b3          	sub	t0,t0,t0
    5418:	0023e433          	or	s0,t2,sp
    541c:	0230f0b3          	remu	ra,ra,gp
    5420:	b8400ee3          	beq	zero,tp,0x4fbc
    5424:	b99ff2ef          	jal	t0,0x4fbc
    5428:	003160b3          	or	ra,sp,gp
    542c:	01052117          	auipc	sp,0x1052
    5430:	40b0d21b          	sraiw	tp,ra,0xb
    5434:	001080b3          	add	ra,ra,ra
    5438:	0259a117          	auipc	sp,0x259a
    543c:	00013233          	sltu	tp,sp,zero
    5440:	00734333          	xor	t1,t1,t2
    5444:	0010f133          	and	sp,ra,ra
    5448:	926f0237          	lui	tp,0x926f0
    544c:	02100233          	mul	tp,zero,ra
    5450:	001301bb          	addw	gp,t1,ra
    5454:	28708113          	addi	sp,ra,647 # 0x58895687
    5458:	001091b3          	sll	gp,ra,ra
    545c:	00114133          	xor	sp,sp,ra
    5460:	f46bd317          	auipc	t1,0xf46bd
    5464:	00d080bb          	addw	ra,ra,a3
    5468:	c8b17193          	andi	gp,sp,-885
    546c:	02339193          	slli	gp,t2,0x23
    5470:	02114133          	div	sp,sp,ra
    5474:	572dc037          	lui	zero,0x572dc
    5478:	002171b3          	and	gp,sp,sp
    547c:	02304333          	div	t1,zero,gp
    5480:	002120b3          	slt	ra,sp,sp
    5484:	06d0b113          	sltiu	sp,ra,109
    5488:	9c932117          	auipc	sp,0x9c932
    548c:	00308333          	add	t1,ra,gp
    5490:	a3b2ec93          	ori	s9,t0,-1477
    5494:	b55c3097          	auipc	ra,0xb55c3
    5498:	9b602213          	slti	tp,zero,-1610
    549c:	0212f0b3          	remu	ra,t0,ra
    54a0:	00211bbb          	sllw	s7,sp,sp
    54a4:	0ba14193          	xori	gp,sp,186
    54a8:	b821d8e3          	bge	gp,sp,0x5038
    54ac:	b821c6e3          	blt	gp,sp,0x5038
    54b0:	401152bb          	sraw	t0,sp,ra
    54b4:	add0f093          	andi	ra,ra,-1315
    54b8:	c0af10b7          	lui	ra,0xc0af1
    54bc:	b5c18113          	addi	sp,gp,-1188 # 0xffffffffad5f9f44
    54c0:	4030513b          	sraw	sp,zero,gp
    54c4:	4020d5b3          	sra	a1,ra,sp
    54c8:	7f314113          	xori	sp,sp,2035
    54cc:	340d811b          	addiw	sp,s11,832
    54d0:	5de27193          	andi	gp,tp,1502
    54d4:	0040c1b3          	xor	gp,ra,tp
    54d8:	00212333          	slt	t1,sp,sp
    54dc:	402003b3          	neg	t2,sp
    54e0:	0000b2b3          	sltu	t0,ra,zero
    54e4:	00f6909b          	slliw	ra,a3,0xf
    54e8:	0020023b          	addw	tp,zero,sp
    54ec:	abb35037          	lui	zero,0xabb35
    54f0:	8afbb217          	auipc	tp,0x8afbb
    54f4:	006001bb          	addw	gp,zero,t1
    54f8:	00e0911b          	slliw	sp,ra,0xe
    54fc:	0210c1b3          	div	gp,ra,ra
    5500:	002240b3          	xor	ra,tp,sp
    5504:	d49c2097          	auipc	ra,0xd49c2
    5508:	402152bb          	sraw	t0,sp,sp
    550c:	51885097          	auipc	ra,0x51885
    5510:	7ff62197          	auipc	gp,0x7ff62
    5514:	4d81e193          	ori	gp,gp,1240
    5518:	021080b3          	mul	ra,ra,ra
    551c:	9e747117          	auipc	sp,0x9e747
    5520:	73341237          	lui	tp,0x73341
    5524:	0031513b          	srlw	sp,sp,gp
    5528:	0060919b          	slliw	gp,ra,0x6
    552c:	0023b1b3          	sltu	gp,t2,sp
    5530:	00110463          	beq	sp,ra,0x5538
    5534:	00400c6f          	jal	s8,0x5538
    5538:	03309093          	slli	ra,ra,0x33
    553c:	40310133          	sub	sp,sp,gp
    5540:	0042d1bb          	srlw	gp,t0,tp
    5544:	152ee0b7          	lui	ra,0x152ee
    5548:	29616293          	ori	t0,sp,662
    554c:	00119fbb          	sllw	t6,gp,ra
    5550:	a021809b          	addiw	ra,gp,-1534
    5554:	0030f133          	and	sp,ra,gp
    5558:	0061c1b3          	xor	gp,gp,t1
    555c:	0010a133          	slt	sp,ra,ra
    5560:	35913113          	sltiu	sp,sp,857
    5564:	0071f133          	and	sp,gp,t2
    5568:	003051b3          	srl	gp,zero,gp
    556c:	0011e033          	or	zero,gp,ra
    5570:	ce587037          	lui	zero,0xce587
    5574:	0030d11b          	srliw	sp,ra,0x3
    5578:	8a47c097          	auipc	ra,0x8a47c
    557c:	4011d03b          	sraw	zero,gp,ra
    5580:	a2fc40b7          	lui	ra,0xa2fc4
    5584:	006290bb          	sllw	ra,t0,t1
    5588:	0021e0b3          	or	ra,gp,sp
    558c:	7df82097          	auipc	ra,0x7df82
    5590:	2971a097          	auipc	ra,0x2971a
    5594:	03249193          	slli	gp,s1,0x32
    5598:	03d0d113          	srli	sp,ra,0x3d
    559c:	00b080bb          	addw	ra,ra,a1
    55a0:	00c0119b          	slliw	gp,zero,0xc
    55a4:	4331d113          	srai	sp,gp,0x33
    55a8:	406151bb          	sraw	gp,sp,t1
    55ac:	9c02019b          	addiw	gp,tp,-1600
    55b0:	e6b30217          	auipc	tp,0xe6b30
    55b4:	006072b3          	and	t0,zero,t1
    55b8:	6a023337          	lui	t1,0x6a023
    55bc:	01c1919b          	slliw	gp,gp,0x1c
    55c0:	00020093          	mv	ra,tp
    55c4:	d44080e3          	beq	ra,tp,0x5304
    55c8:	005191bb          	sllw	gp,gp,t0
    55cc:	0031c333          	xor	t1,gp,gp
    55d0:	00215133          	srl	sp,sp,sp
    55d4:	00210133          	add	sp,sp,sp
    55d8:	40110133          	sub	sp,sp,ra
    55dc:	00a0d693          	srli	a3,ra,0xa
    55e0:	02316033          	rem	zero,sp,gp
    55e4:	0011013b          	addw	sp,sp,ra
    55e8:	41f4c137          	lui	sp,0x41f4c
    55ec:	42935393          	srai	t2,t1,0x29
    55f0:	e8f980b7          	lui	ra,0xe8f98
    55f4:	0020b0b3          	sltu	ra,ra,sp
    55f8:	4010d19b          	sraiw	gp,ra,0x1
    55fc:	03a15093          	srli	ra,sp,0x3a
    5600:	dde20217          	auipc	tp,0xdde20
    5604:	99859217          	auipc	tp,0x99859
    5608:	9f610193          	addi	gp,sp,-1546 # 0x41f4b9f6
    560c:	0020be33          	sltu	t3,ra,sp
    5610:	bfa1b093          	sltiu	ra,gp,-1030
    5614:	4d2c91b7          	lui	gp,0x4d2c9
    5618:	0220d0b3          	divu	ra,ra,sp
    561c:	966b8297          	auipc	t0,0x966b8
    5620:	c44e8117          	auipc	sp,0xc44e8
    5624:	63916193          	ori	gp,sp,1593
    5628:	00319333          	sll	t1,gp,gp
    562c:	01e1913b          	sllw	sp,gp,t5
    5630:	92efb197          	auipc	gp,0x92efb
    5634:	b2a14097          	auipc	ra,0xb2a14
    5638:	02314133          	div	sp,sp,gp
    563c:	4060d03b          	sraw	zero,ra,t1
    5640:	e3c13193          	sltiu	gp,sp,-452
    5644:	9e024113          	xori	sp,tp,-1568
    5648:	029151b3          	divu	gp,sp,s1
    564c:	60008863          	beqz	ra,0x5c5c
    5650:	60c0016f          	jal	sp,0x5c5c
    5654:	5dd0e113          	ori	sp,ra,1501
    5658:	0030d03b          	srlw	zero,ra,gp
    565c:	0341c1b3          	div	gp,gp,s4
    5660:	403100bb          	subw	ra,sp,gp
    5664:	8c51809b          	addiw	ra,gp,-1851
    5668:	0150919b          	slliw	gp,ra,0x15
    566c:	dd800293          	li	t0,-552
    5670:	001140b3          	xor	ra,sp,ra
    5674:	0013c3b3          	xor	t2,t2,ra
    5678:	0022911b          	slliw	sp,t0,0x2
    567c:	b5c0f197          	auipc	gp,0xb5c0f
    5680:	02608f33          	mul	t5,ra,t1
    5684:	01b160b3          	or	ra,sp,s11
    5688:	40115133          	sra	sp,sp,ra
    568c:	400251b3          	sra	gp,tp,zero
    5690:	00215033          	srl	zero,sp,sp
    5694:	0010911b          	slliw	sp,ra,0x1
    5698:	00e11113          	slli	sp,sp,0xe
    569c:	02f05133          	divu	sp,zero,a5
    56a0:	40b0d11b          	sraiw	sp,ra,0xb
    56a4:	86710813          	addi	a6,sp,-1945 # 0xffffffffc44ece87
    56a8:	41e0a093          	slti	ra,ra,1054
    56ac:	0001d0bb          	srlw	ra,gp,zero
    56b0:	0100909b          	slliw	ra,ra,0x10
    56b4:	030d9197          	auipc	gp,0x30d9
    56b8:	3a3d1117          	auipc	sp,0x3a3d1
    56bc:	01d3911b          	slliw	sp,t2,0x1d
    56c0:	402183bb          	subw	t2,gp,sp
    56c4:	98f9c097          	auipc	ra,0x98f9c
    56c8:	679fe297          	auipc	t0,0x679fe
    56cc:	03e09093          	slli	ra,ra,0x3e
    56d0:	00314033          	xor	zero,sp,gp
    56d4:	a813d6e3          	bge	t2,ra,0x5160
    56d8:	a813c4e3          	blt	t2,ra,0x5160
    56dc:	ce5e2197          	auipc	gp,0xce5e2
    56e0:	09ea5097          	auipc	ra,0x9ea5
    56e4:	02317133          	remu	sp,sp,gp
    56e8:	0071d11b          	srliw	sp,gp,0x7
    56ec:	0a623113          	sltiu	sp,tp,166
    56f0:	00f17133          	and	sp,sp,a5
    56f4:	6c6b5397          	auipc	t2,0x6c6b5
    56f8:	003091bb          	sllw	gp,ra,gp
    56fc:	40210033          	sub	zero,sp,sp
    5700:	0010d23b          	srlw	tp,ra,ra
    5704:	01e1531b          	srliw	t1,sp,0x1e
    5708:	2fa4b693          	sltiu	a3,s1,762
    570c:	00e09113          	slli	sp,ra,0xe
    5710:	d9b16d93          	ori	s11,sp,-613
    5714:	0021a1b3          	slt	gp,gp,sp
    5718:	c68091b7          	lui	gp,0xc6809
    571c:	e7568137          	lui	sp,0xe7568
    5720:	6361c193          	xori	gp,gp,1590
    5724:	002381b3          	add	gp,t2,sp
    5728:	0280d093          	srli	ra,ra,0x28
    572c:	003081b3          	add	gp,ra,gp
    5730:	66a34093          	xori	ra,t1,1642
    5734:	021152b3          	divu	t0,sp,ra
    5738:	0020d133          	srl	sp,ra,sp
    573c:	0160911b          	slliw	sp,ra,0x16
    5740:	0010b133          	sltu	sp,ra,ra
    5744:	163b7097          	auipc	ra,0x163b7
    5748:	0024e133          	or	sp,s1,sp
    574c:	a21b2037          	lui	zero,0xa21b2
    5750:	8fe0809b          	addiw	ra,ra,-1794
    5754:	9284e193          	ori	gp,s1,-1752
    5758:	12c6f597          	auipc	a1,0x12c6f
    575c:	2ef3c093          	xori	ra,t2,751
    5760:	01f6d21b          	srliw	tp,a3,0x1f
    5764:	0010a333          	slt	t1,ra,ra
    5768:	00000097          	auipc	ra,0x0
    576c:	eec080e7          	jalr	-276(ra) # 0x5654
    5770:	0080d0b3          	srl	ra,ra,s0
    5774:	3d21c313          	xori	t1,gp,978
    5778:	002101bb          	addw	gp,sp,sp
    577c:	442d8137          	lui	sp,0x442d8
    5780:	00219133          	sll	sp,gp,sp
    5784:	41c1d393          	srai	t2,gp,0x1c
    5788:	6cb2c137          	lui	sp,0x6cb2c
    578c:	4200d093          	srai	ra,ra,0x20
    5790:	cc918193          	addi	gp,gp,-823 # 0xffffffffc6808cc9
    5794:	001150bb          	srlw	ra,sp,ra
    5798:	4022023b          	subw	tp,tp,sp
    579c:	0031c233          	xor	tp,gp,gp
    57a0:	01915113          	srli	sp,sp,0x19
    57a4:	0214e1b3          	rem	gp,s1,ra
    57a8:	007302bb          	addw	t0,t1,t2
    57ac:	0030f233          	and	tp,ra,gp
    57b0:	bca74113          	xori	sp,a4,-1078
    57b4:	74e1ef13          	ori	t5,gp,1870
    57b8:	0220c133          	div	sp,ra,sp
    57bc:	0031b2b3          	sltu	t0,gp,gp
    57c0:	00a1119b          	slliw	gp,sp,0xa
    57c4:	03619093          	slli	ra,gp,0x36
    57c8:	0013c0b3          	xor	ra,t2,ra
    57cc:	49345197          	auipc	gp,0x49345
    57d0:	0061b333          	sltu	t1,gp,t1
    57d4:	8254d137          	lui	sp,0x8254d
    57d8:	0210f133          	remu	sp,ra,ra
    57dc:	0230f133          	remu	sp,ra,gp
    57e0:	08c2e113          	ori	sp,t0,140
    57e4:	40b1511b          	sraiw	sp,sp,0xb
    57e8:	023140b3          	div	ra,sp,gp
    57ec:	71f08117          	auipc	sp,0x71f08
    57f0:	0170919b          	slliw	gp,ra,0x17
    57f4:	4071d0b3          	sra	ra,gp,t2
    57f8:	613ff017          	auipc	zero,0x613ff
    57fc:	2c5e2117          	auipc	sp,0x2c5e2
    5800:	c8aa059b          	addiw	a1,s4,-886
    5804:	1ca13113          	sltiu	sp,sp,458
    5808:	20213293          	sltiu	t0,sp,514
    580c:	005000bb          	addw	ra,zero,t0
    5810:	a63000e3          	beq	zero,gp,0x5270
    5814:	a5dff5ef          	jal	a1,0x5270
    5818:	001281b3          	add	gp,t0,ra
    581c:	98300137          	lui	sp,0x98300
    5820:	70a3b137          	lui	sp,0x70a3b
    5824:	3a7eb317          	auipc	t1,0x3a7eb
    5828:	5b30b7b7          	lui	a5,0x5b30b
    582c:	43716093          	ori	ra,sp,1079
    5830:	4ea1c013          	xori	zero,gp,1258
    5834:	6e563117          	auipc	sp,0x6e563
    5838:	00133133          	sltu	sp,t1,ra
    583c:	6cc44037          	lui	zero,0x6cc44
    5840:	003951bb          	srlw	gp,s2,gp
    5844:	02f371b3          	remu	gp,t1,a5
    5848:	02114233          	div	tp,sp,ra
    584c:	0021d233          	srl	tp,gp,sp
    5850:	00e1929b          	slliw	t0,gp,0xe
    5854:	403006bb          	negw	a3,gp
    5858:	d873e093          	ori	ra,t2,-633
    585c:	402253bb          	sraw	t2,tp,sp
    5860:	0210c333          	div	t1,ra,ra
    5864:	8c0be137          	lui	sp,0x8c0be
    5868:	0091d0bb          	srlw	ra,gp,s1
    586c:	001065b3          	or	a1,zero,ra
    5870:	77f33197          	auipc	gp,0x77f33
    5874:	3d946097          	auipc	ra,0x3d946
    5878:	66d770b7          	lui	ra,0x66d77
    587c:	0022813b          	addw	sp,t0,sp
    5880:	007321b3          	slt	gp,t1,t2
    5884:	cc530197          	auipc	gp,0xcc530
    5888:	842080e3          	beq	ra,sp,0x50c8
    588c:	83dff1ef          	jal	gp,0x50c8
    5890:	40115113          	srai	sp,sp,0x1
    5894:	ce0f8117          	auipc	sp,0xce0f8
    5898:	005191bb          	sllw	gp,gp,t0
    589c:	002251b3          	srl	gp,tp,sp
    58a0:	503c6313          	ori	t1,s8,1283
    58a4:	49548137          	lui	sp,0x49548
    58a8:	0060d0bb          	srlw	ra,ra,t1
    58ac:	005101bb          	addw	gp,sp,t0
    58b0:	4011813b          	subw	sp,gp,ra
    58b4:	0120d81b          	srliw	a6,ra,0x12
    58b8:	4123d013          	srai	zero,t2,0x12
    58bc:	ea908213          	addi	tp,ra,-343 # 0x66d76ea9
    58c0:	e64fc0b7          	lui	ra,0xe64fc
    58c4:	02710ab3          	mul	s5,sp,t2
    58c8:	019081bb          	addw	gp,ra,s9
    58cc:	7f693097          	auipc	ra,0x7f693
    58d0:	f0f12193          	slti	gp,sp,-241
    58d4:	ba917117          	auipc	sp,0xba917
    58d8:	4020d11b          	sraiw	sp,ra,0x2
    58dc:	01911133          	sll	sp,sp,s9
    58e0:	d8374393          	xori	t2,a4,-637
    58e4:	01d31113          	slli	sp,t1,0x1d
    58e8:	0000f5b3          	and	a1,ra,zero
    58ec:	0230c133          	div	sp,ra,gp
    58f0:	4080519b          	sraiw	gp,zero,0x8
    58f4:	021250b3          	divu	ra,tp,ra
    58f8:	009100b3          	add	ra,sp,s1
    58fc:	0231c133          	div	sp,gp,gp
    5900:	608a7137          	lui	sp,0x608a7
    5904:	01c11113          	slli	sp,sp,0x1c
    5908:	84426013          	ori	zero,tp,-1980
    590c:	dc1e2297          	auipc	t0,0xdc1e2
    5910:	00018193          	mv	gp,gp
    5914:	08318c63          	beq	gp,gp,0x59ac
    5918:	2d718193          	addi	gp,gp,727 # 0xffffffffcc535b5b
    591c:	02310333          	mul	t1,sp,gp
    5920:	f94f5d37          	lui	s10,0xf94f5
    5924:	4050d11b          	sraiw	sp,ra,0x5
    5928:	9f5b6197          	auipc	gp,0x9f5b6
    592c:	000190bb          	sllw	ra,gp,zero
    5930:	0190909b          	slliw	ra,ra,0x19
    5934:	61453117          	auipc	sp,0x61453
    5938:	03717013          	andi	zero,sp,55
    593c:	b5b5b313          	sltiu	t1,a1,-1189
    5940:	09911197          	auipc	gp,0x9911
    5944:	aa71f693          	andi	a3,gp,-1369
    5948:	00216a33          	or	s4,sp,sp
    594c:	00b09113          	slli	sp,ra,0xb
    5950:	1a2a21b7          	lui	gp,0x1a2a2
    5954:	406180bb          	subw	ra,gp,t1
    5958:	002113b3          	sll	t2,sp,sp
    595c:	f2c430b7          	lui	ra,0xf2c43
    5960:	baf46137          	lui	sp,0xbaf46
    5964:	6c82c313          	xori	t1,t0,1736
    5968:	d63ad197          	auipc	gp,0xd63ad
    596c:	258a5137          	lui	sp,0x258a5
    5970:	eb0c2197          	auipc	gp,0xeb0c2
    5974:	f7403293          	sltiu	t0,zero,-140
    5978:	006251bb          	srlw	gp,tp,t1
    597c:	40c35133          	sra	sp,t1,a2
    5980:	e9a37113          	andi	sp,t1,-358
    5984:	0033d0bb          	srlw	ra,t2,gp
    5988:	0020b233          	sltu	tp,ra,sp
    598c:	3771f213          	andi	tp,gp,887
    5990:	406180b3          	sub	ra,gp,t1
    5994:	b13c4197          	auipc	gp,0xb13c4
    5998:	40e1521b          	sraiw	tp,sp,0xe
    599c:	5ac0c213          	xori	tp,ra,1452
    59a0:	00f3929b          	slliw	t0,t2,0xf
    59a4:	d2217ce3          	bgeu	sp,sp,0x56dc
    59a8:	d2216ae3          	bltu	sp,sp,0x56dc
    59ac:	001392bb          	sllw	t0,t2,ra
    59b0:	02317033          	remu	zero,sp,gp
    59b4:	0061e1b3          	or	gp,gp,t1
    59b8:	0040d21b          	srliw	tp,ra,0x4
    59bc:	ab4720b7          	lui	ra,0xab472
    59c0:	0021c333          	xor	t1,gp,sp
    59c4:	0031013b          	addw	sp,sp,gp
    59c8:	4d926137          	lui	sp,0x4d926
    59cc:	2afdc1b7          	lui	gp,0x2afdc
    59d0:	0231c133          	div	sp,gp,gp
    59d4:	000133b3          	sltu	t2,sp,zero
    59d8:	19fdf137          	lui	sp,0x19fdf
    59dc:	003111bb          	sllw	gp,sp,gp
    59e0:	002141b3          	xor	gp,sp,sp
    59e4:	003161b3          	or	gp,sp,gp
    59e8:	24c1811b          	addiw	sp,gp,588
    59ec:	e245f117          	auipc	sp,0xe245f
    59f0:	0841e093          	ori	ra,gp,132
    59f4:	0001d4b3          	srl	s1,gp,zero
    59f8:	0210d0b3          	divu	ra,ra,ra
    59fc:	000490bb          	sllw	ra,s1,zero
    5a00:	a4eea137          	lui	sp,0xa4eea
    5a04:	5f81809b          	addiw	ra,gp,1528
    5a08:	0013c6b3          	xor	a3,t2,ra
    5a0c:	0031a233          	slt	tp,gp,gp
    5a10:	194681b7          	lui	gp,0x19468
    5a14:	e6c3b117          	auipc	sp,0xe6c3b
    5a18:	4011d133          	sra	sp,gp,ra
    5a1c:	d70dc097          	auipc	ra,0xd70dc
    5a20:	b51430b7          	lui	ra,0xb5143
    5a24:	60990037          	lui	zero,0x60990
    5a28:	00308263          	beq	ra,gp,0x5a2c
    5a2c:	fc4ff1ef          	jal	gp,0x51f0
    5a30:	0071911b          	slliw	sp,gp,0x7
    5a34:	002153bb          	srlw	t2,sp,sp
    5a38:	33914193          	xori	gp,sp,825
    5a3c:	c0e16393          	ori	t2,sp,-1010
    5a40:	005cd5bb          	srlw	a1,s9,t0
    5a44:	00316133          	or	sp,sp,gp
    5a48:	4545b1b7          	lui	gp,0x4545b
    5a4c:	80bf3097          	auipc	ra,0x80bf3
    5a50:	403080bb          	subw	ra,ra,gp
    5a54:	4073d133          	sra	sp,t2,t2
    5a58:	fcf651b7          	lui	gp,0xfcf65
    5a5c:	0020913b          	sllw	sp,ra,sp
    5a60:	ece29137          	lui	sp,0xece29
    5a64:	a116e317          	auipc	t1,0xa116e
    5a68:	001191bb          	sllw	gp,gp,ra
    5a6c:	001211bb          	sllw	gp,tp,ra
    5a70:	001113bb          	sllw	t2,sp,ra
    5a74:	0010f133          	and	sp,ra,ra
    5a78:	dce2009b          	addiw	ra,tp,-562
    5a7c:	d39d30b7          	lui	ra,0xd39d3
    5a80:	047a4117          	auipc	sp,0x47a4
    5a84:	02419d13          	slli	s10,gp,0x24
    5a88:	4063d09b          	sraiw	ra,t2,0x6
    5a8c:	00712133          	slt	sp,sp,t2
    5a90:	7830f093          	andi	ra,ra,1923
    5a94:	4021013b          	subw	sp,sp,sp
    5a98:	02317133          	remu	sp,sp,gp
    5a9c:	0010d1bb          	srlw	gp,ra,ra
    5aa0:	4192501b          	sraiw	zero,tp,0x19
    5aa4:	90923213          	sltiu	tp,tp,-1783
    5aa8:	01d0911b          	slliw	sp,ra,0x1d
    5aac:	c83a0097          	auipc	ra,0xc83a0
    5ab0:	d87ab317          	auipc	t1,0xd87ab
    5ab4:	63e4fb97          	auipc	s7,0x63e4f
    5ab8:	0033d13b          	srlw	sp,t2,gp
    5abc:	0016e2b3          	or	t0,a3,ra
    5ac0:	021251b3          	divu	gp,tp,ra
    5ac4:	00008b93          	mv	s7,ra
    5ac8:	7a1b8863          	beq	s7,ra,0x6278
    5acc:	02541013          	slli	zero,s0,0x25
    5ad0:	0042813b          	addw	sp,t0,tp
    5ad4:	002000b3          	add	ra,zero,sp
    5ad8:	007172b3          	and	t0,sp,t2
    5adc:	74212093          	slti	ra,sp,1858
    5ae0:	7d6ca337          	lui	t1,0x7d6ca
    5ae4:	4020d0bb          	sraw	ra,ra,sp
    5ae8:	00a11193          	slli	gp,sp,0xa
    5aec:	0061a0b3          	slt	ra,gp,t1
    5af0:	02327333          	remu	t1,tp,gp
    5af4:	00f1109b          	slliw	ra,sp,0xf
    5af8:	4fd8e117          	auipc	sp,0x4fd8e
    5afc:	0160909b          	slliw	ra,ra,0x16
    5b00:	006112b3          	sll	t0,sp,t1
    5b04:	41e1519b          	sraiw	gp,sp,0x1e
    5b08:	fe81811b          	addiw	sp,gp,-24
    5b0c:	ee510b93          	addi	s7,sp,-283 # 0x4fd939dd
    5b10:	000731b7          	lui	gp,0x73
    5b14:	14310013          	addi	zero,sp,323
    5b18:	003151bb          	srlw	gp,sp,gp
    5b1c:	a781f913          	andi	s2,gp,-1416
    5b20:	cfd6b093          	sltiu	ra,a3,-771
    5b24:	022081b3          	mul	gp,ra,sp
    5b28:	0011b2b3          	sltu	t0,gp,ra
    5b2c:	4014d1b3          	sra	gp,s1,ra
    5b30:	021343b3          	div	t2,t1,ra
    5b34:	0233e133          	rem	sp,t2,gp
    5b38:	a783e2b7          	lui	t0,0xa783e
    5b3c:	6ce92097          	auipc	ra,0x6ce92
    5b40:	00010093          	mv	ra,sp
    5b44:	46208463          	beq	ra,sp,0x5fac
    5b48:	003001b3          	add	gp,zero,gp
    5b4c:	0061033b          	addw	t1,sp,t1
    5b50:	fde08093          	addi	ra,ra,-34 # 0x6ce97b1a
    5b54:	6c81c137          	lui	sp,0x6c81c
    5b58:	70f10b1b          	addiw	s6,sp,1807
    5b5c:	392c9097          	auipc	ra,0x392c9
    5b60:	e4b0f0b7          	lui	ra,0xe4b0f
    5b64:	5273009b          	addiw	ra,t1,1319
    5b68:	000111b3          	sll	gp,sp,zero
    5b6c:	002190b3          	sll	ra,gp,sp
    5b70:	40325233          	sra	tp,tp,gp
    5b74:	69b14213          	xori	tp,sp,1691
    5b78:	40b3d39b          	sraiw	t2,t2,0xb
    5b7c:	43f0d113          	srai	sp,ra,0x3f
    5b80:	0101d313          	srli	t1,gp,0x10
    5b84:	4061d1b3          	sra	gp,gp,t1
    5b88:	92ad8117          	auipc	sp,0x92ad8
    5b8c:	5cc141b7          	lui	gp,0x5cc14
    5b90:	0060911b          	slliw	sp,ra,0x6
    5b94:	007193b3          	sll	t2,gp,t2
    5b98:	9a195397          	auipc	t2,0x9a195
    5b9c:	406181b3          	sub	gp,gp,t1
    5ba0:	4075d1b3          	sra	gp,a1,t2
    5ba4:	003091bb          	sllw	gp,ra,gp
    5ba8:	022077b3          	remu	a5,zero,sp
    5bac:	43e13193          	sltiu	gp,sp,1086
    5bb0:	02116133          	rem	sp,sp,ra
    5bb4:	0052c133          	xor	sp,t0,t0
    5bb8:	a9253037          	lui	zero,0xa9253
    5bbc:	ceb27017          	auipc	zero,0xceb27
    5bc0:	c7f34197          	auipc	gp,0xc7f34
    5bc4:	006381bb          	addw	gp,t2,t1
    5bc8:	d921f113          	andi	sp,gp,-622
    5bcc:	0030e3b3          	or	t2,ra,gp
    5bd0:	60a1da63          	bge	gp,a0,0x61e4
    5bd4:	60a1c863          	blt	gp,a0,0x61e4
    5bd8:	001170b3          	and	ra,sp,ra
    5bdc:	0011013b          	addw	sp,sp,ra
    5be0:	28a1831b          	addiw	t1,gp,650
    5be4:	4012813b          	subw	sp,t0,ra
    5be8:	0020a0b3          	slt	ra,ra,sp
    5bec:	006210bb          	sllw	ra,tp,t1
    5bf0:	00a1519b          	srliw	gp,sp,0xa
    5bf4:	c5785137          	lui	sp,0xc5785
    5bf8:	0301d093          	srli	ra,gp,0x30
    5bfc:	03401113          	slli	sp,zero,0x34
    5c00:	400081b3          	sub	gp,ra,zero
    5c04:	c1c26197          	auipc	gp,0xc1c26
    5c08:	aad27013          	andi	zero,tp,-1363
    5c0c:	6991b113          	sltiu	sp,gp,1689
    5c10:	cd912893          	slti	a7,sp,-807
    5c14:	4061003b          	subw	zero,sp,t1
    5c18:	0033d333          	srl	t1,t2,gp
    5c1c:	01d1119b          	slliw	gp,sp,0x1d
    5c20:	0031c0b3          	xor	ra,gp,gp
    5c24:	b0b1c113          	xori	sp,gp,-1269
    5c28:	7bc1b193          	sltiu	gp,gp,1980
    5c2c:	0001509b          	srliw	ra,sp,0x0
    5c30:	0040a233          	slt	tp,ra,tp
    5c34:	004271b3          	and	gp,tp,tp
    5c38:	0021e133          	or	sp,gp,sp
    5c3c:	39a1e213          	ori	tp,gp,922
    5c40:	001151bb          	srlw	gp,sp,ra
    5c44:	1791b093          	sltiu	ra,gp,377
    5c48:	5c012193          	slti	gp,sp,1472
    5c4c:	07b21117          	auipc	sp,0x7b21
    5c50:	f0227313          	andi	t1,tp,-254
    5c54:	00000117          	auipc	sp,0x0
    5c58:	ddc10667          	jalr	a2,-548(sp) # 0x5a30
    5c5c:	02535333          	divu	t1,t1,t0
    5c60:	02314133          	div	sp,sp,gp
    5c64:	005161b3          	or	gp,sp,t0
    5c68:	4031d0bb          	sraw	ra,gp,gp
    5c6c:	79015097          	auipc	ra,0x79015
    5c70:	3c818e93          	addi	t4,gp,968 # 0xffffffffc1c2bfcc
    5c74:	60c0e093          	ori	ra,ra,1548
    5c78:	c7120193          	addi	gp,tp,-911 # 0xffffffff9985e275
    5c7c:	02514db3          	div	s11,sp,t0
    5c80:	424a6097          	auipc	ra,0x424a6
    5c84:	00a0da1b          	srliw	s4,ra,0xa
    5c88:	b61bb1b7          	lui	gp,0xb61bb
    5c8c:	12e7c217          	auipc	tp,0x12e7c
    5c90:	649f8037          	lui	zero,0x649f8
    5c94:	64d1a093          	slti	ra,gp,1613
    5c98:	003270b3          	and	ra,tp,gp
    5c9c:	0092149b          	slliw	s1,tp,0x9
    5ca0:	0020e5b3          	or	a1,ra,sp
    5ca4:	c4b13113          	sltiu	sp,sp,-949
    5ca8:	f9a10113          	addi	sp,sp,-102
    5cac:	004090b3          	sll	ra,ra,tp
    5cb0:	0094919b          	slliw	gp,s1,0x9
    5cb4:	022151b3          	divu	gp,sp,sp
    5cb8:	0201e1b3          	rem	gp,gp,zero
    5cbc:	50a3e137          	lui	sp,0x50a3e
    5cc0:	e4e3f097          	auipc	ra,0xe4e3f
    5cc4:	01819133          	sll	sp,gp,s8
    5cc8:	006171b3          	and	gp,sp,t1
    5ccc:	029a1293          	slli	t0,s4,0x29
    5cd0:	00f0911b          	slliw	sp,ra,0xf
    5cd4:	006151b3          	srl	gp,sp,t1
    5cd8:	01101413          	slli	s0,zero,0x11
    5cdc:	a6c2e013          	ori	zero,t0,-1428
    5ce0:	1df3009b          	addiw	ra,t1,479
    5ce4:	c0dff117          	auipc	sp,0xc0dff
    5ce8:	7f40c093          	xori	ra,ra,2036
    5cec:	0021f0b3          	and	ra,gp,sp
    5cf0:	026081b3          	mul	gp,ra,t1
    5cf4:	00219133          	sll	sp,gp,sp
    5cf8:	1a63f263          	bgeu	t2,t1,0x5e9c
    5cfc:	1a63e063          	bltu	t2,t1,0x5e9c
    5d00:	023081b3          	mul	gp,ra,gp
    5d04:	0061e133          	or	sp,gp,t1
    5d08:	93e4f0b7          	lui	ra,0x93e4f
    5d0c:	000306b3          	add	a3,t1,zero
    5d10:	00315333          	srl	t1,sp,gp
    5d14:	002161b3          	or	gp,sp,sp
    5d18:	0010b1b3          	sltu	gp,ra,ra
    5d1c:	401100bb          	subw	ra,sp,ra
    5d20:	80818393          	addi	t2,gp,-2040 # 0xffffffffb61ba808
    5d24:	004070b3          	and	ra,zero,tp
    5d28:	39d57137          	lui	sp,0x39d57
    5d2c:	9995d137          	lui	sp,0x9995d
    5d30:	003183b3          	add	t2,gp,gp
    5d34:	0011b1b3          	sltu	gp,gp,ra
    5d38:	2ed64117          	auipc	sp,0x2ed64
    5d3c:	0021911b          	slliw	sp,gp,0x2
    5d40:	0280c293          	xori	t0,ra,40
    5d44:	b7e18193          	addi	gp,gp,-1154
    5d48:	0050f0b3          	and	ra,ra,t0
    5d4c:	022374b3          	remu	s1,t1,sp
    5d50:	021050b3          	divu	ra,zero,ra
    5d54:	fd064117          	auipc	sp,0xfd064
    5d58:	001113bb          	sllw	t2,sp,ra
    5d5c:	89790197          	auipc	gp,0x89790
    5d60:	17a16097          	auipc	ra,0x17a16
    5d64:	d790f193          	andi	gp,ra,-647
    5d68:	00319093          	slli	ra,gp,0x3
    5d6c:	c4d17093          	andi	ra,sp,-947
    5d70:	40b10133          	sub	sp,sp,a1
    5d74:	006101bb          	addw	gp,sp,t1
    5d78:	4041d11b          	sraiw	sp,gp,0x4
    5d7c:	00225333          	srl	t1,tp,sp
    5d80:	e8702113          	slti	sp,zero,-377
    5d84:	60178663          	beq	a5,ra,0x6390
    5d88:	608001ef          	jal	gp,0x6390
    5d8c:	0024d233          	srl	tp,s1,sp
    5d90:	00b113bb          	sllw	t2,sp,a1
    5d94:	1a4ce117          	auipc	sp,0x1a4ce
    5d98:	1943e193          	ori	gp,t2,404
    5d9c:	02b1d0b3          	divu	ra,gp,a1
    5da0:	407552bb          	sraw	t0,a0,t2
    5da4:	00b08133          	add	sp,ra,a1
    5da8:	f9910293          	addi	t0,sp,-103 # 0x1a4d3d2d
    5dac:	0260e133          	rem	sp,ra,t1
    5db0:	3b4a83b7          	lui	t2,0x3b4a8
    5db4:	0021c133          	xor	sp,gp,sp
    5db8:	0261d1b3          	divu	gp,gp,t1
    5dbc:	001100bb          	addw	ra,sp,ra
    5dc0:	00c1909b          	slliw	ra,gp,0xc
    5dc4:	40238133          	sub	sp,t2,sp
    5dc8:	0233c3b3          	div	t2,t2,gp
    5dcc:	0ba2a0b7          	lui	ra,0xba2a
    5dd0:	56045137          	lui	sp,0x56045
    5dd4:	00110033          	add	zero,sp,ra
    5dd8:	d4f73137          	lui	sp,0xd4f73
    5ddc:	34b13193          	sltiu	gp,sp,843
    5de0:	4130529b          	sraiw	t0,zero,0x13
    5de4:	caf16093          	ori	ra,sp,-849
    5de8:	ce202137          	lui	sp,0xce202
    5dec:	026100b3          	mul	ra,sp,t1
    5df0:	40738f13          	addi	t5,t2,1031 # 0x3b4a8407
    5df4:	00b092bb          	sllw	t0,ra,a1
    5df8:	0000133b          	sllw	t1,zero,zero
    5dfc:	84d4f397          	auipc	t2,0x84d4f
    5e00:	f052f0e3          	bgeu	t0,t0,0x5d00
    5e04:	ee52eee3          	bltu	t0,t0,0x5d00
    5e08:	00109133          	sll	sp,ra,ra
    5e0c:	4bc0e093          	ori	ra,ra,1212
    5e10:	009150bb          	srlw	ra,sp,s1
    5e14:	68f1f493          	andi	s1,gp,1679
    5e18:	ea37c0b7          	lui	ra,0xea37c
    5e1c:	0b61e113          	ori	sp,gp,182
    5e20:	5b507093          	andi	ra,zero,1461
    5e24:	02ef1193          	slli	gp,t5,0x2e
    5e28:	001191bb          	sllw	gp,gp,ra
    5e2c:	45f6f437          	lui	s0,0x45f6f
    5e30:	02408133          	mul	sp,ra,tp
    5e34:	0070c4b3          	xor	s1,ra,t2
    5e38:	4030d13b          	sraw	sp,ra,gp
    5e3c:	403080bb          	subw	ra,ra,gp
    5e40:	0248c137          	lui	sp,0x248c
    5e44:	8c514093          	xori	ra,sp,-1851
    5e48:	1e91819b          	addiw	gp,gp,489
    5e4c:	0231f333          	remu	t1,gp,gp
    5e50:	00b10833          	add	a6,sp,a1
    5e54:	00119033          	sll	zero,gp,ra
    5e58:	0271c1b3          	div	gp,gp,t2
    5e5c:	0212d3b3          	divu	t2,t0,ra
    5e60:	0011183b          	sllw	a6,sp,ra
    5e64:	4021513b          	sraw	sp,sp,sp
    5e68:	1a927137          	lui	sp,0x1a927
    5e6c:	2902d097          	auipc	ra,0x2902d
    5e70:	69830293          	addi	t0,t1,1688 # 0x7d6ca698
    5e74:	4d60a113          	slti	sp,ra,1238
    5e78:	41b1d09b          	sraiw	ra,gp,0x1b
    5e7c:	0211f133          	remu	sp,gp,ra
    5e80:	7401c113          	xori	sp,gp,1856
    5e84:	0021913b          	sllw	sp,gp,sp
    5e88:	0073b1b3          	sltu	gp,t2,t2
    5e8c:	5f413013          	sltiu	zero,sp,1524
    5e90:	2a5db197          	auipc	gp,0x2a5db
    5e94:	00018113          	mv	sp,gp
    5e98:	08310663          	beq	sp,gp,0x5f24
    5e9c:	28765217          	auipc	tp,0x28765
    5ea0:	86716313          	ori	t1,sp,-1945
    5ea4:	b5c830b7          	lui	ra,0xb5c83
    5ea8:	006100b3          	add	ra,sp,t1
    5eac:	027054b3          	divu	s1,zero,t2
    5eb0:	e4e373b7          	lui	t2,0xe4e37
    5eb4:	6736e117          	auipc	sp,0x6736e
    5eb8:	25a0819b          	addiw	gp,ra,602
    5ebc:	fc5311b7          	lui	gp,0xfc531
    5ec0:	0010823b          	addw	tp,ra,ra
    5ec4:	001333b3          	sltu	t2,t1,ra
    5ec8:	003113b3          	sll	t2,sp,gp
    5ecc:	9720f113          	andi	sp,ra,-1678
    5ed0:	19d04193          	xori	gp,zero,413
    5ed4:	0241c1b3          	div	gp,gp,tp
    5ed8:	0200f233          	remu	tp,ra,zero
    5edc:	a6da6197          	auipc	gp,0xa6da6
    5ee0:	000081b3          	add	gp,ra,zero
    5ee4:	47a16013          	ori	zero,sp,1146
    5ee8:	0205c133          	div	sp,a1,zero
    5eec:	aa213337          	lui	t1,0xaa213
    5ef0:	4190d19b          	sraiw	gp,ra,0x19
    5ef4:	025160b3          	rem	ra,sp,t0
    5ef8:	41e7d113          	srai	sp,a5,0x1e
    5efc:	024101b3          	mul	gp,sp,tp
    5f00:	0021a1b3          	slt	gp,gp,sp
    5f04:	8b7110b7          	lui	ra,0x8b711
    5f08:	001081bb          	addw	gp,ra,ra
    5f0c:	02d081b3          	mul	gp,ra,a3
    5f10:	01e0111b          	slliw	sp,zero,0x1e
    5f14:	e5517193          	andi	gp,sp,-427
    5f18:	0171109b          	slliw	ra,sp,0x17
    5f1c:	00010093          	mv	ra,sp
    5f20:	50208663          	beq	ra,sp,0x642c
    5f24:	0012813b          	addw	sp,t0,ra
    5f28:	0050913b          	sllw	sp,ra,t0
    5f2c:	0050d03b          	srlw	zero,ra,t0
    5f30:	01a47ab3          	and	s5,s0,s10
    5f34:	84b14013          	xori	zero,sp,-1973
    5f38:	404080bb          	subw	ra,ra,tp
    5f3c:	4010513b          	sraw	sp,zero,ra
    5f40:	4041d83b          	sraw	a6,gp,tp
    5f44:	023171b3          	remu	gp,sp,gp
    5f48:	01e6911b          	slliw	sp,a3,0x1e
    5f4c:	a4f0f113          	andi	sp,ra,-1457
    5f50:	dfa1811b          	addiw	sp,gp,-518
    5f54:	b041d197          	auipc	gp,0xb041d
    5f58:	667021b7          	lui	gp,0x66702
    5f5c:	0021913b          	sllw	sp,gp,sp
    5f60:	0033803b          	addw	zero,t2,gp
    5f64:	0050e033          	or	zero,ra,t0
    5f68:	00e2121b          	slliw	tp,tp,0xe
    5f6c:	01a0519b          	srliw	gp,zero,0x1a
    5f70:	8a3260b7          	lui	ra,0x8a326
    5f74:	3aa7b097          	auipc	ra,0x3aa7b
    5f78:	34214113          	xori	sp,sp,834
    5f7c:	6d52e093          	ori	ra,t0,1749
    5f80:	00224333          	xor	t1,tp,sp
    5f84:	0031513b          	srlw	sp,sp,gp
    5f88:	0020c3b3          	xor	t2,ra,sp
    5f8c:	0221e033          	rem	zero,gp,sp
    5f90:	0011d0bb          	srlw	ra,gp,ra
    5f94:	0040909b          	slliw	ra,ra,0x4
    5f98:	2f96ee17          	auipc	t3,0x2f96e
    5f9c:	5b91a093          	slti	ra,gp,1465
    5fa0:	0070511b          	srliw	sp,zero,0x7
    5fa4:	00010313          	mv	t1,sp
    5fa8:	c22308e3          	beq	t1,sp,0x5bd8
    5fac:	001790b3          	sll	ra,a5,ra
    5fb0:	0012113b          	sllw	sp,tp,ra
    5fb4:	002061b3          	or	gp,zero,sp
    5fb8:	55442113          	slti	sp,s0,1364
    5fbc:	0351ef33          	rem	t5,gp,s5
    5fc0:	0180e133          	or	sp,ra,s8
    5fc4:	00318033          	add	zero,gp,gp
    5fc8:	e9f2c113          	xori	sp,t0,-353
    5fcc:	0240d133          	divu	sp,ra,tp
    5fd0:	30018737          	lui	a4,0x30018
    5fd4:	c9a7f317          	auipc	t1,0xc9a7f
    5fd8:	004102bb          	addw	t0,sp,tp
    5fdc:	bfa5821b          	addiw	tp,a1,-1030
    5fe0:	38c1f093          	andi	ra,gp,908
    5fe4:	402153b3          	sra	t2,sp,sp
    5fe8:	0222f0b3          	remu	ra,t0,sp
    5fec:	003090bb          	sllw	ra,ra,gp
    5ff0:	6f0c30b7          	lui	ra,0x6f0c3
    5ff4:	b1e47193          	andi	gp,s0,-1250
    5ff8:	000125b3          	sltz	a1,sp
    5ffc:	403101b3          	sub	gp,sp,gp
    6000:	0023d0bb          	srlw	ra,t2,sp
    6004:	40d1539b          	sraiw	t2,sp,0xd
    6008:	001bdeb3          	srl	t4,s7,ra
    600c:	0040f3b3          	and	t2,ra,tp
    6010:	4147d1bb          	sraw	gp,a5,s4
    6014:	81bcb197          	auipc	gp,0x81bcb
    6018:	c8e79137          	lui	sp,0xc8e79
    601c:	0020a1b3          	slt	gp,ra,sp
    6020:	023101b3          	mul	gp,sp,gp
    6024:	401101bb          	subw	gp,sp,ra
    6028:	015130b3          	sltu	ra,sp,s5
    602c:	4020013b          	negw	sp,sp
    6030:	cc718113          	addi	sp,gp,-825 # 0xffffffff81bd0cdb
    6034:	00000097          	auipc	ra,0x0
    6038:	11c083e7          	jalr	t2,284(ra) # 0x6150
    603c:	00e0901b          	slliw	zero,ra,0xe
    6040:	03511093          	slli	ra,sp,0x35
    6044:	e195a117          	auipc	sp,0xe195a
    6048:	59637097          	auipc	ra,0x59637
    604c:	001101b3          	add	gp,sp,ra
    6050:	80d1f393          	andi	t2,gp,-2035
    6054:	00c0131b          	slliw	t1,zero,0xc
    6058:	a1e18113          	addi	sp,gp,-1506
    605c:	0000e1b3          	or	gp,ra,zero
    6060:	f97353b7          	lui	t2,0xf9735
    6064:	0220c2b3          	div	t0,ra,sp
    6068:	01b11893          	slli	a7,sp,0x1b
    606c:	0212d033          	divu	zero,t0,ra
    6070:	00115233          	srl	tp,sp,ra
    6074:	f0d01137          	lui	sp,0xf0d01
    6078:	0232f033          	remu	zero,t0,gp
    607c:	8d6a72b7          	lui	t0,0x8d6a7
    6080:	4151013b          	subw	sp,sp,s5
    6084:	0021c0b3          	xor	ra,gp,sp
    6088:	40118033          	sub	zero,gp,ra
    608c:	02f6b0b7          	lui	ra,0x2f6b
    6090:	8f4d3093          	sltiu	ra,s10,-1804
    6094:	1eb9b137          	lui	sp,0x1eb9b
    6098:	02a4d193          	srli	gp,s1,0x2a
    609c:	003310bb          	sllw	ra,t1,gp
    60a0:	004351b3          	srl	gp,t1,tp
    60a4:	bd214593          	xori	a1,sp,-1070
    60a8:	003393bb          	sllw	t2,t2,gp
    60ac:	023481b3          	mul	gp,s1,gp
    60b0:	03a09393          	slli	t2,ra,0x3a
    60b4:	2e36f0b7          	lui	ra,0x2e36f
    60b8:	d8f1b093          	sltiu	ra,gp,-625
    60bc:	00312133          	slt	sp,sp,gp
    60c0:	405f003b          	subw	zero,t5,t0
    60c4:	ef6e1337          	lui	t1,0xef6e1
    60c8:	86c0a113          	slti	sp,ra,-1940
    60cc:	00218263          	beq	gp,sp,0x60d0
    60d0:	219004ef          	jal	s1,0x6ae8
    60d4:	407081b3          	sub	gp,ra,t2
    60d8:	fd44b197          	auipc	gp,0xfd44b
    60dc:	5d207193          	andi	gp,zero,1490
    60e0:	001160b3          	or	ra,sp,ra
    60e4:	bae17193          	andi	gp,sp,-1106
    60e8:	00225133          	srl	sp,tp,sp
    60ec:	1eeb3137          	lui	sp,0x1eeb3
    60f0:	382fbf37          	lui	t5,0x382fb
    60f4:	00278133          	add	sp,a5,sp
    60f8:	2e40f093          	andi	ra,ra,740
    60fc:	0021513b          	srlw	sp,sp,sp
    6100:	0041d0bb          	srlw	ra,gp,tp
    6104:	42c25113          	srai	sp,tp,0x2c
    6108:	9ee0f1b7          	lui	gp,0x9ee0f
    610c:	02218133          	mul	sp,gp,sp
    6110:	0070d09b          	srliw	ra,ra,0x7
    6114:	00104233          	xor	tp,zero,ra
    6118:	0041043b          	addw	s0,sp,tp
    611c:	35f1e193          	ori	gp,gp,863
    6120:	0031d1b3          	srl	gp,gp,gp
    6124:	0030b133          	sltu	sp,ra,gp
    6128:	a22eb297          	auipc	t0,0xa22eb
    612c:	019200b3          	add	ra,tp,s9
    6130:	dd6531b7          	lui	gp,0xdd653
    6134:	00310133          	add	sp,sp,gp
    6138:	4033003b          	subw	zero,t1,gp
    613c:	00316b33          	or	s6,sp,gp
    6140:	5ac4b197          	auipc	gp,0x5ac4b
    6144:	fa5ad1b7          	lui	gp,0xfa5ad
    6148:	a02180e3          	beq	gp,sp,0x5b48
    614c:	9fdff1ef          	jal	gp,0x5b48
    6150:	bd61e113          	ori	sp,gp,-1066
    6154:	02321093          	slli	ra,tp,0x23
    6158:	0032a0b3          	slt	ra,t0,gp
    615c:	cc716213          	ori	tp,sp,-825
    6160:	64e75197          	auipc	gp,0x64e75
    6164:	b9d83197          	auipc	gp,0xb9d83
    6168:	403181bb          	subw	gp,gp,gp
    616c:	4033d13b          	sraw	sp,t2,gp
    6170:	40338233          	sub	tp,t2,gp
    6174:	59f12193          	slti	gp,sp,1439
    6178:	1fc10093          	addi	ra,sp,508 # 0x1eeb31fc
    617c:	39b1cc13          	xori	s8,gp,923
    6180:	03a0d213          	srli	tp,ra,0x3a
    6184:	402080b3          	sub	ra,ra,sp
    6188:	021140b3          	div	ra,sp,ra
    618c:	1da5f1b7          	lui	gp,0x1da5f
    6190:	4747e093          	ori	ra,a5,1140
    6194:	807f40b7          	lui	ra,0x807f4
    6198:	00112133          	slt	sp,sp,ra
    619c:	e2a1e193          	ori	gp,gp,-470
    61a0:	02e12093          	slti	ra,sp,46
    61a4:	4521f193          	andi	gp,gp,1106
    61a8:	00716133          	or	sp,sp,t2
    61ac:	87d0009b          	addiw	ra,zero,-1923
    61b0:	0212e3b3          	rem	t2,t0,ra
    61b4:	0010909b          	slliw	ra,ra,0x1
    61b8:	87c05097          	auipc	ra,0x87c05
    61bc:	02328333          	mul	t1,t0,gp
    61c0:	f8ec5137          	lui	sp,0xf8ec5
    61c4:	03809193          	slli	gp,ra,0x38
    61c8:	00a1539b          	srliw	t2,sp,0xa
    61cc:	60a62217          	auipc	tp,0x60a62
    61d0:	0091f4b3          	and	s1,gp,s1
    61d4:	402181b3          	sub	gp,gp,sp
    61d8:	851b1217          	auipc	tp,0x851b1
    61dc:	00000097          	auipc	ra,0x0
    61e0:	120081e7          	jalr	gp,288(ra) # 0x62fc
    61e4:	a615e137          	lui	sp,0xa615e
    61e8:	0040d093          	srli	ra,ra,0x4
    61ec:	aba580b7          	lui	ra,0xaba58
    61f0:	4021013b          	subw	sp,sp,sp
    61f4:	00f19d1b          	slliw	s10,gp,0xf
    61f8:	7251e193          	ori	gp,gp,1829
    61fc:	cb41c093          	xori	ra,gp,-844
    6200:	02409193          	slli	gp,ra,0x24
    6204:	f5152337          	lui	t1,0xf5152
    6208:	002140b3          	xor	ra,sp,sp
    620c:	4013d09b          	sraiw	ra,t2,0x1
    6210:	4172511b          	sraiw	sp,tp,0x17
    6214:	403180b3          	sub	ra,gp,gp
    6218:	01a1129b          	slliw	t0,sp,0x1a
    621c:	20112117          	auipc	sp,0x20112
    6220:	b140b393          	sltiu	t2,ra,-1260
    6224:	0030e1b3          	or	gp,ra,gp
    6228:	32e33137          	lui	sp,0x32e33
    622c:	39716393          	ori	t2,sp,919
    6230:	2430b313          	sltiu	t1,ra,579
    6234:	401080b3          	sub	ra,ra,ra
    6238:	001040b3          	xor	ra,zero,ra
    623c:	a0116113          	ori	sp,sp,-1535
    6240:	f8bc6137          	lui	sp,0xf8bc6
    6244:	02b11193          	slli	gp,sp,0x2b
    6248:	98be60b7          	lui	ra,0x98be6
    624c:	e032019b          	addiw	gp,tp,-509
    6250:	00331133          	sll	sp,t1,gp
    6254:	01b19e93          	slli	t4,gp,0x1b
    6258:	02308033          	mul	zero,ra,gp
    625c:	3bd32137          	lui	sp,0x3bd32
    6260:	7b4cf097          	auipc	ra,0x7b4cf
    6264:	0000901b          	slliw	zero,ra,0x0
    6268:	0000919b          	slliw	gp,ra,0x0
    626c:	001141b3          	xor	gp,sp,ra
    6270:	8420dee3          	bge	ra,sp,0x5acc
    6274:	8420cce3          	blt	ra,sp,0x5acc
    6278:	e5b26193          	ori	gp,tp,-421
    627c:	0133509b          	srliw	ra,t1,0x13
    6280:	00611133          	sll	sp,sp,t1
    6284:	0020e233          	or	tp,ra,sp
    6288:	012d5133          	srl	sp,s10,s2
    628c:	0011d0b3          	srl	ra,gp,ra
    6290:	62739917          	auipc	s2,0x62739
    6294:	404382bb          	subw	t0,t2,tp
    6298:	401101b3          	sub	gp,sp,ra
    629c:	00815013          	srli	zero,sp,0x8
    62a0:	002293bb          	sllw	t2,t0,sp
    62a4:	d359e097          	auipc	ra,0xd359e
    62a8:	000291b3          	sll	gp,t0,zero
    62ac:	40308ab3          	sub	s5,ra,gp
    62b0:	40118033          	sub	zero,gp,ra
    62b4:	c0e16013          	ori	zero,sp,-1010
    62b8:	2fc1e093          	ori	ra,gp,764
    62bc:	400080b3          	sub	ra,ra,zero
    62c0:	006203b3          	add	t2,tp,t1
    62c4:	0012c233          	xor	tp,t0,ra
    62c8:	64f0fb13          	andi	s6,ra,1615
    62cc:	2b5612b7          	lui	t0,0x2b561
    62d0:	4281d093          	srai	ra,gp,0x28
    62d4:	003291b3          	sll	gp,t0,gp
    62d8:	03509193          	slli	gp,ra,0x35
    62dc:	004191b3          	sll	gp,gp,tp
    62e0:	4003509b          	sraiw	ra,t1,0x0
    62e4:	0211f1b3          	remu	gp,gp,ra
    62e8:	ca35f1b7          	lui	gp,0xca35f
    62ec:	9961b193          	sltiu	gp,gp,-1642
    62f0:	c1f1019b          	addiw	gp,sp,-993
    62f4:	d47254e3          	bge	tp,t2,0x603c
    62f8:	d47242e3          	blt	tp,t2,0x603c
    62fc:	e7718193          	addi	gp,gp,-393 # 0xffffffffca35ee77
    6300:	4db0809b          	addiw	ra,ra,1243
    6304:	0381d093          	srli	ra,gp,0x38
    6308:	0291c113          	xori	sp,gp,41
    630c:	825ce137          	lui	sp,0x825ce
    6310:	377ff097          	auipc	ra,0x377ff
    6314:	72b3a113          	slti	sp,t2,1835
    6318:	0231ec33          	rem	s8,gp,gp
    631c:	0212d5b3          	divu	a1,t0,ra
    6320:	8ad2f113          	andi	sp,t0,-1875
    6324:	03519113          	slli	sp,gp,0x35
    6328:	406086bb          	subw	a3,ra,t1
    632c:	4010d0b3          	sra	ra,ra,ra
    6330:	01a1939b          	slliw	t2,gp,0x1a
    6334:	919ae217          	auipc	tp,0x919ae
    6338:	66a0c193          	xori	gp,ra,1642
    633c:	001110b3          	sll	ra,sp,ra
    6340:	003293b3          	sll	t2,t0,gp
    6344:	f0916193          	ori	gp,sp,-247
    6348:	01c1921b          	slliw	tp,gp,0x1c
    634c:	4000d0bb          	sraw	ra,ra,zero
    6350:	4011d13b          	sraw	sp,gp,ra
    6354:	4133d113          	srai	sp,t2,0x13
    6358:	00636133          	or	sp,t1,t1
    635c:	5073009b          	addiw	ra,t1,1287
    6360:	002096b3          	sll	a3,ra,sp
    6364:	006381bb          	addw	gp,t2,t1
    6368:	001180bb          	addw	ra,gp,ra
    636c:	004112b3          	sll	t0,sp,tp
    6370:	003131b3          	sltu	gp,sp,gp
    6374:	24746097          	auipc	ra,0x24746
    6378:	000093b3          	sll	t2,ra,zero
    637c:	0020c0b3          	xor	ra,ra,sp
    6380:	410207b3          	sub	a5,tp,a6
    6384:	00232133          	slt	sp,t1,sp
    6388:	12118c63          	beq	gp,ra,0x64c0
    638c:	13400def          	jal	s11,0x64c0
    6390:	4030813b          	subw	sp,ra,gp
    6394:	3bd14113          	xori	sp,sp,957
    6398:	2d30c393          	xori	t2,ra,723
    639c:	402087bb          	subw	a5,ra,sp
    63a0:	01217133          	and	sp,sp,s2
    63a4:	b4d33097          	auipc	ra,0xb4d33
    63a8:	a213e193          	ori	gp,t2,-1503
    63ac:	40e1d0b3          	sra	ra,gp,a4
    63b0:	0180509b          	srliw	ra,zero,0x18
    63b4:	0003d13b          	srlw	sp,t2,zero
    63b8:	0210c333          	div	t1,ra,ra
    63bc:	4160511b          	sraiw	sp,zero,0x16
    63c0:	d3372313          	slti	t1,a4,-717
    63c4:	0020f1b3          	and	gp,ra,sp
    63c8:	01d0f093          	andi	ra,ra,29
    63cc:	581581b7          	lui	gp,0x58158
    63d0:	f070039b          	addiw	t2,zero,-249
    63d4:	40b1d09b          	sraiw	ra,gp,0xb
    63d8:	30e0e113          	ori	sp,ra,782
    63dc:	08930793          	addi	a5,t1,137 # 0xfffffffff5152089
    63e0:	4020d0b3          	sra	ra,ra,sp
    63e4:	ab00f113          	andi	sp,ra,-1360
    63e8:	0233d3b3          	divu	t2,t2,gp
    63ec:	0031511b          	srliw	sp,sp,0x3
    63f0:	02509213          	slli	tp,ra,0x25
    63f4:	4140d19b          	sraiw	gp,ra,0x14
    63f8:	01d9d01b          	srliw	zero,s3,0x1d
    63fc:	003170b3          	and	ra,sp,gp
    6400:	0140d693          	srli	a3,ra,0x14
    6404:	00b090bb          	sllw	ra,ra,a1
    6408:	40610033          	sub	zero,sp,t1
    640c:	4023ddb3          	sra	s11,t2,sp
    6410:	fb91e113          	ori	sp,gp,-71
    6414:	8ec0a293          	slti	t0,ra,-1812
    6418:	bf31b093          	sltiu	ra,gp,-1037
    641c:	4852811b          	addiw	sp,t0,1157
    6420:	025180b3          	mul	ra,gp,t0
    6424:	00010313          	mv	t1,sp
    6428:	ca2306e3          	beq	t1,sp,0x60d4
    642c:	00f151bb          	srlw	gp,sp,a5
    6430:	0143119b          	slliw	gp,t1,0x14
    6434:	6a10b113          	sltiu	sp,ra,1697
    6438:	0070919b          	slliw	gp,ra,0x7
    643c:	0133909b          	slliw	ra,t2,0x13
    6440:	a7e8e0b7          	lui	ra,0xa7e8e
    6444:	8b10f193          	andi	gp,ra,-1871
    6448:	00015133          	srl	sp,sp,zero
    644c:	403386b3          	sub	a3,t2,gp
    6450:	3985819b          	addiw	gp,a1,920
    6454:	e0574597          	auipc	a1,0xe0574
    6458:	0023a133          	slt	sp,t2,sp
    645c:	f8110193          	addi	gp,sp,-127 # 0xffffffff825cdf81
    6460:	01a1d193          	srli	gp,gp,0x1a
    6464:	002220b3          	slt	ra,tp,sp
    6468:	0011113b          	sllw	sp,sp,ra
    646c:	0011b0b3          	sltu	ra,gp,ra
    6470:	02d0d0b3          	divu	ra,ra,a3
    6474:	83aa4093          	xori	ra,s4,-1990
    6478:	931c4137          	lui	sp,0x931c4
    647c:	01319133          	sll	sp,gp,s3
    6480:	101171b7          	lui	gp,0x10117
    6484:	00559093          	slli	ra,a1,0x5
    6488:	0e72c393          	xori	t2,t0,231
    648c:	0012d133          	srl	sp,t0,ra
    6490:	00116233          	or	tp,sp,ra
    6494:	aa29e197          	auipc	gp,0xaa29e
    6498:	00408033          	add	zero,ra,tp
    649c:	be435197          	auipc	gp,0xbe435
    64a0:	a150c193          	xori	gp,ra,-1515
    64a4:	0040f1b3          	and	gp,ra,tp
    64a8:	0140511b          	srliw	sp,zero,0x14
    64ac:	9570f013          	andi	zero,ra,-1705
    64b0:	01f1529b          	srliw	t0,sp,0x1f
    64b4:	0011c133          	xor	sp,gp,ra
    64b8:	8c118ae3          	beq	gp,ra,0x5d8c
    64bc:	8d1ff16f          	jal	sp,0x5d8c
    64c0:	55149217          	auipc	tp,0x55149
    64c4:	00213133          	sltu	sp,sp,sp
    64c8:	093781b7          	lui	gp,0x9378
    64cc:	9e7b6117          	auipc	sp,0x9e7b6
    64d0:	288fc1b7          	lui	gp,0x288fc
    64d4:	93d4819b          	addiw	gp,s1,-1731
    64d8:	f98b6117          	auipc	sp,0xf98b6
    64dc:	02108133          	mul	sp,ra,ra
    64e0:	1475a0b7          	lui	ra,0x1475a
    64e4:	dff341b7          	lui	gp,0xdff34
    64e8:	c410f113          	andi	sp,ra,-959
    64ec:	401180bb          	subw	ra,gp,ra
    64f0:	023100b3          	mul	ra,sp,gp
    64f4:	0b8f1117          	auipc	sp,0xb8f1
    64f8:	5601a213          	slti	tp,gp,1376
    64fc:	b250c113          	xori	sp,ra,-1243
    6500:	0270c1b3          	div	gp,ra,t2
    6504:	c281809b          	addiw	ra,gp,-984
    6508:	021961b3          	rem	gp,s2,ra
    650c:	f532d097          	auipc	ra,0xf532d
    6510:	c6436317          	auipc	t1,0xc6436
    6514:	bfcc80b7          	lui	ra,0xbfcc8
    6518:	acb5f1b7          	lui	gp,0xacb5f
    651c:	0211f0b3          	remu	ra,gp,ra
    6520:	0021113b          	sllw	sp,sp,sp
    6524:	c3d8a193          	slti	gp,a7,-963
    6528:	007113bb          	sllw	t2,sp,t2
    652c:	404250b3          	sra	ra,tp,tp
    6530:	026181b3          	mul	gp,gp,t1
    6534:	40d2ae93          	slti	t4,t0,1037
    6538:	f9527097          	auipc	ra,0xf9527
    653c:	0010d2b3          	srl	t0,ra,ra
    6540:	8c2184e3          	beq	gp,sp,0x5e08
    6544:	8c5ff06f          	j	0x5e08
    6548:	c3500313          	li	t1,-971
    654c:	3ce182b7          	lui	t0,0x3ce18
    6550:	7a329137          	lui	sp,0x7a329
    6554:	f4a3a113          	slti	sp,t2,-182
    6558:	1c00819b          	addiw	gp,ra,448
    655c:	1211009b          	addiw	ra,sp,289
    6560:	0231c2b3          	div	t0,gp,gp
    6564:	00110133          	add	sp,sp,ra
    6568:	00111133          	sll	sp,sp,ra
    656c:	003081b3          	add	gp,ra,gp
    6570:	c178c097          	auipc	ra,0xc178c
    6574:	d00be197          	auipc	gp,0xd00be
    6578:	4ece2197          	auipc	gp,0x4ece2
    657c:	00006133          	or	sp,zero,zero
    6580:	4021d2b3          	sra	t0,gp,sp
    6584:	0820c193          	xori	gp,ra,130
    6588:	0041d11b          	srliw	sp,gp,0x4
    658c:	0211d1b3          	divu	gp,gp,ra
    6590:	8c00e193          	ori	gp,ra,-1856
    6594:	01f1919b          	slliw	gp,gp,0x1f
    6598:	03d05093          	srli	ra,zero,0x3d
    659c:	006180b3          	add	ra,gp,t1
    65a0:	01c09493          	slli	s1,ra,0x1c
    65a4:	f6813193          	sltiu	gp,sp,-152
    65a8:	4012813b          	subw	sp,t0,ra
    65ac:	03e09113          	slli	sp,ra,0x3e
    65b0:	1680b113          	sltiu	sp,ra,360
    65b4:	00b3129b          	slliw	t0,t1,0xb
    65b8:	5ce0b093          	sltiu	ra,ra,1486
    65bc:	00318333          	add	t1,gp,gp
    65c0:	40a1511b          	sraiw	sp,sp,0xa
    65c4:	5c208263          	beq	ra,sp,0x6b88
    65c8:	5c0003ef          	jal	t2,0x6b88
    65cc:	002341b3          	xor	gp,t1,sp
    65d0:	001111bb          	sllw	gp,sp,ra
    65d4:	003182b3          	add	t0,gp,gp
    65d8:	0018d1b3          	srl	gp,a7,ra
    65dc:	70318093          	addi	ra,gp,1795 # 0x4ece8c7b
    65e0:	902bc237          	lui	tp,0x902bc
    65e4:	021185b3          	mul	a1,gp,ra
    65e8:	b0f1021b          	addiw	tp,sp,-1265
    65ec:	0021b3b3          	sltu	t2,gp,sp
    65f0:	41f12193          	slti	gp,sp,1055
    65f4:	002120b3          	slt	ra,sp,sp
    65f8:	72132193          	slti	gp,t1,1825
    65fc:	03c100b3          	mul	ra,sp,t3
    6600:	ce910193          	addi	gp,sp,-791 # 0x7a328ce9
    6604:	4881b193          	sltiu	gp,gp,1160
    6608:	ce84f193          	andi	gp,s1,-792
    660c:	bd135097          	auipc	ra,0xbd135
    6610:	e383031b          	addiw	t1,t1,-456
    6614:	0161d01b          	srliw	zero,gp,0x16
    6618:	0003513b          	srlw	sp,t1,zero
    661c:	6530b137          	lui	sp,0x6530b
    6620:	f4212093          	slti	ra,sp,-190
    6624:	aad1a193          	slti	gp,gp,-1363
    6628:	0011113b          	sllw	sp,sp,ra
    662c:	4031d133          	sra	sp,gp,gp
    6630:	f791a093          	slti	ra,gp,-135
    6634:	3cd0d237          	lui	tp,0x3cd0d
    6638:	002311bb          	sllw	gp,t1,sp
    663c:	0061a133          	slt	sp,gp,t1
    6640:	d16a80b7          	lui	ra,0xd16a8
    6644:	de537093          	andi	ra,t1,-539
    6648:	ca3cd137          	lui	sp,0xca3cd
    664c:	00901113          	slli	sp,zero,0x9
    6650:	0021d1b3          	srl	gp,gp,sp
    6654:	94547237          	lui	tp,0x94547
    6658:	003180b3          	add	ra,gp,gp
    665c:	7a429117          	auipc	sp,0x7a429
    6660:	00000197          	auipc	gp,0x0
    6664:	250180e7          	jalr	592(gp) # 0x68b0
    6668:	0011e1b3          	or	gp,gp,ra
    666c:	51c49117          	auipc	sp,0x51c49
    6670:	43415113          	srai	sp,sp,0x34
    6674:	002081bb          	addw	gp,ra,sp
    6678:	00314133          	xor	sp,sp,gp
    667c:	407080bb          	subw	ra,ra,t2
    6680:	0031a0b3          	slt	ra,gp,gp
    6684:	0041903b          	sllw	zero,gp,tp
    6688:	0091d09b          	srliw	ra,gp,0x9
    668c:	c906b397          	auipc	t2,0xc906b
    6690:	0056b2b3          	sltu	t0,a3,t0
    6694:	5710b193          	sltiu	gp,ra,1393
    6698:	a79db1b7          	lui	gp,0xa79db
    669c:	0231c8b3          	div	a7,gp,gp
    66a0:	0211d3b3          	divu	t2,gp,ra
    66a4:	022160b3          	rem	ra,sp,sp
    66a8:	01609113          	slli	sp,ra,0x16
    66ac:	01c1d213          	srli	tp,gp,0x1c
    66b0:	aa416093          	ori	ra,sp,-1372
    66b4:	4032003b          	subw	zero,tp,gp
    66b8:	0031a233          	slt	tp,gp,gp
    66bc:	0021d0b3          	srl	ra,gp,sp
    66c0:	00a3511b          	srliw	sp,t1,0xa
    66c4:	0000d133          	srl	sp,ra,zero
    66c8:	0031113b          	sllw	sp,sp,gp
    66cc:	0150109b          	slliw	ra,zero,0x15
    66d0:	026100b3          	mul	ra,sp,t1
    66d4:	4020d13b          	sraw	sp,ra,sp
    66d8:	233c7237          	lui	tp,0x233c7
    66dc:	c73ce117          	auipc	sp,0xc73ce
    66e0:	0000b233          	sltu	tp,ra,zero
    66e4:	03111113          	slli	sp,sp,0x31
    66e8:	96ec7137          	lui	sp,0x96ec7
    66ec:	0011b133          	sltu	sp,gp,ra
    66f0:	5c1d8197          	auipc	gp,0x5c1d8
    66f4:	003201bb          	addw	gp,tp,gp
    66f8:	00008263          	beqz	ra,0x66fc
    66fc:	0890036f          	jal	t1,0x6f84
    6700:	000102b3          	add	t0,sp,zero
    6704:	4021d3bb          	sraw	t2,gp,sp
    6708:	021871b3          	remu	gp,a6,ra
    670c:	00c9131b          	slliw	t1,s2,0xc
    6710:	d190b137          	lui	sp,0xd190b
    6714:	4071013b          	subw	sp,sp,t2
    6718:	0011a133          	slt	sp,gp,ra
    671c:	ae40011b          	addiw	sp,zero,-1308
    6720:	239e4097          	auipc	ra,0x239e4
    6724:	00019113          	slli	sp,gp,0x0
    6728:	08a1e113          	ori	sp,gp,138
    672c:	d6f0a113          	slti	sp,ra,-657
    6730:	0030f1b3          	and	gp,ra,gp
    6734:	89d14193          	xori	gp,sp,-1891
    6738:	0033129b          	slliw	t0,t1,0x3
    673c:	0040f0b3          	and	ra,ra,tp
    6740:	6ee17113          	andi	sp,sp,1774
    6744:	780621b7          	lui	gp,0x78062
    6748:	03815193          	srli	gp,sp,0x38
    674c:	022170b3          	remu	ra,sp,sp
    6750:	0010d01b          	srliw	zero,ra,0x1
    6754:	002141b3          	xor	gp,sp,sp
    6758:	002321b3          	slt	gp,t1,sp
    675c:	001071b3          	and	gp,zero,ra
    6760:	03631113          	slli	sp,t1,0x36
    6764:	0030a1b3          	slt	gp,ra,gp
    6768:	401184b3          	sub	s1,gp,ra
    676c:	401100bb          	subw	ra,sp,ra
    6770:	40b1511b          	sraiw	sp,sp,0xb
    6774:	5ac331b7          	lui	gp,0x5ac33
    6778:	75833113          	sltiu	sp,t1,1880
    677c:	0010f133          	and	sp,ra,ra
    6780:	0233f1b3          	remu	gp,t2,gp
    6784:	0033b033          	sltu	zero,t2,gp
    6788:	00314033          	xor	zero,sp,gp
    678c:	44c8b0b7          	lui	ra,0x44c8b
    6790:	62308c63          	beq	ra,gp,0x6dc8
    6794:	634002ef          	jal	t0,0x6dc8
    6798:	0020fc33          	and	s8,ra,sp
    679c:	4011d0b3          	sra	ra,gp,ra
    67a0:	63b971b7          	lui	gp,0x63b97
    67a4:	4041d13b          	sraw	sp,gp,tp
    67a8:	0286f297          	auipc	t0,0x286f
    67ac:	024161b3          	rem	gp,sp,tp
    67b0:	01e2111b          	slliw	sp,tp,0x1e
    67b4:	0219e1b3          	rem	gp,s3,ra
    67b8:	31709097          	auipc	ra,0x31709
    67bc:	0230c133          	div	sp,ra,gp
    67c0:	4030d1bb          	sraw	gp,ra,gp
    67c4:	023102b3          	mul	t0,sp,gp
    67c8:	5afc21b7          	lui	gp,0x5afc2
    67cc:	01111193          	slli	gp,sp,0x11
    67d0:	003160b3          	or	ra,sp,gp
    67d4:	40330133          	sub	sp,t1,gp
    67d8:	4020ddb3          	sra	s11,ra,sp
    67dc:	003090bb          	sllw	ra,ra,gp
    67e0:	0011e0b3          	or	ra,gp,ra
    67e4:	0020f4b3          	and	s1,ra,sp
    67e8:	06d0821b          	addiw	tp,ra,109
    67ec:	7d51a393          	slti	t2,gp,2005
    67f0:	001111bb          	sllw	gp,sp,ra
    67f4:	4010823b          	subw	tp,ra,ra
    67f8:	0211d0b3          	divu	ra,gp,ra
    67fc:	02114ab3          	div	s5,sp,ra
    6800:	6571b293          	sltiu	t0,gp,1623
    6804:	008d50bb          	srlw	ra,s10,s0
    6808:	0023b0b3          	sltu	ra,t2,sp
    680c:	02216233          	rem	tp,sp,sp
    6810:	22d1019b          	addiw	gp,sp,557
    6814:	001153bb          	srlw	t2,sp,ra
    6818:	3ad17093          	andi	ra,sp,941
    681c:	401150bb          	sraw	ra,sp,ra
    6820:	b18800b7          	lui	ra,0xb1880
    6824:	ec858ee3          	beq	a1,s0,0x6700
    6828:	ed9ff6ef          	jal	a3,0x6700
    682c:	004081b3          	add	gp,ra,tp
    6830:	00039033          	sll	zero,t2,zero
    6834:	000102bb          	addw	t0,sp,zero
    6838:	0023b1b3          	sltu	gp,t2,sp
    683c:	021101b3          	mul	gp,sp,ra
    6840:	15708093          	addi	ra,ra,343 # 0xffffffffb1880157
    6844:	b7b14093          	xori	ra,sp,-1157
    6848:	014111bb          	sllw	gp,sp,s4
    684c:	022488b3          	mul	a7,s1,sp
    6850:	3541849b          	addiw	s1,gp,852
    6854:	0010d0b3          	srl	ra,ra,ra
    6858:	00112233          	slt	tp,sp,ra
    685c:	004383bb          	addw	t2,t2,tp
    6860:	406782b3          	sub	t0,a5,t1
    6864:	4ed1f093          	andi	ra,gp,1261
    6868:	14842197          	auipc	gp,0x14842
    686c:	0d11801b          	addiw	zero,gp,209
    6870:	471ebd97          	auipc	s11,0x471eb
    6874:	0150509b          	srliw	ra,zero,0x15
    6878:	1f3bf0b7          	lui	ra,0x1f3bf
    687c:	d68ad0b7          	lui	ra,0xd68ad
    6880:	027083b3          	mul	t2,ra,t2
    6884:	026170b3          	remu	ra,sp,t1
    6888:	002170b3          	and	ra,sp,sp
    688c:	004982b3          	add	t0,s3,tp
    6890:	c0814093          	xori	ra,sp,-1016
    6894:	0030d133          	srl	sp,ra,gp
    6898:	4648a1b7          	lui	gp,0x4648a
    689c:	ffc1e193          	ori	gp,gp,-4
    68a0:	0035a133          	slt	sp,a1,gp
    68a4:	004111b3          	sll	gp,sp,tp
    68a8:	1255d263          	bge	a1,t0,0x69cc
    68ac:	1255c063          	blt	a1,t0,0x69cc
    68b0:	00a3911b          	slliw	sp,t2,0xa
    68b4:	021061b3          	rem	gp,zero,ra
    68b8:	5b172197          	auipc	gp,0x5b172
    68bc:	0011d0b3          	srl	ra,gp,ra
    68c0:	40318133          	sub	sp,gp,gp
    68c4:	00e09193          	slli	gp,ra,0xe
    68c8:	021101b3          	mul	gp,sp,ra
    68cc:	75c711b7          	lui	gp,0x75c71
    68d0:	002f20b3          	slt	ra,t5,sp
    68d4:	4030d133          	sra	sp,ra,gp
    68d8:	0250f0b3          	remu	ra,ra,t0
    68dc:	72a20117          	auipc	sp,0x72a20
    68e0:	00110133          	add	sp,sp,ra
    68e4:	185c51b7          	lui	gp,0x185c5
    68e8:	0253e133          	rem	sp,t2,t0
    68ec:	0040911b          	slliw	sp,ra,0x4
    68f0:	41248117          	auipc	sp,0x41248
    68f4:	002111bb          	sllw	gp,sp,sp
    68f8:	40d1d393          	srai	t2,gp,0xd
    68fc:	c38a90b7          	lui	ra,0xc38a9
    6900:	7d82031b          	addiw	t1,tp,2008
    6904:	002081b3          	add	gp,ra,sp
    6908:	403151b3          	sra	gp,sp,gp
    690c:	b3d0e113          	ori	sp,ra,-1219
    6910:	0012a7b3          	slt	a5,t0,ra
    6914:	65fa1237          	lui	tp,0x65fa1
    6918:	fe5740b7          	lui	ra,0xfe574
    691c:	5f816193          	ori	gp,sp,1528
    6920:	00f3d1bb          	srlw	gp,t2,a5
    6924:	99eb3097          	auipc	ra,0x99eb3
    6928:	0203d7b3          	divu	a5,t2,zero
    692c:	00018093          	mv	ra,gp
    6930:	ee308ee3          	beq	ra,gp,0x682c
    6934:	e36220b7          	lui	ra,0xe3622
    6938:	03915193          	srli	gp,sp,0x39
    693c:	0011913b          	sllw	sp,gp,ra
    6940:	9c43d097          	auipc	ra,0x9c43d
    6944:	00f15133          	srl	sp,sp,a5
    6948:	001363b3          	or	t2,t1,ra
    694c:	001251bb          	srlw	gp,tp,ra
    6950:	00701113          	slli	sp,zero,0x7
    6954:	0091919b          	slliw	gp,gp,0x9
    6958:	5531e097          	auipc	ra,0x5531e
    695c:	4023531b          	sraiw	t1,t1,0x2
    6960:	26f77097          	auipc	ra,0x26f77
    6964:	00512133          	slt	sp,sp,t0
    6968:	e4d17193          	andi	gp,sp,-435
    696c:	004192b3          	sll	t0,gp,tp
    6970:	00b1909b          	slliw	ra,gp,0xb
    6974:	001113b3          	sll	t2,sp,ra
    6978:	002180b3          	add	ra,gp,sp
    697c:	01b9919b          	slliw	gp,s3,0x1b
    6980:	ca98d197          	auipc	gp,0xca98d
    6984:	6821c193          	xori	gp,gp,1666
    6988:	e05b0117          	auipc	sp,0xe05b0
    698c:	d5790197          	auipc	gp,0xd5790
    6990:	b5cf9097          	auipc	ra,0xb5cf9
    6994:	4061d09b          	sraiw	ra,gp,0x6
    6998:	c1a3011b          	addiw	sp,t1,-998
    699c:	81991097          	auipc	ra,0x81991
    69a0:	0001e233          	or	tp,gp,zero
    69a4:	bb4e3137          	lui	sp,0xbb4e3
    69a8:	0030f4b3          	and	s1,ra,gp
    69ac:	b7634013          	xori	zero,t1,-1162
    69b0:	402c80b3          	sub	ra,s9,sp
    69b4:	002d30b3          	sltu	ra,s10,sp
    69b8:	7d609117          	auipc	sp,0x7d609
    69bc:	ea61f193          	andi	gp,gp,-346
    69c0:	01e0931b          	slliw	t1,ra,0x1e
    69c4:	5231f463          	bgeu	gp,gp,0x6eec
    69c8:	5231e263          	bltu	gp,gp,0x6eec
    69cc:	4001d23b          	sraw	tp,gp,zero
    69d0:	0151bb33          	sltu	s6,gp,s5
    69d4:	56b2d117          	auipc	sp,0x56b2d
    69d8:	a3110193          	addi	gp,sp,-1487 # 0x56b33405
    69dc:	8fa0809b          	addiw	ra,ra,-1798
    69e0:	4182511b          	sraiw	sp,tp,0x18
    69e4:	084ce117          	auipc	sp,0x84ce
    69e8:	001051bb          	srlw	gp,zero,ra
    69ec:	0243d0b3          	divu	ra,t2,tp
    69f0:	0134d09b          	srliw	ra,s1,0x13
    69f4:	00d5f117          	auipc	sp,0xd5f
    69f8:	5e395197          	auipc	gp,0x5e395
    69fc:	4030d23b          	sraw	tp,ra,gp
    6a00:	6b44e1b7          	lui	gp,0x6b44e
    6a04:	022b4133          	div	sp,s6,sp
    6a08:	21f66097          	auipc	ra,0x21f66
    6a0c:	004081b3          	add	gp,ra,tp
    6a10:	d6435197          	auipc	gp,0xd6435
    6a14:	b901011b          	addiw	sp,sp,-1136
    6a18:	00317133          	and	sp,sp,gp
    6a1c:	0051513b          	srlw	sp,sp,t0
    6a20:	9b23f093          	andi	ra,t2,-1614
    6a24:	03f3c2b3          	div	t0,t2,t6
    6a28:	03811113          	slli	sp,sp,0x38
    6a2c:	a63ed017          	auipc	zero,0xa63ed
    6a30:	0211e2b3          	rem	t0,gp,ra
    6a34:	005390b3          	sll	ra,t2,t0
    6a38:	3a4ae597          	auipc	a1,0x3a4ae
    6a3c:	0011033b          	addw	t1,sp,ra
    6a40:	309fd097          	auipc	ra,0x309fd
    6a44:	0030911b          	slliw	sp,ra,0x3
    6a48:	40515333          	sra	t1,sp,t0
    6a4c:	0013b233          	sltu	tp,t2,ra
    6a50:	0013b2b3          	sltu	t0,t2,ra
    6a54:	01a19193          	slli	gp,gp,0x1a
    6a58:	17318117          	auipc	sp,0x17318
    6a5c:	ae2186e3          	beq	gp,sp,0x6548
    6a60:	ae9ff1ef          	jal	gp,0x6548
    6a64:	01215113          	srli	sp,sp,0x12
    6a68:	0f30c093          	xori	ra,ra,243
    6a6c:	48c14213          	xori	tp,sp,1164
    6a70:	0250c133          	div	sp,ra,t0
    6a74:	00529333          	sll	t1,t0,t0
    6a78:	dff150b7          	lui	ra,0xdff15
    6a7c:	019111bb          	sllw	gp,sp,s9
    6a80:	003090b3          	sll	ra,ra,gp
    6a84:	027250b3          	divu	ra,tp,t2
    6a88:	40210133          	sub	sp,sp,sp
    6a8c:	0021e1b3          	or	gp,gp,sp
    6a90:	00117133          	and	sp,sp,ra
    6a94:	022353b3          	divu	t2,t1,sp
    6a98:	0216c1b3          	div	gp,a3,ra
    6a9c:	02215133          	divu	sp,sp,sp
    6aa0:	a941a013          	slti	zero,gp,-1388
    6aa4:	0240c033          	div	zero,ra,tp
    6aa8:	953de1b7          	lui	gp,0x953de
    6aac:	284bc197          	auipc	gp,0x284bc
    6ab0:	0290d093          	srli	ra,ra,0x29
    6ab4:	0211d1b3          	divu	gp,gp,ra
    6ab8:	d1481117          	auipc	sp,0xd1481
    6abc:	02414033          	div	zero,sp,tp
    6ac0:	a2504197          	auipc	gp,0xa2504
    6ac4:	4090d11b          	sraiw	sp,ra,0x9
    6ac8:	00311233          	sll	tp,sp,gp
    6acc:	403151bb          	sraw	gp,sp,gp
    6ad0:	02b0d593          	srli	a1,ra,0x2b
    6ad4:	4202d393          	srai	t2,t0,0x20
    6ad8:	43f0da93          	srai	s5,ra,0x3f
    6adc:	3a3543b7          	lui	t2,0x3a354
    6ae0:	00218263          	beq	gp,sp,0x6ae4
    6ae4:	4f90016f          	jal	sp,0x77dc
    6ae8:	0290c233          	div	tp,ra,s1
    6aec:	ed1011b7          	lui	gp,0xed101
    6af0:	0212f133          	remu	sp,t0,ra
    6af4:	001142b3          	xor	t0,sp,ra
    6af8:	58bfd1b7          	lui	gp,0x58bfd
    6afc:	69a1ba13          	sltiu	s4,gp,1690
    6b00:	402151bb          	sraw	gp,sp,sp
    6b04:	003964b3          	or	s1,s2,gp
    6b08:	0021d133          	srl	sp,gp,sp
    6b0c:	04f3019b          	addiw	gp,t1,79
    6b10:	03c11093          	slli	ra,sp,0x3c
    6b14:	0073c0b3          	xor	ra,t2,t2
    6b18:	6950f313          	andi	t1,ra,1685
    6b1c:	a8017113          	andi	sp,sp,-1408
    6b20:	181561b7          	lui	gp,0x18156
    6b24:	7d394037          	lui	zero,0x7d394
    6b28:	5b734293          	xori	t0,t1,1463
    6b2c:	14e2a093          	slti	ra,t0,334
    6b30:	0121b033          	sltu	zero,gp,s2
    6b34:	40115133          	sra	sp,sp,ra
    6b38:	e5ab00b7          	lui	ra,0xe5ab0
    6b3c:	0352e133          	rem	sp,t0,s5
    6b40:	5c910193          	addi	gp,sp,1481 # 0xffffffffd1488081
    6b44:	00f1911b          	slliw	sp,gp,0xf
    6b48:	0021e1b3          	or	gp,gp,sp
    6b4c:	516f011b          	addiw	sp,t5,1302
    6b50:	002091b3          	sll	gp,ra,sp
    6b54:	ec418093          	addi	ra,gp,-316 # 0x18155ec4
    6b58:	a152c213          	xori	tp,t0,-1515
    6b5c:	401181bb          	subw	gp,gp,ra
    6b60:	083f8117          	auipc	sp,0x83f8
    6b64:	0020c133          	xor	sp,ra,sp
    6b68:	401351b3          	sra	gp,t1,ra
    6b6c:	0f20809b          	addiw	ra,ra,242
    6b70:	401301bb          	subw	gp,t1,ra
    6b74:	7c51009b          	addiw	ra,sp,1989
    6b78:	3e91009b          	addiw	ra,sp,1001
    6b7c:	0240e0b3          	rem	ra,ra,tp
    6b80:	00000097          	auipc	ra,0x0
    6b84:	c1808067          	jr	-1000(ra) # 0x6798
    6b88:	40f2d49b          	sraiw	s1,t0,0xf
    6b8c:	40428333          	sub	t1,t0,tp
    6b90:	36225097          	auipc	ra,0x36225
    6b94:	7d10f213          	andi	tp,ra,2001
    6b98:	006286b3          	add	a3,t0,t1
    6b9c:	02216233          	rem	tp,sp,sp
    6ba0:	40c0d11b          	sraiw	sp,ra,0xc
    6ba4:	9ab687b7          	lui	a5,0x9ab68
    6ba8:	9c312113          	slti	sp,sp,-1597
    6bac:	ecd95097          	auipc	ra,0xecd95
    6bb0:	4031013b          	subw	sp,sp,gp
    6bb4:	72c34097          	auipc	ra,0x72c34
    6bb8:	000080b3          	add	ra,ra,zero
    6bbc:	0021d2bb          	srlw	t0,gp,sp
    6bc0:	a1242017          	auipc	zero,0xa1242
    6bc4:	0181111b          	slliw	sp,sp,0x18
    6bc8:	0231d0b3          	divu	ra,gp,gp
    6bcc:	f2208193          	addi	gp,ra,-222 # 0x72c3aad6
    6bd0:	05e08093          	addi	ra,ra,94
    6bd4:	65d2fa13          	andi	s4,t0,1629
    6bd8:	4021501b          	sraiw	zero,sp,0x2
    6bdc:	02308133          	mul	sp,ra,gp
    6be0:	022a03b3          	mul	t2,s4,sp
    6be4:	340b5097          	auipc	ra,0x340b5
    6be8:	561cb2b7          	lui	t0,0x561cb
    6bec:	003a8133          	add	sp,s5,gp
    6bf0:	52a4c1b7          	lui	gp,0x52a4c
    6bf4:	02130133          	mul	sp,t1,ra
    6bf8:	0221d0b3          	divu	ra,gp,sp
    6bfc:	004091bb          	sllw	gp,ra,tp
    6c00:	404081b3          	sub	gp,ra,tp
    6c04:	7e11009b          	addiw	ra,sp,2017
    6c08:	002363b3          	or	t2,t1,sp
    6c0c:	3ebe8117          	auipc	sp,0x3ebe8
    6c10:	61f2c293          	xori	t0,t0,1567
    6c14:	1e81a093          	slti	ra,gp,488
    6c18:	e46186e3          	beq	gp,t1,0x6a64
    6c1c:	e49ff0ef          	jal	ra,0x6a64
    6c20:	b599f037          	lui	zero,0xb599f
    6c24:	401100b3          	sub	ra,sp,ra
    6c28:	1cd34117          	auipc	sp,0x1cd34
    6c2c:	003370b3          	and	ra,t1,gp
    6c30:	0011e133          	or	sp,gp,ra
    6c34:	40515193          	srai	gp,sp,0x5
    6c38:	40f081b3          	sub	gp,ra,a5
    6c3c:	0161d093          	srli	ra,gp,0x16
    6c40:	771e01b7          	lui	gp,0x771e0
    6c44:	dfe513b7          	lui	t2,0xdfe51
    6c48:	001110bb          	sllw	ra,sp,ra
    6c4c:	81c12193          	slti	gp,sp,-2020
    6c50:	0041f1b3          	and	gp,gp,tp
    6c54:	310de097          	auipc	ra,0x310de
    6c58:	00a1109b          	slliw	ra,sp,0xa
    6c5c:	03e0d133          	divu	sp,ra,t5
    6c60:	358af317          	auipc	t1,0x358af
    6c64:	5c179137          	lui	sp,0x5c179
    6c68:	401086bb          	subw	a3,ra,ra
    6c6c:	01119693          	slli	a3,gp,0x11
    6c70:	023161b3          	rem	gp,sp,gp
    6c74:	001101b3          	add	gp,sp,ra
    6c78:	081400b7          	lui	ra,0x8140
    6c7c:	9b40f193          	andi	gp,ra,-1612
    6c80:	00e0d013          	srli	zero,ra,0xe
    6c84:	001291b3          	sll	gp,t0,ra
    6c88:	0233d033          	divu	zero,t2,gp
    6c8c:	03b09093          	slli	ra,ra,0x3b
    6c90:	401181bb          	subw	gp,gp,ra
    6c94:	403000b3          	neg	ra,gp
    6c98:	eba96117          	auipc	sp,0xeba96
    6c9c:	36d18663          	beq	gp,a3,0x7008
    6ca0:	368001ef          	jal	gp,0x7008
    6ca4:	70bc4137          	lui	sp,0x70bc4
    6ca8:	00213133          	sltu	sp,sp,sp
    6cac:	0012d233          	srl	tp,t0,ra
    6cb0:	0021b133          	sltu	sp,gp,sp
    6cb4:	b3ff0097          	auipc	ra,0xb3ff0
    6cb8:	f491e197          	auipc	gp,0xf491e
    6cbc:	40318133          	sub	sp,gp,gp
    6cc0:	0121d1b3          	srl	gp,gp,s2
    6cc4:	15f1fd93          	andi	s11,gp,351
    6cc8:	86312213          	slti	tp,sp,-1949
    6ccc:	b0f32cb7          	lui	s9,0xb0f32
    6cd0:	0061f033          	and	zero,gp,t1
    6cd4:	003151b3          	srl	gp,sp,gp
    6cd8:	03a11093          	slli	ra,sp,0x3a
    6cdc:	f061019b          	addiw	gp,sp,-250
    6ce0:	0030d23b          	srlw	tp,ra,gp
    6ce4:	0120919b          	slliw	gp,ra,0x12
    6ce8:	6e803013          	sltiu	zero,zero,1768
    6cec:	c9e42017          	auipc	zero,0xc9e42
    6cf0:	1e56a237          	lui	tp,0x1e56a
    6cf4:	41e0d19b          	sraiw	gp,ra,0x1e
    6cf8:	4022d13b          	sraw	sp,t0,sp
    6cfc:	00228db3          	add	s11,t0,sp
    6d00:	0221d1b3          	divu	gp,gp,sp
    6d04:	0211e1b3          	rem	gp,gp,ra
    6d08:	2bf1829b          	addiw	t0,gp,703
    6d0c:	62775097          	auipc	ra,0x62775
    6d10:	1e1fd397          	auipc	t2,0x1e1fd
    6d14:	021151b3          	divu	gp,sp,ra
    6d18:	815a2817          	auipc	a6,0x815a2
    6d1c:	023100b3          	mul	ra,sp,gp
    6d20:	fd81a293          	slti	t0,gp,-40
    6d24:	01c0d21b          	srliw	tp,ra,0x1c
    6d28:	099d41b7          	lui	gp,0x99d4
    6d2c:	8a0180e3          	beqz	gp,0x65cc
    6d30:	89dff16f          	jal	sp,0x65cc
    6d34:	1960b013          	sltiu	zero,ra,406
    6d38:	ec60e113          	ori	sp,ra,-314
    6d3c:	b8a9e3b7          	lui	t2,0xb8a9e
    6d40:	1df2e113          	ori	sp,t0,479
    6d44:	0250c033          	div	zero,ra,t0
    6d48:	401180b3          	sub	ra,gp,ra
    6d4c:	0042e0b3          	or	ra,t0,tp
    6d50:	4033d19b          	sraiw	gp,t2,0x3
    6d54:	63953137          	lui	sp,0x63953
    6d58:	e651ef93          	ori	t6,gp,-411
    6d5c:	01315813          	srli	a6,sp,0x13
    6d60:	0031113b          	sllw	sp,sp,gp
    6d64:	00326333          	or	t1,tp,gp
    6d68:	0021913b          	sllw	sp,gp,sp
    6d6c:	0211f333          	remu	t1,gp,ra
    6d70:	ad4c2037          	lui	zero,0xad4c2
    6d74:	002092bb          	sllw	t0,ra,sp
    6d78:	4030d133          	sra	sp,ra,gp
    6d7c:	43d81397          	auipc	t2,0x43d81
    6d80:	0211e133          	rem	sp,gp,ra
    6d84:	7d712093          	slti	ra,sp,2007
    6d88:	d4e8c097          	auipc	ra,0xd4e8c
    6d8c:	003081bb          	addw	gp,ra,gp
    6d90:	013e013b          	addw	sp,t3,s3
    6d94:	eb621097          	auipc	ra,0xeb621
    6d98:	efa0f213          	andi	tp,ra,-262
    6d9c:	0010a133          	slt	sp,ra,ra
    6da0:	0041523b          	srlw	tp,sp,tp
    6da4:	a526a317          	auipc	t1,0xa526a
    6da8:	0210e1b3          	rem	gp,ra,ra
    6dac:	02608133          	mul	sp,ra,t1
    6db0:	00a1919b          	slliw	gp,gp,0xa
    6db4:	0010f0b3          	and	ra,ra,ra
    6db8:	b4ac8117          	auipc	sp,0xb4ac8
    6dbc:	0210d4b3          	divu	s1,ra,ra
    6dc0:	00018113          	mv	sp,gp
    6dc4:	b63108e3          	beq	sp,gp,0x6934
    6dc8:	4016d0b3          	sra	ra,a3,ra
    6dcc:	4101d093          	srai	ra,gp,0x10
    6dd0:	95408097          	auipc	ra,0x95408
    6dd4:	16416137          	lui	sp,0x16416
    6dd8:	003091b3          	sll	gp,ra,gp
    6ddc:	31afd1b7          	lui	gp,0x31afd
    6de0:	1efd7097          	auipc	ra,0x1efd7
    6de4:	8fd62117          	auipc	sp,0x8fd62
    6de8:	4020013b          	negw	sp,sp
    6dec:	e99de017          	auipc	zero,0xe99de
    6df0:	0021d1b3          	srl	gp,gp,sp
    6df4:	4031023b          	subw	tp,sp,gp
    6df8:	e8b16113          	ori	sp,sp,-373
    6dfc:	0071a133          	slt	sp,gp,t2
    6e00:	1888a017          	auipc	zero,0x1888a
    6e04:	11416697          	auipc	a3,0x11416
    6e08:	93410137          	lui	sp,0x93410
    6e0c:	f4b1a193          	slti	gp,gp,-181
    6e10:	7cd1c093          	xori	ra,gp,1997
    6e14:	40d0519b          	sraiw	gp,zero,0xd
    6e18:	648af117          	auipc	sp,0x648af
    6e1c:	b9eb41b7          	lui	gp,0xb9eb4
    6e20:	470e1117          	auipc	sp,0x470e1
    6e24:	0190919b          	slliw	gp,ra,0x19
    6e28:	0021e033          	or	zero,gp,sp
    6e2c:	0114111b          	slliw	sp,s0,0x11
    6e30:	85267093          	andi	ra,a2,-1966
    6e34:	22284137          	lui	sp,0x22284
    6e38:	01e1d11b          	srliw	sp,gp,0x1e
    6e3c:	0170109b          	slliw	ra,zero,0x17
    6e40:	0100d11b          	srliw	sp,ra,0x10
    6e44:	eb8eb237          	lui	tp,0xeb8eb
    6e48:	023080b3          	mul	ra,ra,gp
    6e4c:	a0a931b7          	lui	gp,0xa0a93
    6e50:	2841be93          	sltiu	t4,gp,644
    6e54:	80018ae3          	beqz	gp,0x6668
    6e58:	811ff1ef          	jal	gp,0x6668
    6e5c:	40115233          	sra	tp,sp,ra
    6e60:	002082b3          	add	t0,ra,sp
    6e64:	003373b3          	and	t2,t1,gp
    6e68:	01c1909b          	slliw	ra,gp,0x1c
    6e6c:	00609f1b          	slliw	t5,ra,0x6
    6e70:	002081b3          	add	gp,ra,sp
    6e74:	4022013b          	subw	sp,tp,sp
    6e78:	4020d133          	sra	sp,ra,sp
    6e7c:	0230d233          	divu	tp,ra,gp
    6e80:	401001b3          	neg	gp,ra
    6e84:	0201f393          	andi	t2,gp,32
    6e88:	001272b3          	and	t0,tp,ra
    6e8c:	fae1c113          	xori	sp,gp,-82
    6e90:	002150b3          	srl	ra,sp,sp
    6e94:	02118133          	mul	sp,gp,ra
    6e98:	f8a41397          	auipc	t2,0xf8a41
    6e9c:	37b30193          	addi	gp,t1,891 # 0xffffffffa527111f
    6ea0:	00108133          	add	sp,ra,ra
    6ea4:	0182d113          	srli	sp,t0,0x18
    6ea8:	00303133          	snez	sp,gp
    6eac:	9d91019b          	addiw	gp,sp,-1575
    6eb0:	00010533          	add	a0,sp,zero
    6eb4:	2501831b          	addiw	t1,gp,592
    6eb8:	20a1f013          	andi	zero,gp,522
    6ebc:	023360b3          	rem	ra,t1,gp
    6ec0:	004151bb          	srlw	gp,sp,tp
    6ec4:	002171b3          	and	gp,sp,sp
    6ec8:	0fc18193          	addi	gp,gp,252 # 0xffffffffa0a930fc
    6ecc:	00712333          	slt	t1,sp,t2
    6ed0:	0021b0b3          	sltu	ra,gp,sp
    6ed4:	35523093          	sltiu	ra,tp,853
    6ed8:	3a477137          	lui	sp,0x3a477
    6edc:	4002513b          	sraw	sp,tp,zero
    6ee0:	0080813b          	addw	sp,ra,s0
    6ee4:	e421d8e3          	bge	gp,sp,0x6d34
    6ee8:	e421c6e3          	blt	gp,sp,0x6d34
    6eec:	01609693          	slli	a3,ra,0x16
    6ef0:	02b0c033          	div	zero,ra,a1
    6ef4:	41025093          	srai	ra,tp,0x10
    6ef8:	9e45f237          	lui	tp,0x9e45f
    6efc:	c08b0117          	auipc	sp,0xc08b0
    6f00:	0021b133          	sltu	sp,gp,sp
    6f04:	0160d11b          	srliw	sp,ra,0x16
    6f08:	41504193          	xori	gp,zero,1045
    6f0c:	1a08e193          	ori	gp,a7,416
    6f10:	b120e213          	ori	tp,ra,-1262
    6f14:	4012d13b          	sraw	sp,t0,ra
    6f18:	8ac1e093          	ori	ra,gp,-1876
    6f1c:	403182bb          	subw	t0,gp,gp
    6f20:	4022d0bb          	sraw	ra,t0,sp
    6f24:	3fe10293          	addi	t0,sp,1022 # 0xffffffffc08b72fa
    6f28:	731fe1b7          	lui	gp,0x731fe
    6f2c:	4160509b          	sraiw	ra,zero,0x16
    6f30:	0022f1b3          	and	gp,t0,sp
    6f34:	03317233          	remu	tp,sp,s3
    6f38:	f1f0f093          	andi	ra,ra,-225
    6f3c:	02b04133          	div	sp,zero,a1
    6f40:	0071a0b3          	slt	ra,gp,t2
    6f44:	0461b093          	sltiu	ra,gp,70
    6f48:	40b0d213          	srai	tp,ra,0xb
    6f4c:	401100bb          	subw	ra,sp,ra
    6f50:	00213133          	sltu	sp,sp,sp
    6f54:	001300b3          	add	ra,t1,ra
    6f58:	a7c70097          	auipc	ra,0xa7c70
    6f5c:	002110bb          	sllw	ra,sp,sp
    6f60:	3707e137          	lui	sp,0x3707e
    6f64:	0211c133          	div	sp,gp,ra
    6f68:	3a314293          	xori	t0,sp,931
    6f6c:	00401133          	sll	sp,zero,tp
    6f70:	0021919b          	slliw	gp,gp,0x2
    6f74:	4041d1b3          	sra	gp,gp,tp
    6f78:	0071c0b3          	xor	ra,gp,t2
    6f7c:	00010113          	mv	sp,sp
    6f80:	d22102e3          	beq	sp,sp,0x6ca4
    6f84:	6207e1b7          	lui	gp,0x6207e
    6f88:	02400333          	mul	t1,zero,tp
    6f8c:	000300b3          	add	ra,t1,zero
    6f90:	0031d2b3          	srl	t0,gp,gp
    6f94:	1d7301b7          	lui	gp,0x1d730
    6f98:	61040397          	auipc	t2,0x61040
    6f9c:	ac40a113          	slti	sp,ra,-1340
    6fa0:	5505f2b7          	lui	t0,0x5505f
    6fa4:	0010913b          	sllw	sp,ra,ra
    6fa8:	001081bb          	addw	gp,ra,ra
    6fac:	026170b3          	remu	ra,sp,t1
    6fb0:	002100bb          	addw	ra,sp,sp
    6fb4:	0f317193          	andi	gp,sp,243
    6fb8:	002150bb          	srlw	ra,sp,sp
    6fbc:	87cba0b7          	lui	ra,0x87cba
    6fc0:	002120b3          	slt	ra,sp,sp
    6fc4:	0221f233          	remu	tp,gp,sp
    6fc8:	0021d0b3          	srl	ra,gp,sp
    6fcc:	002182bb          	addw	t0,gp,sp
    6fd0:	023162b3          	rem	t0,sp,gp
    6fd4:	02117133          	remu	sp,sp,ra
    6fd8:	0051911b          	slliw	sp,gp,0x5
    6fdc:	dfdc81b7          	lui	gp,0xdfdc8
    6fe0:	353e4117          	auipc	sp,0x353e4
    6fe4:	62f24193          	xori	gp,tp,1583
    6fe8:	02034033          	div	zero,t1,zero
    6fec:	f6c1c193          	xori	gp,gp,-148
    6ff0:	0231f233          	remu	tp,gp,gp
    6ff4:	0061123b          	sllw	tp,sp,t1
    6ff8:	02318133          	mul	sp,gp,gp
    6ffc:	4001513b          	sraw	sp,sp,zero
    7000:	c231f0e3          	bgeu	gp,gp,0x6c20
    7004:	c031eee3          	bltu	gp,gp,0x6c20
    7008:	03209313          	slli	t1,ra,0x32
    700c:	403200b3          	sub	ra,tp,gp
    7010:	bf931017          	auipc	zero,0xbf931
    7014:	a28b9317          	auipc	t1,0xa28b9
    7018:	7c918093          	addi	ra,gp,1993 # 0xffffffffdfdc87c9
    701c:	001250b3          	srl	ra,tp,ra
    7020:	0ed0a193          	slti	gp,ra,237
    7024:	02a09093          	slli	ra,ra,0x2a
    7028:	4003d6bb          	sraw	a3,t2,zero
    702c:	e97812b7          	lui	t0,0xe9781
    7030:	9b1e3137          	lui	sp,0x9b1e3
    7034:	022182b3          	mul	t0,gp,sp
    7038:	e8b20113          	addi	sp,tp,-373 # 0xffffffff9e45ee8b
    703c:	c8dc6197          	auipc	gp,0xc8dc6
    7040:	003181bb          	addw	gp,gp,gp
    7044:	d8834097          	auipc	ra,0xd8834
    7048:	edb6b1b7          	lui	gp,0xedb6b
    704c:	85917d93          	andi	s11,sp,-1959
    7050:	4071d33b          	sraw	t1,gp,t2
    7054:	4020d0bb          	sraw	ra,ra,sp
    7058:	0211f0b3          	remu	ra,gp,ra
    705c:	402080bb          	subw	ra,ra,sp
    7060:	02368133          	mul	sp,a3,gp
    7064:	0130d19b          	srliw	gp,ra,0x13
    7068:	40418133          	sub	sp,gp,tp
    706c:	f611c913          	xori	s2,gp,-159
    7070:	02030133          	mul	sp,t1,zero
    7074:	909b93b7          	lui	t2,0x909b9
    7078:	ff022293          	slti	t0,tp,-16
    707c:	4022013b          	subw	sp,tp,sp
    7080:	1d3a6497          	auipc	s1,0x1d3a6
    7084:	007220b3          	slt	ra,tp,t2
    7088:	dc118ae3          	beq	gp,ra,0x6e5c
    708c:	dd1ff36f          	jal	t1,0x6e5c
    7090:	001101b3          	add	gp,sp,ra
    7094:	0041b1b3          	sltu	gp,gp,tp
    7098:	003153bb          	srlw	t2,sp,gp
    709c:	01e29193          	slli	gp,t0,0x1e
    70a0:	41f381b3          	sub	gp,t2,t6
    70a4:	7e41019b          	addiw	gp,sp,2020
    70a8:	bf6a9017          	auipc	zero,0xbf6a9
    70ac:	01e0919b          	slliw	gp,ra,0x1e
    70b0:	0240c133          	div	sp,ra,tp
    70b4:	3500c093          	xori	ra,ra,848
    70b8:	4241d193          	srai	gp,gp,0x24
    70bc:	ed460197          	auipc	gp,0xed460
    70c0:	0070b133          	sltu	sp,ra,t2
    70c4:	581c41b7          	lui	gp,0x581c4
    70c8:	886c7097          	auipc	ra,0x886c7
    70cc:	49818113          	addi	sp,gp,1176 # 0x581c4498
    70d0:	4151d693          	srai	a3,gp,0x15
    70d4:	198f90b7          	lui	ra,0x198f9
    70d8:	5642c3b7          	lui	t2,0x5642c
    70dc:	21317193          	andi	gp,sp,531
    70e0:	00532133          	slt	sp,t1,t0
    70e4:	023081b3          	mul	gp,ra,gp
    70e8:	7dafc097          	auipc	ra,0x7dafc
    70ec:	86018193          	addi	gp,gp,-1952
    70f0:	06c7b337          	lui	t1,0x6c7b
    70f4:	152150b7          	lui	ra,0x15215
    70f8:	0211d0b3          	divu	ra,gp,ra
    70fc:	93a08013          	addi	zero,ra,-1734 # 0x1521493a
    7100:	00209133          	sll	sp,ra,sp
    7104:	000130b3          	sltu	ra,sp,zero
    7108:	0030f1b3          	and	gp,ra,gp
    710c:	4030d0bb          	sraw	ra,ra,gp
    7110:	e2a5b117          	auipc	sp,0xe2a5b
    7114:	0011d1b3          	srl	gp,gp,ra
    7118:	0210f1b3          	remu	gp,ra,ra
    711c:	00f102bb          	addw	t0,sp,a5
    7120:	1a128c63          	beq	t0,ra,0x72d8
    7124:	1b40016f          	jal	sp,0x72d8
    7128:	2df72097          	auipc	ra,0x2df72
    712c:	03a37113          	andi	sp,t1,58
    7130:	022300b3          	mul	ra,t1,sp
    7134:	48d60117          	auipc	sp,0x48d60
    7138:	475b20b7          	lui	ra,0x475b2
    713c:	95e76197          	auipc	gp,0x95e76
    7140:	02320133          	mul	sp,tp,gp
    7144:	6a20ed13          	ori	s10,ra,1698
    7148:	67a1b013          	sltiu	zero,gp,1658
    714c:	01e5921b          	slliw	tp,a1,0x1e
    7150:	a3011117          	auipc	sp,0xa3011
    7154:	005080b3          	add	ra,ra,t0
    7158:	49c1e113          	ori	sp,gp,1180
    715c:	c988e137          	lui	sp,0xc988e
    7160:	0011c0b3          	xor	ra,gp,ra
    7164:	001171b3          	and	gp,sp,ra
    7168:	001270b3          	and	ra,tp,ra
    716c:	0011913b          	sllw	sp,gp,ra
    7170:	02214033          	div	zero,sp,sp
    7174:	0121111b          	slliw	sp,sp,0x12
    7178:	bb97d137          	lui	sp,0xbb97d
    717c:	621da137          	lui	sp,0x621da
    7180:	0091fdb3          	and	s11,gp,s1
    7184:	4031813b          	subw	sp,gp,gp
    7188:	d661a213          	slti	tp,gp,-666
    718c:	70e3021b          	addiw	tp,t1,1806
    7190:	0030d133          	srl	sp,ra,gp
    7194:	d0f12213          	slti	tp,sp,-753
    7198:	401281b3          	sub	gp,t0,ra
    719c:	0200d133          	divu	sp,ra,zero
    71a0:	dff7c217          	auipc	tp,0xdff7c
    71a4:	fb31c293          	xori	t0,gp,-77
    71a8:	d570c193          	xori	gp,ra,-681
    71ac:	02506033          	rem	zero,zero,t0
    71b0:	020782b3          	mul	t0,a5,zero
    71b4:	c532b113          	sltiu	sp,t0,-941
    71b8:	00000097          	auipc	ra,0x0
    71bc:	008080e7          	jalr	8(ra) # 0x71c0
    71c0:	c0114393          	xori	t2,sp,-1023
    71c4:	da958337          	lui	t1,0xda958
    71c8:	1001a313          	slti	t1,gp,256
    71cc:	40a2d11b          	sraiw	sp,t0,0xa
    71d0:	40b1833b          	subw	t1,gp,a1
    71d4:	eac711b7          	lui	gp,0xeac71
    71d8:	69d0f393          	andi	t2,ra,1693
    71dc:	01001093          	slli	ra,zero,0x10
    71e0:	01e1d29b          	srliw	t0,gp,0x1e
    71e4:	4ce12193          	slti	gp,sp,1230
    71e8:	40128033          	sub	zero,t0,ra
    71ec:	d131b113          	sltiu	sp,gp,-749
    71f0:	0220c133          	div	sp,ra,sp
    71f4:	0041d13b          	srlw	sp,gp,tp
    71f8:	402e8133          	sub	sp,t4,sp
    71fc:	b681b193          	sltiu	gp,gp,-1176
    7200:	5d312093          	slti	ra,sp,1491
    7204:	023080b3          	mul	ra,ra,gp
    7208:	4021813b          	subw	sp,gp,sp
    720c:	0030e3b3          	or	t2,ra,gp
    7210:	0021e133          	or	sp,gp,sp
    7214:	b6a06093          	ori	ra,zero,-1174
    7218:	4031013b          	subw	sp,sp,gp
    721c:	0120911b          	slliw	sp,ra,0x12
    7220:	41c150b3          	sra	ra,sp,t3
    7224:	022252b3          	divu	t0,tp,sp
    7228:	007150bb          	srlw	ra,sp,t2
    722c:	0087d19b          	srliw	gp,a5,0x8
    7230:	a976e0b7          	lui	ra,0xa976e
    7234:	0017d0b3          	srl	ra,a5,ra
    7238:	a2018213          	addi	tp,gp,-1504 # 0xffffffffeac70a20
    723c:	aa41a117          	auipc	sp,0xaa41a
    7240:	003100bb          	addw	ra,sp,gp
    7244:	005090b3          	sll	ra,ra,t0
    7248:	03319193          	slli	gp,gp,0x33
    724c:	0210f133          	remu	sp,ra,ra
    7250:	50330063          	beq	t1,gp,0x7750
    7254:	4fc0036f          	jal	t1,0x7750
    7258:	dee02113          	slti	sp,zero,-530
    725c:	7c76c013          	xori	zero,a3,1991
    7260:	4202b193          	sltiu	gp,t0,1056
    7264:	f3309137          	lui	sp,0xf3309
    7268:	4da14197          	auipc	gp,0x4da14
    726c:	99d91197          	auipc	gp,0x99d91
    7270:	3d2a6197          	auipc	gp,0x3d2a6
    7274:	5a184137          	lui	sp,0x5a184
    7278:	b191e193          	ori	gp,gp,-1255
    727c:	0071d3bb          	srlw	t2,gp,t2
    7280:	002103b3          	add	t2,sp,sp
    7284:	0220e0b3          	rem	ra,ra,sp
    7288:	1acae337          	lui	t1,0x1acae
    728c:	40310c3b          	subw	s8,sp,gp
    7290:	4021013b          	subw	sp,sp,sp
    7294:	001185bb          	addw	a1,gp,ra
    7298:	0231f0b3          	remu	ra,gp,gp
    729c:	e38e0117          	auipc	sp,0xe38e0
    72a0:	40215133          	sra	sp,sp,sp
    72a4:	7a1e0097          	auipc	ra,0x7a1e0
    72a8:	0037a0b3          	slt	ra,a5,gp
    72ac:	6956f537          	lui	a0,0x6956f
    72b0:	0037d0bb          	srlw	ra,a5,gp
    72b4:	f62da097          	auipc	ra,0xf62da
    72b8:	eeaf0117          	auipc	sp,0xeeaf0
    72bc:	42435313          	srai	t1,t1,0x24
    72c0:	004111bb          	sllw	gp,sp,tp
    72c4:	002250b3          	srl	ra,tp,sp
    72c8:	00334133          	xor	sp,t1,gp
    72cc:	001090bb          	sllw	ra,ra,ra
    72d0:	00000497          	auipc	s1,0x0
    72d4:	2e848167          	jalr	sp,744(s1) # 0x75b8
    72d8:	4023813b          	subw	sp,t2,sp
    72dc:	007270b3          	and	ra,tp,t2
    72e0:	40f0e113          	ori	sp,ra,1039
    72e4:	029151b3          	divu	gp,sp,s1
    72e8:	02b7d193          	srli	gp,a5,0x2b
    72ec:	00208e3b          	addw	t3,ra,sp
    72f0:	efd1f113          	andi	sp,gp,-259
    72f4:	405103bb          	subw	t2,sp,t0
    72f8:	7fb2009b          	addiw	ra,tp,2043
    72fc:	d1b280b7          	lui	ra,0xd1b28
    7300:	4112519b          	sraiw	gp,tp,0x11
    7304:	02531217          	auipc	tp,0x2531
    7308:	2267b137          	lui	sp,0x2267b
    730c:	0073d13b          	srlw	sp,t2,t2
    7310:	00f093b3          	sll	t2,ra,a5
    7314:	1e782117          	auipc	sp,0x1e782
    7318:	6e3d0197          	auipc	gp,0x6e3d0
    731c:	00120333          	add	t1,tp,ra
    7320:	40115233          	sra	tp,sp,ra
    7324:	4a5521b7          	lui	gp,0x4a552
    7328:	99e0809b          	addiw	ra,ra,-1634
    732c:	f400a013          	slti	zero,ra,-192
    7330:	0221d2b3          	divu	t0,gp,sp
    7334:	5c077117          	auipc	sp,0x5c077
    7338:	0031913b          	sllw	sp,gp,gp
    733c:	e5221097          	auipc	ra,0xe5221
    7340:	87c34197          	auipc	gp,0x87c34
    7344:	0220f133          	remu	sp,ra,sp
    7348:	002040b3          	xor	ra,zero,sp
    734c:	c84ef117          	auipc	sp,0xc84ef
    7350:	f3a0a3b7          	lui	t2,0xf3a0a
    7354:	7380831b          	addiw	t1,ra,1848
    7358:	60957137          	lui	sp,0x60957
    735c:	00719133          	sll	sp,gp,t2
    7360:	57f9e397          	auipc	t2,0x57f9e
    7364:	0020f133          	and	sp,ra,sp
    7368:	00018093          	mv	ra,gp
    736c:	1c308063          	beq	ra,gp,0x752c
    7370:	0310d193          	srli	gp,ra,0x31
    7374:	402050bb          	sraw	ra,zero,sp
    7378:	00e29113          	slli	sp,t0,0xe
    737c:	1000a037          	lui	zero,0x1000a
    7380:	1663a117          	auipc	sp,0x1663a
    7384:	0072b133          	sltu	sp,t0,t2
    7388:	72f3c197          	auipc	gp,0x72f3c
    738c:	2f61809b          	addiw	ra,gp,758
    7390:	01d0d29b          	srliw	t0,ra,0x1d
    7394:	9eaf7093          	andi	ra,t5,-1558
    7398:	022201b3          	mul	gp,tp,sp
    739c:	00301333          	sll	t1,zero,gp
    73a0:	7e31821b          	addiw	tp,gp,2019
    73a4:	0340d833          	divu	a6,ra,s4
    73a8:	022081b3          	mul	gp,ra,sp
    73ac:	002210b3          	sll	ra,tp,sp
    73b0:	02511093          	slli	ra,sp,0x25
    73b4:	61f1b693          	sltiu	a3,gp,1567
    73b8:	f190c093          	xori	ra,ra,-231
    73bc:	000090bb          	sllw	ra,ra,zero
    73c0:	ebf1c213          	xori	tp,gp,-321
    73c4:	007261b3          	or	gp,tp,t2
    73c8:	41ec7117          	auipc	sp,0x41ec7
    73cc:	03c09113          	slli	sp,ra,0x3c
    73d0:	79d55337          	lui	t1,0x79d55
    73d4:	02237133          	remu	sp,t1,sp
    73d8:	001c30b3          	sltu	ra,s8,ra
    73dc:	0033d33b          	srlw	t1,t2,gp
    73e0:	0101911b          	slliw	sp,gp,0x10
    73e4:	0211e0b3          	rem	ra,gp,ra
    73e8:	d1927217          	auipc	tp,0xd1927
    73ec:	00000117          	auipc	sp,0x0
    73f0:	ca4100e7          	jalr	-860(sp) # 0x7090
    73f4:	abf08337          	lui	t1,0xabf08
    73f8:	0061d23b          	srlw	tp,gp,t1
    73fc:	003301bb          	addw	gp,t1,gp
    7400:	45817117          	auipc	sp,0x45817
    7404:	0131519b          	srliw	gp,sp,0x13
    7408:	02126133          	rem	sp,tp,ra
    740c:	01b1da9b          	srliw	s5,gp,0x1b
    7410:	a380a193          	slti	gp,ra,-1480
    7414:	404251b3          	sra	gp,tp,tp
    7418:	402b0eb3          	sub	t4,s6,sp
    741c:	00d0911b          	slliw	sp,ra,0xd
    7420:	0031a0b3          	slt	ra,gp,gp
    7424:	023201b3          	mul	gp,tp,gp
    7428:	022370b3          	remu	ra,t1,sp
    742c:	022101b3          	mul	gp,sp,sp
    7430:	4010d1b3          	sra	gp,ra,ra
    7434:	0230c3b3          	div	t2,ra,gp
    7438:	02748093          	addi	ra,s1,39
    743c:	61a26313          	ori	t1,tp,1562
    7440:	00b0d333          	srl	t1,ra,a1
    7444:	00211193          	slli	gp,sp,0x2
    7448:	40710ab3          	sub	s5,sp,t2
    744c:	0031b133          	sltu	sp,gp,gp
    7450:	001160b3          	or	ra,sp,ra
    7454:	0030d13b          	srlw	sp,ra,gp
    7458:	e3814193          	xori	gp,sp,-456
    745c:	0042129b          	slliw	t0,tp,0x4
    7460:	402080b3          	sub	ra,ra,sp
    7464:	003c00b3          	add	ra,s8,gp
    7468:	4011023b          	subw	tp,sp,ra
    746c:	40310133          	sub	sp,sp,gp
    7470:	021251b3          	divu	gp,tp,ra
    7474:	01b5813b          	addw	sp,a1,s11
    7478:	b728b117          	auipc	sp,0xb728b
    747c:	832ae137          	lui	sp,0x832ae
    7480:	01d2111b          	slliw	sp,tp,0x1d
    7484:	001191bb          	sllw	gp,gp,ra
    7488:	4e230863          	beq	t1,sp,0x7978
    748c:	4ec000ef          	jal	ra,0x7978
    7490:	001197b3          	sll	a5,gp,ra
    7494:	99f55137          	lui	sp,0x99f55
    7498:	e2410193          	addi	gp,sp,-476 # 0xffffffff99f54e24
    749c:	5911a113          	slti	sp,gp,1425
    74a0:	0100111b          	slliw	sp,zero,0x10
    74a4:	19127313          	andi	t1,tp,401
    74a8:	40c0d1bb          	sraw	gp,ra,a2
    74ac:	85554137          	lui	sp,0x85554
    74b0:	4040d233          	sra	tp,ra,tp
    74b4:	402100b3          	sub	ra,sp,sp
    74b8:	9b010093          	addi	ra,sp,-1616 # 0xffffffff855539b0
    74bc:	8a710193          	addi	gp,sp,-1881
    74c0:	0061b1b3          	sltu	gp,gp,t1
    74c4:	401f80bb          	subw	ra,t6,ra
    74c8:	02310133          	mul	sp,sp,gp
    74cc:	dd92f793          	andi	a5,t0,-551
    74d0:	6f00c113          	xori	sp,ra,1776
    74d4:	002381b3          	add	gp,t2,sp
    74d8:	909800b7          	lui	ra,0x90980
    74dc:	0011113b          	sllw	sp,sp,ra
    74e0:	4081d19b          	sraiw	gp,gp,0x8
    74e4:	5980e113          	ori	sp,ra,1432
    74e8:	002180b3          	add	ra,gp,sp
    74ec:	41d0509b          	sraiw	ra,zero,0x1d
    74f0:	0040c0b3          	xor	ra,ra,tp
    74f4:	195940b7          	lui	ra,0x19594
    74f8:	40b15193          	srai	gp,sp,0xb
    74fc:	0110909b          	slliw	ra,ra,0x11
    7500:	0010e333          	or	t1,ra,ra
    7504:	0011d1bb          	srlw	gp,gp,ra
    7508:	402201bb          	subw	gp,tp,sp
    750c:	4610b313          	sltiu	t1,ra,1121
    7510:	5a76b097          	auipc	ra,0x5a76b
    7514:	405080b3          	sub	ra,ra,t0
    7518:	003111b3          	sll	gp,sp,gp
    751c:	8189c197          	auipc	gp,0x8189c
    7520:	1091c193          	xori	gp,gp,265
    7524:	5e300263          	beq	zero,gp,0x7b08
    7528:	5e00016f          	jal	sp,0x7b08
    752c:	8cd0811b          	addiw	sp,ra,-1843
    7530:	40d1d09b          	sraiw	ra,gp,0xd
    7534:	00027133          	and	sp,tp,zero
    7538:	80d1849b          	addiw	s1,gp,-2035
    753c:	e7d9a197          	auipc	gp,0xe7d9a
    7540:	b201a093          	slti	ra,gp,-1248
    7544:	6fd7e317          	auipc	t1,0x6fd7e
    7548:	403100b3          	sub	ra,sp,gp
    754c:	01b13033          	sltu	zero,sp,s11
    7550:	005110b3          	sll	ra,sp,t0
    7554:	40110133          	sub	sp,sp,ra
    7558:	0040c1b3          	xor	gp,ra,tp
    755c:	3480f113          	andi	sp,ra,840
    7560:	01f0109b          	slliw	ra,zero,0x1f
    7564:	0031803b          	addw	zero,gp,gp
    7568:	0233c133          	div	sp,t2,gp
    756c:	360eb1b7          	lui	gp,0x360eb
    7570:	0230f133          	remu	sp,ra,gp
    7574:	4090d19b          	sraiw	gp,ra,0x9
    7578:	002290bb          	sllw	ra,t0,sp
    757c:	0010d133          	srl	sp,ra,ra
    7580:	00101133          	sll	sp,zero,ra
    7584:	002101bb          	addw	gp,sp,sp
    7588:	0161511b          	srliw	sp,sp,0x16
    758c:	025164b3          	rem	s1,sp,t0
    7590:	0031b1b3          	sltu	gp,gp,gp
    7594:	0051e2b3          	or	t0,gp,t0
    7598:	8166e117          	auipc	sp,0x8166e
    759c:	c5b9f0b7          	lui	ra,0xc5b9f
    75a0:	00337133          	and	sp,t1,gp
    75a4:	94894137          	lui	sp,0x94894
    75a8:	f473811b          	addiw	sp,t2,-185
    75ac:	67d07193          	andi	gp,zero,1661
    75b0:	00000197          	auipc	gp,0x0
    75b4:	e44180e7          	jalr	-444(gp) # 0x73f4
    75b8:	67bc2017          	auipc	zero,0x67bc2
    75bc:	00a1f133          	and	sp,gp,a0
    75c0:	401288b3          	sub	a7,t0,ra
    75c4:	82c1c113          	xori	sp,gp,-2004
    75c8:	ee014337          	lui	t1,0xee014
    75cc:	09f95317          	auipc	t1,0x9f95
    75d0:	023148b3          	div	a7,sp,gp
    75d4:	0030c4b3          	xor	s1,ra,gp
    75d8:	0200e133          	rem	sp,ra,zero
    75dc:	0010d0b3          	srl	ra,ra,ra
    75e0:	d9dce597          	auipc	a1,0xd9dce
    75e4:	42e15193          	srai	gp,sp,0x2e
    75e8:	5a7fb1b7          	lui	gp,0x5a7fb
    75ec:	0112911b          	slliw	sp,t0,0x11
    75f0:	b502c013          	xori	zero,t0,-1200
    75f4:	f640a193          	slti	gp,ra,-156
    75f8:	0240d033          	divu	zero,ra,tp
    75fc:	411c7237          	lui	tp,0x411c7
    7600:	0231e0b3          	rem	ra,gp,gp
    7604:	0ffd6137          	lui	sp,0xffd6
    7608:	43b15113          	srai	sp,sp,0x3b
    760c:	54d1c113          	xori	sp,gp,1357
    7610:	dfa4f0b7          	lui	ra,0xdfa4f
    7614:	0020d13b          	srlw	sp,ra,sp
    7618:	84a13113          	sltiu	sp,sp,-1974
    761c:	7a3fe117          	auipc	sp,0x7a3fe
    7620:	4031d133          	sra	sp,gp,gp
    7624:	11e2a117          	auipc	sp,0x11e2a
    7628:	fe500113          	li	sp,-27
    762c:	00718033          	add	zero,gp,t2
    7630:	4932e097          	auipc	ra,0x4932e
    7634:	00319463          	bne	gp,gp,0x763c
    7638:	00318263          	beq	gp,gp,0x763c
    763c:	00f180bb          	addw	ra,gp,a5
    7640:	f00b22b7          	lui	t0,0xf00b2
    7644:	3bb190b7          	lui	ra,0x3bb19
    7648:	ed51f2b7          	lui	t0,0xed51f
    764c:	0097a0b3          	slt	ra,a5,s1
    7650:	7b461097          	auipc	ra,0x7b461
    7654:	1f9d6137          	lui	sp,0x1f9d6
    7658:	c8e1801b          	addiw	zero,gp,-882
    765c:	01b0911b          	slliw	sp,ra,0x1b
    7660:	03834197          	auipc	gp,0x3834
    7664:	54c51197          	auipc	gp,0x54c51
    7668:	00109133          	sll	sp,ra,ra
    766c:	81b05097          	auipc	ra,0x81b05
    7670:	4143d113          	srai	sp,t2,0x14
    7674:	0011813b          	addw	sp,gp,ra
    7678:	002ec2b3          	xor	t0,t4,sp
    767c:	ba1aa193          	slti	gp,s5,-1119
    7680:	406181b3          	sub	gp,gp,t1
    7684:	dfa1f093          	andi	ra,gp,-518
    7688:	0221d1b3          	divu	gp,gp,sp
    768c:	41c4d137          	lui	sp,0x41c4d
    7690:	9c76a0b7          	lui	ra,0x9c76a
    7694:	44bb2237          	lui	tp,0x44bb2
    7698:	6db5d117          	auipc	sp,0x6db5d
    769c:	002080b3          	add	ra,ra,sp
    76a0:	f981801b          	addiw	zero,gp,-104
    76a4:	4011013b          	subw	sp,sp,ra
    76a8:	002e40b3          	xor	ra,t3,sp
    76ac:	07310213          	addi	tp,sp,115 # 0x6db6470b
    76b0:	62e1f193          	andi	gp,gp,1582
    76b4:	d311c093          	xori	ra,gp,-719
    76b8:	3044e097          	auipc	ra,0x3044e
    76bc:	024180b3          	mul	ra,gp,tp
    76c0:	00000097          	auipc	ra,0x0
    76c4:	00808167          	jalr	sp,8(ra) # 0x76c8
    76c8:	0211d233          	divu	tp,gp,ra
    76cc:	0010a0b3          	slt	ra,ra,ra
    76d0:	7aba4197          	auipc	gp,0x7aba4
    76d4:	0041109b          	slliw	ra,sp,0x4
    76d8:	0223e1b3          	rem	gp,t2,sp
    76dc:	0030d13b          	srlw	sp,ra,gp
    76e0:	02215233          	divu	tp,sp,sp
    76e4:	00309233          	sll	tp,ra,gp
    76e8:	02204133          	div	sp,zero,sp
    76ec:	96960197          	auipc	gp,0x96960
    76f0:	02214333          	div	t1,sp,sp
    76f4:	91912393          	slti	t2,sp,-1767
    76f8:	2461801b          	addiw	zero,gp,582
    76fc:	d700a113          	slti	sp,ra,-656
    7700:	b114819b          	addiw	gp,s1,-1263
    7704:	530720b7          	lui	ra,0x53072
    7708:	00111033          	sll	zero,sp,ra
    770c:	57216493          	ori	s1,sp,1394
    7710:	d1b8e037          	lui	zero,0xd1b8e
    7714:	80538117          	auipc	sp,0x80538
    7718:	00b370b3          	and	ra,t1,a1
    771c:	69621137          	lui	sp,0x69621
    7720:	0042519b          	srliw	gp,tp,0x4
    7724:	40b200b3          	sub	ra,tp,a1
    7728:	402386b3          	sub	a3,t2,sp
    772c:	daa3d0b7          	lui	ra,0xdaa3d
    7730:	36c5c0b7          	lui	ra,0x36c5c
    7734:	876ce1b7          	lui	gp,0x876ce
    7738:	003150b3          	srl	ra,sp,gp
    773c:	02316eb3          	rem	t4,sp,gp
    7740:	54413293          	sltiu	t0,sp,1348
    7744:	022351b3          	divu	gp,t1,sp
    7748:	00010093          	mv	ra,sp
    774c:	d42082e3          	beq	ra,sp,0x7490
    7750:	00118133          	add	sp,gp,ra
    7754:	025061b3          	rem	gp,zero,t0
    7758:	002170b3          	and	ra,sp,sp
    775c:	dfe1f093          	andi	ra,gp,-514
    7760:	57738193          	addi	gp,t2,1399 # 0x57fa58d7
    7764:	0010f1b3          	and	gp,ra,ra
    7768:	0171579b          	srliw	a5,sp,0x17
    776c:	03a0d113          	srli	sp,ra,0x3a
    7770:	0100921b          	slliw	tp,ra,0x10
    7774:	c5b6f217          	auipc	tp,0xc5b6f
    7778:	44d0e213          	ori	tp,ra,1101
    777c:	02214233          	div	tp,sp,sp
    7780:	0376e0b3          	rem	ra,a3,s7
    7784:	0250c0b3          	div	ra,ra,t0
    7788:	00210333          	add	t1,sp,sp
    778c:	bbcc2197          	auipc	gp,0xbbcc2
    7790:	03d51093          	slli	ra,a0,0x3d
    7794:	00315233          	srl	tp,sp,gp
    7798:	8182019b          	addiw	gp,tp,-2024
    779c:	eabc37b7          	lui	a5,0xeabc3
    77a0:	0211c1b3          	div	gp,gp,ra
    77a4:	0215d1b3          	divu	gp,a1,ra
    77a8:	d481011b          	addiw	sp,sp,-696
    77ac:	0181901b          	slliw	zero,gp,0x18
    77b0:	02707233          	remu	tp,zero,t2
    77b4:	02214133          	div	sp,sp,sp
    77b8:	0060d0bb          	srlw	ra,ra,t1
    77bc:	62217113          	andi	sp,sp,1570
    77c0:	66d14093          	xori	ra,sp,1645
    77c4:	b8c1011b          	addiw	sp,sp,-1140
    77c8:	02e1c2b3          	div	t0,gp,a4
    77cc:	02a09113          	slli	sp,ra,0x2a
    77d0:	418100bb          	subw	ra,sp,s8
    77d4:	07510e63          	beq	sp,s5,0x7850
    77d8:	0780016f          	jal	sp,0x7850
    77dc:	023109b3          	mul	s3,sp,gp
    77e0:	d1338113          	addi	sp,t2,-749
    77e4:	0c32819b          	addiw	gp,t0,195
    77e8:	4052d13b          	sraw	sp,t0,t0
    77ec:	0ecfb313          	sltiu	t1,t6,236
    77f0:	9923c117          	auipc	sp,0x9923c
    77f4:	006150b3          	srl	ra,sp,t1
    77f8:	021171b3          	remu	gp,sp,ra
    77fc:	4010d13b          	sraw	sp,ra,ra
    7800:	001141b3          	xor	gp,sp,ra
    7804:	001190b3          	sll	ra,gp,ra
    7808:	00719113          	slli	sp,gp,0x7
    780c:	df1261b7          	lui	gp,0xdf126
    7810:	0231f333          	remu	t1,gp,gp
    7814:	00718233          	add	tp,gp,t2
    7818:	1791009b          	addiw	ra,sp,377
    781c:	0000833b          	addw	t1,ra,zero
    7820:	002082bb          	addw	t0,ra,sp
    7824:	bb326b13          	ori	s6,tp,-1101
    7828:	02018333          	mul	t1,gp,zero
    782c:	03b0e5b3          	rem	a1,ra,s11
    7830:	29537113          	andi	sp,t1,661
    7834:	bba0f193          	andi	gp,ra,-1094
    7838:	50276093          	ori	ra,a4,1282
    783c:	0210f233          	remu	tp,ra,ra
    7840:	28614793          	xori	a5,sp,646
    7844:	0031e1b3          	or	gp,gp,gp
    7848:	00000197          	auipc	gp,0x0
    784c:	1b0180e7          	jalr	432(gp) # 0x79f8
    7850:	40449337          	lui	t1,0x40449
    7854:	05510113          	addi	sp,sp,85 # 0xffffffff99243845
    7858:	05c15197          	auipc	gp,0x5c15
    785c:	00206133          	or	sp,zero,sp
    7860:	e1de8d17          	auipc	s10,0xe1de8
    7864:	00317633          	and	a2,sp,gp
    7868:	9d614113          	xori	sp,sp,-1578
    786c:	4201031b          	addiw	t1,sp,1056
    7870:	cf837097          	auipc	ra,0xcf837
    7874:	7cf23113          	sltiu	sp,tp,1999
    7878:	1942c113          	xori	sp,t0,404
    787c:	c1e16113          	ori	sp,sp,-994
    7880:	50730f9b          	addiw	t6,t1,1287
    7884:	fdd4b097          	auipc	ra,0xfdd4b
    7888:	78e7b137          	lui	sp,0x78e7b
    788c:	00213333          	sltu	t1,sp,sp
    7890:	e0323093          	sltiu	ra,tp,-509
    7894:	3781a093          	slti	ra,gp,888
    7898:	006680bb          	addw	ra,a3,t1
    789c:	001160b3          	or	ra,sp,ra
    78a0:	3cd46337          	lui	t1,0x3cd46
    78a4:	01a1b693          	sltiu	a3,gp,26
    78a8:	03a19093          	slli	ra,gp,0x3a
    78ac:	0233e033          	rem	zero,t2,gp
    78b0:	3be0f6b7          	lui	a3,0x3be0f
    78b4:	a753a3b7          	lui	t2,0xa753a
    78b8:	d36fc113          	xori	sp,t6,-714
    78bc:	0150d1b3          	srl	gp,ra,s5
    78c0:	0181d19b          	srliw	gp,gp,0x18
    78c4:	40f1c313          	xori	t1,gp,1039
    78c8:	0031903b          	sllw	zero,gp,gp
    78cc:	0024113b          	sllw	sp,s0,sp
    78d0:	0077a133          	slt	sp,a5,t2
    78d4:	a650811b          	addiw	sp,ra,-1435
    78d8:	76513113          	sltiu	sp,sp,1893
    78dc:	a6a0b293          	sltiu	t0,ra,-1430
    78e0:	00226133          	or	sp,tp,sp
    78e4:	00217463          	bgeu	sp,sp,0x78ec
    78e8:	00216263          	bltu	sp,sp,0x78ec
    78ec:	0181919b          	slliw	gp,gp,0x18
    78f0:	d081a193          	slti	gp,gp,-760
    78f4:	0061f2b3          	and	t0,gp,t1
    78f8:	40f75097          	auipc	ra,0x40f75
    78fc:	2d3467b7          	lui	a5,0x2d346
    7900:	41335493          	srai	s1,t1,0x13
    7904:	0051b1b3          	sltu	gp,gp,t0
    7908:	00a11393          	slli	t2,sp,0xa
    790c:	0261c733          	div	a4,gp,t1
    7910:	19a550b7          	lui	ra,0x19a55
    7914:	02218033          	mul	zero,gp,sp
    7918:	0030d1b3          	srl	gp,ra,gp
    791c:	9326b1b7          	lui	gp,0x9326b
    7920:	003115bb          	sllw	a1,sp,gp
    7924:	3aa16093          	ori	ra,sp,938
    7928:	0210e0b3          	rem	ra,ra,ra
    792c:	002310bb          	sllw	ra,t1,sp
    7930:	6fee2097          	auipc	ra,0x6fee2
    7934:	ea710193          	addi	gp,sp,-345 # 0x78e7aea7
    7938:	016083b3          	add	t2,ra,s6
    793c:	0040c133          	xor	sp,ra,tp
    7940:	e981b113          	sltiu	sp,gp,-360
    7944:	40008133          	sub	sp,ra,zero
    7948:	f9700093          	li	ra,-105
    794c:	4346d093          	srai	ra,a3,0x34
    7950:	0140901b          	slliw	zero,ra,0x14
    7954:	03c31093          	slli	ra,t1,0x3c
    7958:	02308133          	mul	sp,ra,gp
    795c:	0041523b          	srlw	tp,sp,tp
    7960:	71bca397          	auipc	t2,0x71bca
    7964:	46fd1017          	auipc	zero,0x46fd1
    7968:	94918197          	auipc	gp,0x94918
    796c:	6af0b193          	sltiu	gp,ra,1711
    7970:	8e2184e3          	beq	gp,sp,0x7258
    7974:	8e5ff1ef          	jal	gp,0x7258
    7978:	d9f1e117          	auipc	sp,0xd9f1e
    797c:	002181bb          	addw	gp,gp,sp
    7980:	41035493          	srai	s1,t1,0x10
    7984:	27ca8097          	auipc	ra,0x27ca8
    7988:	1741b117          	auipc	sp,0x1741b
    798c:	02b11093          	slli	ra,sp,0x2b
    7990:	e1408213          	addi	tp,ra,-492 # 0x27caf798
    7994:	4820819b          	addiw	gp,ra,1154
    7998:	4030d23b          	sraw	tp,ra,gp
    799c:	374a5097          	auipc	ra,0x374a5
    79a0:	32704097          	auipc	ra,0x32704
    79a4:	843ec117          	auipc	sp,0x843ec
    79a8:	af603493          	sltiu	s1,zero,-1290
    79ac:	001140b3          	xor	ra,sp,ra
    79b0:	40f1013b          	subw	sp,sp,a5
    79b4:	88b20113          	addi	sp,tp,-1909 # 0xffffffffc5b75fff
    79b8:	bd955bb7          	lui	s7,0xbd955
    79bc:	021c72b3          	remu	t0,s8,ra
    79c0:	bfb14113          	xori	sp,sp,-1029
    79c4:	4063d133          	sra	sp,t2,t1
    79c8:	e0204113          	xori	sp,zero,-510
    79cc:	4168e017          	auipc	zero,0x4168e
    79d0:	0022d1bb          	srlw	gp,t0,sp
    79d4:	20d8a2b7          	lui	t0,0x20d8a
    79d8:	01c1d19b          	srliw	gp,gp,0x1c
    79dc:	8281809b          	addiw	ra,gp,-2008
    79e0:	13244217          	auipc	tp,0x13244
    79e4:	4021d133          	sra	sp,gp,sp
    79e8:	00f1003b          	addw	zero,sp,a5
    79ec:	41f2511b          	sraiw	sp,tp,0x1f
    79f0:	3a310e63          	beq	sp,gp,0x7dac
    79f4:	3b8001ef          	jal	gp,0x7dac
    79f8:	40335133          	sra	sp,t1,gp
    79fc:	4151521b          	sraiw	tp,sp,0x15
    7a00:	8530b013          	sltiu	zero,ra,-1965
    7a04:	02936133          	rem	sp,t1,s1
    7a08:	374bc1b7          	lui	gp,0x374bc
    7a0c:	5b10c113          	xori	sp,ra,1457
    7a10:	0050c233          	xor	tp,ra,t0
    7a14:	00b372b3          	and	t0,t1,a1
    7a18:	58a6c193          	xori	gp,a3,1418
    7a1c:	403181bb          	subw	gp,gp,gp
    7a20:	4feb8797          	auipc	a5,0x4feb8
    7a24:	00a15113          	srli	sp,sp,0xa
    7a28:	00121233          	sll	tp,tp,ra
    7a2c:	0030f233          	and	tp,ra,gp
    7a30:	5e228293          	addi	t0,t0,1506 # 0x20d8a5e2
    7a34:	00d1111b          	slliw	sp,sp,0xd
    7a38:	c51fe1b7          	lui	gp,0xc51fe
    7a3c:	0011913b          	sllw	sp,gp,ra
    7a40:	b164c0b7          	lui	ra,0xb164c
    7a44:	0201d1b3          	divu	gp,gp,zero
    7a48:	42c15213          	srai	tp,sp,0x2c
    7a4c:	0231e1b3          	rem	gp,gp,gp
    7a50:	403201bb          	subw	gp,tp,gp
    7a54:	004cc133          	xor	sp,s9,tp
    7a58:	bbb6039b          	addiw	t2,a2,-1093
    7a5c:	0012f1b3          	and	gp,t0,ra
    7a60:	46412393          	slti	t2,sp,1124
    7a64:	41c3521b          	sraiw	tp,t1,0x1c
    7a68:	0020c133          	xor	sp,ra,sp
    7a6c:	406150b3          	sra	ra,sp,t1
    7a70:	f4b08e9b          	addiw	t4,ra,-181
    7a74:	4032033b          	subw	t1,tp,gp
    7a78:	00118263          	beq	gp,ra,0x7a7c
    7a7c:	eacff16f          	jal	sp,0x7128
    7a80:	0221e1b3          	rem	gp,gp,sp
    7a84:	0221f0b3          	remu	ra,gp,sp
    7a88:	4385d693          	srai	a3,a1,0x38
    7a8c:	b6817193          	andi	gp,sp,-1176
    7a90:	003181b3          	add	gp,gp,gp
    7a94:	222731b7          	lui	gp,0x22273
    7a98:	0201d0b3          	divu	ra,gp,zero
    7a9c:	0210e133          	rem	sp,ra,ra
    7aa0:	0172511b          	srliw	sp,tp,0x17
    7aa4:	f462a093          	slti	ra,t0,-186
    7aa8:	023080b3          	mul	ra,ra,gp
    7aac:	0010c0b3          	xor	ra,ra,ra
    7ab0:	3871819b          	addiw	gp,gp,903
    7ab4:	4b91819b          	addiw	gp,gp,1209
    7ab8:	da746097          	auipc	ra,0xda746
    7abc:	ecc26113          	ori	sp,tp,-308
    7ac0:	b9a13193          	sltiu	gp,sp,-1126
    7ac4:	175d7837          	lui	a6,0x175d7
    7ac8:	0040d19b          	srliw	gp,ra,0x4
    7acc:	0540f113          	andi	sp,ra,84
    7ad0:	a3a7e197          	auipc	gp,0xa3a7e
    7ad4:	004c01bb          	addw	gp,s8,tp
    7ad8:	00ac911b          	slliw	sp,s9,0xa
    7adc:	40110e33          	sub	t3,sp,ra
    7ae0:	022080b3          	mul	ra,ra,sp
    7ae4:	9880b197          	auipc	gp,0x9880b
    7ae8:	40178133          	sub	sp,a5,ra
    7aec:	d27cd097          	auipc	ra,0xd27cd
    7af0:	00d0b133          	sltu	sp,ra,a3
    7af4:	0070a233          	slt	tp,ra,t2
    7af8:	7492b193          	sltiu	gp,t0,1865
    7afc:	02218133          	mul	sp,gp,sp
    7b00:	861188e3          	beq	gp,ra,0x7370
    7b04:	86dff1ef          	jal	gp,0x7370
    7b08:	2fb0819b          	addiw	gp,ra,763
    7b0c:	981cb0b7          	lui	ra,0x981cb
    7b10:	0031123b          	sllw	tp,sp,gp
    7b14:	eefa5097          	auipc	ra,0xeefa5
    7b18:	7264b197          	auipc	gp,0x7264b
    7b1c:	0d96c493          	xori	s1,a3,217
    7b20:	4041d19b          	sraiw	gp,gp,0x4
    7b24:	0021513b          	srlw	sp,sp,sp
    7b28:	21a11117          	auipc	sp,0x21a11
    7b2c:	9ce10313          	addi	t1,sp,-1586 # 0x21a184f6
    7b30:	00414233          	xor	tp,sp,tp
    7b34:	02536ab3          	rem	s5,t1,t0
    7b38:	42f15113          	srai	sp,sp,0x2f
    7b3c:	c34c0137          	lui	sp,0xc34c0
    7b40:	403183bb          	subw	t2,gp,gp
    7b44:	002081b3          	add	gp,ra,sp
    7b48:	022180b3          	mul	ra,gp,sp
    7b4c:	4141d39b          	sraiw	t2,gp,0x14
    7b50:	8c414013          	xori	zero,sp,-1852
    7b54:	35984117          	auipc	sp,0x35984
    7b58:	0020d033          	srl	zero,ra,sp
    7b5c:	0032e133          	or	sp,t0,gp
    7b60:	4191511b          	sraiw	sp,sp,0x19
    7b64:	001080b3          	add	ra,ra,ra
    7b68:	4cc03093          	sltiu	ra,zero,1228
    7b6c:	02316933          	rem	s2,sp,gp
    7b70:	40310333          	sub	t1,sp,gp
    7b74:	00921133          	sll	sp,tp,s1
    7b78:	7051a093          	slti	ra,gp,1797
    7b7c:	008a129b          	slliw	t0,s4,0x8
    7b80:	023172b3          	remu	t0,sp,gp
    7b84:	f9ad4397          	auipc	t2,0xf9ad4
    7b88:	4382d113          	srai	sp,t0,0x38
    7b8c:	029f1193          	slli	gp,t5,0x29
    7b90:	b8b32013          	slti	zero,t1,-1141
    7b94:	402281bb          	subw	gp,t0,sp
    7b98:	21408093          	addi	ra,ra,532 # 0xffffffffeefacd28
    7b9c:	00010793          	mv	a5,sp
    7ba0:	ee2780e3          	beq	a5,sp,0x7a80
    7ba4:	7e43c117          	auipc	sp,0x7e43c
    7ba8:	60e1a193          	slti	gp,gp,1550
    7bac:	1d116113          	ori	sp,sp,465
    7bb0:	ef9e6197          	auipc	gp,0xef9e6
    7bb4:	b8765097          	auipc	ra,0xb8765
    7bb8:	005130b3          	sltu	ra,sp,t0
    7bbc:	0131d09b          	srliw	ra,gp,0x13
    7bc0:	0270f133          	remu	sp,ra,t2
    7bc4:	01b1d19b          	srliw	gp,gp,0x1b
    7bc8:	021080b3          	mul	ra,ra,ra
    7bcc:	40235233          	sra	tp,t1,sp
    7bd0:	4030833b          	subw	t1,ra,gp
    7bd4:	0023913b          	sllw	sp,t2,sp
    7bd8:	002101bb          	addw	gp,sp,sp
    7bdc:	4bd0b193          	sltiu	gp,ra,1213
    7be0:	4041813b          	subw	sp,gp,tp
    7be4:	0070e1b3          	or	gp,ra,t2
    7be8:	34df70b7          	lui	ra,0x34df7
    7bec:	e0a0c193          	xori	gp,ra,-502
    7bf0:	0032f133          	and	sp,t0,gp
    7bf4:	70ed2097          	auipc	ra,0x70ed2
    7bf8:	ba63011b          	addiw	sp,t1,-1114
    7bfc:	002182b3          	add	t0,gp,sp
    7c00:	4132d11b          	sraiw	sp,t0,0x13
    7c04:	2b608993          	addi	s3,ra,694 # 0x70ed9eaa
    7c08:	af630113          	addi	sp,t1,-1290 # 0x3cd45af6
    7c0c:	4010d2bb          	sraw	t0,ra,ra
    7c10:	0210dcb3          	divu	s9,ra,ra
    7c14:	d3114113          	xori	sp,sp,-719
    7c18:	40210133          	sub	sp,sp,sp
    7c1c:	022380b3          	mul	ra,t2,sp
    7c20:	0213f133          	remu	sp,t2,ra
    7c24:	02335133          	divu	sp,t1,gp
    7c28:	df728097          	auipc	ra,0xdf728
    7c2c:	5631f463          	bgeu	gp,gp,0x8194
    7c30:	5631e263          	bltu	gp,gp,0x8194
    7c34:	403151bb          	sraw	gp,sp,gp
    7c38:	0030a0b3          	slt	ra,ra,gp
    7c3c:	9ce50397          	auipc	t2,0x9ce50
    7c40:	00d341b3          	xor	gp,t1,a3
    7c44:	00429013          	slli	zero,t0,0x4
    7c48:	0270c1b3          	div	gp,ra,t2
    7c4c:	0030c333          	xor	t1,ra,gp
    7c50:	0201e133          	rem	sp,gp,zero
    7c54:	027171b3          	remu	gp,sp,t2
    7c58:	003221b3          	slt	gp,tp,gp
    7c5c:	403cd13b          	sraw	sp,s9,gp
    7c60:	401081b3          	sub	gp,ra,ra
    7c64:	023100b3          	mul	ra,sp,gp
    7c68:	fd73c093          	xori	ra,t2,-41
    7c6c:	00111133          	sll	sp,sp,ra
    7c70:	00c0509b          	srliw	ra,zero,0xc
    7c74:	d7fae1b7          	lui	gp,0xd7fae
    7c78:	965130b7          	lui	ra,0x96513
    7c7c:	f9508093          	addi	ra,ra,-107 # 0xffffffff96512f95
    7c80:	06914093          	xori	ra,sp,105
    7c84:	002394bb          	sllw	s1,t2,sp
    7c88:	001096b3          	sll	a3,ra,ra
    7c8c:	c498f137          	lui	sp,0xc498f
    7c90:	7e37f337          	lui	t1,0x7e37f
    7c94:	008a109b          	slliw	ra,s4,0x8
    7c98:	0020c033          	xor	zero,ra,sp
    7c9c:	00000217          	auipc	tp,0x0
    7ca0:	008201e7          	jalr	gp,8(tp) # 0x0
    7ca4:	11536113          	ori	sp,t1,277
    7ca8:	402082b3          	sub	t0,ra,sp
    7cac:	0060a133          	slt	sp,ra,t1
    7cb0:	4033569b          	sraiw	a3,t1,0x3
    7cb4:	4023813b          	subw	sp,t2,sp
    7cb8:	41f1d0bb          	sraw	ra,gp,t6
    7cbc:	40f105bb          	subw	a1,sp,a5
    7cc0:	51f001b7          	lui	gp,0x51f00
    7cc4:	0000919b          	slliw	gp,ra,0x0
    7cc8:	0026013b          	addw	sp,a2,sp
    7ccc:	0011e333          	or	t1,gp,ra
    7cd0:	fd22c197          	auipc	gp,0xfd22c
    7cd4:	4021d0bb          	sraw	ra,gp,sp
    7cd8:	03209093          	slli	ra,ra,0x32
    7cdc:	d8714197          	auipc	gp,0xd8714
    7ce0:	0011909b          	slliw	ra,gp,0x1
    7ce4:	003181bb          	addw	gp,gp,gp
    7ce8:	003191b3          	sll	gp,gp,gp
    7cec:	03548133          	mul	sp,s1,s5
    7cf0:	0102111b          	slliw	sp,tp,0x10
    7cf4:	0000a0b3          	sltz	ra,ra
    7cf8:	025150b3          	divu	ra,sp,t0
    7cfc:	4062d133          	sra	sp,t0,t1
    7d00:	a3d1c093          	xori	ra,gp,-1475
    7d04:	e5712313          	slti	t1,sp,-425
    7d08:	0020a133          	slt	sp,ra,sp
    7d0c:	0161911b          	slliw	sp,gp,0x16
    7d10:	1ac1a213          	slti	tp,gp,428
    7d14:	0133521b          	srliw	tp,t1,0x13
    7d18:	0020cf33          	xor	t5,ra,sp
    7d1c:	0d404017          	auipc	zero,0xd404
    7d20:	e83082e3          	beq	ra,gp,0x7ba4
    7d24:	e81fff6f          	jal	t5,0x7ba4
    7d28:	02414133          	div	sp,sp,tp
    7d2c:	006190b3          	sll	ra,gp,t1
    7d30:	002730b3          	sltu	ra,a4,sp
    7d34:	03b10013          	addi	zero,sp,59 # 0xffffffffc498f03b
    7d38:	32713113          	sltiu	sp,sp,807
    7d3c:	003001b3          	add	gp,zero,gp
    7d40:	02110033          	mul	zero,sp,ra
    7d44:	d2579197          	auipc	gp,0xd2579
    7d48:	003160b3          	or	ra,sp,gp
    7d4c:	00f011b7          	lui	gp,0xf01
    7d50:	02311293          	slli	t0,sp,0x23
    7d54:	0030b0b3          	sltu	ra,ra,gp
    7d58:	9aa913b7          	lui	t2,0x9aa91
    7d5c:	8e587317          	auipc	t1,0x8e587
    7d60:	022172b3          	remu	t0,sp,sp
    7d64:	02610133          	mul	sp,sp,t1
    7d68:	00519193          	slli	gp,gp,0x5
    7d6c:	4021d1b3          	sra	gp,gp,sp
    7d70:	023070b3          	remu	ra,zero,gp
    7d74:	9d522117          	auipc	sp,0x9d522
    7d78:	0a51e793          	ori	a5,gp,165
    7d7c:	dfb0b193          	sltiu	gp,ra,-517
    7d80:	021156b3          	divu	a3,sp,ra
    7d84:	004080b3          	add	ra,ra,tp
    7d88:	001091b3          	sll	gp,ra,ra
    7d8c:	0190d09b          	srliw	ra,ra,0x19
    7d90:	80b30093          	addi	ra,t1,-2037 # 0xffffffff8e58e567
    7d94:	002131b3          	sltu	gp,sp,sp
    7d98:	6a8853b7          	lui	t2,0x6a885
    7d9c:	0ae2819b          	addiw	gp,t0,174
    7da0:	002e92b3          	sll	t0,t4,sp
    7da4:	1c130263          	beq	t1,ra,0x7f68
    7da8:	1c0000ef          	jal	ra,0x7f68
    7dac:	00909113          	slli	sp,ra,0x9
    7db0:	1cfd0697          	auipc	a3,0x1cfd0
    7db4:	0b908193          	addi	gp,ra,185
    7db8:	41b0d11b          	sraiw	sp,ra,0x1b
    7dbc:	8761a113          	slti	sp,gp,-1930
    7dc0:	00115133          	srl	sp,sp,ra
    7dc4:	001390bb          	sllw	ra,t2,ra
    7dc8:	8797a037          	lui	zero,0x8797a
    7dcc:	86f0019b          	addiw	gp,zero,-1937
    7dd0:	0012e233          	or	tp,t0,ra
    7dd4:	da281117          	auipc	sp,0xda281
    7dd8:	0260f233          	remu	tp,ra,t1
    7ddc:	b18a1017          	auipc	zero,0xb18a1
    7de0:	a7a38137          	lui	sp,0xa7a38
    7de4:	1b230497          	auipc	s1,0x1b230
    7de8:	0061c233          	xor	tp,gp,t1
    7dec:	3d50f117          	auipc	sp,0x3d50f
    7df0:	0020919b          	slliw	gp,ra,0x2
    7df4:	fd07a597          	auipc	a1,0xfd07a
    7df8:	0140109b          	slliw	ra,zero,0x14
    7dfc:	4011803b          	subw	zero,gp,ra
    7e00:	001e6233          	or	tp,t3,ra
    7e04:	c4b5d0b7          	lui	ra,0xc4b5d
    7e08:	0031c133          	xor	sp,gp,gp
    7e0c:	0241d0b3          	divu	ra,gp,tp
    7e10:	00021133          	sll	sp,tp,zero
    7e14:	00c2d193          	srli	gp,t0,0xc
    7e18:	81f17393          	andi	t2,sp,-2017
    7e1c:	5b9a40b7          	lui	ra,0x5b9a4
    7e20:	8ae49297          	auipc	t0,0x8ae49
    7e24:	02115133          	divu	sp,sp,ra
    7e28:	0016c033          	xor	zero,a3,ra
    7e2c:	a8913013          	sltiu	zero,sp,-1399
    7e30:	402181b3          	sub	gp,gp,sp
    7e34:	417cf117          	auipc	sp,0x417cf
    7e38:	00000097          	auipc	ra,0x0
    7e3c:	25c081e7          	jalr	gp,604(ra) # 0x8094
    7e40:	0020c0b3          	xor	ra,ra,sp
    7e44:	89d3a117          	auipc	sp,0x89d3a
    7e48:	0216f233          	remu	tp,a3,ra
    7e4c:	3fcbe037          	lui	zero,0x3fcbe
    7e50:	02108133          	mul	sp,ra,ra
    7e54:	1cc55797          	auipc	a5,0x1cc55
    7e58:	02314333          	div	t1,sp,gp
    7e5c:	edf1a193          	slti	gp,gp,-289
    7e60:	002481b3          	add	gp,s1,sp
    7e64:	0521079b          	addiw	a5,sp,82
    7e68:	005231b3          	sltu	gp,tp,t0
    7e6c:	025165b3          	rem	a1,sp,t0
    7e70:	44908193          	addi	gp,ra,1097
    7e74:	0020c1b3          	xor	gp,ra,sp
    7e78:	40f10133          	sub	sp,sp,a5
    7e7c:	026107b3          	mul	a5,sp,t1
    7e80:	a2408113          	addi	sp,ra,-1500
    7e84:	9aafb117          	auipc	sp,0x9aafb
    7e88:	0051a1b3          	slt	gp,gp,t0
    7e8c:	2cbdc117          	auipc	sp,0x2cbdc
    7e90:	0250f1b3          	remu	gp,ra,t0
    7e94:	44efd117          	auipc	sp,0x44efd
    7e98:	93ec0213          	addi	tp,s8,-1730 # 0xffffffff953a193e
    7e9c:	b3362117          	auipc	sp,0xb3362
    7ea0:	00f1121b          	slliw	tp,sp,0xf
    7ea4:	63447337          	lui	t1,0x63447
    7ea8:	0011933b          	sllw	t1,gp,ra
    7eac:	003090bb          	sllw	ra,ra,gp
    7eb0:	02a1d193          	srli	gp,gp,0x2a
    7eb4:	020180b3          	mul	ra,gp,zero
    7eb8:	bdb2a097          	auipc	ra,0xbdb2a
    7ebc:	2de05117          	auipc	sp,0x2de05
    7ec0:	4055d1b3          	sra	gp,a1,t0
    7ec4:	1212dc63          	bge	t0,ra,0x7ffc
    7ec8:	1212ca63          	blt	t0,ra,0x7ffc
    7ecc:	0233d0b3          	divu	ra,t2,gp
    7ed0:	0011d0b3          	srl	ra,gp,ra
    7ed4:	01f681bb          	addw	gp,a3,t6
    7ed8:	01929093          	slli	ra,t0,0x19
    7edc:	b558e097          	auipc	ra,0xb558e
    7ee0:	001162b3          	or	t0,sp,ra
    7ee4:	0061d13b          	srlw	sp,gp,t1
    7ee8:	3d80b413          	sltiu	s0,ra,984
    7eec:	cdf280b7          	lui	ra,0xcdf28
    7ef0:	68447097          	auipc	ra,0x68447
    7ef4:	2c61a113          	slti	sp,gp,710
    7ef8:	000141b3          	xor	gp,sp,zero
    7efc:	003151b3          	srl	gp,sp,gp
    7f00:	2daaa1b7          	lui	gp,0x2daaa
    7f04:	01f09333          	sll	t1,ra,t6
    7f08:	70110093          	addi	ra,sp,1793 # 0x2de0d5bd
    7f0c:	03915113          	srli	sp,sp,0x39
    7f10:	00310133          	add	sp,sp,gp
    7f14:	03b10093          	addi	ra,sp,59
    7f18:	40d1519b          	sraiw	gp,sp,0xd
    7f1c:	bf7eb397          	auipc	t2,0xbf7eb
    7f20:	23208b1b          	addiw	s6,ra,562
    7f24:	00108133          	add	sp,ra,ra
    7f28:	4341d093          	srai	ra,gp,0x34
    7f2c:	0db9f197          	auipc	gp,0xdb9f
    7f30:	0071d09b          	srliw	ra,gp,0x7
    7f34:	00d0f113          	andi	sp,ra,13
    7f38:	0011e1b3          	or	gp,gp,ra
    7f3c:	00b1e0b3          	or	ra,gp,a1
    7f40:	756510b7          	lui	ra,0x75651
    7f44:	001310b3          	sll	ra,t1,ra
    7f48:	02236133          	rem	sp,t1,sp
    7f4c:	0021b1b3          	sltu	gp,gp,sp
    7f50:	4010d1b3          	sra	gp,ra,ra
    7f54:	0183911b          	slliw	sp,t2,0x18
    7f58:	00307333          	and	t1,zero,gp
    7f5c:	3991e093          	ori	ra,gp,921
    7f60:	6a215463          	bge	sp,sp,0x8608
    7f64:	6a214263          	blt	sp,sp,0x8608
    7f68:	0080929b          	slliw	t0,ra,0x8
    7f6c:	6df17313          	andi	t1,sp,1759
    7f70:	001231b3          	sltu	gp,tp,ra
    7f74:	2f023093          	sltiu	ra,tp,752
    7f78:	02108133          	mul	sp,ra,ra
    7f7c:	4052813b          	subw	sp,t0,t0
    7f80:	5c680197          	auipc	gp,0x5c680
    7f84:	a9235117          	auipc	sp,0xa9235
    7f88:	4119511b          	sraiw	sp,s2,0x11
    7f8c:	79593817          	auipc	a6,0x79593
    7f90:	021080b3          	mul	ra,ra,ra
    7f94:	f2516193          	ori	gp,sp,-219
    7f98:	4031d3b3          	sra	t2,gp,gp
    7f9c:	403a50bb          	sraw	ra,s4,gp
    7fa0:	02c1d113          	srli	sp,gp,0x2c
    7fa4:	5e46c017          	auipc	zero,0x5e46c
    7fa8:	4d736097          	auipc	ra,0x4d736
    7fac:	dfc0c213          	xori	tp,ra,-516
    7fb0:	93b5f117          	auipc	sp,0x93b5f
    7fb4:	0030d0b3          	srl	ra,ra,gp
    7fb8:	02da81b3          	mul	gp,s5,a3
    7fbc:	40118133          	sub	sp,gp,ra
    7fc0:	01b2929b          	slliw	t0,t0,0x1b
    7fc4:	00121033          	sll	zero,tp,ra
    7fc8:	29cb4113          	xori	sp,s6,668
    7fcc:	0151101b          	slliw	zero,sp,0x15
    7fd0:	003276b3          	and	a3,tp,gp
    7fd4:	723cb097          	auipc	ra,0x723cb
    7fd8:	4121d01b          	sraiw	zero,gp,0x12
    7fdc:	0090e1b3          	or	gp,ra,s1
    7fe0:	3961821b          	addiw	tp,gp,918
    7fe4:	0041109b          	slliw	ra,sp,0x4
    7fe8:	0021513b          	srlw	sp,sp,sp
    7fec:	f261b113          	sltiu	sp,gp,-218
    7ff0:	9a818117          	auipc	sp,0x9a818
    7ff4:	00038113          	mv	sp,t2
    7ff8:	2a710663          	beq	sp,t2,0x82a4
    7ffc:	0220d1b3          	divu	gp,ra,sp
    8000:	ea10d117          	auipc	sp,0xea10d
    8004:	40308333          	sub	t1,ra,gp
    8008:	4062813b          	subw	sp,t0,t1
    800c:	4220b193          	sltiu	gp,ra,1058
    8010:	005236b3          	sltu	a3,tp,t0
    8014:	0021919b          	slliw	gp,gp,0x2
    8018:	0010b1b3          	sltu	gp,ra,ra
    801c:	401b8933          	sub	s2,s7,ra
    8020:	0070909b          	slliw	ra,ra,0x7
    8024:	4651019b          	addiw	gp,sp,1125
    8028:	7bb67097          	auipc	ra,0x7bb67
    802c:	0051e0b3          	or	ra,gp,t0
    8030:	00d12133          	slt	sp,sp,a3
    8034:	00b0909b          	slliw	ra,ra,0xb
    8038:	e667e1b7          	lui	gp,0xe667e
    803c:	0017f133          	and	sp,a5,ra
    8040:	4060d0b3          	sra	ra,ra,t1
    8044:	87914193          	xori	gp,sp,-1927
    8048:	6ca10197          	auipc	gp,0x6ca10
    804c:	000271b3          	and	gp,tp,zero
    8050:	5f10e193          	ori	gp,ra,1521
    8054:	00e0d193          	srli	gp,ra,0xe
    8058:	4020013b          	negw	sp,sp
    805c:	da1d0ab7          	lui	s5,0xda1d0
    8060:	f803b237          	lui	tp,0xf803b
    8064:	36cc3137          	lui	sp,0x36cc3
    8068:	8057f1b7          	lui	gp,0x8057f
    806c:	002081b3          	add	gp,ra,sp
    8070:	0090d79b          	srliw	a5,ra,0x9
    8074:	515601b7          	lui	gp,0x51560
    8078:	0290e8b3          	rem	a7,ra,s1
    807c:	41c1523b          	sraw	tp,sp,t3
    8080:	00221133          	sll	sp,tp,sp
    8084:	40318133          	sub	sp,gp,gp
    8088:	003141b3          	xor	gp,sp,gp
    808c:	00000213          	li	tp,0
    8090:	44020263          	beqz	tp,0x84d4
    8094:	0230d1b3          	divu	gp,ra,gp
    8098:	bde12193          	slti	gp,sp,-1058
    809c:	8e734113          	xori	sp,t1,-1817
    80a0:	003081bb          	addw	gp,ra,gp
    80a4:	0145909b          	slliw	ra,a1,0x14
    80a8:	4031d1b3          	sra	gp,gp,gp
    80ac:	de917137          	lui	sp,0xde917
    80b0:	00134113          	xori	sp,t1,1
    80b4:	0180d49b          	srliw	s1,ra,0x18
    80b8:	003091bb          	sllw	gp,ra,gp
    80bc:	9267b1b7          	lui	gp,0x9267b
    80c0:	0072d0bb          	srlw	ra,t0,t2
    80c4:	839340b7          	lui	ra,0x83934
    80c8:	8523b3b7          	lui	t2,0x8523b
    80cc:	b63e7193          	andi	gp,t3,-1181
    80d0:	4191d09b          	sraiw	ra,gp,0x19
    80d4:	0024b233          	sltu	tp,s1,sp
    80d8:	b8b36197          	auipc	gp,0xb8b36
    80dc:	3e317313          	andi	t1,sp,995
    80e0:	00211133          	sll	sp,sp,sp
    80e4:	bc76c017          	auipc	zero,0xbc76c
    80e8:	74a14093          	xori	ra,sp,1866
    80ec:	021171b3          	remu	gp,sp,ra
    80f0:	0221c633          	div	a2,gp,sp
    80f4:	00210133          	add	sp,sp,sp
    80f8:	153af217          	auipc	tp,0x153af
    80fc:	a1900a1b          	addiw	s4,zero,-1511
    8100:	b3d08ae3          	beq	ra,t4,0x7c34
    8104:	b31ff0ef          	jal	ra,0x7c34
    8108:	66781197          	auipc	gp,0x66781
    810c:	f291a113          	slti	sp,gp,-215
    8110:	0211d1b3          	divu	gp,gp,ra
    8114:	0020943b          	sllw	s0,ra,sp
    8118:	0060c1b3          	xor	gp,ra,t1
    811c:	403351bb          	sraw	gp,t1,gp
    8120:	4141813b          	subw	sp,gp,s4
    8124:	0023181b          	slliw	a6,t1,0x2
    8128:	006351bb          	srlw	gp,t1,t1
    812c:	cff58217          	auipc	tp,0xcff58
    8130:	03b1d0b3          	divu	ra,gp,s11
    8134:	001251b3          	srl	gp,tp,ra
    8138:	003121b3          	slt	gp,sp,gp
    813c:	0053b333          	sltu	t1,t2,t0
    8140:	e4f76117          	auipc	sp,0xe4f76
    8144:	401080bb          	subw	ra,ra,ra
    8148:	ccf7b097          	auipc	ra,0xccf7b
    814c:	b1581197          	auipc	gp,0xb1581
    8150:	0011b533          	sltu	a0,gp,ra
    8154:	ec716237          	lui	tp,0xec716
    8158:	0061109b          	slliw	ra,sp,0x6
    815c:	0091d39b          	srliw	t2,gp,0x9
    8160:	d197e0b7          	lui	ra,0xd197e
    8164:	000091b3          	sll	gp,ra,zero
    8168:	002150b3          	srl	ra,sp,sp
    816c:	00f0d31b          	srliw	t1,ra,0xf
    8170:	d4f0811b          	addiw	sp,ra,-689
    8174:	9391c193          	xori	gp,gp,-1735
    8178:	0031c2b3          	xor	t0,gp,gp
    817c:	de613113          	sltiu	sp,sp,-538
    8180:	a168f397          	auipc	t2,0xa168f
    8184:	0020d13b          	srlw	sp,ra,sp
    8188:	d4781117          	auipc	sp,0xd4781
    818c:	22109a63          	bne	ra,ra,0x83c0
    8190:	22108863          	beq	ra,ra,0x83c0
    8194:	00210033          	add	zero,sp,sp
    8198:	d2d1b593          	sltiu	a1,gp,-723
    819c:	0021013b          	addw	sp,sp,sp
    81a0:	002200b3          	add	ra,tp,sp
    81a4:	cf61019b          	addiw	gp,sp,-778
    81a8:	02c141b3          	div	gp,sp,a2
    81ac:	0021013b          	addw	sp,sp,sp
    81b0:	5daf0197          	auipc	gp,0x5daf0
    81b4:	40f08193          	addi	gp,ra,1039 # 0xffffffffd197e40f
    81b8:	0401f313          	andi	t1,gp,64
    81bc:	03519293          	slli	t0,gp,0x35
    81c0:	0060d133          	srl	sp,ra,t1
    81c4:	0221c0b3          	div	ra,gp,sp
    81c8:	6ff1019b          	addiw	gp,sp,1791
    81cc:	e281b213          	sltiu	tp,gp,-472
    81d0:	42b18193          	addi	gp,gp,1067 # 0x5daf85db
    81d4:	85d13913          	sltiu	s2,sp,-1955
    81d8:	0010c033          	xor	zero,ra,ra
    81dc:	4e71801b          	addiw	zero,gp,1255
    81e0:	0211f0b3          	remu	ra,gp,ra
    81e4:	0270c333          	div	t1,ra,t2
    81e8:	f797a097          	auipc	ra,0xf797a
    81ec:	a6d03037          	lui	zero,0xa6d03
    81f0:	0230d113          	srli	sp,ra,0x23
    81f4:	0250d133          	divu	sp,ra,t0
    81f8:	001c4133          	xor	sp,s8,ra
    81fc:	4304d193          	srai	gp,s1,0x30
    8200:	c9622093          	slti	ra,tp,-874
    8204:	07478013          	addi	zero,a5,116 # 0x1cc5cec8
    8208:	e80d7037          	lui	zero,0xe80d7
    820c:	34130a63          	beq	t1,ra,0x8560
    8210:	350001ef          	jal	gp,0x8560
    8214:	00f0909b          	slliw	ra,ra,0xf
    8218:	0123169b          	slliw	a3,t1,0x12
    821c:	00528633          	add	a2,t0,t0
    8220:	67838613          	addi	a2,t2,1656 # 0xffffffffa16977f8
    8224:	024171b3          	remu	gp,sp,tp
    8228:	954a60b7          	lui	ra,0x954a6
    822c:	01119193          	slli	gp,gp,0x11
    8230:	0020c133          	xor	sp,ra,sp
    8234:	002151b3          	srl	gp,sp,sp
    8238:	86c0f117          	auipc	sp,0x86c0f
    823c:	e1a473b7          	lui	t2,0xe1a47
    8240:	01b11993          	slli	s3,sp,0x1b
    8244:	00115d33          	srl	s10,sp,ra
    8248:	f8c0a093          	slti	ra,ra,-116
    824c:	4010d1bb          	sraw	gp,ra,ra
    8250:	3de483b7          	lui	t2,0x3de48
    8254:	002142b3          	xor	t0,sp,sp
    8258:	01205093          	srli	ra,zero,0x12
    825c:	00117ab3          	and	s5,sp,ra
    8260:	002130b3          	sltu	ra,sp,sp
    8264:	402051b3          	sra	gp,zero,sp
    8268:	56f1829b          	addiw	t0,gp,1391
    826c:	4011513b          	sraw	sp,sp,ra
    8270:	e861c593          	xori	a1,gp,-378
    8274:	0212e1b3          	rem	gp,t0,ra
    8278:	0024a033          	slt	zero,s1,sp
    827c:	4440f093          	andi	ra,ra,1092
    8280:	0023f033          	and	zero,t2,sp
    8284:	d181e193          	ori	gp,gp,-744
    8288:	017035b3          	snez	a1,s7
    828c:	dca0811b          	addiw	sp,ra,-566
    8290:	0011e0b3          	or	ra,gp,ra
    8294:	10b06117          	auipc	sp,0x10b06
    8298:	b484d037          	lui	zero,0xb484d
    829c:	00518263          	beq	gp,t0,0x82a0
    82a0:	501001ef          	jal	gp,0x8fa0
    82a4:	a871a113          	slti	sp,gp,-1401
    82a8:	01f2909b          	slliw	ra,t0,0x1f
    82ac:	49d5d1b7          	lui	gp,0x49d5d
    82b0:	4011803b          	subw	zero,gp,ra
    82b4:	aea1f013          	andi	zero,gp,-1302
    82b8:	022150b3          	divu	ra,sp,sp
    82bc:	3a3a70b7          	lui	ra,0x3a3a7
    82c0:	bf3730b7          	lui	ra,0xbf373
    82c4:	401081bb          	subw	gp,ra,ra
    82c8:	006191bb          	sllw	gp,gp,t1
    82cc:	40e05093          	srai	ra,zero,0xe
    82d0:	1a9251b7          	lui	gp,0x1a925
    82d4:	007160b3          	or	ra,sp,t2
    82d8:	aaf0f013          	andi	zero,ra,-1361
    82dc:	4012513b          	sraw	sp,tp,ra
    82e0:	01609813          	slli	a6,ra,0x16
    82e4:	0011503b          	srlw	zero,sp,ra
    82e8:	01451137          	lui	sp,0x1451
    82ec:	00a1129b          	slliw	t0,sp,0xa
    82f0:	002080b3          	add	ra,ra,sp
    82f4:	a1f1e113          	ori	sp,gp,-1505
    82f8:	001350bb          	srlw	ra,t1,ra
    82fc:	0210c0b3          	div	ra,ra,ra
    8300:	01d1111b          	slliw	sp,sp,0x1d
    8304:	0290c333          	div	t1,ra,s1
    8308:	00120bb3          	add	s7,tp,ra
    830c:	9f114093          	xori	ra,sp,-1551
    8310:	02c11093          	slli	ra,sp,0x2c
    8314:	0200f033          	remu	zero,ra,zero
    8318:	000251bb          	srlw	gp,tp,zero
    831c:	39a001b7          	lui	gp,0x39a00
    8320:	921bf093          	andi	ra,s7,-1759
    8324:	00000397          	auipc	t2,0x0
    8328:	00838167          	jalr	sp,8(t2) # 0x832c
    832c:	a9e1019b          	addiw	gp,sp,-1378
    8330:	023350b3          	divu	ra,t1,gp
    8334:	d342819b          	addiw	gp,t0,-716
    8338:	027340b3          	div	ra,t1,t2
    833c:	403001bb          	negw	gp,gp
    8340:	40b0d11b          	sraiw	sp,ra,0xb
    8344:	e3d031b7          	lui	gp,0xe3d03
    8348:	01211093          	slli	ra,sp,0x12
    834c:	003ef097          	auipc	ra,0x3ef
    8350:	004151bb          	srlw	gp,sp,tp
    8354:	49417093          	andi	ra,sp,1172
    8358:	4aa61137          	lui	sp,0x4aa61
    835c:	021201b3          	mul	gp,tp,ra
    8360:	02217133          	remu	sp,sp,sp
    8364:	d48b6397          	auipc	t2,0xd48b6
    8368:	157430b7          	lui	ra,0x15743
    836c:	4f884037          	lui	zero,0x4f884
    8370:	00c0919b          	slliw	gp,ra,0xc
    8374:	0231f133          	remu	sp,gp,gp
    8378:	7e31f113          	andi	sp,gp,2019
    837c:	42e1d093          	srai	ra,gp,0x2e
    8380:	7caf10b7          	lui	ra,0x7caf1
    8384:	5881c493          	xori	s1,gp,1416
    8388:	b0f74137          	lui	sp,0xb0f74
    838c:	f0be11b7          	lui	gp,0xf0be1
    8390:	00136133          	or	sp,t1,ra
    8394:	0031f133          	and	sp,gp,gp
    8398:	2bc14193          	xori	gp,sp,700
    839c:	3201e193          	ori	gp,gp,800
    83a0:	4031d13b          	sraw	sp,gp,gp
    83a4:	0080909b          	slliw	ra,ra,0x8
    83a8:	40115133          	sra	sp,sp,ra
    83ac:	52436113          	ori	sp,t1,1316
    83b0:	4010513b          	sraw	sp,zero,ra
    83b4:	0031d13b          	srlw	sp,gp,gp
    83b8:	e4117ee3          	bgeu	sp,ra,0x8214
    83bc:	e4116ce3          	bltu	sp,ra,0x8214
    83c0:	0033b333          	sltu	t1,t2,gp
    83c4:	09b73113          	sltiu	sp,a4,155
    83c8:	27d1fe13          	andi	t3,gp,637
    83cc:	0010c1b3          	xor	gp,ra,ra
    83d0:	e6fd7097          	auipc	ra,0xe6fd7
    83d4:	be80a193          	slti	gp,ra,-1048
    83d8:	003000b3          	add	ra,zero,gp
    83dc:	023140b3          	div	ra,sp,gp
    83e0:	e641b193          	sltiu	gp,gp,-412
    83e4:	00307333          	and	t1,zero,gp
    83e8:	ec006193          	ori	gp,zero,-320
    83ec:	0030d0b3          	srl	ra,ra,gp
    83f0:	04a791b7          	lui	gp,0x4a79
    83f4:	0121511b          	srliw	sp,sp,0x12
    83f8:	77910193          	addi	gp,sp,1913 # 0xffffffffb0f74779
    83fc:	40b0d21b          	sraiw	tp,ra,0xb
    8400:	4021d113          	srai	sp,gp,0x2
    8404:	00214133          	xor	sp,sp,sp
    8408:	186930b7          	lui	ra,0x18693
    840c:	0037c1b3          	xor	gp,a5,gp
    8410:	02127133          	remu	sp,tp,ra
    8414:	003041b3          	xor	gp,zero,gp
    8418:	0010f333          	and	t1,ra,ra
    841c:	0231c133          	div	sp,gp,gp
    8420:	3f28b097          	auipc	ra,0x3f28b
    8424:	0041909b          	slliw	ra,gp,0x4
    8428:	00111233          	sll	tp,sp,ra
    842c:	0031e0b3          	or	ra,gp,gp
    8430:	001100b3          	add	ra,sp,ra
    8434:	00038193          	mv	gp,t2
    8438:	8e7188e3          	beq	gp,t2,0x7d28
    843c:	8782b093          	sltiu	ra,t0,-1928
    8440:	40430233          	sub	tp,t1,tp
    8444:	8dc1079b          	addiw	a5,sp,-1828
    8448:	a9eca137          	lui	sp,0xa9eca
    844c:	be3b81b7          	lui	gp,0xbe3b8
    8450:	00154033          	xor	zero,a0,ra
    8454:	2f6151b7          	lui	gp,0x2f615
    8458:	402480b3          	sub	ra,s1,sp
    845c:	4101d193          	srai	gp,gp,0x10
    8460:	0073b1b3          	sltu	gp,t2,t2
    8464:	0172511b          	srliw	sp,tp,0x17
    8468:	8c908413          	addi	s0,ra,-1847 # 0x3f292ce9
    846c:	43d1d093          	srai	ra,gp,0x3d
    8470:	00236233          	or	tp,t1,sp
    8474:	0071931b          	slliw	t1,gp,0x7
    8478:	402181bb          	subw	gp,gp,sp
    847c:	0100c133          	xor	sp,ra,a6
    8480:	0040d093          	srli	ra,ra,0x4
    8484:	c5a1b213          	sltiu	tp,gp,-934
    8488:	0122911b          	slliw	sp,t0,0x12
    848c:	4a717313          	andi	t1,sp,1191
    8490:	36d3c093          	xori	ra,t2,877
    8494:	01e0919b          	slliw	gp,ra,0x1e
    8498:	00d0823b          	addw	tp,ra,a3
    849c:	002c33b3          	sltu	t2,s8,sp
    84a0:	a164e0b7          	lui	ra,0xa164e
    84a4:	aa2c50b7          	lui	ra,0xaa2c5
    84a8:	db22e097          	auipc	ra,0xdb22e
    84ac:	021001b3          	mul	gp,zero,ra
    84b0:	0301c0b7          	lui	ra,0x301c
    84b4:	005161b3          	or	gp,sp,t0
    84b8:	02616133          	rem	sp,sp,t1
    84bc:	0246d033          	divu	zero,a3,tp
    84c0:	0221f0b3          	remu	ra,gp,sp
    84c4:	0030e233          	or	tp,ra,gp
    84c8:	01611093          	slli	ra,sp,0x16
    84cc:	c2428ee3          	beq	t0,tp,0x8108
    84d0:	c39ff36f          	jal	t1,0x8108
    84d4:	022340b3          	div	ra,t1,sp
    84d8:	75c0a313          	slti	t1,ra,1884
    84dc:	01419193          	slli	gp,gp,0x14
    84e0:	001191b3          	sll	gp,gp,ra
    84e4:	f3812193          	slti	gp,sp,-200
    84e8:	c663a093          	slti	ra,t2,-922
    84ec:	0271d1b3          	divu	gp,gp,t2
    84f0:	5b54f0b7          	lui	ra,0x5b54f
    84f4:	0051b333          	sltu	t1,gp,t0
    84f8:	41290117          	auipc	sp,0x41290
    84fc:	f73b5137          	lui	sp,0xf73b5
    8500:	000383bb          	addw	t2,t2,zero
    8504:	c321c093          	xori	ra,gp,-974
    8508:	000301bb          	addw	gp,t1,zero
    850c:	0011113b          	sllw	sp,sp,ra
    8510:	4023513b          	sraw	sp,t1,sp
    8514:	40326113          	ori	sp,tp,1027
    8518:	8bb0a093          	slti	ra,ra,-1861
    851c:	00612133          	slt	sp,sp,t1
    8520:	0981a213          	slti	tp,gp,152
    8524:	f0de2517          	auipc	a0,0xf0de2
    8528:	4031813b          	subw	sp,gp,gp
    852c:	b2bdd297          	auipc	t0,0xb2bdd
    8530:	0011911b          	slliw	sp,gp,0x1
    8534:	02110033          	mul	zero,sp,ra
    8538:	b2027213          	andi	tp,tp,-1248
    853c:	537c00b7          	lui	ra,0x537c0
    8540:	022181b3          	mul	gp,gp,sp
    8544:	00213233          	sltu	tp,sp,sp
    8548:	001001b3          	add	gp,zero,ra
    854c:	00309133          	sll	sp,ra,gp
    8550:	3e9fe197          	auipc	gp,0x3e9fe
    8554:	ff71e093          	ori	ra,gp,-9
    8558:	00000013          	nop
    855c:	960008e3          	beqz	zero,0x7ecc
    8560:	4a91019b          	addiw	gp,sp,1193
    8564:	401080bb          	subw	ra,ra,ra
    8568:	01a21a9b          	slliw	s5,tp,0x1a
    856c:	a4ab8297          	auipc	t0,0xa4ab8
    8570:	0061d0b3          	srl	ra,gp,t1
    8574:	0060c133          	xor	sp,ra,t1
    8578:	0010a1b3          	slt	gp,ra,ra
    857c:	9ef4809b          	addiw	ra,s1,-1553
    8580:	4020d1bb          	sraw	gp,ra,sp
    8584:	5b527137          	lui	sp,0x5b527
    8588:	40a081bb          	subw	gp,ra,a0
    858c:	e2b0821b          	addiw	tp,ra,-469
    8590:	403102b3          	sub	t0,sp,gp
    8594:	002113bb          	sllw	t2,sp,sp
    8598:	02334033          	div	zero,t1,gp
    859c:	3fc0b113          	sltiu	sp,ra,1020
    85a0:	f7222e93          	slti	t4,tp,-142
    85a4:	02616333          	rem	t1,sp,t1
    85a8:	94c0f113          	andi	sp,ra,-1716
    85ac:	004101bb          	addw	gp,sp,tp
    85b0:	001490bb          	sllw	ra,s1,ra
    85b4:	81f14393          	xori	t2,sp,-2017
    85b8:	51dbc1b7          	lui	gp,0x51dbc
    85bc:	2728c797          	auipc	a5,0x2728c
    85c0:	001790b3          	sll	ra,a5,ra
    85c4:	4b408113          	addi	sp,ra,1204 # 0x537c04b4
    85c8:	c2c9b0b7          	lui	ra,0xc2c9b
    85cc:	00a38c3b          	addw	s8,t2,a0
    85d0:	00113033          	sltu	zero,sp,ra
    85d4:	4192521b          	sraiw	tp,tp,0x19
    85d8:	01a11313          	slli	t1,sp,0x1a
    85dc:	0020d133          	srl	sp,ra,sp
    85e0:	021170b3          	remu	ra,sp,ra
    85e4:	d0df3097          	auipc	ra,0xd0df3
    85e8:	64734137          	lui	sp,0x64734
    85ec:	86bd4ab7          	lui	s5,0x86bd4
    85f0:	0020a1b3          	slt	gp,ra,sp
    85f4:	02219193          	slli	gp,gp,0x22
    85f8:	01c1519b          	srliw	gp,sp,0x1c
    85fc:	22618093          	addi	ra,gp,550 # 0x51dbc226
    8600:	849080e3          	beq	ra,s1,0x7e40
    8604:	83dff3ef          	jal	t2,0x7e40
    8608:	0010c0b3          	xor	ra,ra,ra
    860c:	e261039b          	addiw	t2,sp,-474
    8610:	43515313          	srai	t1,sp,0x35
    8614:	30a9f1b7          	lui	gp,0x30a9f
    8618:	001150bb          	srlw	ra,sp,ra
    861c:	4f3f3137          	lui	sp,0x4f3f3
    8620:	70712193          	slti	gp,sp,1799
    8624:	bf834093          	xori	ra,t1,-1032
    8628:	a145c013          	xori	zero,a1,-1516
    862c:	001091bb          	sllw	gp,ra,ra
    8630:	4f0d2f17          	auipc	t5,0x4f0d2
    8634:	40338133          	sub	sp,t2,gp
    8638:	0060b133          	sltu	sp,ra,t1
    863c:	403150b3          	sra	ra,sp,gp
    8640:	005131b3          	sltu	gp,sp,t0
    8644:	402100b3          	sub	ra,sp,sp
    8648:	0180d09b          	srliw	ra,ra,0x18
    864c:	00319133          	sll	sp,gp,gp
    8650:	0030d133          	srl	sp,ra,gp
    8654:	003171b3          	and	gp,sp,gp
    8658:	c672b313          	sltiu	t1,t0,-921
    865c:	4046d0bb          	sraw	ra,a3,tp
    8660:	001100bb          	addw	ra,sp,ra
    8664:	8c80f293          	andi	t0,ra,-1848
    8668:	6cd18093          	addi	ra,gp,1741 # 0x30a9f6cd
    866c:	00f0dc33          	srl	s8,ra,a5
    8670:	ceb34193          	xori	gp,t1,-789
    8674:	403102b3          	sub	t0,sp,gp
    8678:	bce10193          	addi	gp,sp,-1074 # 0x4f3f2bce
    867c:	6a225297          	auipc	t0,0x6a225
    8680:	4031003b          	subw	zero,sp,gp
    8684:	6174c097          	auipc	ra,0x6174c
    8688:	002370b3          	and	ra,t1,sp
    868c:	da3488e3          	beq	s1,gp,0x843c
    8690:	dadff16f          	jal	sp,0x843c
    8694:	4013d1bb          	sraw	gp,t2,ra
    8698:	c3190397          	auipc	t2,0xc3190
    869c:	0170d113          	srli	sp,ra,0x17
    86a0:	0073a2b3          	slt	t0,t2,t2
    86a4:	17393137          	lui	sp,0x17393
    86a8:	0050913b          	sllw	sp,ra,t0
    86ac:	3a6368b7          	lui	a7,0x3a636
    86b0:	0011a0b3          	slt	ra,gp,ra
    86b4:	001243b3          	xor	t2,tp,ra
    86b8:	b2806093          	ori	ra,zero,-1240
    86bc:	f3784097          	auipc	ra,0xf3784
    86c0:	00239933          	sll	s2,t2,sp
    86c4:	00f1121b          	slliw	tp,sp,0xf
    86c8:	0023813b          	addw	sp,t2,sp
    86cc:	002171b3          	and	gp,sp,sp
    86d0:	0220d5b3          	divu	a1,ra,sp
    86d4:	2d592037          	lui	zero,0x2d592
    86d8:	02159c13          	slli	s8,a1,0x21
    86dc:	0021d0bb          	srlw	ra,gp,sp
    86e0:	1574c097          	auipc	ra,0x1574c
    86e4:	0021933b          	sllw	t1,gp,sp
    86e8:	0063c2b3          	xor	t0,t2,t1
    86ec:	40218133          	sub	sp,gp,sp
    86f0:	8570f113          	andi	sp,ra,-1961
    86f4:	bbb0a113          	slti	sp,ra,-1093
    86f8:	7343011b          	addiw	sp,t1,1844
    86fc:	0030803b          	addw	zero,ra,gp
    8700:	023271b3          	remu	gp,tp,gp
    8704:	30d1019b          	addiw	gp,sp,781
    8708:	01c19193          	slli	gp,gp,0x1c
    870c:	d7ad7117          	auipc	sp,0xd7ad7
    8710:	0010d033          	srl	zero,ra,ra
    8714:	b206a093          	slti	ra,a3,-1248
    8718:	0012d03b          	srlw	zero,t0,ra
    871c:	1431f663          	bgeu	gp,gp,0x8868
    8720:	1431e463          	bltu	gp,gp,0x8868
    8724:	4ee14113          	xori	sp,sp,1262
    8728:	f540c113          	xori	sp,ra,-172
    872c:	4082539b          	sraiw	t2,tp,0x8
    8730:	4040d13b          	sraw	sp,ra,tp
    8734:	27f9d3b7          	lui	t2,0x27f9d
    8738:	b0a89137          	lui	sp,0xb0a89
    873c:	1902b137          	lui	sp,0x1902b
    8740:	00d8e1b3          	or	gp,a7,a3
    8744:	bee761b7          	lui	gp,0xbee76
    8748:	ba4f6137          	lui	sp,0xba4f6
    874c:	e7ecb1b7          	lui	gp,0xe7ecb
    8750:	d0c18113          	addi	sp,gp,-756 # 0xffffffffe7ecad0c
    8754:	bf60801b          	addiw	zero,ra,-1034
    8758:	162710b7          	lui	ra,0x16271
    875c:	b9412213          	slti	tp,sp,-1132
    8760:	a927d137          	lui	sp,0xa927d
    8764:	880390b7          	lui	ra,0x88039
    8768:	8ed13393          	sltiu	t2,sp,-1811
    876c:	a439e137          	lui	sp,0xa439e
    8770:	007150bb          	srlw	ra,sp,t2
    8774:	ddc6c117          	auipc	sp,0xddc6c
    8778:	0060f0b3          	and	ra,ra,t1
    877c:	1f7fb397          	auipc	t2,0x1f7fb
    8780:	0232c1b3          	div	gp,t0,gp
    8784:	9a02e217          	auipc	tp,0x9a02e
    8788:	eacb2137          	lui	sp,0xeacb2
    878c:	4270d493          	srai	s1,ra,0x27
    8790:	002150bb          	srlw	ra,sp,sp
    8794:	00224fb3          	xor	t6,tp,sp
    8798:	003143b3          	xor	t2,sp,gp
    879c:	6b71b093          	sltiu	ra,gp,1719
    87a0:	003341b3          	xor	gp,t1,gp
    87a4:	e5a72797          	auipc	a5,0xe5a72
    87a8:	03cbb117          	auipc	sp,0x3cbb
    87ac:	0291c0b3          	div	ra,gp,s1
    87b0:	4023033b          	subw	t1,t1,sp
    87b4:	002051b3          	srl	gp,zero,sp
    87b8:	00008093          	mv	ra,ra
    87bc:	48108c63          	beq	ra,ra,0x8c54
    87c0:	006121b3          	slt	gp,sp,t1
    87c4:	007110bb          	sllw	ra,sp,t2
    87c8:	0233c133          	div	sp,t2,gp
    87cc:	0030d13b          	srlw	sp,ra,gp
    87d0:	023160b3          	rem	ra,sp,gp
    87d4:	00309133          	sll	sp,ra,gp
    87d8:	0030c3b3          	xor	t2,ra,gp
    87dc:	01a4d09b          	srliw	ra,s1,0x1a
    87e0:	40f1511b          	sraiw	sp,sp,0xf
    87e4:	41c1d0b3          	sra	ra,gp,t3
    87e8:	0011b1b3          	sltu	gp,gp,ra
    87ec:	a3986197          	auipc	gp,0xa3986
    87f0:	abf1ec93          	ori	s9,gp,-1345
    87f4:	b39653b7          	lui	t2,0xb3965
    87f8:	03d0d293          	srli	t0,ra,0x3d
    87fc:	f6df6337          	lui	t1,0xf6df6
    8800:	4bb13113          	sltiu	sp,sp,1211
    8804:	3b1da217          	auipc	tp,0x3b1da
    8808:	ef31e113          	ori	sp,gp,-269
    880c:	003131b3          	sltu	gp,sp,gp
    8810:	001290b3          	sll	ra,t0,ra
    8814:	42c1f0b7          	lui	ra,0x42c1f
    8818:	00b1119b          	slliw	gp,sp,0xb
    881c:	b841c093          	xori	ra,gp,-1148
    8820:	ae523193          	sltiu	gp,tp,-1307
    8824:	dc63011b          	addiw	sp,t1,-570
    8828:	22a14313          	xori	t1,sp,554
    882c:	4043d2bb          	sraw	t0,t2,tp
    8830:	004350b3          	srl	ra,t1,tp
    8834:	642ac097          	auipc	ra,0x642ac
    8838:	0270c133          	div	sp,ra,t2
    883c:	73594117          	auipc	sp,0x73594
    8840:	e784e017          	auipc	zero,0xe784e
    8844:	c4f85197          	auipc	gp,0xc4f85
    8848:	0060e633          	or	a2,ra,t1
    884c:	001181b3          	add	gp,gp,ra
    8850:	96eea137          	lui	sp,0x96eea
    8854:	ae900013          	li	zero,-1303
    8858:	0260d2b3          	divu	t0,ra,t1
    885c:	e572821b          	addiw	tp,t0,-425
    8860:	00000113          	li	sp,0
    8864:	5a010063          	beqz	sp,0x8e04
    8868:	023201b3          	mul	gp,tp,gp
    886c:	00731133          	sll	sp,t1,t2
    8870:	0010b133          	sltu	sp,ra,ra
    8874:	0071111b          	slliw	sp,sp,0x7
    8878:	b5b3e197          	auipc	gp,0xb5b3e
    887c:	0251c133          	div	sp,gp,t0
    8880:	402181b3          	sub	gp,gp,sp
    8884:	0042e3b3          	or	t2,t0,tp
    8888:	2ec29337          	lui	t1,0x2ec29
    888c:	be3ac497          	auipc	s1,0xbe3ac
    8890:	24c44137          	lui	sp,0x24c44
    8894:	2ee1811b          	addiw	sp,gp,750
    8898:	0011e1b3          	or	gp,gp,ra
    889c:	0040c1b3          	xor	gp,ra,tp
    88a0:	03a170b3          	remu	ra,sp,s10
    88a4:	403081b3          	sub	gp,ra,gp
    88a8:	4010d0bb          	sraw	ra,ra,ra
    88ac:	4013d33b          	sraw	t1,t2,ra
    88b0:	0031109b          	slliw	ra,sp,0x3
    88b4:	0221c7b3          	div	a5,gp,sp
    88b8:	0220f1b3          	remu	gp,ra,sp
    88bc:	021052b3          	divu	t0,zero,ra
    88c0:	41d1d193          	srai	gp,gp,0x1d
    88c4:	001281b3          	add	gp,t0,ra
    88c8:	a0035017          	auipc	zero,0xa0035
    88cc:	4020d23b          	sraw	tp,ra,sp
    88d0:	09540d1b          	addiw	s10,s0,149
    88d4:	b096a197          	auipc	gp,0xb096a
    88d8:	023000b3          	mul	ra,zero,gp
    88dc:	0011d133          	srl	sp,gp,ra
    88e0:	bf73e113          	ori	sp,t2,-1033
    88e4:	1e28a137          	lui	sp,0x1e28a
    88e8:	019097b3          	sll	a5,ra,s9
    88ec:	75928263          	beq	t0,s9,0x9030
    88f0:	740000ef          	jal	ra,0x9030
    88f4:	c3b0c113          	xori	sp,ra,-965
    88f8:	0231e133          	rem	sp,gp,gp
    88fc:	0230e0b3          	rem	ra,ra,gp
    8900:	4101d01b          	sraiw	zero,gp,0x10
    8904:	405d50b3          	sra	ra,s10,t0
    8908:	b481e093          	ori	ra,gp,-1208
    890c:	004041b3          	xor	gp,zero,tp
    8910:	406051b3          	sra	gp,zero,t1
    8914:	6ea6f213          	andi	tp,a3,1770
    8918:	62537113          	andi	sp,t1,1573
    891c:	002120b3          	slt	ra,sp,sp
    8920:	0210d333          	divu	t1,ra,ra
    8924:	4011833b          	subw	t1,gp,ra
    8928:	2000d037          	lui	zero,0x2000d
    892c:	00218133          	add	sp,gp,sp
    8930:	77b86237          	lui	tp,0x77b86
    8934:	3b3e51b7          	lui	gp,0x3b3e5
    8938:	001160b3          	or	ra,sp,ra
    893c:	0020911b          	slliw	sp,ra,0x2
    8940:	30ab0237          	lui	tp,0x30ab0
    8944:	00bc109b          	slliw	ra,s8,0xb
    8948:	001180bb          	addw	ra,gp,ra
    894c:	003114b3          	sll	s1,sp,gp
    8950:	002090bb          	sllw	ra,ra,sp
    8954:	00119333          	sll	t1,gp,ra
    8958:	61f10093          	addi	ra,sp,1567 # 0x1e28a61f
    895c:	021582b3          	mul	t0,a1,ra
    8960:	4030da3b          	sraw	s4,ra,gp
    8964:	3861811b          	addiw	sp,gp,902
    8968:	0021d133          	srl	sp,gp,sp
    896c:	022f6333          	rem	t1,t5,sp
    8970:	4060813b          	subw	sp,ra,t1
    8974:	987fe197          	auipc	gp,0x987fe
    8978:	0011b0b3          	sltu	ra,gp,ra
    897c:	002120b3          	slt	ra,sp,sp
    8980:	3750a113          	slti	sp,ra,885
    8984:	9e5552b7          	lui	t0,0x9e555
    8988:	0211d133          	divu	sp,gp,ra
    898c:	2422d263          	bge	t0,sp,0x8bd0
    8990:	2422c063          	blt	t0,sp,0x8bd0
    8994:	00222133          	slt	sp,tp,sp
    8998:	001180b3          	add	ra,gp,ra
    899c:	9d53811b          	addiw	sp,t2,-1579
    89a0:	00311113          	slli	sp,sp,0x3
    89a4:	0011919b          	slliw	gp,gp,0x1
    89a8:	023163b3          	rem	t2,sp,gp
    89ac:	024183b3          	mul	t2,gp,tp
    89b0:	0013a0b3          	slt	ra,t2,ra
    89b4:	606bf217          	auipc	tp,0x606bf
    89b8:	00109133          	sll	sp,ra,ra
    89bc:	023171b3          	remu	gp,sp,gp
    89c0:	204ae1b7          	lui	gp,0x204ae
    89c4:	40625333          	sra	t1,tp,t1
    89c8:	000080bb          	addw	ra,ra,zero
    89cc:	4021d0b3          	sra	ra,gp,sp
    89d0:	0033d0b3          	srl	ra,t2,gp
    89d4:	0080931b          	slliw	t1,ra,0x8
    89d8:	30b2d0b7          	lui	ra,0x30b2d
    89dc:	4040d1b3          	sra	gp,ra,tp
    89e0:	644f7217          	auipc	tp,0x644f7
    89e4:	b8930097          	auipc	ra,0xb8930
    89e8:	02e15093          	srli	ra,sp,0x2e
    89ec:	0020deb3          	srl	t4,ra,sp
    89f0:	42c15193          	srai	gp,sp,0x2c
    89f4:	bda1a317          	auipc	t1,0xbda1a
    89f8:	12e07193          	andi	gp,zero,302
    89fc:	2b11c093          	xori	ra,gp,689
    8a00:	4699f1b7          	lui	gp,0x4699f
    8a04:	d782a193          	slti	gp,t0,-648
    8a08:	0211e133          	rem	sp,gp,ra
    8a0c:	001161b3          	or	gp,sp,ra
    8a10:	01e1d01b          	srliw	zero,gp,0x1e
    8a14:	00b1509b          	srliw	ra,sp,0xb
    8a18:	9ce0819b          	addiw	gp,ra,-1586
    8a1c:	0022f463          	bgeu	t0,sp,0x8a24
    8a20:	0022e263          	bltu	t0,sp,0x8a24
    8a24:	02134133          	div	sp,t1,ra
    8a28:	608e3337          	lui	t1,0x608e3
    8a2c:	2adab193          	sltiu	gp,s5,685
    8a30:	00f0919b          	slliw	gp,ra,0xf
    8a34:	0220e0b3          	rem	ra,ra,sp
    8a38:	0011f133          	and	sp,gp,ra
    8a3c:	0261f2b3          	remu	t0,gp,t1
    8a40:	0210f233          	remu	tp,ra,ra
    8a44:	a7f0c013          	xori	zero,ra,-1409
    8a48:	00211113          	slli	sp,sp,0x2
    8a4c:	eecf6317          	auipc	t1,0xeecf6
    8a50:	8b31809b          	addiw	ra,gp,-1869
    8a54:	af0aa117          	auipc	sp,0xaf0aa
    8a58:	ae1a40b7          	lui	ra,0xae1a4
    8a5c:	022250b3          	divu	ra,tp,sp
    8a60:	02208133          	mul	sp,ra,sp
    8a64:	00b3b1b3          	sltu	gp,t2,a1
    8a68:	2301f093          	andi	ra,gp,560
    8a6c:	4143539b          	sraiw	t2,t1,0x14
    8a70:	0020f0b3          	and	ra,ra,sp
    8a74:	5a80829b          	addiw	t0,ra,1448
    8a78:	92d17313          	andi	t1,sp,-1747
    8a7c:	41b1509b          	sraiw	ra,sp,0x1b
    8a80:	0031a233          	slt	tp,gp,gp
    8a84:	00233133          	sltu	sp,t1,sp
    8a88:	00119c33          	sll	s8,gp,ra
    8a8c:	021142b3          	div	t0,sp,ra
    8a90:	0030d0bb          	srlw	ra,ra,gp
    8a94:	861d71b7          	lui	gp,0x861d7
    8a98:	418d1117          	auipc	sp,0x418d1
    8a9c:	2dde00b7          	lui	ra,0x2dde0
    8aa0:	0030513b          	srlw	sp,zero,gp
    8aa4:	00008593          	mv	a1,ra
    8aa8:	6a158063          	beq	a1,ra,0x9148
    8aac:	b401b113          	sltiu	sp,gp,-1216
    8ab0:	41c15093          	srai	ra,sp,0x1c
    8ab4:	68ea2037          	lui	zero,0x68ea2
    8ab8:	18d16113          	ori	sp,sp,397
    8abc:	3a19d297          	auipc	t0,0x3a19d
    8ac0:	0021e1b3          	or	gp,gp,sp
    8ac4:	ced67117          	auipc	sp,0xced67
    8ac8:	ceb8c237          	lui	tp,0xceb8c
    8acc:	0023a0b3          	slt	ra,t2,sp
    8ad0:	1d9019b7          	lui	s3,0x1d901
    8ad4:	07a16113          	ori	sp,sp,122
    8ad8:	0230f0b3          	remu	ra,ra,gp
    8adc:	fca200b7          	lui	ra,0xfca20
    8ae0:	0050f133          	and	sp,ra,t0
    8ae4:	fa2da0b7          	lui	ra,0xfa2da
    8ae8:	0020f0b3          	and	ra,ra,sp
    8aec:	d0518293          	addi	t0,gp,-763 # 0xffffffff861d6d05
    8af0:	405c013b          	subw	sp,s8,t0
    8af4:	0031d0bb          	srlw	ra,gp,gp
    8af8:	7716c317          	auipc	t1,0x7716c
    8afc:	340c71b7          	lui	gp,0x340c7
    8b00:	02114033          	div	zero,sp,ra
    8b04:	0001b3b3          	sltu	t2,gp,zero
    8b08:	c1cfc117          	auipc	sp,0xc1cfc
    8b0c:	40118333          	sub	t1,gp,ra
    8b10:	4111813b          	subw	sp,gp,a7
    8b14:	0213f1b3          	remu	gp,t2,ra
    8b18:	022e8333          	mul	t1,t4,sp
    8b1c:	4001509b          	sraiw	ra,sp,0x0
    8b20:	6e872797          	auipc	a5,0x6e872
    8b24:	01a161b3          	or	gp,sp,s10
    8b28:	dc1196e3          	bne	gp,ra,0x88f4
    8b2c:	dc1184e3          	beq	gp,ra,0x88f4
    8b30:	d8848113          	addi	sp,s1,-632 # 0xffffffffbe3b4614
    8b34:	0013b3b3          	sltu	t2,t2,ra
    8b38:	dcec0137          	lui	sp,0xdcec0
    8b3c:	60608317          	auipc	t1,0x60608
    8b40:	00521213          	slli	tp,tp,0x5
    8b44:	2aa16213          	ori	tp,sp,682
    8b48:	ab98e137          	lui	sp,0xab98e
    8b4c:	0030da33          	srl	s4,ra,gp
    8b50:	40115133          	sra	sp,sp,ra
    8b54:	00116033          	or	zero,sp,ra
    8b58:	4c0e10b7          	lui	ra,0x4c0e1
    8b5c:	0033e333          	or	t1,t2,gp
    8b60:	0031d1b3          	srl	gp,gp,gp
    8b64:	002090b3          	sll	ra,ra,sp
    8b68:	40108133          	sub	sp,ra,ra
    8b6c:	b4d3f293          	andi	t0,t2,-1203
    8b70:	111ff1b7          	lui	gp,0x111ff
    8b74:	0051113b          	sllw	sp,sp,t0
    8b78:	02fc1093          	slli	ra,s8,0x2f
    8b7c:	4031513b          	sraw	sp,sp,gp
    8b80:	d467e197          	auipc	gp,0xd467e
    8b84:	84c0f193          	andi	gp,ra,-1972
    8b88:	35b3e093          	ori	ra,t2,859
    8b8c:	401151b3          	sra	gp,sp,ra
    8b90:	8b997297          	auipc	t0,0x8b997
    8b94:	ad21f293          	andi	t0,gp,-1326
    8b98:	82313117          	auipc	sp,0x82313
    8b9c:	4c120093          	addi	ra,tp,1217 # 0xffffffffceb8c4c1
    8ba0:	023301b3          	mul	gp,t1,gp
    8ba4:	4090833b          	subw	t1,ra,s1
    8ba8:	002257b3          	srl	a5,tp,sp
    8bac:	01e2119b          	slliw	gp,tp,0x1e
    8bb0:	0030d13b          	srlw	sp,ra,gp
    8bb4:	00208133          	add	sp,ra,sp
    8bb8:	024141b3          	div	gp,sp,tp
    8bbc:	0031113b          	sllw	sp,sp,gp
    8bc0:	fbc12293          	slti	t0,sp,-68
    8bc4:	40208133          	sub	sp,ra,sp
    8bc8:	dc20f6e3          	bgeu	ra,sp,0x8994
    8bcc:	dc20e4e3          	bltu	ra,sp,0x8994
    8bd0:	02217133          	remu	sp,sp,sp
    8bd4:	6da4e193          	ori	gp,s1,1754
    8bd8:	232e63b7          	lui	t2,0x232e6
    8bdc:	7fd23093          	sltiu	ra,tp,2045
    8be0:	16968093          	addi	ra,a3,361 # 0x1cfd7f19
    8be4:	7adce137          	lui	sp,0x7adce
    8be8:	4012513b          	sraw	sp,tp,ra
    8bec:	df01b313          	sltiu	t1,gp,-528
    8bf0:	0171511b          	srliw	sp,sp,0x17
    8bf4:	5d114297          	auipc	t0,0x5d114
    8bf8:	8e9f8117          	auipc	sp,0x8e9f8
    8bfc:	f8f14297          	auipc	t0,0xf8f14
    8c00:	0241e0b3          	rem	ra,gp,tp
    8c04:	0030d03b          	srlw	zero,ra,gp
    8c08:	00027133          	and	sp,tp,zero
    8c0c:	00312033          	slt	zero,sp,gp
    8c10:	2f71819b          	addiw	gp,gp,759
    8c14:	0270c0b3          	div	ra,ra,t2
    8c18:	b8777097          	auipc	ra,0xb8777
    8c1c:	0030c0b3          	xor	ra,ra,gp
    8c20:	0221f133          	remu	sp,gp,sp
    8c24:	0048d0bb          	srlw	ra,a7,tp
    8c28:	5520bc93          	sltiu	s9,ra,1362
    8c2c:	0211d1b3          	divu	gp,gp,ra
    8c30:	473d0117          	auipc	sp,0x473d0
    8c34:	8a81811b          	addiw	sp,gp,-1880
    8c38:	62fea897          	auipc	a7,0x62fea
    8c3c:	001171b3          	and	gp,sp,ra
    8c40:	402106b3          	sub	a3,sp,sp
    8c44:	6075e017          	auipc	zero,0x6075e
    8c48:	002261b3          	or	gp,tp,sp
    8c4c:	00008193          	mv	gp,ra
    8c50:	46118663          	beq	gp,ra,0x90bc
    8c54:	00320233          	add	tp,tp,gp
    8c58:	000100bb          	addw	ra,sp,zero
    8c5c:	402380b3          	sub	ra,t2,sp
    8c60:	6e412093          	slti	ra,sp,1764
    8c64:	0306d133          	divu	sp,a3,a6
    8c68:	002189bb          	addw	s3,gp,sp
    8c6c:	ed60811b          	addiw	sp,ra,-298
    8c70:	3de1e093          	ori	ra,gp,990
    8c74:	71cb3297          	auipc	t0,0x71cb3
    8c78:	02819393          	slli	t2,gp,0x28
    8c7c:	01f1109b          	slliw	ra,sp,0x1f
    8c80:	61f3011b          	addiw	sp,t1,1567
    8c84:	021151b3          	divu	gp,sp,ra
    8c88:	805e7197          	auipc	gp,0x805e7
    8c8c:	0021c133          	xor	sp,gp,sp
    8c90:	4010d233          	sra	tp,ra,ra
    8c94:	1236f013          	andi	zero,a3,291
    8c98:	4010d1bb          	sraw	gp,ra,ra
    8c9c:	0220d0b3          	divu	ra,ra,sp
    8ca0:	00327033          	and	zero,tp,gp
    8ca4:	ca40a113          	slti	sp,ra,-860
    8ca8:	01d09193          	slli	gp,ra,0x1d
    8cac:	0042d133          	srl	sp,t0,tp
    8cb0:	42115193          	srai	gp,sp,0x21
    8cb4:	9ecc0fb7          	lui	t6,0x9ecc0
    8cb8:	d2a88597          	auipc	a1,0xd2a88
    8cbc:	0042a033          	slt	zero,t0,tp
    8cc0:	49c68197          	auipc	gp,0x49c68
    8cc4:	0230d2b3          	divu	t0,ra,gp
    8cc8:	00109233          	sll	tp,ra,ra
    8ccc:	8a7ae0b7          	lui	ra,0x8a7ae
    8cd0:	0011e0b3          	or	ra,gp,ra
    8cd4:	c99fc0b7          	lui	ra,0xc99fc
    8cd8:	0011c033          	xor	zero,gp,ra
    8cdc:	2181b993          	sltiu	s3,gp,536
    8ce0:	00000117          	auipc	sp,0x0
    8ce4:	0a0100e7          	jalr	160(sp) # 0x8d80
    8ce8:	0221f3b3          	remu	t2,gp,sp
    8cec:	d29ba237          	lui	tp,0xd29ba
    8cf0:	0020a233          	slt	tp,ra,sp
    8cf4:	03f09013          	slli	zero,ra,0x3f
    8cf8:	02009113          	slli	sp,ra,0x20
    8cfc:	02216133          	rem	sp,sp,sp
    8d00:	efd02613          	slti	a2,zero,-259
    8d04:	003f4233          	xor	tp,t5,gp
    8d08:	01f09193          	slli	gp,ra,0x1f
    8d0c:	a7b08193          	addi	gp,ra,-1413 # 0xffffffffc99fba7b
    8d10:	02408133          	mul	sp,ra,tp
    8d14:	0190939b          	slliw	t2,ra,0x19
    8d18:	0260e1b3          	rem	gp,ra,t1
    8d1c:	009282bb          	addw	t0,t0,s1
    8d20:	003263b3          	or	t2,tp,gp
    8d24:	0010d13b          	srlw	sp,ra,ra
    8d28:	727a8397          	auipc	t2,0x727a8
    8d2c:	0234e4b3          	rem	s1,s1,gp
    8d30:	001153b3          	srl	t2,sp,ra
    8d34:	81017193          	andi	gp,sp,-2032
    8d38:	006000b3          	add	ra,zero,t1
    8d3c:	0200d1b3          	divu	gp,ra,zero
    8d40:	0021f333          	and	t1,gp,sp
    8d44:	e1f1e193          	ori	gp,gp,-481
    8d48:	0010f3b3          	and	t2,ra,ra
    8d4c:	556121b7          	lui	gp,0x55612
    8d50:	f9d5f217          	auipc	tp,0xf9d5f
    8d54:	0121509b          	srliw	ra,sp,0x12
    8d58:	13cb1017          	auipc	zero,0x13cb1
    8d5c:	010081b3          	add	gp,ra,a6
    8d60:	000081bb          	addw	gp,ra,zero
    8d64:	1701c013          	xori	zero,gp,368
    8d68:	5d1fe4b7          	lui	s1,0x5d1fe
    8d6c:	403081bb          	subw	gp,ra,gp
    8d70:	005110bb          	sllw	ra,sp,t0
    8d74:	0030bc33          	sltu	s8,ra,gp
    8d78:	1a20fa63          	bgeu	ra,sp,0x8f2c
    8d7c:	1a20e863          	bltu	ra,sp,0x8f2c
    8d80:	022160b3          	rem	ra,sp,sp
    8d84:	2461c193          	xori	gp,gp,582
    8d88:	00f0d093          	srli	ra,ra,0xf
    8d8c:	02218033          	mul	zero,gp,sp
    8d90:	aef3011b          	addiw	sp,t1,-1297
    8d94:	0033e133          	or	sp,t2,gp
    8d98:	0210c133          	div	sp,ra,ra
    8d9c:	00010dbb          	addw	s11,sp,zero
    8da0:	0071931b          	slliw	t1,gp,0x7
    8da4:	401082b3          	sub	t0,ra,ra
    8da8:	0012c133          	xor	sp,t0,ra
    8dac:	0041c0b3          	xor	ra,gp,tp
    8db0:	75c39197          	auipc	gp,0x75c39
    8db4:	bdf784b7          	lui	s1,0xbdf78
    8db8:	0012d23b          	srlw	tp,t0,ra
    8dbc:	00e1111b          	slliw	sp,sp,0xe
    8dc0:	38c1e113          	ori	sp,gp,908
    8dc4:	5dd0b093          	sltiu	ra,ra,1501
    8dc8:	0162d21b          	srliw	tp,t0,0x16
    8dcc:	00306233          	or	tp,zero,gp
    8dd0:	afc0859b          	addiw	a1,ra,-1284
    8dd4:	002180bb          	addw	ra,gp,sp
    8dd8:	503d00b7          	lui	ra,0x503d0
    8ddc:	00217133          	and	sp,sp,sp
    8de0:	70112113          	slti	sp,sp,1793
    8de4:	5ea1b0b7          	lui	ra,0x5ea1b
    8de8:	0061139b          	slliw	t2,sp,0x6
    8dec:	7e00b093          	sltiu	ra,ra,2016
    8df0:	bc121097          	auipc	ra,0xbc121
    8df4:	03011113          	slli	sp,sp,0x30
    8df8:	02317333          	remu	t1,sp,gp
    8dfc:	d2218ae3          	beq	gp,sp,0x8b30
    8e00:	d31ff06f          	j	0x8b30
    8e04:	0116d01b          	srliw	zero,a3,0x11
    8e08:	003180b3          	add	ra,gp,gp
    8e0c:	40218133          	sub	sp,gp,sp
    8e10:	0221d1b3          	divu	gp,gp,sp
    8e14:	b7d1b113          	sltiu	sp,gp,-1155
    8e18:	4120d11b          	sraiw	sp,ra,0x12
    8e1c:	3acd8137          	lui	sp,0x3acd8
    8e20:	0012d0bb          	srlw	ra,t0,ra
    8e24:	3f30e113          	ori	sp,ra,1011
    8e28:	002190b3          	sll	ra,gp,sp
    8e2c:	02335093          	srli	ra,t1,0x23
    8e30:	001041b3          	xor	gp,zero,ra
    8e34:	405101b3          	sub	gp,sp,t0
    8e38:	0210c0b3          	div	ra,ra,ra
    8e3c:	0071d3b3          	srl	t2,gp,t2
    8e40:	003641b3          	xor	gp,a2,gp
    8e44:	b3916193          	ori	gp,sp,-1223
    8e48:	007157bb          	srlw	a5,sp,t2
    8e4c:	0211e1b3          	rem	gp,gp,ra
    8e50:	41e0df1b          	sraiw	t5,ra,0x1e
    8e54:	0006931b          	slliw	t1,a3,0x0
    8e58:	0040919b          	slliw	gp,ra,0x4
    8e5c:	19fd3137          	lui	sp,0x19fd3
    8e60:	00509033          	sll	zero,ra,t0
    8e64:	001220b3          	slt	ra,tp,ra
    8e68:	002045b3          	xor	a1,zero,sp
    8e6c:	01d1179b          	slliw	a5,sp,0x1d
    8e70:	3d50e313          	ori	t1,ra,981
    8e74:	0231e1b3          	rem	gp,gp,gp
    8e78:	001101b3          	add	gp,sp,ra
    8e7c:	40108133          	sub	sp,ra,ra
    8e80:	ffcd5097          	auipc	ra,0xffcd5
    8e84:	4051d093          	srai	ra,gp,0x5
    8e88:	65c32193          	slti	gp,t1,1628
    8e8c:	4002509b          	sraiw	ra,tp,0x0
    8e90:	02218133          	mul	sp,gp,sp
    8e94:	0062123b          	sllw	tp,tp,t1
    8e98:	0021d463          	bge	gp,sp,0x8ea0
    8e9c:	0021c263          	blt	gp,sp,0x8ea0
    8ea0:	26b3f617          	auipc	a2,0x26b3f
    8ea4:	402150bb          	sraw	ra,sp,sp
    8ea8:	0010e133          	or	sp,ra,ra
    8eac:	0210e1b3          	rem	gp,ra,ra
    8eb0:	0061c1b3          	xor	gp,gp,t1
    8eb4:	2f100193          	li	gp,753
    8eb8:	5bd16193          	ori	gp,sp,1469
    8ebc:	02505133          	divu	sp,zero,t0
    8ec0:	23630213          	addi	tp,t1,566 # 0x60610d72
    8ec4:	7881f393          	andi	t2,gp,1928
    8ec8:	0260c1b3          	div	gp,ra,t1
    8ecc:	00614033          	xor	zero,sp,t1
    8ed0:	2e3e4037          	lui	zero,0x2e3e4
    8ed4:	003191b3          	sll	gp,gp,gp
    8ed8:	c59b9397          	auipc	t2,0xc59b9
    8edc:	f3128293          	addi	t0,t0,-207 # 0x71cbbba5
    8ee0:	007100bb          	addw	ra,sp,t2
    8ee4:	ca385317          	auipc	t1,0xca385
    8ee8:	23828193          	addi	gp,t0,568
    8eec:	74291017          	auipc	zero,0x74291
    8ef0:	02021313          	slli	t1,tp,0x20
    8ef4:	9e864117          	auipc	sp,0x9e864
    8ef8:	01a1d11b          	srliw	sp,gp,0x1a
    8efc:	0231d9b3          	divu	s3,gp,gp
    8f00:	0016e1b3          	or	gp,a3,ra
    8f04:	0190d113          	srli	sp,ra,0x19
    8f08:	40225233          	sra	tp,tp,sp
    8f0c:	13c0b197          	auipc	gp,0x13c0b
    8f10:	03239393          	slli	t2,t2,0x32
    8f14:	0091933b          	sllw	t1,gp,s1
    8f18:	6eb470b7          	lui	ra,0x6eb47
    8f1c:	d4f10093          	addi	ra,sp,-689 # 0xffffffff9e86cc43
    8f20:	ae517113          	andi	sp,sp,-1307
    8f24:	b82154e3          	bge	sp,sp,0x8aac
    8f28:	b82142e3          	blt	sp,sp,0x8aac
    8f2c:	e7f13197          	auipc	gp,0xe7f13
    8f30:	4031d1b3          	sra	gp,gp,gp
    8f34:	00e0d093          	srli	ra,ra,0xe
    8f38:	00b01393          	slli	t2,zero,0xb
    8f3c:	e081d1b7          	lui	gp,0xe081d
    8f40:	b50e7337          	lui	t1,0xb50e7
    8f44:	4020d13b          	sraw	sp,ra,sp
    8f48:	023101b3          	mul	gp,sp,gp
    8f4c:	000107bb          	addw	a5,sp,zero
    8f50:	d80cc117          	auipc	sp,0xd80cc
    8f54:	5135d4b7          	lui	s1,0x5135d
    8f58:	402302bb          	subw	t0,t1,sp
    8f5c:	d2d13193          	sltiu	gp,sp,-723
    8f60:	ebc8a1b7          	lui	gp,0xebc8a
    8f64:	a1f7c213          	xori	tp,a5,-1505
    8f68:	403081bb          	subw	gp,ra,gp
    8f6c:	4ee0a093          	slti	ra,ra,1262
    8f70:	406201bb          	subw	gp,tp,t1
    8f74:	022270b3          	remu	ra,tp,sp
    8f78:	9a71d317          	auipc	t1,0x9a71d
    8f7c:	0030b1b3          	sltu	gp,ra,gp
    8f80:	0020803b          	addw	zero,ra,sp
    8f84:	df7c4137          	lui	sp,0xdf7c4
    8f88:	402103b3          	sub	t2,sp,sp
    8f8c:	0101911b          	slliw	sp,gp,0x10
    8f90:	4020d13b          	sraw	sp,ra,sp
    8f94:	02327133          	remu	sp,tp,gp
    8f98:	00330263          	beq	t1,gp,0x8f9c
    8f9c:	ef8ff1ef          	jal	gp,0x8694
    8fa0:	96512a13          	slti	s4,sp,-1691
    8fa4:	02517133          	remu	sp,sp,t0
    8fa8:	407083bb          	subw	t2,ra,t2
    8fac:	020061b3          	rem	gp,zero,zero
    8fb0:	02258333          	mul	t1,a1,sp
    8fb4:	0050d133          	srl	sp,ra,t0
    8fb8:	be8e5117          	auipc	sp,0xbe8e5
    8fbc:	401a80bb          	subw	ra,s5,ra
    8fc0:	0da1f093          	andi	ra,gp,218
    8fc4:	0210e0b3          	rem	ra,ra,ra
    8fc8:	0020f0b3          	and	ra,ra,sp
    8fcc:	0103111b          	slliw	sp,t1,0x10
    8fd0:	1da1f013          	andi	zero,gp,474
    8fd4:	0031d033          	srl	zero,gp,gp
    8fd8:	2154e197          	auipc	gp,0x2154e
    8fdc:	40110333          	sub	t1,sp,ra
    8fe0:	b2e03097          	auipc	ra,0xb2e03
    8fe4:	4391d193          	srai	gp,gp,0x39
    8fe8:	0261f0b3          	remu	ra,gp,t1
    8fec:	00505133          	srl	sp,zero,t0
    8ff0:	01b1199b          	slliw	s3,sp,0x1b
    8ff4:	0113911b          	slliw	sp,t2,0x11
    8ff8:	402101b3          	sub	gp,sp,sp
    8ffc:	0211d1b3          	divu	gp,gp,ra
    9000:	cd65f1b7          	lui	gp,0xcd65f
    9004:	17e190b7          	lui	ra,0x17e19
    9008:	0004a1b3          	sltz	gp,s1
    900c:	026151b3          	divu	gp,sp,t1
    9010:	c1b2f113          	andi	sp,t0,-997
    9014:	4a9121b7          	lui	gp,0x4a912
    9018:	0030013b          	addw	sp,zero,gp
    901c:	3fbf80b7          	lui	ra,0x3fbf8
    9020:	003390bb          	sllw	ra,t2,gp
    9024:	021180b3          	mul	ra,gp,ra
    9028:	00128263          	beq	t0,ra,0x902c
    902c:	f94ff16f          	jal	sp,0x87c0
    9030:	d0e21137          	lui	sp,0xd0e21
    9034:	4011d033          	sra	zero,gp,ra
    9038:	0210d133          	divu	sp,ra,ra
    903c:	0033929b          	slliw	t0,t2,0x3
    9040:	01358133          	add	sp,a1,s3
    9044:	003101b3          	add	gp,sp,gp
    9048:	0033123b          	sllw	tp,t1,gp
    904c:	00217233          	and	tp,sp,sp
    9050:	793e8197          	auipc	gp,0x793e8
    9054:	2b914093          	xori	ra,sp,697
    9058:	bcf55097          	auipc	ra,0xbcf55
    905c:	003250bb          	srlw	ra,tp,gp
    9060:	4010d133          	sra	sp,ra,ra
    9064:	4010d133          	sra	sp,ra,ra
    9068:	00109133          	sll	sp,ra,ra
    906c:	002061b3          	or	gp,zero,sp
    9070:	003150bb          	srlw	ra,sp,gp
    9074:	f98cb197          	auipc	gp,0xf98cb
    9078:	dbda4097          	auipc	ra,0xdbda4
    907c:	4001d23b          	sraw	tp,gp,zero
    9080:	2f007117          	auipc	sp,0x2f007
    9084:	003183bb          	addw	t2,gp,gp
    9088:	03519293          	slli	t0,gp,0x35
    908c:	003221b3          	slt	gp,tp,gp
    9090:	021160b3          	rem	ra,sp,ra
    9094:	0000d0bb          	srlw	ra,ra,zero
    9098:	68930093          	addi	ra,t1,1673 # 0xffffffff9a726601
    909c:	4011d13b          	sraw	sp,gp,ra
    90a0:	0152939b          	slliw	t2,t0,0x15
    90a4:	71c0c113          	xori	sp,ra,1820
    90a8:	02215033          	divu	zero,sp,sp
    90ac:	29d0e013          	ori	zero,ra,669
    90b0:	5231809b          	addiw	ra,gp,1315
    90b4:	00508263          	beq	ra,t0,0x90b8
    90b8:	e6cff36f          	jal	t1,0x8724
    90bc:	02915113          	srli	sp,sp,0x29
    90c0:	ca81831b          	addiw	t1,gp,-856
    90c4:	0202f1b3          	remu	gp,t0,zero
    90c8:	45c1c193          	xori	gp,gp,1116
    90cc:	0221d1b3          	divu	gp,gp,sp
    90d0:	81acf397          	auipc	t2,0x81acf
    90d4:	65736293          	ori	t0,t1,1623
    90d8:	7be13013          	sltiu	zero,sp,1982
    90dc:	003131b3          	sltu	gp,sp,gp
    90e0:	36d091b7          	lui	gp,0x36d09
    90e4:	b25000b7          	lui	ra,0xb2500
    90e8:	40108133          	sub	sp,ra,ra
    90ec:	64ce2097          	auipc	ra,0x64ce2
    90f0:	a9605297          	auipc	t0,0xa9605
    90f4:	0104d1b3          	srl	gp,s1,a6
    90f8:	0030f1b3          	and	gp,ra,gp
    90fc:	7ff13793          	sltiu	a5,sp,2047
    9100:	5d6b6197          	auipc	gp,0x5d6b6
    9104:	4a41a113          	slti	sp,gp,1188
    9108:	00c1f2b3          	and	t0,gp,a2
    910c:	0067c133          	xor	sp,a5,t1
    9110:	0001d233          	srl	tp,gp,zero
    9114:	a8317113          	andi	sp,sp,-1405
    9118:	0011e533          	or	a0,gp,ra
    911c:	d8a10093          	addi	ra,sp,-630 # 0x2f00fe0a
    9120:	401151bb          	sraw	gp,sp,ra
    9124:	1841f013          	andi	zero,gp,388
    9128:	01a1511b          	srliw	sp,sp,0x1a
    912c:	631bd137          	lui	sp,0x631bd
    9130:	01c0d193          	srli	gp,ra,0x1c
    9134:	4021d2bb          	sraw	t0,gp,sp
    9138:	01905113          	srli	sp,zero,0x19
    913c:	42c78197          	auipc	gp,0x42c78
    9140:	ba4084e3          	beq	ra,tp,0x8ce8
    9144:	ba5ff1ef          	jal	gp,0x8ce8
    9148:	02b2c233          	div	tp,t0,a1
    914c:	003222b3          	slt	t0,tp,gp
    9150:	73f0e093          	ori	ra,ra,1855
    9154:	186c62b7          	lui	t0,0x186c6
    9158:	f444d237          	lui	tp,0xf444d
    915c:	01d1121b          	slliw	tp,sp,0x1d
    9160:	4012013b          	subw	sp,tp,ra
    9164:	a320c193          	xori	gp,ra,-1486
    9168:	f700b193          	sltiu	gp,ra,-144
    916c:	4010d33b          	sraw	t1,ra,ra
    9170:	001191b3          	sll	gp,gp,ra
    9174:	003613bb          	sllw	t2,a2,gp
    9178:	8501819b          	addiw	gp,gp,-1968
    917c:	0030f133          	and	sp,ra,gp
    9180:	0051503b          	srlw	zero,sp,t0
    9184:	0011d133          	srl	sp,gp,ra
    9188:	d1dc30b7          	lui	ra,0xd1dc3
    918c:	00a59393          	slli	t2,a1,0xa
    9190:	0070911b          	slliw	sp,ra,0x7
    9194:	00211133          	sll	sp,sp,sp
    9198:	00f7f133          	and	sp,a5,a5
    919c:	f932b193          	sltiu	gp,t0,-109
    91a0:	46c07137          	lui	sp,0x46c07
    91a4:	0013a1b3          	slt	gp,t2,ra
    91a8:	600ea137          	lui	sp,0x600ea
    91ac:	0033e0b3          	or	ra,t2,gp
    91b0:	ac59d1b7          	lui	gp,0xac59d
    91b4:	0021b3b3          	sltu	t2,gp,sp
    91b8:	0011a133          	slt	sp,gp,ra
    91bc:	ee3a81b7          	lui	gp,0xee3a8
    91c0:	6021d063          	bge	gp,sp,0x97c0
    91c4:	5e21ce63          	blt	gp,sp,0x97c0
    91c8:	9251e093          	ori	ra,gp,-1755
    91cc:	67716193          	ori	gp,sp,1655
    91d0:	beee8117          	auipc	sp,0xbeee8
    91d4:	dbf0c213          	xori	tp,ra,-577
    91d8:	0090979b          	slliw	a5,ra,0x9
    91dc:	7761809b          	addiw	ra,gp,1910
    91e0:	0220c5b3          	div	a1,ra,sp
    91e4:	022102b3          	mul	t0,sp,sp
    91e8:	70f43117          	auipc	sp,0x70f43
    91ec:	a1c1a113          	slti	sp,gp,-1508
    91f0:	000131b3          	sltu	gp,sp,zero
    91f4:	4071d1b3          	sra	gp,gp,t2
    91f8:	000051b3          	srl	gp,zero,zero
    91fc:	2ea87117          	auipc	sp,0x2ea87
    9200:	40130cb3          	sub	s9,t1,ra
    9204:	2ef06093          	ori	ra,zero,751
    9208:	99fbc0b7          	lui	ra,0x99fbc
    920c:	0011d13b          	srlw	sp,gp,ra
    9210:	00a1131b          	slliw	t1,sp,0xa
    9214:	001171b3          	and	gp,sp,ra
    9218:	0023d133          	srl	sp,t2,sp
    921c:	003351bb          	srlw	gp,t1,gp
    9220:	b982e1b7          	lui	gp,0xb982e
    9224:	566581b7          	lui	gp,0x56658
    9228:	02631117          	auipc	sp,0x2631
    922c:	86916013          	ori	zero,sp,-1943
    9230:	42e0d013          	srai	zero,ra,0x2e
    9234:	02415193          	srli	gp,sp,0x24
    9238:	5ec0a213          	slti	tp,ra,1516
    923c:	f6812313          	slti	t1,sp,-152
    9240:	0221e133          	rem	sp,gp,sp
    9244:	ef0ef0b7          	lui	ra,0xef0ef
    9248:	340a3117          	auipc	sp,0x340a3
    924c:	00000217          	auipc	tp,0x0
    9250:	334201e7          	jalr	gp,820(tp) # 0x0
    9254:	2758b117          	auipc	sp,0x2758b
    9258:	0010d333          	srl	t1,ra,ra
    925c:	4050d1b3          	sra	gp,ra,t0
    9260:	0121d193          	srli	gp,gp,0x12
    9264:	02708133          	mul	sp,ra,t2
    9268:	4060d4b3          	sra	s1,ra,t1
    926c:	000160b3          	or	ra,sp,zero
    9270:	02719093          	slli	ra,gp,0x27
    9274:	07728093          	addi	ra,t0,119 # 0x186c6077
    9278:	5ec10093          	addi	ra,sp,1516 # 0x27594840
    927c:	001082bb          	addw	t0,ra,ra
    9280:	0010813b          	addw	sp,ra,ra
    9284:	dcd63a17          	auipc	s4,0xdcd63
    9288:	0092c297          	auipc	t0,0x92c
    928c:	41b1533b          	sraw	t1,sp,s11
    9290:	8fb14113          	xori	sp,sp,-1797
    9294:	374a1317          	auipc	t1,0x374a1
    9298:	003081b3          	add	gp,ra,gp
    929c:	1d11a113          	slti	sp,gp,465
    92a0:	b7108113          	addi	sp,ra,-1167 # 0xffffffffef0eeb71
    92a4:	002391b3          	sll	gp,t2,sp
    92a8:	4011d0bb          	sraw	ra,gp,ra
    92ac:	003320b3          	slt	ra,t1,gp
    92b0:	cba85197          	auipc	gp,0xcba85
    92b4:	00f0d133          	srl	sp,ra,a5
    92b8:	002071b3          	and	gp,zero,sp
    92bc:	8ee03113          	sltiu	sp,zero,-1810
    92c0:	86ad4117          	auipc	sp,0x86ad4
    92c4:	1a110463          	beq	sp,ra,0x946c
    92c8:	1a40016f          	jal	sp,0x946c
    92cc:	401181b3          	sub	gp,gp,ra
    92d0:	002181bb          	addw	gp,gp,sp
    92d4:	00c11b1b          	slliw	s6,sp,0xc
    92d8:	0351f3b3          	remu	t2,gp,s5
    92dc:	02308233          	mul	tp,ra,gp
    92e0:	2a81b093          	sltiu	ra,gp,680
    92e4:	0031013b          	addw	sp,sp,gp
    92e8:	00104033          	xor	zero,zero,ra
    92ec:	4025d0b3          	sra	ra,a1,sp
    92f0:	e7861037          	lui	zero,0xe7861
    92f4:	7a2ef097          	auipc	ra,0x7a2ef
    92f8:	20610113          	addi	sp,sp,518 # 0xffffffff86add4c6
    92fc:	003140b3          	xor	ra,sp,gp
    9300:	02609113          	slli	sp,ra,0x26
    9304:	e48a8197          	auipc	gp,0xe48a8
    9308:	c941c093          	xori	ra,gp,-876
    930c:	02138033          	mul	zero,t2,ra
    9310:	8c426193          	ori	gp,tp,-1852
    9314:	00209133          	sll	sp,ra,sp
    9318:	c6e4f293          	andi	t0,s1,-914
    931c:	005171b3          	and	gp,sp,t0
    9320:	7100011b          	addiw	sp,zero,1808
    9324:	42e1d393          	srai	t2,gp,0x2e
    9328:	0071c7b3          	xor	a5,gp,t2
    932c:	8fdc70b7          	lui	ra,0x8fdc7
    9330:	c0912113          	slti	sp,sp,-1015
    9334:	0101119b          	slliw	gp,sp,0x10
    9338:	4030d4b3          	sra	s1,ra,gp
    933c:	726b8137          	lui	sp,0x726b8
    9340:	f9e7a0b7          	lui	ra,0xf9e7a
    9344:	fdb1e1b7          	lui	gp,0xfdb1e
    9348:	0001919b          	slliw	gp,gp,0x0
    934c:	01e0909b          	slliw	ra,ra,0x1e
    9350:	f02082e3          	beq	ra,sp,0x9254
    9354:	f01ff86f          	jal	a6,0x9254
    9358:	6e913313          	sltiu	t1,sp,1769
    935c:	00118133          	add	sp,gp,ra
    9360:	3353f237          	lui	tp,0x3353f
    9364:	0211d1b3          	divu	gp,gp,ra
    9368:	002390bb          	sllw	ra,t2,sp
    936c:	bfa51217          	auipc	tp,0xbfa51
    9370:	1ee1b113          	sltiu	sp,gp,494
    9374:	3d751137          	lui	sp,0x3d751
    9378:	2aa24117          	auipc	sp,0x2aa24
    937c:	0f104137          	lui	sp,0xf104
    9380:	401100b3          	sub	ra,sp,ra
    9384:	40e15e9b          	sraiw	t4,sp,0xe
    9388:	d1b18193          	addi	gp,gp,-741 # 0xfffffffffdb1dd1b
    938c:	03c1a113          	slti	sp,gp,60
    9390:	02118933          	mul	s2,gp,ra
    9394:	0013a133          	slt	sp,t2,ra
    9398:	007081b3          	add	gp,ra,t2
    939c:	0250f1b3          	remu	gp,ra,t0
    93a0:	1a80829b          	addiw	t0,ra,424
    93a4:	02225133          	divu	sp,tp,sp
    93a8:	0050d1bb          	srlw	gp,ra,t0
    93ac:	003121b3          	slt	gp,sp,gp
    93b0:	0060e1b3          	or	gp,ra,t1
    93b4:	4032013b          	subw	sp,tp,gp
    93b8:	0221f6b3          	remu	a3,gp,sp
    93bc:	8b211117          	auipc	sp,0x8b211
    93c0:	02335133          	divu	sp,t1,gp
    93c4:	03b4d113          	srli	sp,s1,0x3b
    93c8:	5bf08013          	addi	zero,ra,1471 # 0xfffffffff9e7a5bf
    93cc:	6050b113          	sltiu	sp,ra,1541
    93d0:	0021033b          	addw	t1,sp,sp
    93d4:	00b08133          	add	sp,ra,a1
    93d8:	0073e133          	or	sp,t2,t2
    93dc:	6b03d063          	bge	t2,a6,0x9a7c
    93e0:	6903ce63          	blt	t2,a6,0x9a7c
    93e4:	0bfb809b          	addiw	ra,s7,191
    93e8:	001101b3          	add	gp,sp,ra
    93ec:	022144b3          	div	s1,sp,sp
    93f0:	d130f093          	andi	ra,ra,-749
    93f4:	02f151b3          	divu	gp,sp,a5
    93f8:	0251e333          	rem	t1,gp,t0
    93fc:	00b17133          	and	sp,sp,a1
    9400:	64510513          	addi	a0,sp,1605 # 0xffffffff8b21aa01
    9404:	0120513b          	srlw	sp,zero,s2
    9408:	0220f1b3          	remu	gp,ra,sp
    940c:	40115133          	sra	sp,sp,ra
    9410:	022101b3          	mul	gp,sp,sp
    9414:	4291009b          	addiw	ra,sp,1065
    9418:	001110b3          	sll	ra,sp,ra
    941c:	0221e033          	rem	zero,gp,sp
    9420:	004490b3          	sll	ra,s1,tp
    9424:	00305133          	srl	sp,zero,gp
    9428:	000302b3          	add	t0,t1,zero
    942c:	402081b3          	sub	gp,ra,sp
    9430:	027381b3          	mul	gp,t2,t2
    9434:	0021c1b3          	xor	gp,gp,sp
    9438:	454c3197          	auipc	gp,0x454c3
    943c:	5751011b          	addiw	sp,sp,1397
    9440:	0f2410b7          	lui	ra,0xf241
    9444:	cd6d70b7          	lui	ra,0xcd6d7
    9448:	01a2129b          	slliw	t0,tp,0x1a
    944c:	575af2b7          	lui	t0,0x575af
    9450:	ca30011b          	addiw	sp,zero,-861
    9454:	40e2df9b          	sraiw	t6,t0,0xe
    9458:	003100bb          	addw	ra,sp,gp
    945c:	0003b133          	sltu	sp,t2,zero
    9460:	4031d0b3          	sra	ra,gp,gp
    9464:	00300263          	beq	zero,gp,0x9468
    9468:	639000ef          	jal	ra,0xa2a0
    946c:	3f66a113          	slti	sp,a3,1014
    9470:	02106ab3          	rem	s5,zero,ra
    9474:	0233e0b3          	rem	ra,t2,gp
    9478:	c447a137          	lui	sp,0xc447a
    947c:	007130b3          	sltu	ra,sp,t2
    9480:	d78b80b7          	lui	ra,0xd78b8
    9484:	0022d13b          	srlw	sp,t0,sp
    9488:	00116133          	or	sp,sp,ra
    948c:	add920b7          	lui	ra,0xadd92
    9490:	1cc0b193          	sltiu	gp,ra,460
    9494:	d018f5b7          	lui	a1,0xd018f
    9498:	0212ee33          	rem	t3,t0,ra
    949c:	bf364137          	lui	sp,0xbf364
    94a0:	00116133          	or	sp,sp,ra
    94a4:	0051d3bb          	srlw	t2,gp,t0
    94a8:	37c1a093          	slti	ra,gp,892
    94ac:	0220f2b3          	remu	t0,ra,sp
    94b0:	02134133          	div	sp,t1,ra
    94b4:	0030c0b3          	xor	ra,ra,gp
    94b8:	6cb350b7          	lui	ra,0x6cb35
    94bc:	bbb9a0b7          	lui	ra,0xbbb9a
    94c0:	8dccb037          	lui	zero,0x8dccb
    94c4:	0192111b          	slliw	sp,tp,0x19
    94c8:	4989c137          	lui	sp,0x4989c
    94cc:	42a15213          	srai	tp,sp,0x2a
    94d0:	97118b13          	addi	s6,gp,-1679 # 0x454cbda9
    94d4:	0030513b          	srlw	sp,zero,gp
    94d8:	b4b1831b          	addiw	t1,gp,-1205
    94dc:	0014e0b3          	or	ra,s1,ra
    94e0:	e6702293          	slti	t0,zero,-409
    94e4:	dcc911b7          	lui	gp,0xdcc91
    94e8:	e3f1b093          	sltiu	ra,gp,-449
    94ec:	00000317          	auipc	t1,0x0
    94f0:	ef8303e7          	jalr	t2,-264(t1) # 0x93e4
    94f4:	a9762a37          	lui	s4,0xa9762
    94f8:	f2c8b0b7          	lui	ra,0xf2c8b
    94fc:	4011803b          	subw	zero,gp,ra
    9500:	40658133          	sub	sp,a1,t1
    9504:	4eb272b7          	lui	t0,0x4eb27
    9508:	02b2c133          	div	sp,t0,a1
    950c:	d2713297          	auipc	t0,0xd2713
    9510:	0230c133          	div	sp,ra,gp
    9514:	0030803b          	addw	zero,ra,gp
    9518:	0030a133          	slt	sp,ra,gp
    951c:	4031d1bb          	sraw	gp,gp,gp
    9520:	005153bb          	srlw	t2,sp,t0
    9524:	030350b3          	divu	ra,t1,a6
    9528:	915a32b7          	lui	t0,0x915a3
    952c:	0220f233          	remu	tp,ra,sp
    9530:	d2dfa137          	lui	sp,0xd2dfa
    9534:	001012b3          	sll	t0,zero,ra
    9538:	84d4f117          	auipc	sp,0x84d4f
    953c:	0220d133          	divu	sp,ra,sp
    9540:	89e1e593          	ori	a1,gp,-1890
    9544:	403087bb          	subw	a5,ra,gp
    9548:	b9cd5117          	auipc	sp,0xb9cd5
    954c:	024270b3          	remu	ra,tp,tp
    9550:	a2e1a193          	slti	gp,gp,-1490
    9554:	4011d133          	sra	sp,gp,ra
    9558:	038b9297          	auipc	t0,0x38b9
    955c:	9c238197          	auipc	gp,0x9c238
    9560:	001081b3          	add	gp,ra,ra
    9564:	c2118013          	addi	zero,gp,-991 # 0xffffffff9c24117d
    9568:	f300a093          	slti	ra,ra,-208
    956c:	23a250b7          	lui	ra,0x23a25
    9570:	023050b3          	divu	ra,zero,gp
    9574:	0030e4b3          	or	s1,ra,gp
    9578:	00018113          	mv	sp,gp
    957c:	6a310863          	beq	sp,gp,0x9c2c
    9580:	d4c0b093          	sltiu	ra,ra,-692
    9584:	f3b37013          	andi	zero,t1,-197
    9588:	6383a193          	slti	gp,t2,1592
    958c:	2e620093          	addi	ra,tp,742 # 0xffffffffbfa5a652
    9590:	01b1d19b          	srliw	gp,gp,0x1b
    9594:	73b942b7          	lui	t0,0x73b94
    9598:	403f00bb          	subw	ra,t5,gp
    959c:	0031d19b          	srliw	gp,gp,0x3
    95a0:	6049831b          	addiw	t1,s3,1540
    95a4:	0011a133          	slt	sp,gp,ra
    95a8:	0021913b          	sllw	sp,gp,sp
    95ac:	4031023b          	subw	tp,sp,gp
    95b0:	0071511b          	srliw	sp,sp,0x7
    95b4:	4deb8137          	lui	sp,0x4deb8
    95b8:	bd86f113          	andi	sp,a3,-1064
    95bc:	003090b3          	sll	ra,ra,gp
    95c0:	b1c24313          	xori	t1,tp,-1252
    95c4:	d66ba1b7          	lui	gp,0xd66ba
    95c8:	02237133          	remu	sp,t1,sp
    95cc:	27d7d097          	auipc	ra,0x27d7d
    95d0:	002090bb          	sllw	ra,ra,sp
    95d4:	10aa10b7          	lui	ra,0x10aa1
    95d8:	401156bb          	sraw	a3,sp,ra
    95dc:	66c04197          	auipc	gp,0x66c04
    95e0:	4015d3b3          	sra	t2,a1,ra
    95e4:	3a90b113          	sltiu	sp,ra,937
    95e8:	0356d213          	srli	tp,a3,0x35
    95ec:	15edf113          	andi	sp,s11,350
    95f0:	12a3b013          	sltiu	zero,t2,298
    95f4:	022041b3          	div	gp,zero,sp
    95f8:	403150b3          	sra	ra,sp,gp
    95fc:	40b2d113          	srai	sp,t0,0xb
    9600:	a4d7b1b7          	lui	gp,0xa4d7b
    9604:	0071521b          	srliw	tp,sp,0x7
    9608:	0330d213          	srli	tp,ra,0x33
    960c:	012c911b          	slliw	sp,s9,0x12
    9610:	0021d0b3          	srl	ra,gp,sp
    9614:	aec14193          	xori	gp,sp,-1300
    9618:	58710463          	beq	sp,t2,0x9ba0
    961c:	584000ef          	jal	ra,0x9ba0
    9620:	00335133          	srl	sp,t1,gp
    9624:	003291b3          	sll	gp,t0,gp
    9628:	0031e133          	or	sp,gp,gp
    962c:	0211e3b3          	rem	t2,gp,ra
    9630:	58f07093          	andi	ra,zero,1423
    9634:	40015133          	sra	sp,sp,zero
    9638:	00112133          	slt	sp,sp,ra
    963c:	8235b113          	sltiu	sp,a1,-2013
    9640:	ed232093          	slti	ra,t1,-302
    9644:	4070d23b          	sraw	tp,ra,t2
    9648:	da005117          	auipc	sp,0xda005
    964c:	299e1d17          	auipc	s10,0x299e1
    9650:	0031d1bb          	srlw	gp,gp,gp
    9654:	517da017          	auipc	zero,0x517da
    9658:	402083b3          	sub	t2,ra,sp
    965c:	025301b3          	mul	gp,t1,t0
    9660:	40d0d293          	srai	t0,ra,0xd
    9664:	0211c0b3          	div	ra,gp,ra
    9668:	4072511b          	sraiw	sp,tp,0x7
    966c:	001171b3          	and	gp,sp,ra
    9670:	0ba1fc13          	andi	s8,gp,186
    9674:	c8d661b7          	lui	gp,0xc8d66
    9678:	0012533b          	srlw	t1,tp,ra
    967c:	25c1011b          	addiw	sp,sp,604
    9680:	0011913b          	sllw	sp,gp,ra
    9684:	0011b133          	sltu	sp,gp,ra
    9688:	20f12113          	slti	sp,sp,527
    968c:	c423d0e3          	bge	t2,sp,0x92cc
    9690:	c223cee3          	blt	t2,sp,0x92cc
    9694:	021180b3          	mul	ra,gp,ra
    9698:	1d5f6137          	lui	sp,0x1d5f6
    969c:	0032a0b3          	slt	ra,t0,gp
    96a0:	4bc3851b          	addiw	a0,t2,1212
    96a4:	4ad1b317          	auipc	t1,0x4ad1b
    96a8:	ba213093          	sltiu	ra,sp,-1118
    96ac:	00c1131b          	slliw	t1,sp,0xc
    96b0:	5441809b          	addiw	ra,gp,1348
    96b4:	0033b033          	sltu	zero,t2,gp
    96b8:	7d9500b7          	lui	ra,0x7d950
    96bc:	b9e18d93          	addi	s11,gp,-1122 # 0xffffffffc8d65b9e
    96c0:	023170b3          	remu	ra,sp,gp
    96c4:	ad214113          	xori	sp,sp,-1326
    96c8:	4001003b          	subw	zero,sp,zero
    96cc:	95e14093          	xori	ra,sp,-1698
    96d0:	ceeaf1b7          	lui	gp,0xceeaf
    96d4:	46d280b7          	lui	ra,0x46d28
    96d8:	022141b3          	div	gp,sp,sp
    96dc:	e910e113          	ori	sp,ra,-367
    96e0:	000111bb          	sllw	gp,sp,zero
    96e4:	6b81b093          	sltiu	ra,gp,1720
    96e8:	25510193          	addi	gp,sp,597 # 0x1d5f6255
    96ec:	402181bb          	subw	gp,gp,sp
    96f0:	89260117          	auipc	sp,0x89260
    96f4:	40b300b3          	sub	ra,t1,a1
    96f8:	02138c33          	mul	s8,t2,ra
    96fc:	edfbb0b7          	lui	ra,0xedfbb
    9700:	d5405197          	auipc	gp,0xd5405
    9704:	968b3337          	lui	t1,0x968b3
    9708:	47b46217          	auipc	tp,0x47b46
    970c:	01e1519b          	srliw	gp,sp,0x1e
    9710:	40010133          	sub	sp,sp,zero
    9714:	00314133          	xor	sp,sp,gp
    9718:	1fda30b7          	lui	ra,0x1fda3
    971c:	4121529b          	sraiw	t0,sp,0x12
    9720:	0272f1b3          	remu	gp,t0,t2
    9724:	ee21dee3          	bge	gp,sp,0x9620
    9728:	ee21cce3          	blt	gp,sp,0x9620
    972c:	006391b3          	sll	gp,t2,t1
    9730:	8f608093          	addi	ra,ra,-1802 # 0x1fda28f6
    9734:	021007b3          	mul	a5,zero,ra
    9738:	0030b733          	sltu	a4,ra,gp
    973c:	03205393          	srli	t2,zero,0x32
    9740:	6d6c8137          	lui	sp,0x6d6c8
    9744:	f6a39197          	auipc	gp,0xf6a39
    9748:	dcd1b013          	sltiu	zero,gp,-563
    974c:	0270f1b3          	remu	gp,ra,t2
    9750:	4021d13b          	sraw	sp,gp,sp
    9754:	bf935197          	auipc	gp,0xbf935
    9758:	0263c133          	div	sp,t2,t1
    975c:	022140b3          	div	ra,sp,sp
    9760:	0011913b          	sllw	sp,gp,ra
    9764:	00016233          	or	tp,sp,zero
    9768:	219591b7          	lui	gp,0x21959
    976c:	a3d9c1b7          	lui	gp,0xa3d9c
    9770:	02a19193          	slli	gp,gp,0x2a
    9774:	00fbd19b          	srliw	gp,s7,0xf
    9778:	44d0f113          	andi	sp,ra,1101
    977c:	02f0c333          	div	t1,ra,a5
    9780:	48c16093          	ori	ra,sp,1164
    9784:	88628337          	lui	t1,0x88628
    9788:	0011e0b3          	or	ra,gp,ra
    978c:	08250197          	auipc	gp,0x8250
    9790:	4080d11b          	sraiw	sp,ra,0x8
    9794:	007053bb          	srlw	t2,zero,t2
    9798:	7d5ca117          	auipc	sp,0x7d5ca
    979c:	faf87117          	auipc	sp,0xfaf87
    97a0:	f23e4a17          	auipc	s4,0xf23e4
    97a4:	0060a333          	slt	t1,ra,t1
    97a8:	01a0981b          	slliw	a6,ra,0x1a
    97ac:	fbe3a013          	slti	zero,t2,-66
    97b0:	4070d29b          	sraiw	t0,ra,0x7
    97b4:	42a3a0b7          	lui	ra,0x42a3a
    97b8:	00000217          	auipc	tp,0x0
    97bc:	d3c202e7          	jalr	t0,-708(tp) # 0x0
    97c0:	36783097          	auipc	ra,0x36783
    97c4:	407151bb          	sraw	gp,sp,t2
    97c8:	00c0911b          	slliw	sp,ra,0xc
    97cc:	0221e133          	rem	sp,gp,sp
    97d0:	00f11093          	slli	ra,sp,0xf
    97d4:	81e22117          	auipc	sp,0x81e22
    97d8:	0d629e37          	lui	t3,0xd629
    97dc:	74518393          	addi	t2,gp,1861 # 0x8259ed1
    97e0:	403001b3          	neg	gp,gp
    97e4:	26f12137          	lui	sp,0x26f12
    97e8:	0040f1b3          	and	gp,ra,tp
    97ec:	b0b14317          	auipc	t1,0xb0b14
    97f0:	91aed397          	auipc	t2,0x91aed
    97f4:	0217f133          	remu	sp,a5,ra
    97f8:	0b00819b          	addiw	gp,ra,176
    97fc:	02214333          	div	t1,sp,sp
    9800:	01c0d01b          	srliw	zero,ra,0x1c
    9804:	003110b3          	sll	ra,sp,gp
    9808:	993c0037          	lui	zero,0x993c0
    980c:	7b81011b          	addiw	sp,sp,1976
    9810:	92213213          	sltiu	tp,sp,-1758
    9814:	000045b3          	xor	a1,zero,zero
    9818:	0012913b          	sllw	sp,t0,ra
    981c:	eca07113          	andi	sp,zero,-310
    9820:	3581c1b7          	lui	gp,0x3581c
    9824:	4010813b          	subw	sp,ra,ra
    9828:	0013c133          	xor	sp,t2,ra
    982c:	0ccd62b7          	lui	t0,0xccd6
    9830:	d3f681b7          	lui	gp,0xd3f68
    9834:	001212b3          	sll	t0,tp,ra
    9838:	01b16193          	ori	gp,sp,27
    983c:	0050fa33          	and	s4,ra,t0
    9840:	6af30293          	addi	t0,t1,1711 # 0xffffffffb0b1de9b
    9844:	fc118193          	addi	gp,gp,-63 # 0xffffffffd3f67fc1
    9848:	4135509b          	sraiw	ra,a0,0x13
    984c:	40c0d1b3          	sra	gp,ra,a2
    9850:	00000097          	auipc	ra,0x0
    9854:	11c08167          	jalr	sp,284(ra) # 0x996c
    9858:	2f3750b7          	lui	ra,0x2f375
    985c:	0234a3b7          	lui	t2,0x234a
    9860:	00309133          	sll	sp,ra,gp
    9864:	0011b133          	sltu	sp,gp,ra
    9868:	9ca27313          	andi	t1,tp,-1590
    986c:	2fc18393          	addi	t2,gp,764
    9870:	0013c1b3          	xor	gp,t2,ra
    9874:	0014d0bb          	srlw	ra,s1,ra
    9878:	01e0d19b          	srliw	gp,ra,0x1e
    987c:	400251b3          	sra	gp,tp,zero
    9880:	113d60b7          	lui	ra,0x113d6
    9884:	7901009b          	addiw	ra,sp,1936
    9888:	01d1d11b          	srliw	sp,gp,0x1d
    988c:	001082bb          	addw	t0,ra,ra
    9890:	927380b7          	lui	ra,0x92738
    9894:	001251b3          	srl	gp,tp,ra
    9898:	0070e0b3          	or	ra,ra,t2
    989c:	66436313          	ori	t1,t1,1636
    98a0:	4c81031b          	addiw	t1,sp,1224
    98a4:	d316b393          	sltiu	t2,a3,-719
    98a8:	023070b3          	remu	ra,zero,gp
    98ac:	002110bb          	sllw	ra,sp,sp
    98b0:	4031d19b          	sraiw	gp,gp,0x3
    98b4:	7870849b          	addiw	s1,ra,1927
    98b8:	fd944097          	auipc	ra,0xfd944
    98bc:	55e1811b          	addiw	sp,gp,1374
    98c0:	0036b3b3          	sltu	t2,a3,gp
    98c4:	02335333          	divu	t1,t1,gp
    98c8:	800350b7          	lui	ra,0x80035
    98cc:	00433033          	sltu	zero,t1,tp
    98d0:	0001d13b          	srlw	sp,gp,zero
    98d4:	00213133          	sltu	sp,sp,sp
    98d8:	5671c193          	xori	gp,gp,1383
    98dc:	4031523b          	sraw	tp,sp,gp
    98e0:	0047d11b          	srliw	sp,a5,0x4
    98e4:	3c8c6117          	auipc	sp,0x3c8c6
    98e8:	00010113          	mv	sp,sp
    98ec:	8c210ee3          	beq	sp,sp,0x91c8
    98f0:	bb91f213          	andi	tp,gp,-1095
    98f4:	4021d0bb          	sraw	ra,gp,sp
    98f8:	00216133          	or	sp,sp,sp
    98fc:	0022f133          	and	sp,t0,sp
    9900:	0010f133          	and	sp,ra,ra
    9904:	40328133          	sub	sp,t0,gp
    9908:	401180b3          	sub	ra,gp,ra
    990c:	6b9dc017          	auipc	zero,0x6b9dc
    9910:	78d25097          	auipc	ra,0x78d25
    9914:	00621133          	sll	sp,tp,t1
    9918:	003240b3          	xor	ra,tp,gp
    991c:	b023b297          	auipc	t0,0xb023b
    9920:	28c16137          	lui	sp,0x28c16
    9924:	ef7f10b7          	lui	ra,0xef7f1
    9928:	4091d11b          	sraiw	sp,gp,0x9
    992c:	0133519b          	srliw	gp,t1,0x13
    9930:	4250d193          	srai	gp,ra,0x25
    9934:	84560137          	lui	sp,0x84560
    9938:	00209133          	sll	sp,ra,sp
    993c:	00f3b133          	sltu	sp,t2,a5
    9940:	403380b3          	sub	ra,t2,gp
    9944:	0200e7b3          	rem	a5,ra,zero
    9948:	0021119b          	slliw	gp,sp,0x2
    994c:	0021c133          	xor	sp,gp,sp
    9950:	79137097          	auipc	ra,0x79137
    9954:	403381b3          	sub	gp,t2,gp
    9958:	a3810113          	addi	sp,sp,-1480 # 0xffffffff8455fa38
    995c:	964391b7          	lui	gp,0x96439
    9960:	6f0e821b          	addiw	tp,t4,1776
    9964:	9e330ae3          	beq	t1,gp,0x9358
    9968:	9f1ff16f          	jal	sp,0x9358
    996c:	dcd18113          	addi	sp,gp,-563 # 0xffffffff96438dcd
    9970:	f581e093          	ori	ra,gp,-168
    9974:	003387bb          	addw	a5,t2,gp
    9978:	f1631137          	lui	sp,0xf1631
    997c:	00554117          	auipc	sp,0x554
    9980:	9a70b193          	sltiu	gp,ra,-1625
    9984:	4661b213          	sltiu	tp,gp,1126
    9988:	d8b67337          	lui	t1,0xd8b67
    998c:	dbb43217          	auipc	tp,0xdbb43
    9990:	4b536193          	ori	gp,t1,1205
    9994:	0031513b          	srlw	sp,sp,gp
    9998:	0251c9b3          	div	s3,gp,t0
    999c:	14cc5397          	auipc	t2,0x14cc5
    99a0:	4110d59b          	sraiw	a1,ra,0x11
    99a4:	9a618113          	addi	sp,gp,-1626
    99a8:	015d139b          	slliw	t2,s10,0x15
    99ac:	403101bb          	subw	gp,sp,gp
    99b0:	0211e4b3          	rem	s1,gp,ra
    99b4:	b1c0a193          	slti	gp,ra,-1252
    99b8:	3a506093          	ori	ra,zero,933
    99bc:	40b0d793          	srai	a5,ra,0xb
    99c0:	79718193          	addi	gp,gp,1943
    99c4:	9d000093          	li	ra,-1584
    99c8:	02118033          	mul	zero,gp,ra
    99cc:	0020e0b3          	or	ra,ra,sp
    99d0:	01f1561b          	srliw	a2,sp,0x1f
    99d4:	021101b3          	mul	gp,sp,ra
    99d8:	4001509b          	sraiw	ra,sp,0x0
    99dc:	40918033          	sub	zero,gp,s1
    99e0:	023081b3          	mul	gp,ra,gp
    99e4:	f021f6e3          	bgeu	gp,sp,0x98f0
    99e8:	f021e4e3          	bltu	gp,sp,0x98f0
    99ec:	e1713493          	sltiu	s1,sp,-489
    99f0:	4031513b          	sraw	sp,sp,gp
    99f4:	f6b2a113          	slti	sp,t0,-149
    99f8:	e981e093          	ori	ra,gp,-360
    99fc:	0240f1b3          	remu	gp,ra,tp
    9a00:	62ecf1b7          	lui	gp,0x62ecf
    9a04:	0988f197          	auipc	gp,0x988f
    9a08:	01016093          	ori	ra,sp,16
    9a0c:	8ee151b7          	lui	gp,0x8ee15
    9a10:	603830b7          	lui	ra,0x60383
    9a14:	007151bb          	srlw	gp,sp,t2
    9a18:	003150b3          	srl	ra,sp,gp
    9a1c:	114e3337          	lui	t1,0x114e3
    9a20:	5ca460b7          	lui	ra,0x5ca46
    9a24:	0071909b          	slliw	ra,gp,0x7
    9a28:	f761c097          	auipc	ra,0xf761c
    9a2c:	0121111b          	slliw	sp,sp,0x12
    9a30:	402106bb          	subw	a3,sp,sp
    9a34:	006091b3          	sll	gp,ra,t1
    9a38:	11a1801b          	addiw	zero,gp,282
    9a3c:	18517393          	andi	t2,sp,389
    9a40:	0010afb3          	slt	t6,ra,ra
    9a44:	02215eb3          	divu	t4,sp,sp
    9a48:	01435133          	srl	sp,t1,s4
    9a4c:	8c413593          	sltiu	a1,sp,-1852
    9a50:	0023e033          	or	zero,t2,sp
    9a54:	0011d6bb          	srlw	a3,gp,ra
    9a58:	001085bb          	addw	a1,ra,ra
    9a5c:	001022b3          	sgtz	t0,ra
    9a60:	40f280bb          	subw	ra,t0,a5
    9a64:	0061f0b3          	and	ra,gp,t1
    9a68:	0050d3bb          	srlw	t2,ra,t0
    9a6c:	0021013b          	addw	sp,sp,sp
    9a70:	4012d0bb          	sraw	ra,t0,ra
    9a74:	c22280e3          	beq	t0,sp,0x9694
    9a78:	c1dff0ef          	jal	ra,0x9694
    9a7c:	8971c113          	xori	sp,gp,-1897
    9a80:	4020d23b          	sraw	tp,ra,sp
    9a84:	0221c3b3          	div	t2,gp,sp
    9a88:	dc5230b7          	lui	ra,0xdc523
    9a8c:	13d2c097          	auipc	ra,0x13d2c
    9a90:	1aa1f493          	andi	s1,gp,426
    9a94:	020060b3          	rem	ra,zero,zero
    9a98:	02e09113          	slli	sp,ra,0x2e
    9a9c:	5c22e1b7          	lui	gp,0x5c22e
    9aa0:	d7e26093          	ori	ra,tp,-642
    9aa4:	0121909b          	slliw	ra,gp,0x12
    9aa8:	001151bb          	srlw	gp,sp,ra
    9aac:	4181519b          	sraiw	gp,sp,0x18
    9ab0:	02118133          	mul	sp,gp,ra
    9ab4:	85884197          	auipc	gp,0x85884
    9ab8:	00213133          	sltu	sp,sp,sp
    9abc:	00218133          	add	sp,gp,sp
    9ac0:	86d10e1b          	addiw	t3,sp,-1939
    9ac4:	00d341b3          	xor	gp,t1,a3
    9ac8:	4171509b          	sraiw	ra,sp,0x17
    9acc:	02711193          	slli	gp,sp,0x27
    9ad0:	02918333          	mul	t1,gp,s1
    9ad4:	67b0a193          	slti	gp,ra,1659
    9ad8:	001180b3          	add	ra,gp,ra
    9adc:	ba233313          	sltiu	t1,t1,-1118
    9ae0:	9475a137          	lui	sp,0x9475a
    9ae4:	02519193          	slli	gp,gp,0x25
    9ae8:	4180d19b          	sraiw	gp,ra,0x18
    9aec:	4161d11b          	sraiw	sp,gp,0x16
    9af0:	0021a1b3          	slt	gp,gp,sp
    9af4:	ac8a1297          	auipc	t0,0xac8a1
    9af8:	0011b1b3          	sltu	gp,gp,ra
    9afc:	00101433          	sll	s0,zero,ra
    9b00:	0017d0bb          	srlw	ra,a5,ra
    9b04:	00008113          	mv	sp,ra
    9b08:	d41108e3          	beq	sp,ra,0x9858
    9b0c:	63a1f093          	andi	ra,gp,1594
    9b10:	4021d2b3          	sra	t0,gp,sp
    9b14:	4c217093          	andi	ra,sp,1218
    9b18:	c7cd4117          	auipc	sp,0xc7cd4
    9b1c:	40578133          	sub	sp,a5,t0
    9b20:	faa3e113          	ori	sp,t2,-86
    9b24:	cbe78097          	auipc	ra,0xcbe78
    9b28:	00115fb3          	srl	t6,sp,ra
    9b2c:	ff6a50b7          	lui	ra,0xff6a5
    9b30:	721da2b7          	lui	t0,0x721da
    9b34:	402680b3          	sub	ra,a3,sp
    9b38:	4c70b297          	auipc	t0,0x4c70b
    9b3c:	544a63b7          	lui	t2,0x544a6
    9b40:	bbf1009b          	addiw	ra,sp,-1089
    9b44:	4c11c193          	xori	gp,gp,1217
    9b48:	4013d133          	sra	sp,t2,ra
    9b4c:	02d080b3          	mul	ra,ra,a3
    9b50:	00519133          	sll	sp,gp,t0
    9b54:	0021c0b3          	xor	ra,gp,sp
    9b58:	02225133          	divu	sp,tp,sp
    9b5c:	09014093          	xori	ra,sp,144
    9b60:	0011f0b3          	and	ra,gp,ra
    9b64:	0011d0bb          	srlw	ra,gp,ra
    9b68:	001171b3          	and	gp,sp,ra
    9b6c:	fd21f113          	andi	sp,gp,-46
    9b70:	11f281b7          	lui	gp,0x11f28
    9b74:	40785093          	srai	ra,a6,0x7
    9b78:	003281b3          	add	gp,t0,gp
    9b7c:	0031033b          	addw	t1,sp,gp
    9b80:	0b20e393          	ori	t2,ra,178
    9b84:	0d806197          	auipc	gp,0xd806
    9b88:	ac600093          	li	ra,-1338
    9b8c:	d7f3819b          	addiw	gp,t2,-641
    9b90:	0021103b          	sllw	zero,sp,sp
    9b94:	401152bb          	sraw	t0,sp,ra
    9b98:	00000117          	auipc	sp,0x0
    9b9c:	e54103e7          	jalr	t2,-428(sp) # 0x99ec
    9ba0:	0210e0b3          	rem	ra,ra,ra
    9ba4:	025081b3          	mul	gp,ra,t0
    9ba8:	0070d133          	srl	sp,ra,t2
    9bac:	0041d1b3          	srl	gp,gp,tp
    9bb0:	9a804113          	xori	sp,zero,-1624
    9bb4:	6590f097          	auipc	ra,0x6590f
    9bb8:	02615133          	divu	sp,sp,t1
    9bbc:	dc00b193          	sltiu	gp,ra,-576
    9bc0:	b2b0b393          	sltiu	t2,ra,-1237
    9bc4:	0010d133          	srl	sp,ra,ra
    9bc8:	3022a093          	slti	ra,t0,770
    9bcc:	f8b1819b          	addiw	gp,gp,-117
    9bd0:	023151b3          	divu	gp,sp,gp
    9bd4:	0001f0b3          	and	ra,gp,zero
    9bd8:	01a2109b          	slliw	ra,tp,0x1a
    9bdc:	39938713          	addi	a4,t2,921 # 0x544a6399
    9be0:	00337333          	and	t1,t1,gp
    9be4:	12a24113          	xori	sp,tp,298
    9be8:	001150b3          	srl	ra,sp,ra
    9bec:	00712133          	slt	sp,sp,t2
    9bf0:	0011513b          	srlw	sp,sp,ra
    9bf4:	402185bb          	subw	a1,gp,sp
    9bf8:	0210d1b3          	divu	gp,ra,ra
    9bfc:	40505133          	sra	sp,zero,t0
    9c00:	04a13213          	sltiu	tp,sp,74
    9c04:	9490809b          	addiw	ra,ra,-1719
    9c08:	0240d133          	divu	sp,ra,tp
    9c0c:	fa7cc197          	auipc	gp,0xfa7cc
    9c10:	021150b3          	divu	ra,sp,ra
    9c14:	9ba56397          	auipc	t2,0x9ba56
    9c18:	001131b3          	sltu	gp,sp,ra
    9c1c:	853a1137          	lui	sp,0x853a1
    9c20:	b911819b          	addiw	gp,gp,-1135
    9c24:	b06084e3          	beq	ra,t1,0x972c
    9c28:	b05ff0ef          	jal	ra,0x972c
    9c2c:	0030813b          	addw	sp,ra,gp
    9c30:	0020a1b3          	slt	gp,ra,sp
    9c34:	00609313          	slli	t1,ra,0x6
    9c38:	0030d0b3          	srl	ra,ra,gp
    9c3c:	0210d0b3          	divu	ra,ra,ra
    9c40:	41d3533b          	sraw	t1,t1,t4
    9c44:	d151c093          	xori	ra,gp,-747
    9c48:	a6c03db7          	lui	s11,0xa6c03
    9c4c:	c8ed3137          	lui	sp,0xc8ed3
    9c50:	a391fe93          	andi	t4,gp,-1479
    9c54:	0041d3bb          	srlw	t2,gp,tp
    9c58:	002140b3          	xor	ra,sp,sp
    9c5c:	4031d1bb          	sraw	gp,gp,gp
    9c60:	0011d133          	srl	sp,gp,ra
    9c64:	002190b3          	sll	ra,gp,sp
    9c68:	93427093          	andi	ra,tp,-1740
    9c6c:	2e81821b          	addiw	tp,gp,744
    9c70:	008151b3          	srl	gp,sp,s0
    9c74:	58564097          	auipc	ra,0x58564
    9c78:	0230e0b3          	rem	ra,ra,gp
    9c7c:	cc61e037          	lui	zero,0xcc61e
    9c80:	e330e093          	ori	ra,ra,-461
    9c84:	007081bb          	addw	gp,ra,t2
    9c88:	002090bb          	sllw	ra,ra,sp
    9c8c:	4021d2b3          	sra	t0,gp,sp
    9c90:	401155bb          	sraw	a1,sp,ra
    9c94:	0011e133          	or	sp,gp,ra
    9c98:	1b0fd137          	lui	sp,0x1b0fd
    9c9c:	0020a133          	slt	sp,ra,sp
    9ca0:	12516993          	ori	s3,sp,293
    9ca4:	a933b193          	sltiu	gp,t2,-1389
    9ca8:	f1714093          	xori	ra,sp,-233
    9cac:	c952f397          	auipc	t2,0xc952f
    9cb0:	e5d0dee3          	bge	ra,t4,0x9b0c
    9cb4:	e5d0cce3          	blt	ra,t4,0x9b0c
    9cb8:	c131f393          	andi	t2,gp,-1005
    9cbc:	0230f1b3          	remu	gp,ra,gp
    9cc0:	403102b3          	sub	t0,sp,gp
    9cc4:	0022a0b3          	slt	ra,t0,sp
    9cc8:	022bd313          	srli	t1,s7,0x22
    9ccc:	37f05137          	lui	sp,0x37f05
    9cd0:	40210133          	sub	sp,sp,sp
    9cd4:	02627633          	remu	a2,tp,t1
    9cd8:	0054c0b3          	xor	ra,s1,t0
    9cdc:	004f40b3          	xor	ra,t5,tp
    9ce0:	aa98a0b7          	lui	ra,0xaa98a
    9ce4:	6ca2019b          	addiw	gp,tp,1738
    9ce8:	001130b3          	sltu	ra,sp,ra
    9cec:	0210d1b3          	divu	gp,ra,ra
    9cf0:	0050b133          	sltu	sp,ra,t0
    9cf4:	40d0d0bb          	sraw	ra,ra,a3
    9cf8:	40215133          	sra	sp,sp,sp
    9cfc:	e6d1b113          	sltiu	sp,gp,-403
    9d00:	02a19193          	slli	gp,gp,0x2a
    9d04:	26e14113          	xori	sp,sp,622
    9d08:	c04fd197          	auipc	gp,0xc04fd
    9d0c:	17817113          	andi	sp,sp,376
    9d10:	c720e113          	ori	sp,ra,-910
    9d14:	0092539b          	srliw	t2,tp,0x9
    9d18:	0231d2b3          	divu	t0,gp,gp
    9d1c:	00b450b3          	srl	ra,s0,a1
    9d20:	0020823b          	addw	tp,ra,sp
    9d24:	0021e0b3          	or	ra,gp,sp
    9d28:	023180b3          	mul	ra,gp,gp
    9d2c:	43712193          	slti	gp,sp,1079
    9d30:	d9502113          	slti	sp,zero,-619
    9d34:	00710263          	beq	sp,t2,0x9d38
    9d38:	1d50036f          	jal	t1,0xa70c
    9d3c:	0020f0b3          	and	ra,ra,sp
    9d40:	0031919b          	slliw	gp,gp,0x3
    9d44:	40b1d033          	sra	zero,gp,a1
    9d48:	003101b3          	add	gp,sp,gp
    9d4c:	7fcd9197          	auipc	gp,0x7fcd9
    9d50:	cbb2e113          	ori	sp,t0,-837
    9d54:	3b41e193          	ori	gp,gp,948
    9d58:	401250b3          	sra	ra,tp,ra
    9d5c:	02630333          	mul	t1,t1,t1
    9d60:	028401b7          	lui	gp,0x2840
    9d64:	4031023b          	subw	tp,sp,gp
    9d68:	0023033b          	addw	t1,t1,sp
    9d6c:	02315133          	divu	sp,sp,gp
    9d70:	0161519b          	srliw	gp,sp,0x16
    9d74:	403100b3          	sub	ra,sp,gp
    9d78:	0010e133          	or	sp,ra,ra
    9d7c:	acf770b7          	lui	ra,0xacf77
    9d80:	021163b3          	rem	t2,sp,ra
    9d84:	00e09113          	slli	sp,ra,0xe
    9d88:	38a570b7          	lui	ra,0x38a57
    9d8c:	0031f1b3          	and	gp,gp,gp
    9d90:	9391831b          	addiw	t1,gp,-1735
    9d94:	00117133          	and	sp,sp,ra
    9d98:	403150b3          	sra	ra,sp,gp
    9d9c:	40718cb3          	sub	s9,gp,t2
    9da0:	c8c00313          	li	t1,-884
    9da4:	03a150b3          	divu	ra,sp,s10
    9da8:	77aef2b7          	lui	t0,0x77aef
    9dac:	85716093          	ori	ra,sp,-1961
    9db0:	d2218093          	addi	ra,gp,-734 # 0x283fd22
    9db4:	0023013b          	addw	sp,t1,sp
    9db8:	03709193          	slli	gp,ra,0x37
    9dbc:	0020c2b3          	xor	t0,ra,sp
    9dc0:	00a0909b          	slliw	ra,ra,0xa
    9dc4:	9e2201b7          	lui	gp,0x9e220
    9dc8:	78207863          	bgeu	zero,sp,0xa558
    9dcc:	78206663          	bltu	zero,sp,0xa558
    9dd0:	36a2c1b7          	lui	gp,0x36a2c
    9dd4:	0021013b          	addw	sp,sp,sp
    9dd8:	03a1d113          	srli	sp,gp,0x3a
    9ddc:	51e2a093          	slti	ra,t0,1310
    9de0:	51200237          	lui	tp,0x51200
    9de4:	27aa2097          	auipc	ra,0x27aa2
    9de8:	40a7d01b          	sraiw	zero,a5,0xa
    9dec:	001190b3          	sll	ra,gp,ra
    9df0:	8fe3009b          	addiw	ra,t1,-1794
    9df4:	7e50b093          	sltiu	ra,ra,2021
    9df8:	9f61c193          	xori	gp,gp,-1546
    9dfc:	0071d31b          	srliw	t1,gp,0x7
    9e00:	0240c133          	div	sp,ra,tp
    9e04:	02614133          	div	sp,sp,t1
    9e08:	02237bb3          	remu	s7,t1,sp
    9e0c:	307dd137          	lui	sp,0x307dd
    9e10:	1eb6a113          	slti	sp,a3,491
    9e14:	00236133          	or	sp,t1,sp
    9e18:	0223dcb3          	divu	s9,t2,sp
    9e1c:	02335133          	divu	sp,t1,gp
    9e20:	d0a59697          	auipc	a3,0xd0a59
    9e24:	00510133          	add	sp,sp,t0
    9e28:	5ac261b7          	lui	gp,0x5ac26
    9e2c:	0220d6b3          	divu	a3,ra,sp
    9e30:	01011193          	slli	gp,sp,0x10
    9e34:	004092b3          	sll	t0,ra,tp
    9e38:	0f30831b          	addiw	t1,ra,243
    9e3c:	0053a1b3          	slt	gp,t2,t0
    9e40:	7ad16113          	ori	sp,sp,1965
    9e44:	41f4d11b          	sraiw	sp,s1,0x1f
    9e48:	00308263          	beq	ra,gp,0x9e4c
    9e4c:	6250016f          	jal	sp,0xac70
    9e50:	dd312193          	slti	gp,sp,-557
    9e54:	6c2ee037          	lui	zero,0x6c2ee
    9e58:	56e1c313          	xori	t1,gp,1390
    9e5c:	c390b093          	sltiu	ra,ra,-967
    9e60:	94f0a193          	slti	gp,ra,-1713
    9e64:	b0d7e137          	lui	sp,0xb0d7e
    9e68:	0261d1b3          	divu	gp,gp,t1
    9e6c:	dec5a317          	auipc	t1,0xdec5a
    9e70:	838220b7          	lui	ra,0x83822
    9e74:	bc7ca113          	slti	sp,s9,-1081
    9e78:	7a5940b7          	lui	ra,0x7a594
    9e7c:	007191bb          	sllw	gp,gp,t2
    9e80:	98471097          	auipc	ra,0x98471
    9e84:	0230d1b3          	divu	gp,ra,gp
    9e88:	02315333          	divu	t1,sp,gp
    9e8c:	95308393          	addi	t2,ra,-1709 # 0xffffffff9847a7d3
    9e90:	0023d1b3          	srl	gp,t2,sp
    9e94:	0021a1b3          	slt	gp,gp,sp
    9e98:	001200bb          	addw	ra,tp,ra
    9e9c:	407350bb          	sraw	ra,t1,t2
    9ea0:	003081b3          	add	gp,ra,gp
    9ea4:	001130b3          	sltu	ra,sp,ra
    9ea8:	001051bb          	srlw	gp,zero,ra
    9eac:	41b3511b          	sraiw	sp,t1,0x1b
    9eb0:	401151b3          	sra	gp,sp,ra
    9eb4:	cc5462b7          	lui	t0,0xcc546
    9eb8:	4010883b          	subw	a6,ra,ra
    9ebc:	9b20b013          	sltiu	zero,ra,-1614
    9ec0:	4110519b          	sraiw	gp,zero,0x11
    9ec4:	f3f17193          	andi	gp,sp,-193
    9ec8:	0221d233          	divu	tp,gp,sp
    9ecc:	3a1be093          	ori	ra,s7,929
    9ed0:	549051b7          	lui	gp,0x54905
    9ed4:	0020a0b3          	slt	ra,ra,sp
    9ed8:	a3a1811b          	addiw	sp,gp,-1478
    9edc:	78310863          	beq	sp,gp,0xa66c
    9ee0:	78c0026f          	jal	tp,0xa66c
    9ee4:	accbf1b7          	lui	gp,0xaccbf
    9ee8:	8ae3c193          	xori	gp,t2,-1874
    9eec:	dec1031b          	addiw	t1,sp,-532
    9ef0:	dc38b117          	auipc	sp,0xdc38b
    9ef4:	4060d1bb          	sraw	gp,ra,t1
    9ef8:	0051e1b3          	or	gp,gp,t0
    9efc:	32828297          	auipc	t0,0x32828
    9f00:	401fd2bb          	sraw	t0,t6,ra
    9f04:	ea9ed117          	auipc	sp,0xea9ed
    9f08:	a339b097          	auipc	ra,0xa339b
    9f0c:	577d2097          	auipc	ra,0x577d2
    9f10:	0233e433          	rem	s0,t2,gp
    9f14:	4022d0bb          	sraw	ra,t0,sp
    9f18:	02310333          	mul	t1,sp,gp
    9f1c:	bf120113          	addi	sp,tp,-1039 # 0x511ffbf1
    9f20:	0071c1b3          	xor	gp,gp,t2
    9f24:	0240e133          	rem	sp,ra,tp
    9f28:	01f3111b          	slliw	sp,t1,0x1f
    9f2c:	5c410093          	addi	ra,sp,1476 # 0xffffffffea9f74c8
    9f30:	0091a133          	slt	sp,gp,s1
    9f34:	012e909b          	slliw	ra,t4,0x12
    9f38:	d39fe0b7          	lui	ra,0xd39fe
    9f3c:	9d10e193          	ori	gp,ra,-1583
    9f40:	4ece4197          	auipc	gp,0x4ece4
    9f44:	001363b3          	or	t2,t1,ra
    9f48:	1dd69097          	auipc	ra,0x1dd69
    9f4c:	00219333          	sll	t1,gp,sp
    9f50:	02224133          	div	sp,tp,sp
    9f54:	02197133          	remu	sp,s2,ra
    9f58:	41fd531b          	sraiw	t1,s10,0x1f
    9f5c:	4023513b          	sraw	sp,t1,sp
    9f60:	83231237          	lui	tp,0x83231
    9f64:	00125463          	bge	tp,ra,0x9f6c
    9f68:	00124263          	blt	tp,ra,0x9f6c
    9f6c:	e9d030b7          	lui	ra,0xe9d03
    9f70:	032172b3          	remu	t0,sp,s2
    9f74:	01e060b3          	or	ra,zero,t5
    9f78:	4071523b          	sraw	tp,sp,t2
    9f7c:	0021d033          	srl	zero,gp,sp
    9f80:	1601f113          	andi	sp,gp,352
    9f84:	c863099b          	addiw	s3,t1,-890
    9f88:	0030a1b3          	slt	gp,ra,gp
    9f8c:	02410133          	mul	sp,sp,tp
    9f90:	20b12093          	slti	ra,sp,523
    9f94:	82937093          	andi	ra,t1,-2007
    9f98:	10e0c093          	xori	ra,ra,270
    9f9c:	00017133          	and	sp,sp,zero
    9fa0:	837e31b7          	lui	gp,0x837e3
    9fa4:	0033fd33          	and	s10,t2,gp
    9fa8:	023282b3          	mul	t0,t0,gp
    9fac:	022381b3          	mul	gp,t2,sp
    9fb0:	003140b3          	xor	ra,sp,gp
    9fb4:	4010d0bb          	sraw	ra,ra,ra
    9fb8:	4061d23b          	sraw	tp,gp,t1
    9fbc:	c6a0f193          	andi	gp,ra,-918
    9fc0:	0010c133          	xor	sp,ra,ra
    9fc4:	a151809b          	addiw	ra,gp,-1515
    9fc8:	0103119b          	slliw	gp,t1,0x10
    9fcc:	0020903b          	sllw	zero,ra,sp
    9fd0:	c4308013          	addi	zero,ra,-957 # 0xffffffffe9d02c43
    9fd4:	33cd1137          	lui	sp,0x33cd1
    9fd8:	0001913b          	sllw	sp,gp,zero
    9fdc:	00310833          	add	a6,sp,gp
    9fe0:	0210c1b3          	div	gp,ra,ra
    9fe4:	d323c0b7          	lui	ra,0xd323c
    9fe8:	002d8333          	add	t1,s11,sp
    9fec:	00000197          	auipc	gp,0x0
    9ff0:	d50180e7          	jalr	-688(gp) # 0x9d3c
    9ff4:	0020f0b3          	and	ra,ra,sp
    9ff8:	00016133          	or	sp,sp,zero
    9ffc:	01d1119b          	slliw	gp,sp,0x1d
    a000:	02609193          	slli	gp,ra,0x26
    a004:	93a861b7          	lui	gp,0x93a86
    a008:	00115fbb          	srlw	t6,sp,ra
    a00c:	5d715117          	auipc	sp,0x5d715
    a010:	0151e193          	ori	gp,gp,21
    a014:	407101bb          	subw	gp,sp,t2
    a018:	c6c49297          	auipc	t0,0xc6c49
    a01c:	309d3197          	auipc	gp,0x309d3
    a020:	58f0b193          	sltiu	gp,ra,1423
    a024:	aefb4197          	auipc	gp,0xaefb4
    a028:	4a5ad137          	lui	sp,0x4a5ad
    a02c:	00217233          	and	tp,sp,sp
    a030:	3bb9a097          	auipc	ra,0x3bb9a
    a034:	00306133          	or	sp,zero,gp
    a038:	02316133          	rem	sp,sp,gp
    a03c:	0143d11b          	srliw	sp,t2,0x14
    a040:	02208133          	mul	sp,ra,sp
    a044:	dd70a113          	slti	sp,ra,-553
    a048:	00e1931b          	slliw	t1,gp,0xe
    a04c:	1980f293          	andi	t0,ra,408
    a050:	0031b1b3          	sltu	gp,gp,gp
    a054:	002261b3          	or	gp,tp,sp
    a058:	e6723093          	sltiu	ra,tp,-409
    a05c:	0210c6b3          	div	a3,ra,ra
    a060:	00135133          	srl	sp,t1,ra
    a064:	0027013b          	addw	sp,a4,sp
    a068:	cc350117          	auipc	sp,0xcc350
    a06c:	ed91e193          	ori	gp,gp,-295
    a070:	023361b3          	rem	gp,t1,gp
    a074:	d531f093          	andi	ra,gp,-685
    a078:	0811f463          	bgeu	gp,ra,0xa100
    a07c:	0811e263          	bltu	gp,ra,0xa100
    a080:	dd116293          	ori	t0,sp,-559
    a084:	401083bb          	subw	t2,ra,ra
    a088:	003121b3          	slt	gp,sp,gp
    a08c:	0037b1b3          	sltu	gp,a5,gp
    a090:	03809113          	slli	sp,ra,0x38
    a094:	41d252bb          	sraw	t0,tp,t4
    a098:	02217233          	remu	tp,sp,sp
    a09c:	ea5ea097          	auipc	ra,0xea5ea
    a0a0:	14d38337          	lui	t1,0x14d38
    a0a4:	0143509b          	srliw	ra,t1,0x14
    a0a8:	0213d133          	divu	sp,t2,ra
    a0ac:	0261d1b3          	divu	gp,gp,t1
    a0b0:	001210b3          	sll	ra,tp,ra
    a0b4:	4025d0b3          	sra	ra,a1,sp
    a0b8:	cbfeb0b7          	lui	ra,0xcbfeb
    a0bc:	4031d13b          	sraw	sp,gp,gp
    a0c0:	5731f393          	andi	t2,gp,1395
    a0c4:	179020b7          	lui	ra,0x17902
    a0c8:	728595b7          	lui	a1,0x72859
    a0cc:	e5d1019b          	addiw	gp,sp,-419
    a0d0:	01815293          	srli	t0,sp,0x18
    a0d4:	bef12113          	slti	sp,sp,-1041
    a0d8:	42d3b237          	lui	tp,0x42d3b
    a0dc:	01b13333          	sltu	t1,sp,s11
    a0e0:	404085bb          	subw	a1,ra,tp
    a0e4:	7b810193          	addi	gp,sp,1976 # 0xffffffffcc35a820
    a0e8:	d903809b          	addiw	ra,t2,-624
    a0ec:	02117133          	remu	sp,sp,ra
    a0f0:	0022d01b          	srliw	zero,t0,0x2
    a0f4:	f92c3097          	auipc	ra,0xf92c3
    a0f8:	00000197          	auipc	gp,0x0
    a0fc:	3d818167          	jalr	sp,984(gp) # 0xa4d0
    a100:	ac4244b7          	lui	s1,0xac424
    a104:	00710233          	add	tp,sp,t2
    a108:	0042f133          	and	sp,t0,tp
    a10c:	0713b193          	sltiu	gp,t2,113
    a110:	00b1911b          	slliw	sp,gp,0xb
    a114:	403081bb          	subw	gp,ra,gp
    a118:	023081b3          	mul	gp,ra,gp
    a11c:	66f10113          	addi	sp,sp,1647
    a120:	0031e0b3          	or	ra,gp,gp
    a124:	0060d23b          	srlw	tp,ra,t1
    a128:	6a8f5097          	auipc	ra,0x6a8f5
    a12c:	4010833b          	subw	t1,ra,ra
    a130:	a41bd0b7          	lui	ra,0xa41bd
    a134:	0023113b          	sllw	sp,t1,sp
    a138:	6cc47317          	auipc	t1,0x6cc47
    a13c:	40ee509b          	sraiw	ra,t3,0xe
    a140:	42f1d093          	srai	ra,gp,0x2f
    a144:	01219013          	slli	zero,gp,0x12
    a148:	4100d19b          	sraiw	gp,ra,0x10
    a14c:	c23d00b7          	lui	ra,0xc23d0
    a150:	0251d013          	srli	zero,gp,0x25
    a154:	705fb097          	auipc	ra,0x705fb
    a158:	2270a093          	slti	ra,ra,551
    a15c:	5dfd4117          	auipc	sp,0x5dfd4
    a160:	0031d133          	srl	sp,gp,gp
    a164:	1ee67097          	auipc	ra,0x1ee67
    a168:	6db190b7          	lui	ra,0x6db19
    a16c:	0215d0b3          	divu	ra,a1,ra
    a170:	00a1521b          	srliw	tp,sp,0xa
    a174:	bca4c193          	xori	gp,s1,-1078
    a178:	40318133          	sub	sp,gp,gp
    a17c:	d7e48113          	addi	sp,s1,-642 # 0xffffffffac423d7e
    a180:	22308063          	beq	ra,gp,0xa3a0
    a184:	21c001ef          	jal	gp,0xa3a0
    a188:	010ee3b3          	or	t2,t4,a6
    a18c:	3c0c811b          	addiw	sp,s9,960
    a190:	24c88117          	auipc	sp,0x24c88
    a194:	001091bb          	sllw	gp,ra,ra
    a198:	00108133          	add	sp,ra,ra
    a19c:	3de0c093          	xori	ra,ra,990
    a1a0:	87bc9797          	auipc	a5,0x87bc9
    a1a4:	c770829b          	addiw	t0,ra,-905
    a1a8:	0262d133          	divu	sp,t0,t1
    a1ac:	5285b097          	auipc	ra,0x5285b
    a1b0:	0191101b          	slliw	zero,sp,0x19
    a1b4:	401381bb          	subw	gp,t2,ra
    a1b8:	00108133          	add	sp,ra,ra
    a1bc:	4021d0b3          	sra	ra,gp,sp
    a1c0:	7431e113          	ori	sp,gp,1859
    a1c4:	ab48d137          	lui	sp,0xab48d
    a1c8:	0343fa33          	remu	s4,t2,s4
    a1cc:	0041a133          	slt	sp,gp,tp
    a1d0:	40218133          	sub	sp,gp,sp
    a1d4:	3ddf63b7          	lui	t2,0x3ddf6
    a1d8:	0021b133          	sltu	sp,gp,sp
    a1dc:	03f3d0b3          	divu	ra,t2,t6
    a1e0:	e211a193          	slti	gp,gp,-479
    a1e4:	cff32193          	slti	gp,t1,-769
    a1e8:	aec10e93          	addi	t4,sp,-1300 # 0xffffffffab48caec
    a1ec:	28e0a193          	slti	gp,ra,654
    a1f0:	0016b1b3          	sltu	gp,a3,ra
    a1f4:	03309013          	slli	zero,ra,0x33
    a1f8:	0041121b          	slliw	tp,sp,0x4
    a1fc:	0011f0b3          	and	ra,gp,ra
    a200:	01d1919b          	slliw	gp,gp,0x1d
    a204:	000081bb          	addw	gp,ra,zero
    a208:	003180bb          	addw	ra,gp,gp
    a20c:	5255b093          	sltiu	ra,a1,1317
    a210:	001210bb          	sllw	ra,tp,ra
    a214:	b1d0811b          	addiw	sp,ra,-1251
    a218:	0011d1bb          	srlw	gp,gp,ra
    a21c:	00028193          	mv	gp,t0
    a220:	00518263          	beq	gp,t0,0xa224
    a224:	7b51b117          	auipc	sp,0x7b51b
    a228:	02208333          	mul	t1,ra,sp
    a22c:	51433193          	sltiu	gp,t1,1300
    a230:	0211d1b3          	divu	gp,gp,ra
    a234:	74f960b7          	lui	ra,0x74f96
    a238:	4080d11b          	sraiw	sp,ra,0x8
    a23c:	82123797          	auipc	a5,0x82123
    a240:	b031f217          	auipc	tp,0xb031f
    a244:	dcd72137          	lui	sp,0xdcd72
    a248:	02217133          	remu	sp,sp,sp
    a24c:	0031a1b3          	slt	gp,gp,gp
    a250:	0370d093          	srli	ra,ra,0x37
    a254:	01a1119b          	slliw	gp,sp,0x1a
    a258:	0011d1bb          	srlw	gp,gp,ra
    a25c:	01f3909b          	slliw	ra,t2,0x1f
    a260:	4021513b          	sraw	sp,sp,sp
    a264:	022101b3          	mul	gp,sp,sp
    a268:	021081b3          	mul	gp,ra,ra
    a26c:	1a022193          	slti	gp,tp,416
    a270:	00230abb          	addw	s5,t1,sp
    a274:	002152bb          	srlw	t0,sp,sp
    a278:	00215133          	srl	sp,sp,sp
    a27c:	92f07897          	auipc	a7,0x92f07
    a280:	4331f193          	andi	gp,gp,1075
    a284:	01915133          	srl	sp,sp,s9
    a288:	6efea297          	auipc	t0,0x6efea
    a28c:	650e3297          	auipc	t0,0x650e3
    a290:	0020f233          	and	tp,ra,sp
    a294:	00301033          	sll	zero,zero,gp
    a298:	34301863          	bne	zero,gp,0xa5e8
    a29c:	34300663          	beq	zero,gp,0xa5e8
    a2a0:	d369c137          	lui	sp,0xd369c
    a2a4:	0014d1bb          	srlw	gp,s1,ra
    a2a8:	c2263097          	auipc	ra,0xc2263
    a2ac:	b2e0b293          	sltiu	t0,ra,-1234
    a2b0:	0062909b          	slliw	ra,t0,0x6
    a2b4:	d0091317          	auipc	t1,0xd0091
    a2b8:	0211c233          	div	tp,gp,ra
    a2bc:	8aae54b7          	lui	s1,0x8aae5
    a2c0:	0092d093          	srli	ra,t0,0x9
    a2c4:	007091bb          	sllw	gp,ra,t2
    a2c8:	022081b3          	mul	gp,ra,sp
    a2cc:	7de0021b          	addiw	tp,zero,2014
    a2d0:	00c1919b          	slliw	gp,gp,0xc
    a2d4:	0001929b          	slliw	t0,gp,0x0
    a2d8:	31d78237          	lui	tp,0x31d78
    a2dc:	40110233          	sub	tp,sp,ra
    a2e0:	7f70819b          	addiw	gp,ra,2039
    a2e4:	6c418193          	addi	gp,gp,1732
    a2e8:	027080b3          	mul	ra,ra,t2
    a2ec:	fa051137          	lui	sp,0xfa051
    a2f0:	00616133          	or	sp,sp,t1
    a2f4:	cd002393          	slti	t2,zero,-816
    a2f8:	b1e0809b          	addiw	ra,ra,-1250
    a2fc:	402150b3          	sra	ra,sp,sp
    a300:	0030d1b3          	srl	gp,ra,gp
    a304:	0010d133          	srl	sp,ra,ra
    a308:	00000013          	nop
    a30c:	9a0006e3          	beqz	zero,0x9cb8
    a310:	0021c333          	xor	t1,gp,sp
    a314:	0041a0b3          	slt	ra,gp,tp
    a318:	6071c113          	xori	sp,gp,1543
    a31c:	0001a133          	sltz	sp,gp
    a320:	0216d133          	divu	sp,a3,ra
    a324:	75800337          	lui	t1,0x75800
    a328:	01e19093          	slli	ra,gp,0x1e
    a32c:	0037f333          	and	t1,a5,gp
    a330:	03219093          	slli	ra,gp,0x32
    a334:	f21df117          	auipc	sp,0xf21df
    a338:	003060b3          	or	ra,zero,gp
    a33c:	023361b3          	rem	gp,t1,gp
    a340:	0051939b          	slliw	t2,gp,0x5
    a344:	dbc3b093          	sltiu	ra,t2,-580
    a348:	cb1f3137          	lui	sp,0xcb1f3
    a34c:	c9e921b7          	lui	gp,0xc9e92
    a350:	06306193          	ori	gp,zero,99
    a354:	82b13013          	sltiu	zero,sp,-2005
    a358:	0204c233          	div	tp,s1,zero
    a35c:	0260c233          	div	tp,ra,t1
    a360:	0212f0b3          	remu	ra,t0,ra
    a364:	c899b097          	auipc	ra,0xc899b
    a368:	0020d13b          	srlw	sp,ra,sp
    a36c:	0050e0b3          	or	ra,ra,t0
    a370:	07a101b7          	lui	gp,0x7a10
    a374:	0051113b          	sllw	sp,sp,t0
    a378:	41e0d093          	srai	ra,ra,0x1e
    a37c:	029080b3          	mul	ra,ra,s1
    a380:	0001f6b3          	and	a3,gp,zero
    a384:	00b10a33          	add	s4,sp,a1
    a388:	003a81bb          	addw	gp,s5,gp
    a38c:	35a23137          	lui	sp,0x35a23
    a390:	40c1d19b          	sraiw	gp,gp,0xc
    a394:	0230f0b3          	remu	ra,ra,gp
    a398:	00000213          	li	tp,0
    a39c:	a2020ae3          	beqz	tp,0x9dd0
    a3a0:	002383b3          	add	t2,t2,sp
    a3a4:	02009093          	slli	ra,ra,0x20
    a3a8:	32f16193          	ori	gp,sp,815
    a3ac:	a042a193          	slti	gp,t0,-1532
    a3b0:	05b1c117          	auipc	sp,0x5b1c
    a3b4:	0060109b          	slliw	ra,zero,0x6
    a3b8:	00b1d1b3          	srl	gp,gp,a1
    a3bc:	001230b3          	sltu	ra,tp,ra
    a3c0:	1fc09117          	auipc	sp,0x1fc09
    a3c4:	f0716313          	ori	t1,sp,-249
    a3c8:	55224237          	lui	tp,0x55224
    a3cc:	04bb5097          	auipc	ra,0x4bb5
    a3d0:	d53b01b7          	lui	gp,0xd53b0
    a3d4:	01d3109b          	slliw	ra,t1,0x1d
    a3d8:	00207eb3          	and	t4,zero,sp
    a3dc:	280d3137          	lui	sp,0x280d3
    a3e0:	da916213          	ori	tp,sp,-599
    a3e4:	0223c133          	div	sp,t2,sp
    a3e8:	4c5f7117          	auipc	sp,0x4c5f7
    a3ec:	31d0b093          	sltiu	ra,ra,797
    a3f0:	6db1f113          	andi	sp,gp,1755
    a3f4:	0060919b          	slliw	gp,ra,0x6
    a3f8:	4051813b          	subw	sp,gp,t0
    a3fc:	13a18193          	addi	gp,gp,314 # 0xffffffffd53b013a
    a400:	022363b3          	rem	t2,t1,sp
    a404:	023361b3          	rem	gp,t1,gp
    a408:	40415133          	sra	sp,sp,tp
    a40c:	8bf90037          	lui	zero,0x8bf90
    a410:	02f10133          	mul	sp,sp,a5
    a414:	023100b3          	mul	ra,sp,gp
    a418:	0220e0b3          	rem	ra,ra,sp
    a41c:	0031a133          	slt	sp,gp,gp
    a420:	0014c1b3          	xor	gp,s1,ra
    a424:	943a8017          	auipc	zero,0x943a8
    a428:	0211e0b3          	rem	ra,gp,ra
    a42c:	4045529b          	sraiw	t0,a0,0x4
    a430:	4011013b          	subw	sp,sp,ra
    a434:	a0310ee3          	beq	sp,gp,0x9e50
    a438:	a19ff0ef          	jal	ra,0x9e50
    a43c:	97c86137          	lui	sp,0x97c86
    a440:	a1213193          	sltiu	gp,sp,-1518
    a444:	00c1d093          	srli	ra,gp,0xc
    a448:	00620bb3          	add	s7,tp,t1
    a44c:	4021d1b3          	sra	gp,gp,sp
    a450:	d1e361b7          	lui	gp,0xd1e36
    a454:	0221f1b3          	remu	gp,gp,sp
    a458:	8fff5117          	auipc	sp,0x8fff5
    a45c:	bea5819b          	addiw	gp,a1,-1046
    a460:	00379333          	sll	t1,a5,gp
    a464:	0023933b          	sllw	t1,t2,sp
    a468:	4031d6b3          	sra	a3,gp,gp
    a46c:	00710033          	add	zero,sp,t2
    a470:	0281d133          	divu	sp,gp,s0
    a474:	e1cb7197          	auipc	gp,0xe1cb7
    a478:	40d080b3          	sub	ra,ra,a3
    a47c:	37400137          	lui	sp,0x37400
    a480:	9a50c293          	xori	t0,ra,-1627
    a484:	f4717217          	auipc	tp,0xf4717
    a488:	79427e93          	andi	t4,tp,1940
    a48c:	313d7137          	lui	sp,0x313d7
    a490:	02306133          	rem	sp,zero,gp
    a494:	ed81f093          	andi	ra,gp,-296
    a498:	0061d1bb          	srlw	gp,gp,t1
    a49c:	0070919b          	slliw	gp,ra,0x7
    a4a0:	00019113          	slli	sp,gp,0x0
    a4a4:	00123133          	sltu	sp,tp,ra
    a4a8:	b2848197          	auipc	gp,0xb2848
    a4ac:	00415eb3          	srl	t4,sp,tp
    a4b0:	0031f233          	and	tp,gp,gp
    a4b4:	03819093          	slli	ra,gp,0x38
    a4b8:	6d078097          	auipc	ra,0x6d078
    a4bc:	01021213          	slli	tp,tp,0x10
    a4c0:	41025193          	srai	gp,tp,0x10
    a4c4:	02305333          	divu	t1,zero,gp
    a4c8:	e43084e3          	beq	ra,gp,0xa310
    a4cc:	e45ff1ef          	jal	gp,0xa310
    a4d0:	4361d193          	srai	gp,gp,0x36
    a4d4:	f9e17093          	andi	ra,sp,-98
    a4d8:	9bc2f113          	andi	sp,t0,-1604
    a4dc:	41e3d11b          	sraiw	sp,t2,0x1e
    a4e0:	bb33c293          	xori	t0,t2,-1101
    a4e4:	f6822137          	lui	sp,0xf6822
    a4e8:	0060a033          	slt	zero,ra,t1
    a4ec:	8fa13193          	sltiu	gp,sp,-1798
    a4f0:	c3bd6097          	auipc	ra,0xc3bd6
    a4f4:	03d27193          	andi	gp,tp,61
    a4f8:	000010bb          	sllw	ra,zero,zero
    a4fc:	b881819b          	addiw	gp,gp,-1144
    a500:	6e026137          	lui	sp,0x6e026
    a504:	023171b3          	remu	gp,sp,gp
    a508:	0030913b          	sllw	sp,ra,gp
    a50c:	0010e0b3          	or	ra,ra,ra
    a510:	02116233          	rem	tp,sp,ra
    a514:	9ff13693          	sltiu	a3,sp,-1537
    a518:	003081bb          	addw	gp,ra,gp
    a51c:	0121911b          	slliw	sp,gp,0x12
    a520:	98337313          	andi	t1,t1,-1661
    a524:	00039033          	sll	zero,t2,zero
    a528:	a40bf193          	andi	gp,s7,-1472
    a52c:	4002513b          	sraw	sp,tp,zero
    a530:	0070b133          	sltu	sp,ra,t2
    a534:	1d51819b          	addiw	gp,gp,469
    a538:	0227c2b3          	div	t0,a5,sp
    a53c:	b7414113          	xori	sp,sp,-1164
    a540:	aa334213          	xori	tp,t1,-1373
    a544:	41f1509b          	sraiw	ra,sp,0x1f
    a548:	dfa0801b          	addiw	zero,ra,-518
    a54c:	0060e133          	or	sp,ra,t1
    a550:	00018113          	mv	sp,gp
    a554:	c2310ae3          	beq	sp,gp,0xa188
    a558:	7e60809b          	addiw	ra,ra,2022
    a55c:	41415113          	srai	sp,sp,0x14
    a560:	01915613          	srli	a2,sp,0x19
    a564:	0034b333          	sltu	t1,s1,gp
    a568:	3a18f117          	auipc	sp,0x3a18f
    a56c:	a430b017          	auipc	zero,0xa430b
    a570:	55b36113          	ori	sp,t1,1371
    a574:	0021d33b          	srlw	t1,gp,sp
    a578:	0052013b          	addw	sp,tp,t0
    a57c:	99c01337          	lui	t1,0x99c01
    a580:	3d31019b          	addiw	gp,sp,979
    a584:	b1910213          	addi	tp,sp,-1255 # 0x3a199081
    a588:	4032d0b3          	sra	ra,t0,gp
    a58c:	0120de93          	srli	t4,ra,0x12
    a590:	0031c6b3          	xor	a3,gp,gp
    a594:	87f1b193          	sltiu	gp,gp,-1921
    a598:	01d0951b          	slliw	a0,ra,0x1d
    a59c:	82b8c337          	lui	t1,0x82b8c
    a5a0:	401301bb          	subw	gp,t1,ra
    a5a4:	02821013          	slli	zero,tp,0x28
    a5a8:	cbd06293          	ori	t0,zero,-835
    a5ac:	df914193          	xori	gp,sp,-519
    a5b0:	021350b3          	divu	ra,t1,ra
    a5b4:	0060d0bb          	srlw	ra,ra,t1
    a5b8:	02117133          	remu	sp,sp,ra
    a5bc:	0031123b          	sllw	tp,sp,gp
    a5c0:	93928093          	addi	ra,t0,-1735 # 0x650ecbc5
    a5c4:	02117133          	remu	sp,sp,ra
    a5c8:	0240d633          	divu	a2,ra,tp
    a5cc:	003111b3          	sll	gp,sp,gp
    a5d0:	e4bdc1b7          	lui	gp,0xe4bdc
    a5d4:	2741a113          	slti	sp,gp,628
    a5d8:	d4107193          	andi	gp,zero,-703
    a5dc:	cef05197          	auipc	gp,0xcef05
    a5e0:	aa2080e3          	beq	ra,sp,0xa080
    a5e4:	a9dff1ef          	jal	gp,0xa080
    a5e8:	42905393          	srai	t2,zero,0x29
    a5ec:	002001bb          	addw	gp,zero,sp
    a5f0:	00215293          	srli	t0,sp,0x2
    a5f4:	21d1c093          	xori	ra,gp,541
    a5f8:	02b051b3          	divu	gp,zero,a1
    a5fc:	02215333          	divu	t1,sp,sp
    a600:	0021013b          	addw	sp,sp,sp
    a604:	0041a033          	slt	zero,gp,tp
    a608:	027170b3          	remu	ra,sp,t2
    a60c:	4011813b          	subw	sp,gp,ra
    a610:	0051d39b          	srliw	t2,gp,0x5
    a614:	0120d193          	srli	gp,ra,0x12
    a618:	402254bb          	sraw	s1,tp,sp
    a61c:	0051c1b3          	xor	gp,gp,t0
    a620:	86e1f113          	andi	sp,gp,-1938
    a624:	008392bb          	sllw	t0,t2,s0
    a628:	bfb0b093          	sltiu	ra,ra,-1029
    a62c:	fcb78113          	addi	sp,a5,-53 # 0xffffffff8212d207
    a630:	022141b3          	div	gp,sp,sp
    a634:	0260e133          	rem	sp,ra,t1
    a638:	cfea4897          	auipc	a7,0xcfea4
    a63c:	5a4b9197          	auipc	gp,0x5a4b9
    a640:	001331b3          	sltu	gp,t1,ra
    a644:	4031d3b3          	sra	t2,gp,gp
    a648:	402200b3          	sub	ra,tp,sp
    a64c:	4710811b          	addiw	sp,ra,1137
    a650:	401051b3          	sra	gp,zero,ra
    a654:	006190bb          	sllw	ra,gp,t1
    a658:	00530193          	addi	gp,t1,5 # 0xffffffff82b8c005
    a65c:	03411113          	slli	sp,sp,0x34
    a660:	81e1a393          	slti	t2,gp,-2018
    a664:	00000197          	auipc	gp,0x0
    a668:	dd8181e7          	jalr	gp,-552(gp) # 0xa43c
    a66c:	00119233          	sll	tp,gp,ra
    a670:	00618133          	add	sp,gp,t1
    a674:	02b0d1b3          	divu	gp,ra,a1
    a678:	0041a333          	slt	t1,gp,tp
    a67c:	006020b3          	sgtz	ra,t1
    a680:	02314233          	div	tp,sp,gp
    a684:	0036c1b3          	xor	gp,a3,gp
    a688:	00132833          	slt	a6,t1,ra
    a68c:	0231d133          	divu	sp,gp,gp
    a690:	0210d0b3          	divu	ra,ra,ra
    a694:	1960c093          	xori	ra,ra,406
    a698:	e3b13193          	sltiu	gp,sp,-453
    a69c:	164ac117          	auipc	sp,0x164ac
    a6a0:	002180bb          	addw	ra,gp,sp
    a6a4:	0220f133          	remu	sp,ra,sp
    a6a8:	027341b3          	div	gp,t1,t2
    a6ac:	002320b3          	slt	ra,t1,sp
    a6b0:	5a045097          	auipc	ra,0x5a045
    a6b4:	df543313          	sltiu	t1,s0,-523
    a6b8:	ebada017          	auipc	zero,0xebada
    a6bc:	4862821b          	addiw	tp,t0,1158
    a6c0:	0220d233          	divu	tp,ra,sp
    a6c4:	0227f333          	remu	t1,a5,sp
    a6c8:	3653a137          	lui	sp,0x3653a
    a6cc:	407000b3          	neg	ra,t2
    a6d0:	a940a313          	slti	t1,ra,-1388
    a6d4:	002010b3          	sll	ra,zero,sp
    a6d8:	0193119b          	slliw	gp,t1,0x19
    a6dc:	41e1d233          	sra	tp,gp,t5
    a6e0:	2203e0b7          	lui	ra,0x2203e
    a6e4:	4030003b          	negw	zero,gp
    a6e8:	48e4f097          	auipc	ra,0x48e4f
    a6ec:	0211c1b3          	div	gp,gp,ra
    a6f0:	a5e13e93          	sltiu	t4,sp,-1442
    a6f4:	6ff1f113          	andi	sp,gp,1791
    a6f8:	b2c07113          	andi	sp,zero,-1236
    a6fc:	ff013293          	sltiu	t0,sp,-16
    a700:	00203233          	snez	tp,sp
    a704:	00438263          	beq	t2,tp,0xa708
    a708:	fdcff16f          	jal	sp,0x9ee4
    a70c:	4013d19b          	sraiw	gp,t2,0x1
    a710:	d37b0117          	auipc	sp,0xd37b0
    a714:	0021f1b3          	and	gp,gp,sp
    a718:	021140b3          	div	ra,sp,ra
    a71c:	70208193          	addi	gp,ra,1794 # 0x48e59dea
    a720:	77443097          	auipc	ra,0x77443
    a724:	00131133          	sll	sp,t1,ra
    a728:	f831f037          	lui	zero,0xf831f
    a72c:	27b131b7          	lui	gp,0x27b13
    a730:	1d256117          	auipc	sp,0x1d256
    a734:	2211819b          	addiw	gp,gp,545
    a738:	0030b333          	sltu	t1,ra,gp
    a73c:	03905013          	srli	zero,zero,0x39
    a740:	003102b3          	add	t0,sp,gp
    a744:	9fb5c117          	auipc	sp,0x9fb5c
    a748:	81508313          	addi	t1,ra,-2027 # 0x7744cf35
    a74c:	00321133          	sll	sp,tp,gp
    a750:	01559113          	slli	sp,a1,0x15
    a754:	bec00113          	li	sp,-1044
    a758:	002147b3          	xor	a5,sp,sp
    a75c:	009095b3          	sll	a1,ra,s1
    a760:	60385197          	auipc	gp,0x60385
    a764:	64417393          	andi	t2,sp,1604
    a768:	2239d097          	auipc	ra,0x2239d
    a76c:	00209493          	slli	s1,ra,0x2
    a770:	b0623293          	sltiu	t0,tp,-1274
    a774:	16308393          	addi	t2,ra,355 # 0x223a78cb
    a778:	0013a393          	slti	t2,t2,1
    a77c:	0012d1bb          	srlw	gp,t0,ra
    a780:	401180b3          	sub	ra,gp,ra
    a784:	00008193          	mv	gp,ra
    a788:	861186e3          	beq	gp,ra,0x9ff4
    a78c:	5f359117          	auipc	sp,0x5f359
    a790:	0224f0b3          	remu	ra,s1,sp
    a794:	003141b3          	xor	gp,sp,gp
    a798:	0c11811b          	addiw	sp,gp,193
    a79c:	18e58093          	addi	ra,a1,398 # 0x7285918e
    a7a0:	00619933          	sll	s2,gp,t1
    a7a4:	ad813193          	sltiu	gp,sp,-1320
    a7a8:	2f31c313          	xori	t1,gp,755
    a7ac:	66ef7037          	lui	zero,0x66ef7
    a7b0:	00319333          	sll	t1,gp,gp
    a7b4:	0021c0b3          	xor	ra,gp,sp
    a7b8:	70b680b7          	lui	ra,0x70b68
    a7bc:	cad1811b          	addiw	sp,gp,-851
    a7c0:	003b0033          	add	zero,s6,gp
    a7c4:	c482011b          	addiw	sp,tp,-952
    a7c8:	40b1519b          	sraiw	gp,sp,0xb
    a7cc:	002a72b3          	and	t0,s4,sp
    a7d0:	7c1b0317          	auipc	t1,0x7c1b0
    a7d4:	cf0111b7          	lui	gp,0xcf011
    a7d8:	e34061b7          	lui	gp,0xe3406
    a7dc:	45f1b197          	auipc	gp,0x45f1b
    a7e0:	001094b3          	sll	s1,ra,ra
    a7e4:	001121b3          	slt	gp,sp,ra
    a7e8:	0171939b          	slliw	t2,gp,0x17
    a7ec:	0030d2b3          	srl	t0,ra,gp
    a7f0:	402f01bb          	subw	gp,t5,sp
    a7f4:	0011e333          	or	t1,gp,ra
    a7f8:	d2ae1137          	lui	sp,0xd2ae1
    a7fc:	0042d393          	srli	t2,t0,0x4
    a800:	e7614113          	xori	sp,sp,-394
    a804:	02b49193          	slli	gp,s1,0x2b
    a808:	7282b1b7          	lui	gp,0x7282b
    a80c:	0170929b          	slliw	t0,ra,0x17
    a810:	9ed2e213          	ori	tp,t0,-1555
    a814:	4e301263          	bne	zero,gp,0xacf8
    a818:	4e300063          	beq	zero,gp,0xacf8
    a81c:	4030d3b3          	sra	t2,ra,gp
    a820:	002251bb          	srlw	gp,tp,sp
    a824:	12fdd0b7          	lui	ra,0x12fdd
    a828:	0220c133          	div	sp,ra,sp
    a82c:	026250b3          	divu	ra,tp,t1
    a830:	53c32293          	slti	t0,t1,1340
    a834:	001991bb          	sllw	gp,s3,ra
    a838:	0071f1b3          	and	gp,gp,t2
    a83c:	4aceb217          	auipc	tp,0x4aceb
    a840:	45447097          	auipc	ra,0x45447
    a844:	17110093          	addi	ra,sp,369 # 0xffffffffd2ae1171
    a848:	00202133          	sgtz	sp,sp
    a84c:	0212f333          	remu	t1,t0,ra
    a850:	0241c3b3          	div	t2,gp,tp
    a854:	03446197          	auipc	gp,0x3446
    a858:	56dbbe17          	auipc	t3,0x56dbb
    a85c:	5750b193          	sltiu	gp,ra,1397
    a860:	0027e333          	or	t1,a5,sp
    a864:	005191b3          	sll	gp,gp,t0
    a868:	7bb24197          	auipc	gp,0x7bb24
    a86c:	0010b2b3          	sltu	t0,ra,ra
    a870:	401181b3          	sub	gp,gp,ra
    a874:	004191bb          	sllw	gp,gp,tp
    a878:	bcc14193          	xori	gp,sp,-1076
    a87c:	731ba117          	auipc	sp,0x731ba
    a880:	0220d1b3          	divu	gp,ra,sp
    a884:	003311bb          	sllw	gp,t1,gp
    a888:	584b6097          	auipc	ra,0x584b6
    a88c:	0022103b          	sllw	zero,tp,sp
    a890:	00214233          	xor	tp,sp,sp
    a894:	c9230113          	addi	sp,t1,-878 # 0x7c1ba462
    a898:	00119093          	slli	ra,gp,0x1
    a89c:	02318133          	mul	sp,gp,gp
    a8a0:	00048093          	mv	ra,s1
    a8a4:	22908c63          	beq	ra,s1,0xaadc
    a8a8:	0213f1b3          	remu	gp,t2,ra
    a8ac:	5e8a3297          	auipc	t0,0x5e8a3
    a8b0:	ec20819b          	addiw	gp,ra,-318
    a8b4:	0220f1b3          	remu	gp,ra,sp
    a8b8:	c7027093          	andi	ra,tp,-912
    a8bc:	02120133          	mul	sp,tp,ra
    a8c0:	0231c1b3          	div	gp,gp,gp
    a8c4:	02306a33          	rem	s4,zero,gp
    a8c8:	cee02397          	auipc	t2,0xcee02
    a8cc:	402151bb          	sraw	gp,sp,sp
    a8d0:	02529093          	slli	ra,t0,0x25
    a8d4:	eec1009b          	addiw	ra,sp,-276
    a8d8:	4296d093          	srai	ra,a3,0x29
    a8dc:	21b18093          	addi	ra,gp,539 # 0x7bb2ea83
    a8e0:	403153b3          	sra	t2,sp,gp
    a8e4:	4390d093          	srai	ra,ra,0x39
    a8e8:	d4814a13          	xori	s4,sp,-696
    a8ec:	4156d193          	srai	gp,a3,0x15
    a8f0:	01485093          	srli	ra,a6,0x14
    a8f4:	375ef137          	lui	sp,0x375ef
    a8f8:	61319137          	lui	sp,0x61319
    a8fc:	00b2101b          	slliw	zero,tp,0xb
    a900:	fe7dc1b7          	lui	gp,0xfe7dc
    a904:	003690bb          	sllw	ra,a3,gp
    a908:	02308433          	mul	s0,ra,gp
    a90c:	0080d31b          	srliw	t1,ra,0x8
    a910:	0211c133          	div	sp,gp,ra
    a914:	9463f117          	auipc	sp,0x9463f
    a918:	00b2a1b3          	slt	gp,t0,a1
    a91c:	9593f293          	andi	t0,t2,-1703
    a920:	02320133          	mul	sp,tp,gp
    a924:	31e80a93          	addi	s5,a6,798 # 0x7959b2aa
    a928:	003651b3          	srl	gp,a2,gp
    a92c:	0220d1b3          	divu	gp,ra,sp
    a930:	2278dc63          	bge	a7,t2,0xab68
    a934:	2278ca63          	blt	a7,t2,0xab68
    a938:	6b00d1b7          	lui	gp,0x6b00d
    a93c:	02217633          	remu	a2,sp,sp
    a940:	01f3de1b          	srliw	t3,t2,0x1f
    a944:	001310bb          	sllw	ra,t1,ra
    a948:	41fb5013          	srai	zero,s6,0x1f
    a94c:	4050d0bb          	sraw	ra,ra,t0
    a950:	003161b3          	or	gp,sp,gp
    a954:	40010333          	sub	t1,sp,zero
    a958:	01811113          	slli	sp,sp,0x18
    a95c:	0251d133          	divu	sp,gp,t0
    a960:	baea81b7          	lui	gp,0xbaea8
    a964:	403281bb          	subw	gp,t0,gp
    a968:	0051509b          	srliw	ra,sp,0x5
    a96c:	12802293          	slti	t0,zero,296
    a970:	1c5f7117          	auipc	sp,0x1c5f7
    a974:	0301e0b3          	rem	ra,gp,a6
    a978:	8b61e093          	ori	ra,gp,-1866
    a97c:	00112033          	slt	zero,sp,ra
    a980:	0067f1b3          	and	gp,a5,t1
    a984:	03f11f13          	slli	t5,sp,0x3f
    a988:	c450c193          	xori	gp,ra,-955
    a98c:	01a11133          	sll	sp,sp,s10
    a990:	0014a0b3          	slt	ra,s1,ra
    a994:	4b6b0137          	lui	sp,0x4b6b0
    a998:	2301811b          	addiw	sp,gp,560
    a99c:	0390e0b3          	rem	ra,ra,s9
    a9a0:	02939093          	slli	ra,t2,0x29
    a9a4:	aa312313          	slti	t1,sp,-1373
    a9a8:	00206133          	or	sp,zero,sp
    a9ac:	0221d233          	divu	tp,gp,sp
    a9b0:	02126233          	rem	tp,tp,ra
    a9b4:	4ab22093          	slti	ra,tp,1195
    a9b8:	7f2b4137          	lui	sp,0x7f2b4
    a9bc:	002481b3          	add	gp,s1,sp
    a9c0:	00008313          	mv	t1,ra
    a9c4:	20130e63          	beq	t1,ra,0xabe0
    a9c8:	0960b013          	sltiu	zero,ra,150
    a9cc:	1cc1011b          	addiw	sp,sp,460
    a9d0:	0041969b          	slliw	a3,gp,0x4
    a9d4:	47f0a193          	slti	gp,ra,1151
    a9d8:	ac20819b          	addiw	gp,ra,-1342
    a9dc:	0070911b          	slliw	sp,ra,0x7
    a9e0:	78e13013          	sltiu	zero,sp,1934
    a9e4:	01a0d11b          	srliw	sp,ra,0x1a
    a9e8:	401050bb          	sraw	ra,zero,ra
    a9ec:	0072b133          	sltu	sp,t0,t2
    a9f0:	024060b3          	rem	ra,zero,tp
    a9f4:	00334133          	xor	sp,t1,gp
    a9f8:	a96bc197          	auipc	gp,0xa96bc
    a9fc:	02411113          	slli	sp,sp,0x24
    aa00:	09a19097          	auipc	ra,0x9a19
    aa04:	d37bb337          	lui	t1,0xd37bb
    aa08:	034141b3          	div	gp,sp,s4
    aa0c:	c325b197          	auipc	gp,0xc325b
    aa10:	ab30a113          	slti	sp,ra,-1357
    aa14:	281471b7          	lui	gp,0x28147
    aa18:	0011013b          	addw	sp,sp,ra
    aa1c:	f9f1a013          	slti	zero,gp,-97
    aa20:	ea81f093          	andi	ra,gp,-344
    aa24:	00219293          	slli	t0,gp,0x2
    aa28:	03309c93          	slli	s9,ra,0x33
    aa2c:	02330033          	mul	zero,t1,gp
    aa30:	10114137          	lui	sp,0x10114
    aa34:	003101bb          	addw	gp,sp,gp
    aa38:	10e1c113          	xori	sp,gp,270
    aa3c:	002470b3          	and	ra,s0,sp
    aa40:	0211d0b3          	divu	ra,gp,ra
    aa44:	a4d0b093          	sltiu	ra,ra,-1459
    aa48:	002130b3          	sltu	ra,sp,sp
    aa4c:	fff9c197          	auipc	gp,0xfff9c
    aa50:	3c110a63          	beq	sp,ra,0xae24
    aa54:	3d0001ef          	jal	gp,0xae24
    aa58:	003090b3          	sll	ra,ra,gp
    aa5c:	023171b3          	remu	gp,sp,gp
    aa60:	89730237          	lui	tp,0x89730
    aa64:	0fb00097          	auipc	ra,0xfb00
    aa68:	02316133          	rem	sp,sp,gp
    aa6c:	58f3deb7          	lui	t4,0x58f3d
    aa70:	02c543b7          	lui	t2,0x2c54
    aa74:	0210e2b3          	rem	t0,ra,ra
    aa78:	6213029b          	addiw	t0,t1,1569
    aa7c:	1938f313          	andi	t1,a7,403
    aa80:	02215133          	divu	sp,sp,sp
    aa84:	e8eb0197          	auipc	gp,0xe8eb0
    aa88:	b59f6137          	lui	sp,0xb59f6
    aa8c:	000250bb          	srlw	ra,tp,zero
    aa90:	7d00a093          	slti	ra,ra,2000
    aa94:	0040909b          	slliw	ra,ra,0x4
    aa98:	49f27113          	andi	sp,tp,1183
    aa9c:	003ab1b3          	sltu	gp,s5,gp
    aaa0:	4012813b          	subw	sp,t0,ra
    aaa4:	003180b3          	add	ra,gp,gp
    aaa8:	4ae4d0b7          	lui	ra,0x4ae4d
    aaac:	4e334113          	xori	sp,t1,1251
    aab0:	6bc360b7          	lui	ra,0x6bc36
    aab4:	01c1101b          	slliw	zero,sp,0x1c
    aab8:	00313133          	sltu	sp,sp,gp
    aabc:	3e2882b7          	lui	t0,0x3e288
    aac0:	023163b3          	rem	t2,sp,gp
    aac4:	41105093          	srai	ra,zero,0x11
    aac8:	0070909b          	slliw	ra,ra,0x7
    aacc:	00219033          	sll	zero,gp,sp
    aad0:	001180b3          	add	ra,gp,ra
    aad4:	00200263          	beq	zero,sp,0xaad8
    aad8:	1000116f          	jal	sp,0xbbd8
    aadc:	d241a293          	slti	t0,gp,-732
    aae0:	02517133          	remu	sp,sp,t0
    aae4:	0035d3bb          	srlw	t2,a1,gp
    aae8:	02314133          	div	sp,sp,gp
    aaec:	25b1a113          	slti	sp,gp,603
    aaf0:	4132f117          	auipc	sp,0x4132f
    aaf4:	00c0d193          	srli	gp,ra,0xc
    aaf8:	ed1c4113          	xori	sp,s8,-303
    aafc:	002081bb          	addw	gp,ra,sp
    ab00:	023581b3          	mul	gp,a1,gp
    ab04:	401801b3          	sub	gp,a6,ra
    ab08:	0043b233          	sltu	tp,t2,tp
    ab0c:	e9a262b7          	lui	t0,0xe9a26
    ab10:	698d5097          	auipc	ra,0x698d5
    ab14:	ef58e097          	auipc	ra,0xef58e
    ab18:	e6c50197          	auipc	gp,0xe6c50
    ab1c:	9981831b          	addiw	t1,gp,-1640
    ab20:	022185b3          	mul	a1,gp,sp
    ab24:	a030a193          	slti	gp,ra,-1533
    ab28:	26c1831b          	addiw	t1,gp,620
    ab2c:	415080b3          	sub	ra,ra,s5
    ab30:	8de18193          	addi	gp,gp,-1826 # 0xffffffffe6c5a3f6
    ab34:	0001e0b3          	or	ra,gp,zero
    ab38:	dcf3099b          	addiw	s3,t1,-561
    ab3c:	d47d2137          	lui	sp,0xd47d2
    ab40:	40b1d11b          	sraiw	sp,gp,0xb
    ab44:	7f85b3b7          	lui	t2,0x7f85b
    ab48:	d1cf5097          	auipc	ra,0xd1cf5
    ab4c:	9b2af337          	lui	t1,0x9b2af
    ab50:	00e1511b          	srliw	sp,sp,0xe
    ab54:	0cc36097          	auipc	ra,0xcc36
    ab58:	403180bb          	subw	ra,gp,gp
    ab5c:	50d4f137          	lui	sp,0x50d4f
    ab60:	3c61fa63          	bgeu	gp,t1,0xaf34
    ab64:	3c61e863          	bltu	gp,t1,0xaf34
    ab68:	401157b3          	sra	a5,sp,ra
    ab6c:	023146b3          	div	a3,sp,gp
    ab70:	d211831b          	addiw	t1,gp,-735
    ab74:	01331113          	slli	sp,t1,0x13
    ab78:	b791b293          	sltiu	t0,gp,-1159
    ab7c:	9df17193          	andi	gp,sp,-1569
    ab80:	8151019b          	addiw	gp,sp,-2027
    ab84:	0211d0b3          	divu	ra,gp,ra
    ab88:	001132b3          	sltu	t0,sp,ra
    ab8c:	0010c3b3          	xor	t2,ra,ra
    ab90:	0015813b          	addw	sp,a1,ra
    ab94:	69e00113          	li	sp,1694
    ab98:	0273c0b3          	div	ra,t2,t2
    ab9c:	1e64de37          	lui	t3,0x1e64d
    aba0:	26327113          	andi	sp,tp,611
    aba4:	6b324993          	xori	s3,tp,1715
    aba8:	00f19113          	slli	sp,gp,0xf
    abac:	003194b3          	sll	s1,gp,gp
    abb0:	402081bb          	subw	gp,ra,sp
    abb4:	00317133          	and	sp,sp,gp
    abb8:	b3503193          	sltiu	gp,zero,-1227
    abbc:	ffc652b7          	lui	t0,0xffc65
    abc0:	91ac11b7          	lui	gp,0x91ac1
    abc4:	0166911b          	slliw	sp,a3,0x16
    abc8:	2cc10013          	addi	zero,sp,716 # 0x50d4f2cc
    abcc:	002350bb          	srlw	ra,t1,sp
    abd0:	001000bb          	addw	ra,zero,ra
    abd4:	4c71f297          	auipc	t0,0x4c71f
    abd8:	46217863          	bgeu	sp,sp,0xb048
    abdc:	46216663          	bltu	sp,sp,0xb048
    abe0:	2e4693b7          	lui	t2,0x2e469
    abe4:	f4d16193          	ori	gp,sp,-179
    abe8:	41f1511b          	sraiw	sp,sp,0x1f
    abec:	478c4097          	auipc	ra,0x478c4
    abf0:	004151bb          	srlw	gp,sp,tp
    abf4:	fd60b393          	sltiu	t2,ra,-42
    abf8:	9741e213          	ori	tp,gp,-1676
    abfc:	0021f1b3          	and	gp,gp,sp
    ac00:	0225f0b3          	remu	ra,a1,sp
    ac04:	027161b3          	rem	gp,sp,t2
    ac08:	03915093          	srli	ra,sp,0x39
    ac0c:	0133909b          	slliw	ra,t2,0x13
    ac10:	003223b3          	slt	t2,tp,gp
    ac14:	50b72117          	auipc	sp,0x50b72
    ac18:	02024133          	div	sp,tp,zero
    ac1c:	4001d113          	srai	sp,gp,0x0
    ac20:	85c17093          	andi	ra,sp,-1956
    ac24:	4020d093          	srai	ra,ra,0x2
    ac28:	1a31b113          	sltiu	sp,gp,419
    ac2c:	0011d1b3          	srl	gp,gp,ra
    ac30:	001090b3          	sll	ra,ra,ra
    ac34:	bfa55217          	auipc	tp,0xbfa55
    ac38:	0263c033          	div	zero,t2,t1
    ac3c:	41b1511b          	sraiw	sp,sp,0x1b
    ac40:	536df1b7          	lui	gp,0x536df
    ac44:	01f1531b          	srliw	t1,sp,0x1f
    ac48:	20736193          	ori	gp,t1,519
    ac4c:	0211e133          	rem	sp,gp,ra
    ac50:	00611233          	sll	tp,sp,t1
    ac54:	ae59b137          	lui	sp,0xae59b
    ac58:	14116113          	ori	sp,sp,321
    ac5c:	001081bb          	addw	gp,ra,ra
    ac60:	6910f013          	andi	zero,ra,1681
    ac64:	403180bb          	subw	ra,gp,gp
    ac68:	c42180e3          	beq	gp,sp,0xa8a8
    ac6c:	c3dff1ef          	jal	gp,0xa8a8
    ac70:	43a05113          	srai	sp,zero,0x3a
    ac74:	0010c133          	xor	sp,ra,ra
    ac78:	0c30a137          	lui	sp,0xc30a
    ac7c:	0025d233          	srl	tp,a1,sp
    ac80:	e8c0c393          	xori	t2,ra,-372
    ac84:	629d4117          	auipc	sp,0x629d4
    ac88:	00f19193          	slli	gp,gp,0xf
    ac8c:	4111d133          	sra	sp,gp,a7
    ac90:	4481a113          	slti	sp,gp,1096
    ac94:	4021013b          	subw	sp,sp,sp
    ac98:	d4a1e193          	ori	gp,gp,-694
    ac9c:	0022f133          	and	sp,t0,sp
    aca0:	cd74839b          	addiw	t2,s1,-809
    aca4:	001153bb          	srlw	t2,sp,ra
    aca8:	0260d113          	srli	sp,ra,0x26
    acac:	193c6137          	lui	sp,0x193c6
    acb0:	021181b3          	mul	gp,gp,ra
    acb4:	8dcf2137          	lui	sp,0x8dcf2
    acb8:	f2f1011b          	addiw	sp,sp,-209
    acbc:	00209133          	sll	sp,ra,sp
    acc0:	0012d233          	srl	tp,t0,ra
    acc4:	021160b3          	rem	ra,sp,ra
    acc8:	0011919b          	slliw	gp,gp,0x1
    accc:	0270c0b3          	div	ra,ra,t2
    acd0:	01e1111b          	slliw	sp,sp,0x1e
    acd4:	230b8097          	auipc	ra,0x230b8
    acd8:	00227033          	and	zero,tp,sp
    acdc:	fb805097          	auipc	ra,0xfb805
    ace0:	3bea6017          	auipc	zero,0x3bea6
    ace4:	021150b3          	divu	ra,sp,ra
    ace8:	02a3d013          	srli	zero,t2,0x2a
    acec:	dad1001b          	addiw	zero,sp,-595
    acf0:	00000117          	auipc	sp,0x0
    acf4:	c4810067          	jr	-952(sp) # 0xa938
    acf8:	a3f47397          	auipc	t2,0xa3f47
    acfc:	03519193          	slli	gp,gp,0x35
    ad00:	00c2d01b          	srliw	zero,t0,0xc
    ad04:	0270f0b3          	remu	ra,ra,t2
    ad08:	0040a1b3          	slt	gp,ra,tp
    ad0c:	4f489237          	lui	tp,0x4f489
    ad10:	00129113          	slli	sp,t0,0x1
    ad14:	0000c133          	xor	sp,ra,zero
    ad18:	9730b093          	sltiu	ra,ra,-1677
    ad1c:	35dab037          	lui	zero,0x35dab
    ad20:	002340b3          	xor	ra,t1,sp
    ad24:	be53c213          	xori	tp,t2,-1051
    ad28:	0200d133          	divu	sp,ra,zero
    ad2c:	0020b133          	sltu	sp,ra,sp
    ad30:	14a1e113          	ori	sp,gp,330
    ad34:	00e0f3b3          	and	t2,ra,a4
    ad38:	0011d1b3          	srl	gp,gp,ra
    ad3c:	f410d617          	auipc	a2,0xf410d
    ad40:	2941a193          	slti	gp,gp,660
    ad44:	ceb480b7          	lui	ra,0xceb48
    ad48:	e5b72097          	auipc	ra,0xe5b72
    ad4c:	0021e233          	or	tp,gp,sp
    ad50:	60052a17          	auipc	s4,0x60052
    ad54:	40e1519b          	sraiw	gp,sp,0xe
    ad58:	8191009b          	addiw	ra,sp,-2023
    ad5c:	004330b3          	sltu	ra,t1,tp
    ad60:	00167733          	and	a4,a2,ra
    ad64:	c457f0b7          	lui	ra,0xc457f
    ad68:	0220e133          	rem	sp,ra,sp
    ad6c:	02115133          	divu	sp,sp,ra
    ad70:	0031b333          	sltu	t1,gp,gp
    ad74:	2c30a013          	slti	zero,ra,707
    ad78:	01269013          	slli	zero,a3,0x12
    ad7c:	8321809b          	addiw	ra,gp,-1998
    ad80:	84baa137          	lui	sp,0x84baa
    ad84:	00000193          	li	gp,0
    ad88:	12018863          	beqz	gp,0xaeb8
    ad8c:	5bfad197          	auipc	gp,0x5bfad
    ad90:	1fa13093          	sltiu	ra,sp,506
    ad94:	0031b133          	sltu	sp,gp,gp
    ad98:	a0910093          	addi	ra,sp,-1527 # 0xffffffff84ba9a09
    ad9c:	29b0a817          	auipc	a6,0x29b0a
    ada0:	022070b3          	remu	ra,zero,sp
    ada4:	00b37033          	and	zero,t1,a1
    ada8:	003352b3          	srl	t0,t1,gp
    adac:	2da86137          	lui	sp,0x2da86
    adb0:	406151bb          	sraw	gp,sp,t1
    adb4:	4001013b          	subw	sp,sp,zero
    adb8:	003110bb          	sllw	ra,sp,gp
    adbc:	4182511b          	sraiw	sp,tp,0x18
    adc0:	0011d133          	srl	sp,gp,ra
    adc4:	003050b3          	srl	ra,zero,gp
    adc8:	df914113          	xori	sp,sp,-519
    adcc:	00b2511b          	srliw	sp,tp,0xb
    add0:	080280b7          	lui	ra,0x8028
    add4:	001110bb          	sllw	ra,sp,ra
    add8:	a162e213          	ori	tp,t0,-1514
    addc:	41c0d09b          	sraiw	ra,ra,0x1c
    ade0:	b701a193          	slti	gp,gp,-1168
    ade4:	86216193          	ori	gp,sp,-1950
    ade8:	02119113          	slli	sp,gp,0x21
    adec:	dc48f297          	auipc	t0,0xdc48f
    adf0:	4050d9bb          	sraw	s3,ra,t0
    adf4:	4021d6b3          	sra	a3,gp,sp
    adf8:	003172b3          	and	t0,sp,gp
    adfc:	f555a297          	auipc	t0,0xf555a
    ae00:	c7613193          	sltiu	gp,sp,-906
    ae04:	0221f033          	remu	zero,gp,sp
    ae08:	4072833b          	subw	t1,t0,t2
    ae0c:	00238033          	add	zero,t2,sp
    ae10:	0022d1bb          	srlw	gp,t0,sp
    ae14:	0150d31b          	srliw	t1,ra,0x15
    ae18:	6a018013          	addi	zero,gp,1696 # 0x5bfb842c
    ae1c:	00018193          	mv	gp,gp
    ae20:	3e318063          	beq	gp,gp,0xb200
    ae24:	0201d0b3          	divu	ra,gp,zero
    ae28:	0011b6b3          	sltu	a3,gp,ra
    ae2c:	003100b3          	add	ra,sp,gp
    ae30:	43dfe137          	lui	sp,0x43dfe
    ae34:	0221c0b3          	div	ra,gp,sp
    ae38:	4020813b          	subw	sp,ra,sp
    ae3c:	f3ef7117          	auipc	sp,0xf3ef7
    ae40:	02218033          	mul	zero,gp,sp
    ae44:	03335093          	srli	ra,t1,0x33
    ae48:	26f12093          	slti	ra,sp,623
    ae4c:	0030bf33          	sltu	t5,ra,gp
    ae50:	020de333          	rem	t1,s11,zero
    ae54:	1c2b7337          	lui	t1,0x1c2b7
    ae58:	d1f94117          	auipc	sp,0xd1f94
    ae5c:	4040813b          	subw	sp,ra,tp
    ae60:	5970e113          	ori	sp,ra,1431
    ae64:	005083bb          	addw	t2,ra,t0
    ae68:	9907c117          	auipc	sp,0x9907c
    ae6c:	03819113          	slli	sp,gp,0x38
    ae70:	0030b6b3          	sltu	a3,ra,gp
    ae74:	76d0f113          	andi	sp,ra,1901
    ae78:	0121d09b          	srliw	ra,gp,0x12
    ae7c:	0ad461b7          	lui	gp,0xad46
    ae80:	6940819b          	addiw	gp,ra,1684
    ae84:	0701a193          	slti	gp,gp,112
    ae88:	005091b3          	sll	gp,ra,t0
    ae8c:	fbb99097          	auipc	ra,0xfbb99
    ae90:	4020d13b          	sraw	sp,ra,sp
    ae94:	a9e13113          	sltiu	sp,sp,-1378
    ae98:	0034c133          	xor	sp,s1,gp
    ae9c:	74e47117          	auipc	sp,0x74e47
    aea0:	f460e113          	ori	sp,ra,-186
    aea4:	0036129b          	slliw	t0,a2,0x3
    aea8:	44887797          	auipc	a5,0x44887
    aeac:	3e81031b          	addiw	t1,sp,1000
    aeb0:	964006e3          	beq	zero,tp,0xa81c
    aeb4:	969ff36f          	jal	t1,0xa81c
    aeb8:	4023dc33          	sra	s8,t2,sp
    aebc:	9ac38193          	addi	gp,t2,-1620 # 0xffffffffa3f516a4
    aec0:	4023d13b          	sraw	sp,t2,sp
    aec4:	003093b3          	sll	t2,ra,gp
    aec8:	00415133          	srl	sp,sp,tp
    aecc:	00112133          	slt	sp,sp,ra
    aed0:	0061d31b          	srliw	t1,gp,0x6
    aed4:	4b61a093          	slti	ra,gp,1206
    aed8:	002350b3          	srl	ra,t1,sp
    aedc:	0211f0b3          	remu	ra,gp,ra
    aee0:	0291e033          	rem	zero,gp,s1
    aee4:	f74ef2b7          	lui	t0,0xf74ef
    aee8:	23b81497          	auipc	s1,0x23b81
    aeec:	01d1511b          	srliw	sp,sp,0x1d
    aef0:	0021e133          	or	sp,gp,sp
    aef4:	003170b3          	and	ra,sp,gp
    aef8:	8b33a1b7          	lui	gp,0x8b33a
    aefc:	303cd1b7          	lui	gp,0x303cd
    af00:	02508133          	mul	sp,ra,t0
    af04:	f735f1b7          	lui	gp,0xf735f
    af08:	01216333          	or	t1,sp,s2
    af0c:	0020f133          	and	sp,ra,sp
    af10:	01b1101b          	slliw	zero,sp,0x1b
    af14:	1db1e393          	ori	t2,gp,475
    af18:	02d14133          	div	sp,sp,a3
    af1c:	0c0ba097          	auipc	ra,0xc0ba
    af20:	4161519b          	sraiw	gp,sp,0x16
    af24:	0050933b          	sllw	t1,ra,t0
    af28:	22b6e1b7          	lui	gp,0x22b6e
    af2c:	1a115863          	bge	sp,ra,0xb0dc
    af30:	1a114663          	blt	sp,ra,0xb0dc
    af34:	0220e0b3          	rem	ra,ra,sp
    af38:	bec1a693          	slti	a3,gp,-1044
    af3c:	63607093          	andi	ra,zero,1590
    af40:	b1e20113          	addi	sp,tp,-1250 # 0x4f488b1e
    af44:	2ca0c113          	xori	sp,ra,714
    af48:	91d36093          	ori	ra,t1,-1763
    af4c:	001171b3          	and	gp,sp,ra
    af50:	0032e1b3          	or	gp,t0,gp
    af54:	000091b3          	sll	gp,ra,zero
    af58:	2ced019b          	addiw	gp,s10,718
    af5c:	002181b3          	add	gp,gp,sp
    af60:	403351b3          	sra	gp,t1,gp
    af64:	0020e0b3          	or	ra,ra,sp
    af68:	0020da33          	srl	s4,ra,sp
    af6c:	d91d7197          	auipc	gp,0xd91d7
    af70:	02635333          	divu	t1,t1,t1
    af74:	401300bb          	subw	ra,t1,ra
    af78:	00330233          	add	tp,t1,gp
    af7c:	b590c213          	xori	tp,ra,-1191
    af80:	24b1e093          	ori	ra,gp,587
    af84:	e4854237          	lui	tp,0xe4854
    af88:	0001119b          	slliw	gp,sp,0x0
    af8c:	0200e113          	ori	sp,ra,32
    af90:	00334133          	xor	sp,t1,gp
    af94:	405900bb          	subw	ra,s2,t0
    af98:	c3483117          	auipc	sp,0xc3483
    af9c:	0210f0b3          	remu	ra,ra,ra
    afa0:	01d0919b          	slliw	gp,ra,0x1d
    afa4:	fad6811b          	addiw	sp,a3,-83
    afa8:	001180b3          	add	ra,gp,ra
    afac:	020381b3          	mul	gp,t2,zero
    afb0:	0220d133          	divu	sp,ra,sp
    afb4:	dc908ce3          	beq	ra,s1,0xad8c
    afb8:	dd5ff1ef          	jal	gp,0xad8c
    afbc:	b633c113          	xori	sp,t2,-1181
    afc0:	4001513b          	sraw	sp,sp,zero
    afc4:	5842f197          	auipc	gp,0x5842f
    afc8:	00b183bb          	addw	t2,gp,a1
    afcc:	19c72117          	auipc	sp,0x19c72
    afd0:	00e140b3          	xor	ra,sp,a4
    afd4:	8f18d117          	auipc	sp,0x8f18d
    afd8:	6b088f9b          	addiw	t6,a7,1712
    afdc:	fda12213          	slti	tp,sp,-38
    afe0:	a9a36193          	ori	gp,t1,-1382
    afe4:	020150b3          	divu	ra,sp,zero
    afe8:	3b3ba097          	auipc	ra,0x3b3ba
    afec:	403151bb          	sraw	gp,sp,gp
    aff0:	00b0d11b          	srliw	sp,ra,0xb
    aff4:	9ae65217          	auipc	tp,0x9ae65
    aff8:	15c00093          	li	ra,348
    affc:	001091b3          	sll	gp,ra,ra
    b000:	1c6180b7          	lui	ra,0x1c618
    b004:	3dc940b7          	lui	ra,0x3dc94
    b008:	2d90a193          	slti	gp,ra,729
    b00c:	0220e133          	rem	sp,ra,sp
    b010:	0001119b          	slliw	gp,sp,0x0
    b014:	02530133          	mul	sp,t1,t0
    b018:	002381b3          	add	gp,t2,sp
    b01c:	fb838113          	addi	sp,t2,-72
    b020:	11292037          	lui	zero,0x11292
    b024:	7b00a113          	slti	sp,ra,1968
    b028:	002092b3          	sll	t0,ra,sp
    b02c:	0050e1b3          	or	gp,ra,t0
    b030:	cc3323b7          	lui	t2,0xcc332
    b034:	0030f1b3          	and	gp,ra,gp
    b038:	01429093          	slli	ra,t0,0x14
    b03c:	0101109b          	slliw	ra,sp,0x10
    b040:	12120863          	beq	tp,ra,0xb170
    b044:	12c000ef          	jal	ra,0xb170
    b048:	f580e193          	ori	gp,ra,-168
    b04c:	a3f10213          	addi	tp,sp,-1473 # 0xffffffff8f197a13
    b050:	01f0913b          	sllw	sp,ra,t6
    b054:	021171b3          	remu	gp,sp,ra
    b058:	012fd19b          	srliw	gp,t6,0x12
    b05c:	401181bb          	subw	gp,gp,ra
    b060:	39c0b193          	sltiu	gp,ra,924
    b064:	8bb24113          	xori	sp,tp,-1861
    b068:	0230d0b3          	divu	ra,ra,gp
    b06c:	001152b3          	srl	t0,sp,ra
    b070:	0011b9b3          	sltu	s3,gp,ra
    b074:	001381bb          	addw	gp,t2,ra
    b078:	0011c033          	xor	zero,gp,ra
    b07c:	003120b3          	slt	ra,sp,gp
    b080:	001131b3          	sltu	gp,sp,ra
    b084:	2661d137          	lui	sp,0x2661d
    b088:	0013133b          	sllw	t1,t1,ra
    b08c:	0012e1b3          	or	gp,t0,ra
    b090:	e2d2d137          	lui	sp,0xe2d2d
    b094:	0061d11b          	srliw	sp,gp,0x6
    b098:	4330d113          	srai	sp,ra,0x33
    b09c:	01921113          	slli	sp,tp,0x19
    b0a0:	00104133          	xor	sp,zero,ra
    b0a4:	01271b1b          	slliw	s6,a4,0x12
    b0a8:	03a360b3          	rem	ra,t1,s10
    b0ac:	798682b7          	lui	t0,0x79868
    b0b0:	24a3009b          	addiw	ra,t1,586
    b0b4:	0211c0b3          	div	ra,gp,ra
    b0b8:	df9761b7          	lui	gp,0xdf976
    b0bc:	a0308113          	addi	sp,ra,-1533 # 0x3dc93a03
    b0c0:	0401031b          	addiw	t1,sp,64
    b0c4:	26827393          	andi	t2,tp,616
    b0c8:	30510313          	addi	t1,sp,773 # 0xffffffffe2d2d305
    b0cc:	0000c0b3          	xor	ra,ra,zero
    b0d0:	001130b3          	sltu	ra,sp,ra
    b0d4:	00238263          	beq	t2,sp,0xb0d8
    b0d8:	eb4ff26f          	jal	tp,0xa78c
    b0dc:	0021b133          	sltu	sp,gp,sp
    b0e0:	c0812393          	slti	t2,sp,-1016
    b0e4:	41d18fbb          	subw	t6,gp,t4
    b0e8:	704a11b7          	lui	gp,0x704a1
    b0ec:	01f0911b          	slliw	sp,ra,0x1f
    b0f0:	403181bb          	subw	gp,gp,gp
    b0f4:	6cc00693          	li	a3,1740
    b0f8:	40115233          	sra	tp,sp,ra
    b0fc:	18118093          	addi	ra,gp,385 # 0x704a1181
    b100:	01a371b3          	and	gp,t1,s10
    b104:	ef518193          	addi	gp,gp,-267
    b108:	6654b197          	auipc	gp,0x6654b
    b10c:	0010c2b3          	xor	t0,ra,ra
    b110:	4021013b          	subw	sp,sp,sp
    b114:	4031033b          	subw	t1,sp,gp
    b118:	d5414093          	xori	ra,sp,-684
    b11c:	91e28113          	addi	sp,t0,-1762 # 0x7986791e
    b120:	4041d0b3          	sra	ra,gp,tp
    b124:	421ac1b7          	lui	gp,0x421ac
    b128:	6be1a093          	slti	ra,gp,1726
    b12c:	6b11b093          	sltiu	ra,gp,1713
    b130:	021041b3          	div	gp,zero,ra
    b134:	1fe72093          	slti	ra,a4,510
    b138:	40f35093          	srai	ra,t1,0xf
    b13c:	0010803b          	addw	zero,ra,ra
    b140:	95072397          	auipc	t2,0x95072
    b144:	9e24e1b7          	lui	gp,0x9e24e
    b148:	0015e133          	or	sp,a1,ra
    b14c:	f7e20f13          	addi	t5,tp,-130 # 0xffffffff9ae6ff72
    b150:	80c820b7          	lui	ra,0x80c82
    b154:	4071591b          	sraiw	s2,sp,0x7
    b158:	0030113b          	sllw	sp,zero,gp
    b15c:	01e1d11b          	srliw	sp,gp,0x1e
    b160:	bbe0811b          	addiw	sp,ra,-1090
    b164:	0203d0b3          	divu	ra,t2,zero
    b168:	00000197          	auipc	gp,0x0
    b16c:	e54181e7          	jalr	gp,-428(gp) # 0xafbc
    b170:	0171131b          	slliw	t1,sp,0x17
    b174:	375f8917          	auipc	s2,0x375f8
    b178:	022155b3          	divu	a1,sp,sp
    b17c:	4060d0b3          	sra	ra,ra,t1
    b180:	00419113          	slli	sp,gp,0x4
    b184:	2f60879b          	addiw	a5,ra,758
    b188:	b063e093          	ori	ra,t2,-1274
    b18c:	4041d093          	srai	ra,gp,0x4
    b190:	00421133          	sll	sp,tp,tp
    b194:	9d58c117          	auipc	sp,0x9d58c
    b198:	40805193          	srai	gp,zero,0x8
    b19c:	003191bb          	sllw	gp,gp,gp
    b1a0:	0020b133          	sltu	sp,ra,sp
    b1a4:	01b4101b          	slliw	zero,s0,0x1b
    b1a8:	023371b3          	remu	gp,t1,gp
    b1ac:	6aa18113          	addi	sp,gp,1706
    b1b0:	0070e133          	or	sp,ra,t2
    b1b4:	40608133          	sub	sp,ra,t1
    b1b8:	003094bb          	sllw	s1,ra,gp
    b1bc:	f9603097          	auipc	ra,0xf9603
    b1c0:	20112113          	slti	sp,sp,513
    b1c4:	402050b3          	sra	ra,zero,sp
    b1c8:	e2e3c013          	xori	zero,t2,-466
    b1cc:	0041a0b3          	slt	ra,gp,tp
    b1d0:	8955c193          	xori	gp,a1,-1899
    b1d4:	9aefbc37          	lui	s8,0x9aefb
    b1d8:	021271b3          	remu	gp,tp,ra
    b1dc:	0141919b          	slliw	gp,gp,0x14
    b1e0:	00b5d21b          	srliw	tp,a1,0xb
    b1e4:	001173b3          	and	t2,sp,ra
    b1e8:	0230e1b3          	rem	gp,ra,gp
    b1ec:	5a867017          	auipc	zero,0x5a867
    b1f0:	4d820513          	addi	a0,tp,1240 # 0x4d8
    b1f4:	c6a0c217          	auipc	tp,0xc6a0c
    b1f8:	00258263          	beq	a1,sp,0xb1fc
    b1fc:	fccff0ef          	jal	ra,0xa9c8
    b200:	002361b3          	or	gp,t1,sp
    b204:	4020013b          	negw	sp,sp
    b208:	6583011b          	addiw	sp,t1,1624
    b20c:	0030b1b3          	sltu	gp,ra,gp
    b210:	0320b293          	sltiu	t0,ra,50
    b214:	4011813b          	subw	sp,gp,ra
    b218:	d83d6113          	ori	sp,s10,-637
    b21c:	0021003b          	addw	zero,sp,sp
    b220:	c1feb197          	auipc	gp,0xc1feb
    b224:	02e11313          	slli	t1,sp,0x2e
    b228:	9ef82197          	auipc	gp,0x9ef82
    b22c:	01e15213          	srli	tp,sp,0x1e
    b230:	0031e033          	or	zero,gp,gp
    b234:	b1708393          	addi	t2,ra,-1257 # 0xfffffffff960dcd3
    b238:	0241c0b3          	div	ra,gp,tp
    b23c:	002081bb          	addw	gp,ra,sp
    b240:	0011023b          	addw	tp,sp,ra
    b244:	18008313          	addi	t1,ra,384
    b248:	d77b0097          	auipc	ra,0xd77b0
    b24c:	0000f2b3          	and	t0,ra,zero
    b250:	70227093          	andi	ra,tp,1794
    b254:	0116e133          	or	sp,a3,a7
    b258:	001110bb          	sllw	ra,sp,ra
    b25c:	02d11013          	slli	zero,sp,0x2d
    b260:	02315033          	divu	zero,sp,gp
    b264:	00239133          	sll	sp,t2,sp
    b268:	fdee80b7          	lui	ra,0xfdee8
    b26c:	0020d4b3          	srl	s1,ra,sp
    b270:	40525333          	sra	t1,tp,t0
    b274:	0215c133          	div	sp,a1,ra
    b278:	0184d09b          	srliw	ra,s1,0x18
    b27c:	4020d0bb          	sraw	ra,ra,sp
    b280:	0013d13b          	srlw	sp,t2,ra
    b284:	02228133          	mul	sp,t0,sp
    b288:	0021f7b3          	and	a5,gp,sp
    b28c:	00310263          	beq	sp,gp,0xb290
    b290:	fc8ff16f          	jal	sp,0xaa58
    b294:	453793b7          	lui	t2,0x45379
    b298:	0081511b          	srliw	sp,sp,0x8
    b29c:	002261b3          	or	gp,tp,sp
    b2a0:	0095e3b3          	or	t2,a1,s1
    b2a4:	6d5c21b7          	lui	gp,0x6d5c2
    b2a8:	37d96197          	auipc	gp,0x37d96
    b2ac:	40b2d193          	srai	gp,t0,0xb
    b2b0:	f53d21b7          	lui	gp,0xf53d2
    b2b4:	0261fcb3          	remu	s9,gp,t1
    b2b8:	c1e13193          	sltiu	gp,sp,-994
    b2bc:	1e91031b          	addiw	t1,sp,489
    b2c0:	03619193          	slli	gp,gp,0x36
    b2c4:	004141b3          	xor	gp,sp,tp
    b2c8:	004080bb          	addw	ra,ra,tp
    b2cc:	0011e9b3          	or	s3,gp,ra
    b2d0:	3c7a2193          	slti	gp,s4,967
    b2d4:	cc71ad93          	slti	s11,gp,-825
    b2d8:	668fd117          	auipc	sp,0x668fd
    b2dc:	40a64017          	auipc	zero,0x40a64
    b2e0:	403b523b          	sraw	tp,s6,gp
    b2e4:	c7f13293          	sltiu	t0,sp,-897
    b2e8:	a43bf137          	lui	sp,0xa43bf
    b2ec:	023170b3          	remu	ra,sp,gp
    b2f0:	25012193          	slti	gp,sp,592
    b2f4:	a251f113          	andi	sp,gp,-1499
    b2f8:	c961c213          	xori	tp,gp,-874
    b2fc:	0d1f30b7          	lui	ra,0xd1f3
    b300:	de11c113          	xori	sp,gp,-543
    b304:	6e12f137          	lui	sp,0x6e12f
    b308:	00425233          	srl	tp,tp,tp
    b30c:	0020c7b3          	xor	a5,ra,sp
    b310:	0231e0b3          	rem	ra,gp,gp
    b314:	95cc3117          	auipc	sp,0x95cc3
    b318:	00110263          	beq	sp,ra,0xb31c
    b31c:	0210036f          	jal	t1,0xbb3c
    b320:	cf822193          	slti	gp,tp,-776
    b324:	a0807193          	andi	gp,zero,-1528
    b328:	4a880317          	auipc	t1,0x4a880
    b32c:	001360b3          	or	ra,t1,ra
    b330:	000121b3          	sltz	gp,sp
    b334:	44405117          	auipc	sp,0x44405
    b338:	8d9ce097          	auipc	ra,0x8d9ce
    b33c:	8cf1019b          	addiw	gp,sp,-1841
    b340:	03d11113          	slli	sp,sp,0x3d
    b344:	c8323113          	sltiu	sp,tp,-893
    b348:	90f102b7          	lui	t0,0x90f10
    b34c:	002111bb          	sllw	gp,sp,sp
    b350:	02410133          	mul	sp,sp,tp
    b354:	b2a34097          	auipc	ra,0xb2a34
    b358:	02314133          	div	sp,sp,gp
    b35c:	001251b3          	srl	gp,tp,ra
    b360:	4080d31b          	sraiw	t1,ra,0x8
    b364:	401580b3          	sub	ra,a1,ra
    b368:	407181b3          	sub	gp,gp,t2
    b36c:	4030d233          	sra	tp,ra,gp
    b370:	d59bc197          	auipc	gp,0xd59bc
    b374:	b0c1039b          	addiw	t2,sp,-1268
    b378:	400351bb          	sraw	gp,t1,zero
    b37c:	4393d593          	srai	a1,t2,0x39
    b380:	022081b3          	mul	gp,ra,sp
    b384:	40218033          	sub	zero,gp,sp
    b388:	1f7b1117          	auipc	sp,0x1f7b1
    b38c:	bfc0c113          	xori	sp,ra,-1028
    b390:	d03fe137          	lui	sp,0xd03fe
    b394:	4051523b          	sraw	tp,sp,t0
    b398:	aba13093          	sltiu	ra,sp,-1350
    b39c:	eae0a193          	slti	gp,ra,-338
    b3a0:	00008093          	mv	ra,ra
    b3a4:	3e108263          	beq	ra,ra,0xb788
    b3a8:	af90d097          	auipc	ra,0xaf90d
    b3ac:	e0873397          	auipc	t2,0xe0873
    b3b0:	403150b3          	sra	ra,sp,gp
    b3b4:	0150d093          	srli	ra,ra,0x15
    b3b8:	0021a3b3          	slt	t2,gp,sp
    b3bc:	5c7f9097          	auipc	ra,0x5c7f9
    b3c0:	003111bb          	sllw	gp,sp,gp
    b3c4:	cd833693          	sltiu	a3,t1,-808
    b3c8:	fa4310b7          	lui	ra,0xfa431
    b3cc:	00119133          	sll	sp,gp,ra
    b3d0:	a6b0a193          	slti	gp,ra,-1429
    b3d4:	40b08133          	sub	sp,ra,a1
    b3d8:	fb013693          	sltiu	a3,sp,-80
    b3dc:	03f45197          	auipc	gp,0x3f45
    b3e0:	403103b3          	sub	t2,sp,gp
    b3e4:	00116233          	or	tp,sp,ra
    b3e8:	6c226213          	ori	tp,tp,1730
    b3ec:	4071d6bb          	sraw	a3,gp,t2
    b3f0:	02059013          	slli	zero,a1,0x20
    b3f4:	00b04033          	xor	zero,zero,a1
    b3f8:	0fe03797          	auipc	a5,0xfe03
    b3fc:	003c183b          	sllw	a6,s8,gp
    b400:	0221c0b3          	div	ra,gp,sp
    b404:	ce5781b7          	lui	gp,0xce578
    b408:	003c51bb          	srlw	gp,s8,gp
    b40c:	021001b3          	mul	gp,zero,ra
    b410:	b641cd93          	xori	s11,gp,-1180
    b414:	d89e22b7          	lui	t0,0xd89e2
    b418:	b88ab0b7          	lui	ra,0xb88ab
    b41c:	1c637117          	auipc	sp,0x1c637
    b420:	00115c33          	srl	s8,sp,ra
    b424:	0031d0bb          	srlw	ra,gp,gp
    b428:	0b324193          	xori	gp,tp,179
    b42c:	7c818097          	auipc	ra,0x7c818
    b430:	e67082e3          	beq	ra,t2,0xb294
    b434:	e61ff1ef          	jal	gp,0xb294
    b438:	02318233          	mul	tp,gp,gp
    b43c:	704c8117          	auipc	sp,0x704c8
    b440:	007171b3          	and	gp,sp,t2
    b444:	ee214137          	lui	sp,0xee214
    b448:	3f98f0b7          	lui	ra,0x3f98f
    b44c:	69f64137          	lui	sp,0x69f64
    b450:	5d314793          	xori	a5,sp,1491
    b454:	8a7d1117          	auipc	sp,0x8a7d1
    b458:	de01f313          	andi	t1,gp,-544
    b45c:	088181b7          	lui	gp,0x8818
    b460:	309ec313          	xori	t1,t4,777
    b464:	001191bb          	sllw	gp,gp,ra
    b468:	0010e133          	or	sp,ra,ra
    b46c:	fe8041b7          	lui	gp,0xfe804
    b470:	023160b3          	rem	ra,sp,gp
    b474:	009081b3          	add	gp,ra,s1
    b478:	1cd3e0b7          	lui	ra,0x1cd3e
    b47c:	09c2f897          	auipc	a7,0x9c2f
    b480:	401151bb          	sraw	gp,sp,ra
    b484:	02220133          	mul	sp,tp,sp
    b488:	f5d0811b          	addiw	sp,ra,-163
    b48c:	001113bb          	sllw	t2,sp,ra
    b490:	786c2097          	auipc	ra,0x786c2
    b494:	0210e133          	rem	sp,ra,ra
    b498:	23300193          	li	gp,563
    b49c:	b130c093          	xori	ra,ra,-1261
    b4a0:	1110a193          	slti	gp,ra,273
    b4a4:	0121111b          	slliw	sp,sp,0x12
    b4a8:	0260d0b3          	divu	ra,ra,t1
    b4ac:	4027d61b          	sraiw	a2,a5,0x2
    b4b0:	8d21011b          	addiw	sp,sp,-1838
    b4b4:	00530263          	beq	t1,t0,0xb4b8
    b4b8:	061001ef          	jal	gp,0xbd18
    b4bc:	40318033          	sub	zero,gp,gp
    b4c0:	001160b3          	or	ra,sp,ra
    b4c4:	f4ef2137          	lui	sp,0xf4ef2
    b4c8:	00c0911b          	slliw	sp,ra,0xc
    b4cc:	8c0522b7          	lui	t0,0x8c052
    b4d0:	29008093          	addi	ra,ra,656 # 0x786cd720
    b4d4:	002e2133          	slt	sp,t3,sp
    b4d8:	0ea16093          	ori	ra,sp,234
    b4dc:	9fcbe137          	lui	sp,0x9fcbe
    b4e0:	000392bb          	sllw	t0,t2,zero
    b4e4:	00d5919b          	slliw	gp,a1,0xd
    b4e8:	00c17133          	and	sp,sp,a2
    b4ec:	dc646113          	ori	sp,s0,-570
    b4f0:	402151bb          	sraw	gp,sp,sp
    b4f4:	7762c1b7          	lui	gp,0x7762c
    b4f8:	fa61b113          	sltiu	sp,gp,-90
    b4fc:	9d7fe237          	lui	tp,0x9d7fe
    b500:	ef20819b          	addiw	gp,ra,-270
    b504:	402181b3          	sub	gp,gp,sp
    b508:	7c518093          	addi	ra,gp,1989 # 0x7762c7c5
    b50c:	f560f193          	andi	gp,ra,-170
    b510:	4012d0b3          	sra	ra,t0,ra
    b514:	8aca4797          	auipc	a5,0x8aca4
    b518:	002081bb          	addw	gp,ra,sp
    b51c:	ec2a8113          	addi	sp,s5,-318 # 0xffffffff86bd3ec2
    b520:	d35fb117          	auipc	sp,0xd35fb
    b524:	991b3197          	auipc	gp,0x991b3
    b528:	0000913b          	sllw	sp,ra,zero
    b52c:	0013c1b3          	xor	gp,t2,ra
    b530:	012211b3          	sll	gp,tp,s2
    b534:	1e96d197          	auipc	gp,0x1e96d
    b538:	2e874617          	auipc	a2,0x2e874
    b53c:	0010f1b3          	and	gp,ra,ra
    b540:	000c8193          	mv	gp,s9
    b544:	1b918c63          	beq	gp,s9,0xb6fc
    b548:	0110931b          	slliw	t1,ra,0x11
    b54c:	002101bb          	addw	gp,sp,sp
    b550:	01e0a1b3          	slt	gp,ra,t5
    b554:	0231d133          	divu	sp,gp,gp
    b558:	0011a133          	slt	sp,gp,ra
    b55c:	03700733          	mul	a4,zero,s7
    b560:	43cb33b7          	lui	t2,0x43cb3
    b564:	eff0e213          	ori	tp,ra,-257
    b568:	4030813b          	subw	sp,ra,gp
    b56c:	3bea7697          	auipc	a3,0x3bea7
    b570:	0260d1b3          	divu	gp,ra,t1
    b574:	aee0801b          	addiw	zero,ra,-1298
    b578:	89ba1097          	auipc	ra,0x89ba1
    b57c:	894340b7          	lui	ra,0x89434
    b580:	026080b3          	mul	ra,ra,t1
    b584:	02220233          	mul	tp,tp,sp
    b588:	0220e233          	rem	tp,ra,sp
    b58c:	01e1939b          	slliw	t2,gp,0x1e
    b590:	02317233          	remu	tp,sp,gp
    b594:	4021d133          	sra	sp,gp,sp
    b598:	02a29193          	slli	gp,t0,0x2a
    b59c:	7481c193          	xori	gp,gp,1864
    b5a0:	58c49297          	auipc	t0,0x58c49
    b5a4:	00018133          	add	sp,gp,zero
    b5a8:	01719113          	slli	sp,gp,0x17
    b5ac:	2d72e213          	ori	tp,t0,727
    b5b0:	020141b3          	div	gp,sp,zero
    b5b4:	002241b3          	xor	gp,tp,sp
    b5b8:	003111b3          	sll	gp,sp,gp
    b5bc:	07b12793          	slti	a5,sp,123
    b5c0:	40b15093          	srai	ra,sp,0xb
    b5c4:	1630f093          	andi	ra,ra,355
    b5c8:	0070d463          	bge	ra,t2,0xb5d0
    b5cc:	0070c263          	blt	ra,t2,0xb5d0
    b5d0:	9097a113          	slti	sp,a5,-1783
    b5d4:	400780bb          	subw	ra,a5,zero
    b5d8:	390a91b7          	lui	gp,0x390a9
    b5dc:	003121b3          	slt	gp,sp,gp
    b5e0:	41b0511b          	sraiw	sp,zero,0x1b
    b5e4:	a2028113          	addi	sp,t0,-1504 # 0x58c53fc0
    b5e8:	88a04093          	xori	ra,zero,-1910
    b5ec:	0021e1b3          	or	gp,gp,sp
    b5f0:	b861c213          	xori	tp,gp,-1146
    b5f4:	021043b3          	div	t2,zero,ra
    b5f8:	00d1d0bb          	srlw	ra,gp,a3
    b5fc:	004211b3          	sll	gp,tp,tp
    b600:	0020f233          	and	tp,ra,sp
    b604:	3e50d217          	auipc	tp,0x3e50d
    b608:	0341d093          	srli	ra,gp,0x34
    b60c:	02c1d3b3          	divu	t2,gp,a2
    b610:	41d1d19b          	sraiw	gp,gp,0x1d
    b614:	0011d0b3          	srl	ra,gp,ra
    b618:	8841c113          	xori	sp,gp,-1916
    b61c:	67ea43b7          	lui	t2,0x67ea4
    b620:	6b4a809b          	addiw	ra,s5,1716
    b624:	005611b3          	sll	gp,a2,t0
    b628:	7b0e01b7          	lui	gp,0x7b0e0
    b62c:	002151bb          	srlw	gp,sp,sp
    b630:	56d02113          	slti	sp,zero,1389
    b634:	d363011b          	addiw	sp,t1,-714
    b638:	02314133          	div	sp,sp,gp
    b63c:	006120b3          	slt	ra,sp,t1
    b640:	0010a3b3          	slt	t2,ra,ra
    b644:	00332033          	slt	zero,t1,gp
    b648:	0cc0a113          	slti	sp,ra,204
    b64c:	c081b113          	sltiu	sp,gp,-1016
    b650:	00000117          	auipc	sp,0x0
    b654:	1b410b67          	jalr	s6,436(sp) # 0xb804
    b658:	00e09193          	slli	gp,ra,0xe
    b65c:	7d0f3197          	auipc	gp,0x7d0f3
    b660:	24912097          	auipc	ra,0x24912
    b664:	a0f16193          	ori	gp,sp,-1521
    b668:	02f1d093          	srli	ra,gp,0x2f
    b66c:	0091109b          	slliw	ra,sp,0x9
    b670:	021180b3          	mul	ra,gp,ra
    b674:	0119c337          	lui	t1,0x119c
    b678:	01d306bb          	addw	a3,t1,t4
    b67c:	073fe097          	auipc	ra,0x73fe
    b680:	002191b3          	sll	gp,gp,sp
    b684:	0220c3b3          	div	t2,ra,sp
    b688:	00135133          	srl	sp,t1,ra
    b68c:	7a31e193          	ori	gp,gp,1955
    b690:	003083b3          	add	t2,ra,gp
    b694:	0251d3b3          	divu	t2,gp,t0
    b698:	af50809b          	addiw	ra,ra,-1291
    b69c:	0072c1b3          	xor	gp,t0,t2
    b6a0:	2b7f31b7          	lui	gp,0x2b7f3
    b6a4:	004181bb          	addw	gp,gp,tp
    b6a8:	4020d13b          	sraw	sp,ra,sp
    b6ac:	29eb9197          	auipc	gp,0x29eb9
    b6b0:	002081bb          	addw	gp,ra,sp
    b6b4:	0010813b          	addw	sp,ra,ra
    b6b8:	40b7511b          	sraiw	sp,a4,0xb
    b6bc:	8da2d0b7          	lui	ra,0x8da2d
    b6c0:	00d1d19b          	srliw	gp,gp,0xd
    b6c4:	d150a093          	slti	ra,ra,-747
    b6c8:	0020b033          	sltu	zero,ra,sp
    b6cc:	a040f113          	andi	sp,ra,-1532
    b6d0:	797c31b7          	lui	gp,0x797c3
    b6d4:	8991e093          	ori	ra,gp,-1895
    b6d8:	0031b333          	sltu	t1,gp,gp
    b6dc:	41518133          	sub	sp,gp,s5
    b6e0:	e720a093          	slti	ra,ra,-398
    b6e4:	7fead097          	auipc	ra,0x7fead
    b6e8:	2c63c397          	auipc	t2,0x2c63c
    b6ec:	02318133          	mul	sp,gp,gp
    b6f0:	0041e7b3          	or	a5,gp,tp
    b6f4:	3211fe63          	bgeu	gp,ra,0xba30
    b6f8:	3211ec63          	bltu	gp,ra,0xba30
    b6fc:	4035d133          	sra	sp,a1,gp
    b700:	583fa1b7          	lui	gp,0x583fa
    b704:	00127233          	and	tp,tp,ra
    b708:	7991b113          	sltiu	sp,gp,1945
    b70c:	403180b3          	sub	ra,gp,gp
    b710:	0230f0b3          	remu	ra,ra,gp
    b714:	021088b3          	mul	a7,ra,ra
    b718:	02307233          	remu	tp,zero,gp
    b71c:	02208133          	mul	sp,ra,sp
    b720:	e0cb61b7          	lui	gp,0xe0cb6
    b724:	022181b3          	mul	gp,gp,sp
    b728:	8d81b113          	sltiu	sp,gp,-1832
    b72c:	4090d213          	srai	tp,ra,0x9
    b730:	dc817197          	auipc	gp,0xdc817
    b734:	0100919b          	slliw	gp,ra,0x10
    b738:	0020f0b3          	and	ra,ra,sp
    b73c:	a6d1e513          	ori	a0,gp,-1427
    b740:	001155b3          	srl	a1,sp,ra
    b744:	002690b3          	sll	ra,a3,sp
    b748:	0001113b          	sllw	sp,sp,zero
    b74c:	ccc17093          	andi	ra,sp,-820
    b750:	1961801b          	addiw	zero,gp,406
    b754:	f2c03717          	auipc	a4,0xf2c03
    b758:	001000b3          	add	ra,zero,ra
    b75c:	4991e113          	ori	sp,gp,1177
    b760:	02318133          	mul	sp,gp,gp
    b764:	41f2d19b          	sraiw	gp,t0,0x1f
    b768:	55733193          	sltiu	gp,t1,1367
    b76c:	0003b0b3          	sltu	ra,t2,zero
    b770:	9e3e3097          	auipc	ra,0x9e3e3
    b774:	76b0c193          	xori	gp,ra,1899
    b778:	011151b3          	srl	gp,sp,a7
    b77c:	00f190bb          	sllw	ra,gp,a5
    b780:	72208663          	beq	ra,sp,0xbeac
    b784:	7280026f          	jal	tp,0xbeac
    b788:	00411013          	slli	zero,sp,0x4
    b78c:	021081b3          	mul	gp,ra,ra
    b790:	baf03113          	sltiu	sp,zero,-1105
    b794:	3c5950b7          	lui	ra,0x3c595
    b798:	42a15093          	srai	ra,sp,0x2a
    b79c:	99934193          	xori	gp,t1,-1639
    b7a0:	7c653497          	auipc	s1,0x7c653
    b7a4:	0031d3b3          	srl	t2,gp,gp
    b7a8:	401107b3          	sub	a5,sp,ra
    b7ac:	9001019b          	addiw	gp,sp,-1792
    b7b0:	0220e133          	rem	sp,ra,sp
    b7b4:	401d01bb          	subw	gp,s10,ra
    b7b8:	003121b3          	slt	gp,sp,gp
    b7bc:	c46e8097          	auipc	ra,0xc46e8
    b7c0:	4020d0bb          	sraw	ra,ra,sp
    b7c4:	bf413093          	sltiu	ra,sp,-1036
    b7c8:	00519113          	slli	sp,gp,0x5
    b7cc:	8be37c17          	auipc	s8,0x8be37
    b7d0:	0011c033          	xor	zero,gp,ra
    b7d4:	001111bb          	sllw	gp,sp,ra
    b7d8:	0010a133          	slt	sp,ra,ra
    b7dc:	5651ae93          	slti	t4,gp,1381
    b7e0:	003293bb          	sllw	t2,t0,gp
    b7e4:	0032929b          	slliw	t0,t0,0x3
    b7e8:	0021a0b3          	slt	ra,gp,sp
    b7ec:	02206033          	rem	zero,zero,sp
    b7f0:	53cea0b7          	lui	ra,0x53cea
    b7f4:	fc13e193          	ori	gp,t2,-63
    b7f8:	0021d13b          	srlw	sp,gp,sp
    b7fc:	00000197          	auipc	gp,0x0
    b800:	d4c180e7          	jalr	-692(gp) # 0xb548
    b804:	f03740b7          	lui	ra,0xf0374
    b808:	4030d0b3          	sra	ra,ra,gp
    b80c:	0040a133          	slt	sp,ra,tp
    b810:	80ac1097          	auipc	ra,0x80ac1
    b814:	6980c393          	xori	t2,ra,1688
    b818:	05f08013          	addi	zero,ra,95 # 0xffffffff80acc86f
    b81c:	02337133          	remu	sp,t1,gp
    b820:	00217133          	and	sp,sp,sp
    b824:	002091b3          	sll	gp,ra,sp
    b828:	02d281b3          	mul	gp,t0,a3
    b82c:	00108733          	add	a4,ra,ra
    b830:	51107113          	andi	sp,zero,1297
    b834:	1281e137          	lui	sp,0x1281e
    b838:	003010bb          	sllw	ra,zero,gp
    b83c:	45b1f093          	andi	ra,gp,1115
    b840:	4d5030b7          	lui	ra,0x4d503
    b844:	003150b3          	srl	ra,sp,gp
    b848:	40308d3b          	subw	s10,ra,gp
    b84c:	f9ec3193          	sltiu	gp,s8,-98
    b850:	9242c193          	xori	gp,t0,-1756
    b854:	a951819b          	addiw	gp,gp,-1387
    b858:	02f09193          	slli	gp,ra,0x2f
    b85c:	005110b3          	sll	ra,sp,t0
    b860:	02335093          	srli	ra,t1,0x23
    b864:	00014e33          	xor	t3,sp,zero
    b868:	401151bb          	sraw	gp,sp,ra
    b86c:	004001b3          	add	gp,zero,tp
    b870:	4011813b          	subw	sp,gp,ra
    b874:	022e71b3          	remu	gp,t3,sp
    b878:	e4f37093          	andi	ra,t1,-433
    b87c:	9ea90097          	auipc	ra,0x9ea90
    b880:	72274097          	auipc	ra,0x72274
    b884:	07a24393          	xori	t2,tp,122
    b888:	0021913b          	sllw	sp,gp,sp
    b88c:	bd954e17          	auipc	t3,0xbd954
    b890:	402081b3          	sub	gp,ra,sp
    b894:	401155bb          	sraw	a1,sp,ra
    b898:	00000097          	auipc	ra,0x0
    b89c:	00808367          	jalr	t1,8(ra) # 0xb8a0
    b8a0:	d6b08093          	addi	ra,ra,-661
    b8a4:	15e1b113          	sltiu	sp,gp,350
    b8a8:	20913293          	sltiu	t0,sp,521
    b8ac:	0062909b          	slliw	ra,t0,0x6
    b8b0:	4191519b          	sraiw	gp,sp,0x19
    b8b4:	524d3197          	auipc	gp,0x524d3
    b8b8:	e1ab4197          	auipc	gp,0xe1ab4
    b8bc:	d0d7e117          	auipc	sp,0xd0d7e
    b8c0:	9b71c093          	xori	ra,gp,-1609
    b8c4:	002154b3          	srl	s1,sp,sp
    b8c8:	de41f093          	andi	ra,gp,-540
    b8cc:	ca41e0b7          	lui	ra,0xca41e
    b8d0:	3c5b8017          	auipc	zero,0x3c5b8
    b8d4:	db408193          	addi	gp,ra,-588 # 0xffffffffca41ddb4
    b8d8:	02b09393          	slli	t2,ra,0x2b
    b8dc:	d6520093          	addi	ra,tp,-667 # 0x3e518369
    b8e0:	401180b3          	sub	ra,gp,ra
    b8e4:	a474b197          	auipc	gp,0xa474b
    b8e8:	a5c08113          	addi	sp,ra,-1444
    b8ec:	c461b013          	sltiu	zero,gp,-954
    b8f0:	a4a13113          	sltiu	sp,sp,-1462
    b8f4:	e0a59197          	auipc	gp,0xe0a59
    b8f8:	efbeb197          	auipc	gp,0xefbeb
    b8fc:	00d05693          	srli	a3,zero,0xd
    b900:	0320d093          	srli	ra,ra,0x32
    b904:	2522a217          	auipc	tp,0x2522a
    b908:	401301b3          	sub	gp,t1,ra
    b90c:	00169133          	sll	sp,a3,ra
    b910:	b221f4e3          	bgeu	gp,sp,0xb438
    b914:	b221e2e3          	bltu	gp,sp,0xb438
    b918:	6672b0b7          	lui	ra,0x6672b
    b91c:	cd317493          	andi	s1,sp,-813
    b920:	0011f0b3          	and	ra,gp,ra
    b924:	0021a033          	slt	zero,gp,sp
    b928:	f42380b7          	lui	ra,0xf4238
    b92c:	003001b3          	add	gp,zero,gp
    b930:	40408d33          	sub	s10,ra,tp
    b934:	b7408093          	addi	ra,ra,-1164 # 0xfffffffff4237b74
    b938:	0015b1b3          	sltu	gp,a1,ra
    b93c:	46141037          	lui	zero,0x46141
    b940:	01e1d79b          	srliw	a5,gp,0x1e
    b944:	0022e1b3          	or	gp,t0,sp
    b948:	47812393          	slti	t2,sp,1144
    b94c:	0040913b          	sllw	sp,ra,tp
    b950:	eea6d137          	lui	sp,0xeea6d
    b954:	01b1511b          	srliw	sp,sp,0x1b
    b958:	4bc99097          	auipc	ra,0x4bc99
    b95c:	57204113          	xori	sp,zero,1394
    b960:	404082b3          	sub	t0,ra,tp
    b964:	0101d19b          	srliw	gp,gp,0x10
    b968:	003180b3          	add	ra,gp,gp
    b96c:	0290d013          	srli	zero,ra,0x29
    b970:	d8716113          	ori	sp,sp,-633
    b974:	0020a1b3          	slt	gp,ra,sp
    b978:	00130833          	add	a6,t1,ra
    b97c:	40b1509b          	sraiw	ra,sp,0xb
    b980:	8e72c193          	xori	gp,t0,-1817
    b984:	4a77c093          	xori	ra,a5,1191
    b988:	dd61a313          	slti	t1,gp,-554
    b98c:	4021d133          	sra	sp,gp,sp
    b990:	0221d3b3          	divu	t2,gp,sp
    b994:	021001b3          	mul	gp,zero,ra
    b998:	00010d93          	mv	s11,sp
    b99c:	ca2d8ee3          	beq	s11,sp,0xb658
    b9a0:	43915193          	srai	gp,sp,0x39
    b9a4:	0103911b          	slliw	sp,t2,0x10
    b9a8:	404081b3          	sub	gp,ra,tp
    b9ac:	38b21137          	lui	sp,0x38b21
    b9b0:	0060d133          	srl	sp,ra,t1
    b9b4:	00933333          	sltu	t1,t1,s1
    b9b8:	8230c217          	auipc	tp,0x8230c
    b9bc:	402200b3          	sub	ra,tp,sp
    b9c0:	02206133          	rem	sp,zero,sp
    b9c4:	0220c1b3          	div	gp,ra,sp
    b9c8:	022c41b3          	div	gp,s8,sp
    b9cc:	0021d1b3          	srl	gp,gp,sp
    b9d0:	8ff58a9b          	addiw	s5,a1,-1793
    b9d4:	06d0b593          	sltiu	a1,ra,109
    b9d8:	4141d13b          	sraw	sp,gp,s4
    b9dc:	4091d1b3          	sra	gp,gp,s1
    b9e0:	02367133          	remu	sp,a2,gp
    b9e4:	9ce1019b          	addiw	gp,sp,-1586
    b9e8:	35f1e137          	lui	sp,0x35f1e
    b9ec:	3c087137          	lui	sp,0x3c087
    b9f0:	0031d13b          	srlw	sp,gp,gp
    b9f4:	0ae1c793          	xori	a5,gp,174
    b9f8:	0061c133          	xor	sp,gp,t1
    b9fc:	0210e233          	rem	tp,ra,ra
    ba00:	9260a113          	slti	sp,ra,-1754
    ba04:	402101bb          	subw	gp,sp,sp
    ba08:	41d0d133          	sra	sp,ra,t4
    ba0c:	0021d0bb          	srlw	ra,gp,sp
    ba10:	02e15093          	srli	ra,sp,0x2e
    ba14:	95f17913          	andi	s2,sp,-1697
    ba18:	404080bb          	subw	ra,ra,tp
    ba1c:	90008193          	addi	gp,ra,-1792 # 0x4bca4258
    ba20:	024681b3          	mul	gp,a3,tp
    ba24:	00e49093          	slli	ra,s1,0xe
    ba28:	ee1188e3          	beq	gp,ra,0xb918
    ba2c:	eedff0ef          	jal	ra,0xb918
    ba30:	de910113          	addi	sp,sp,-535 # 0x3c086de9
    ba34:	aa60e193          	ori	gp,ra,-1370
    ba38:	00f2911b          	slliw	sp,t0,0xf
    ba3c:	4061529b          	sraiw	t0,sp,0x6
    ba40:	4071033b          	subw	t1,sp,t2
    ba44:	7001e093          	ori	ra,gp,1792
    ba48:	0020b1b3          	sltu	gp,ra,sp
    ba4c:	14f03113          	sltiu	sp,zero,335
    ba50:	0380f193          	andi	gp,ra,56
    ba54:	55aff1b7          	lui	gp,0x55aff
    ba58:	75f2e393          	ori	t2,t0,1887
    ba5c:	405cd2bb          	sraw	t0,s9,t0
    ba60:	a3813113          	sltiu	sp,sp,-1480
    ba64:	c5e14593          	xori	a1,sp,-930
    ba68:	0031c1b3          	xor	gp,gp,gp
    ba6c:	0072e0b3          	or	ra,t0,t2
    ba70:	5ca28193          	addi	gp,t0,1482
    ba74:	f1f08113          	addi	sp,ra,-225
    ba78:	4051803b          	subw	zero,gp,t0
    ba7c:	4061d0bb          	sraw	ra,gp,t1
    ba80:	eb59c197          	auipc	gp,0xeb59c
    ba84:	0221e1b3          	rem	gp,gp,sp
    ba88:	4081d193          	srai	gp,gp,0x8
    ba8c:	5170a293          	slti	t0,ra,1303
    ba90:	4040d11b          	sraiw	sp,ra,0x4
    ba94:	38113093          	sltiu	ra,sp,897
    ba98:	7691d3b7          	lui	t2,0x7691d
    ba9c:	40b1813b          	subw	sp,gp,a1
    baa0:	aaebe137          	lui	sp,0xaaebe
    baa4:	0241c0b3          	div	ra,gp,tp
    baa8:	00018193          	mv	gp,gp
    baac:	a03188e3          	beq	gp,gp,0xb4bc
    bab0:	02316133          	rem	sp,sp,gp
    bab4:	866f51b7          	lui	gp,0x866f5
    bab8:	0021e1b3          	or	gp,gp,sp
    babc:	d4c28097          	auipc	ra,0xd4c28
    bac0:	0380c0b3          	div	ra,ra,s8
    bac4:	6ccda0b7          	lui	ra,0x6ccda
    bac8:	94897117          	auipc	sp,0x94897
    bacc:	67b1c193          	xori	gp,gp,1659
    bad0:	03b09113          	slli	sp,ra,0x3b
    bad4:	42035193          	srai	gp,t1,0x20
    bad8:	bd4351b7          	lui	gp,0xbd435
    badc:	020181b3          	mul	gp,gp,zero
    bae0:	002081b3          	add	gp,ra,sp
    bae4:	003150bb          	srlw	ra,sp,gp
    bae8:	a45220b7          	lui	ra,0xa4522
    baec:	00513133          	sltu	sp,sp,t0
    baf0:	00d09a9b          	slliw	s5,ra,0xd
    baf4:	28c0e113          	ori	sp,ra,652
    baf8:	027cf1b3          	remu	gp,s9,t2
    bafc:	4031d13b          	sraw	sp,gp,gp
    bb00:	d752a113          	slti	sp,t0,-651
    bb04:	002014bb          	sllw	s1,zero,sp
    bb08:	0030d233          	srl	tp,ra,gp
    bb0c:	57622193          	slti	gp,tp,1398
    bb10:	0011b133          	sltu	sp,gp,ra
    bb14:	2e777197          	auipc	gp,0x2e777
    bb18:	01309113          	slli	sp,ra,0x13
    bb1c:	000170b3          	and	ra,sp,zero
    bb20:	93d1a113          	slti	sp,gp,-1731
    bb24:	002090b3          	sll	ra,ra,sp
    bb28:	f2b23037          	lui	zero,0xf2b23
    bb2c:	0030a0b3          	slt	ra,ra,gp
    bb30:	dfe08193          	addi	gp,ra,-514 # 0xffffffffa4521dfe
    bb34:	14310463          	beq	sp,gp,0xbc7c
    bb38:	1440016f          	jal	sp,0xbc7c
    bb3c:	9e050097          	auipc	ra,0x9e050
    bb40:	63480037          	lui	zero,0x63480
    bb44:	021141b3          	div	gp,sp,ra
    bb48:	02811313          	slli	t1,sp,0x28
    bb4c:	02f26133          	rem	sp,tp,a5
    bb50:	00e11013          	slli	zero,sp,0xe
    bb54:	9cfcb097          	auipc	ra,0x9cfcb
    bb58:	402150b3          	sra	ra,sp,sp
    bb5c:	0031d1b3          	srl	gp,gp,gp
    bb60:	0021f1b3          	and	gp,gp,sp
    bb64:	d04b21b7          	lui	gp,0xd04b2
    bb68:	02015033          	divu	zero,sp,zero
    bb6c:	00313133          	sltu	sp,sp,gp
    bb70:	0260e0b3          	rem	ra,ra,t1
    bb74:	a1804193          	xori	gp,zero,-1512
    bb78:	962b0137          	lui	sp,0x962b0
    bb7c:	05118113          	addi	sp,gp,81 # 0xffffffffd04b2051
    bb80:	7f6e8097          	auipc	ra,0x7f6e8
    bb84:	003251b3          	srl	gp,tp,gp
    bb88:	612591b7          	lui	gp,0x61259
    bb8c:	74b01197          	auipc	gp,0x74b01
    bb90:	84a83197          	auipc	gp,0x84a83
    bb94:	4ce66097          	auipc	ra,0x4ce66
    bb98:	0161911b          	slliw	sp,gp,0x16
    bb9c:	3dc9f1b7          	lui	gp,0x3dc9f
    bba0:	4011823b          	subw	tp,gp,ra
    bba4:	e6d1b217          	auipc	tp,0xe6d1b
    bba8:	4151509b          	sraiw	ra,sp,0x15
    bbac:	600fb217          	auipc	tp,0x600fb
    bbb0:	031260b3          	rem	ra,tp,a7
    bbb4:	b731c093          	xori	ra,gp,-1165
    bbb8:	9fe35197          	auipc	gp,0x9fe35
    bbbc:	02f1c0b3          	div	ra,gp,a5
    bbc0:	98f10193          	addi	gp,sp,-1649 # 0xffffffff962af98f
    bbc4:	a5b0f137          	lui	sp,0xa5b0f
    bbc8:	0211e7b3          	rem	a5,gp,ra
    bbcc:	0fdad0b7          	lui	ra,0xfdad
    bbd0:	dc20d8e3          	bge	ra,sp,0xb9a0
    bbd4:	dc20c6e3          	blt	ra,sp,0xb9a0
    bbd8:	0015901b          	slliw	zero,a1,0x1
    bbdc:	8fa1a093          	slti	ra,gp,-1798
    bbe0:	023200b3          	mul	ra,tp,gp
    bbe4:	b7766297          	auipc	t0,0xb7766
    bbe8:	00f10033          	add	zero,sp,a5
    bbec:	01e1519b          	srliw	gp,sp,0x1e
    bbf0:	0081911b          	slliw	sp,gp,0x8
    bbf4:	21f0019b          	addiw	gp,zero,543
    bbf8:	c1582197          	auipc	gp,0xc1582
    bbfc:	181cc0b7          	lui	ra,0x181cc
    bc00:	5ca773b7          	lui	t2,0x5ca77
    bc04:	401080bb          	subw	ra,ra,ra
    bc08:	022100b3          	mul	ra,sp,sp
    bc0c:	7d00811b          	addiw	sp,ra,2000
    bc10:	c2032113          	slti	sp,t1,-992
    bc14:	875c20b7          	lui	ra,0x875c2
    bc18:	003310b3          	sll	ra,t1,gp
    bc1c:	02410333          	mul	t1,sp,tp
    bc20:	bb91c193          	xori	gp,gp,-1095
    bc24:	f3b89017          	auipc	zero,0xf3b89
    bc28:	79608117          	auipc	sp,0x79608
    bc2c:	09a877b7          	lui	a5,0x9a87
    bc30:	0031d1bb          	srlw	gp,gp,gp
    bc34:	0190913b          	sllw	sp,ra,s9
    bc38:	02530033          	mul	zero,t1,t0
    bc3c:	023151b3          	divu	gp,sp,gp
    bc40:	402102bb          	subw	t0,sp,sp
    bc44:	ada3819b          	addiw	gp,t2,-1318
    bc48:	01e3911b          	slliw	sp,t2,0x1e
    bc4c:	004111b3          	sll	gp,sp,tp
    bc50:	0207f133          	remu	sp,a5,zero
    bc54:	002183b3          	add	t2,gp,sp
    bc58:	401103b3          	sub	t2,sp,ra
    bc5c:	00230133          	add	sp,t1,sp
    bc60:	0021013b          	addw	sp,sp,sp
    bc64:	401151bb          	sraw	gp,sp,ra
    bc68:	40e3d5b3          	sra	a1,t2,a4
    bc6c:	005084b3          	add	s1,ra,t0
    bc70:	e2d191b7          	lui	gp,0xe2d19
    bc74:	00410263          	beq	sp,tp,0xbc78
    bc78:	ea8ff16f          	jal	sp,0xb320
    bc7c:	aee2011b          	addiw	sp,tp,-1298
    bc80:	402181bb          	subw	gp,gp,sp
    bc84:	0274d113          	srli	sp,s1,0x27
    bc88:	001391bb          	sllw	gp,t2,ra
    bc8c:	8c02bab7          	lui	s5,0x8c02b
    bc90:	02616033          	rem	zero,sp,t1
    bc94:	98ecf117          	auipc	sp,0x98ecf
    bc98:	d076f7b7          	lui	a5,0xd076f
    bc9c:	00311133          	sll	sp,sp,gp
    bca0:	2151f093          	andi	ra,gp,533
    bca4:	001140b3          	xor	ra,sp,ra
    bca8:	4bb620b7          	lui	ra,0x4bb62
    bcac:	0040a0b3          	slt	ra,ra,tp
    bcb0:	41421097          	auipc	ra,0x41421
    bcb4:	003141b3          	xor	gp,sp,gp
    bcb8:	0016a133          	slt	sp,a3,ra
    bcbc:	32bea117          	auipc	sp,0x32bea
    bcc0:	0291f133          	remu	sp,gp,s1
    bcc4:	0030b0b3          	sltu	ra,ra,gp
    bcc8:	4007003b          	subw	zero,a4,zero
    bccc:	42b35d93          	srai	s11,t1,0x2b
    bcd0:	02217f33          	remu	t5,sp,sp
    bcd4:	03911113          	slli	sp,sp,0x39
    bcd8:	0140d09b          	srliw	ra,ra,0x14
    bcdc:	0022913b          	sllw	sp,t0,sp
    bce0:	0061b1b3          	sltu	gp,gp,t1
    bce4:	0051d3b3          	srl	t2,gp,t0
    bce8:	d661f193          	andi	gp,gp,-666
    bcec:	40230133          	sub	sp,t1,sp
    bcf0:	02d140b3          	div	ra,sp,a3
    bcf4:	0231c133          	div	sp,gp,gp
    bcf8:	b8eee097          	auipc	ra,0xb8eee
    bcfc:	9b41de37          	lui	t3,0x9b41d
    bd00:	0031c133          	xor	sp,gp,gp
    bd04:	2fd38113          	addi	sp,t2,765 # 0x5ca772fd
    bd08:	4fe13113          	sltiu	sp,sp,1278
    bd0c:	02617133          	remu	sp,sp,t1
    bd10:	00518263          	beq	gp,t0,0xbd14
    bd14:	e94ff06f          	j	0xb3a8
    bd18:	402259b3          	sra	s3,tp,sp
    bd1c:	0020ecb3          	or	s9,ra,sp
    bd20:	02208133          	mul	sp,ra,sp
    bd24:	2b318137          	lui	sp,0x2b318
    bd28:	0060b2b3          	sltu	t0,ra,t1
    bd2c:	75718093          	addi	ra,gp,1879 # 0xffffffffe2d19757
    bd30:	00131133          	sll	sp,t1,ra
    bd34:	0096b133          	sltu	sp,a3,s1
    bd38:	e28e8197          	auipc	gp,0xe28e8
    bd3c:	00326233          	or	tp,tp,gp
    bd40:	00114133          	xor	sp,sp,ra
    bd44:	0040919b          	slliw	gp,ra,0x4
    bd48:	3f01e1b7          	lui	gp,0x3f01e
    bd4c:	55d1c193          	xori	gp,gp,1373
    bd50:	0211c0b3          	div	ra,gp,ra
    bd54:	12e530b7          	lui	ra,0x12e53
    bd58:	0014a7b3          	slt	a5,s1,ra
    bd5c:	b0e18e93          	addi	t4,gp,-1266 # 0x3f01db0e
    bd60:	2300e213          	ori	tp,ra,560
    bd64:	4031509b          	sraiw	ra,sp,0x3
    bd68:	0a9f60b7          	lui	ra,0xa9f6
    bd6c:	e706829b          	addiw	t0,a3,-400
    bd70:	f5707693          	andi	a3,zero,-169
    bd74:	d3916313          	ori	t1,sp,-711
    bd78:	02ce1113          	slli	sp,t3,0x2c
    bd7c:	0022531b          	srliw	t1,tp,0x2
    bd80:	001190b3          	sll	ra,gp,ra
    bd84:	848ec197          	auipc	gp,0x848ec
    bd88:	0010923b          	sllw	tp,ra,ra
    bd8c:	01e2939b          	slliw	t2,t0,0x1e
    bd90:	5ee13793          	sltiu	a5,sp,1518
    bd94:	00018193          	mv	gp,gp
    bd98:	d0318ce3          	beq	gp,gp,0xbab0
    bd9c:	43c0d113          	srai	sp,ra,0x3c
    bda0:	0016a2b3          	slt	t0,a3,ra
    bda4:	7a356117          	auipc	sp,0x7a356
    bda8:	02d31193          	slli	gp,t1,0x2d
    bdac:	0efa5117          	auipc	sp,0xefa5
    bdb0:	03515193          	srli	gp,sp,0x35
    bdb4:	021101b3          	mul	gp,sp,ra
    bdb8:	001139b3          	sltu	s3,sp,ra
    bdbc:	da118117          	auipc	sp,0xda118
    bdc0:	4be06013          	ori	zero,zero,1214
    bdc4:	4021d0bb          	sraw	ra,gp,sp
    bdc8:	74dc6037          	lui	zero,0x74dc6
    bdcc:	4033513b          	sraw	sp,t1,gp
    bdd0:	00139133          	sll	sp,t2,ra
    bdd4:	01811093          	slli	ra,sp,0x18
    bdd8:	003a01bb          	addw	gp,s4,gp
    bddc:	001151b3          	srl	gp,sp,ra
    bde0:	de3f60b7          	lui	ra,0xde3f6
    bde4:	0021513b          	srlw	sp,sp,sp
    bde8:	4026d3bb          	sraw	t2,a3,sp
    bdec:	28500397          	auipc	t2,0x28500
    bdf0:	0272f133          	remu	sp,t0,t2
    bdf4:	02317133          	remu	sp,sp,gp
    bdf8:	03d35113          	srli	sp,t1,0x3d
    bdfc:	000110b3          	sll	ra,sp,zero
    be00:	0028931b          	slliw	t1,a7,0x2
    be04:	00b0d19b          	srliw	gp,ra,0xb
    be08:	0192109b          	slliw	ra,tp,0x19
    be0c:	02614133          	div	sp,sp,t1
    be10:	00058193          	mv	gp,a1
    be14:	58b18063          	beq	gp,a1,0xc394
    be18:	b5310113          	addi	sp,sp,-1197 # 0xffffffffda12390f
    be1c:	00c2531b          	srliw	t1,tp,0xc
    be20:	5531a093          	slti	ra,gp,1363
    be24:	8d4710b7          	lui	ra,0x8d471
    be28:	0011a1b3          	slt	gp,gp,ra
    be2c:	85a0b093          	sltiu	ra,ra,-1958
    be30:	0210f3b3          	remu	t2,ra,ra
    be34:	402100b3          	sub	ra,sp,sp
    be38:	4111d09b          	sraiw	ra,gp,0x11
    be3c:	006111b3          	sll	gp,sp,t1
    be40:	4031d133          	sra	sp,gp,gp
    be44:	e771c797          	auipc	a5,0xe771c
    be48:	0230f033          	remu	zero,ra,gp
    be4c:	002193b3          	sll	t2,gp,sp
    be50:	66318113          	addi	sp,gp,1635 # 0xffffffff848f83e7
    be54:	40110133          	sub	sp,sp,ra
    be58:	00f0911b          	slliw	sp,ra,0xf
    be5c:	02125133          	divu	sp,tp,ra
    be60:	7613f197          	auipc	gp,0x7613f
    be64:	04e78a1b          	addiw	s4,a5,78
    be68:	62641137          	lui	sp,0x62641
    be6c:	29171197          	auipc	gp,0x29171
    be70:	02638033          	mul	zero,t2,t1
    be74:	874ed0b7          	lui	ra,0x874ed
    be78:	a6b010b7          	lui	ra,0xa6b01
    be7c:	9b91009b          	addiw	ra,sp,-1607
    be80:	008b131b          	slliw	t1,s6,0x8
    be84:	4161d193          	srai	gp,gp,0x16
    be88:	e3f71337          	lui	t1,0xe3f71
    be8c:	0003e033          	or	zero,t2,zero
    be90:	40108033          	sub	zero,ra,ra
    be94:	0010119b          	slliw	gp,zero,0x1
    be98:	0171509b          	srliw	ra,sp,0x17
    be9c:	0111109b          	slliw	ra,sp,0x11
    bea0:	03229213          	slli	tp,t0,0x32
    bea4:	ee308ce3          	beq	ra,gp,0xbd9c
    bea8:	ef5ff16f          	jal	sp,0xbd9c
    beac:	18e12113          	slti	sp,sp,398
    beb0:	000fd2bb          	srlw	t0,t6,zero
    beb4:	001114bb          	sllw	s1,sp,ra
    beb8:	02100933          	mul	s2,zero,ra
    bebc:	001351b3          	srl	gp,t1,ra
    bec0:	00e3919b          	slliw	gp,t2,0xe
    bec4:	402381b3          	sub	gp,t2,sp
    bec8:	d311a113          	slti	sp,gp,-719
    becc:	13367217          	auipc	tp,0x13367
    bed0:	1d83819b          	addiw	gp,t2,472
    bed4:	4756a117          	auipc	sp,0x4756a
    bed8:	372bc317          	auipc	t1,0x372bc
    bedc:	00915e9b          	srliw	t4,sp,0x9
    bee0:	6189d337          	lui	t1,0x6189d
    bee4:	0101911b          	slliw	sp,gp,0x10
    bee8:	47b0a493          	slti	s1,ra,1147
    beec:	406187b3          	sub	a5,gp,t1
    bef0:	abe7f137          	lui	sp,0xabe7f
    bef4:	002251bb          	srlw	gp,tp,sp
    bef8:	36900097          	auipc	ra,0x36900
    befc:	0821c193          	xori	gp,gp,130
    bf00:	4b327313          	andi	t1,tp,1203
    bf04:	9dca6217          	auipc	tp,0x9dca6
    bf08:	403083b3          	sub	t2,ra,gp
    bf0c:	023279b3          	remu	s3,tp,gp
    bf10:	00515fb3          	srl	t6,sp,t0
    bf14:	26d13193          	sltiu	gp,sp,621
    bf18:	4161a093          	slti	ra,gp,1046
    bf1c:	01311113          	slli	sp,sp,0x13
    bf20:	52610193          	addi	gp,sp,1318 # 0xffffffffabe7f526
    bf24:	59214093          	xori	ra,sp,1426
    bf28:	002315bb          	sllw	a1,t1,sp
    bf2c:	00211133          	sll	sp,sp,sp
    bf30:	0063b133          	sltu	sp,t2,t1
    bf34:	9c9412b7          	lui	t0,0x9c941
    bf38:	03009193          	slli	gp,ra,0x30
    bf3c:	12315263          	bge	sp,gp,0xc060
    bf40:	12314063          	blt	sp,gp,0xc060
    bf44:	0073931b          	slliw	t1,t2,0x7
    bf48:	4031013b          	subw	sp,sp,gp
    bf4c:	03c0efb3          	rem	t6,ra,t3
    bf50:	0021519b          	srliw	gp,sp,0x2
    bf54:	2b21a093          	slti	ra,gp,690
    bf58:	a4a08237          	lui	tp,0xa4a08
    bf5c:	00116033          	or	zero,sp,ra
    bf60:	40210133          	sub	sp,sp,sp
    bf64:	4112d093          	srai	ra,t0,0x11
    bf68:	1721a113          	slti	sp,gp,370
    bf6c:	c2a5809b          	addiw	ra,a1,-982
    bf70:	3b46a097          	auipc	ra,0x3b46a
    bf74:	0031f1b3          	and	gp,gp,gp
    bf78:	fcd1a013          	slti	zero,gp,-51
    bf7c:	28c1f113          	andi	sp,gp,652
    bf80:	47133193          	sltiu	gp,t1,1137
    bf84:	b1494337          	lui	t1,0xb1494
    bf88:	0031013b          	addw	sp,sp,gp
    bf8c:	0230f133          	remu	sp,ra,gp
    bf90:	02608233          	mul	tp,ra,t1
    bf94:	0130919b          	slliw	gp,ra,0x13
    bf98:	00d09a13          	slli	s4,ra,0xd
    bf9c:	00314133          	xor	sp,sp,gp
    bfa0:	95417093          	andi	ra,sp,-1708
    bfa4:	ab4cd1b7          	lui	gp,0xab4cd
    bfa8:	8971e113          	ori	sp,gp,-1897
    bfac:	01a0939b          	slliw	t2,ra,0x1a
    bfb0:	da1af597          	auipc	a1,0xda1af
    bfb4:	0011e8b3          	or	a7,gp,ra
    bfb8:	1f20811b          	addiw	sp,ra,498
    bfbc:	401100b3          	sub	ra,sp,ra
    bfc0:	00018713          	mv	a4,gp
    bfc4:	2c370463          	beq	a4,gp,0xc28c
    bfc8:	5de4c097          	auipc	ra,0x5de4c
    bfcc:	1836a0b7          	lui	ra,0x1836a
    bfd0:	403150bb          	sraw	ra,sp,gp
    bfd4:	025a7133          	remu	sp,s4,t0
    bfd8:	6ceb40b7          	lui	ra,0x6ceb4
    bfdc:	7e8c62b7          	lui	t0,0x7e8c6
    bfe0:	4030d1b3          	sra	gp,ra,gp
    bfe4:	4381d193          	srai	gp,gp,0x38
    bfe8:	d12410b7          	lui	ra,0xd1241
    bfec:	00311133          	sll	sp,sp,gp
    bff0:	4070d11b          	sraiw	sp,ra,0x7
    bff4:	015321b3          	slt	gp,t1,s5
    bff8:	aa40f093          	andi	ra,ra,-1372
    bffc:	0090e0b3          	or	ra,ra,s1
    c000:	41f15913          	srai	s2,sp,0x1f
    c004:	00612933          	slt	s2,sp,t1
    c008:	e6b370b7          	lui	ra,0xe6b37
    c00c:	402180bb          	subw	ra,gp,sp
    c010:	024162b3          	rem	t0,sp,tp
    c014:	4062519b          	sraiw	gp,tp,0x6
    c018:	4050d1b3          	sra	gp,ra,t0
    c01c:	00138333          	add	t1,t2,ra
    c020:	2f1b1117          	auipc	sp,0x2f1b1
    c024:	03401313          	slli	t1,zero,0x34
    c028:	002300bb          	addw	ra,t1,sp
    c02c:	4590e993          	ori	s3,ra,1113
    c030:	0220d1b3          	divu	gp,ra,sp
    c034:	ba251097          	auipc	ra,0xba251
    c038:	00a152b7          	lui	t0,0xa15
    c03c:	0010513b          	srlw	sp,zero,ra
    c040:	40c58b97          	auipc	s7,0x40c58
    c044:	0220e433          	rem	s0,ra,sp
    c048:	40110333          	sub	t1,sp,ra
    c04c:	00309133          	sll	sp,ra,gp
    c050:	b85cc093          	xori	ra,s9,-1147
    c054:	36c130b7          	lui	ra,0x36c13
    c058:	1a11da63          	bge	gp,ra,0xc20c
    c05c:	1a11c863          	blt	gp,ra,0xc20c
    c060:	5471e093          	ori	ra,gp,1351
    c064:	0030b5b3          	sltu	a1,ra,gp
    c068:	0011013b          	addw	sp,sp,ra
    c06c:	bafee117          	auipc	sp,0xbafee
    c070:	2820c393          	xori	t2,ra,642
    c074:	84b16113          	ori	sp,sp,-1973
    c078:	40525393          	srai	t2,tp,0x5
    c07c:	4ed2b193          	sltiu	gp,t0,1261
    c080:	d021f213          	andi	tp,gp,-766
    c084:	7ab10093          	addi	ra,sp,1963 # 0xffffffffbaffa817
    c088:	005351bb          	srlw	gp,t1,t0
    c08c:	d7d56117          	auipc	sp,0xd7d56
    c090:	bc92b117          	auipc	sp,0xbc92b
    c094:	40b15093          	srai	ra,sp,0xb
    c098:	0230f1b3          	remu	gp,ra,gp
    c09c:	6450e213          	ori	tp,ra,1605
    c0a0:	005191b3          	sll	gp,gp,t0
    c0a4:	0020c333          	xor	t1,ra,sp
    c0a8:	0051e533          	or	a0,gp,t0
    c0ac:	5aded1b7          	lui	gp,0x5aded
    c0b0:	5454e137          	lui	sp,0x5454e
    c0b4:	002001b3          	add	gp,zero,sp
    c0b8:	11bed0b7          	lui	ra,0x11bed
    c0bc:	00212233          	slt	tp,sp,sp
    c0c0:	001101bb          	addw	gp,sp,ra
    c0c4:	00137133          	and	sp,t1,ra
    c0c8:	40115333          	sra	t1,sp,ra
    c0cc:	00a1a2b3          	slt	t0,gp,a0
    c0d0:	80c17193          	andi	gp,sp,-2036
    c0d4:	022261b3          	rem	gp,tp,sp
    c0d8:	003111bb          	sllw	gp,sp,gp
    c0dc:	cfbab1b7          	lui	gp,0xcfbab
    c0e0:	0070e133          	or	sp,ra,t2
    c0e4:	32137c63          	bgeu	t1,ra,0xc41c
    c0e8:	32136a63          	bltu	t1,ra,0xc41c
    c0ec:	003152b3          	srl	t0,sp,gp
    c0f0:	05277137          	lui	sp,0x5277
    c0f4:	002052bb          	srlw	t0,zero,sp
    c0f8:	01831313          	slli	t1,t1,0x18
    c0fc:	0020d0b3          	srl	ra,ra,sp
    c100:	fd65f0b7          	lui	ra,0xfd65f
    c104:	00239133          	sll	sp,t2,sp
    c108:	4e81a113          	slti	sp,gp,1256
    c10c:	ddc07113          	andi	sp,zero,-548
    c110:	022be0b3          	rem	ra,s7,sp
    c114:	ac5b32b7          	lui	t0,0xac5b3
    c118:	0081d093          	srli	ra,gp,0x8
    c11c:	be35d117          	auipc	sp,0xbe35d
    c120:	00114133          	xor	sp,sp,ra
    c124:	002021b3          	sgtz	gp,sp
    c128:	aff85297          	auipc	t0,0xaff85
    c12c:	3ac65197          	auipc	gp,0x3ac65
    c130:	536684b7          	lui	s1,0x53668
    c134:	402103b3          	sub	t2,sp,sp
    c138:	32114093          	xori	ra,sp,801
    c13c:	0236e233          	rem	tp,a3,gp
    c140:	004f11b3          	sll	gp,t5,tp
    c144:	0012b1b3          	sltu	gp,t0,ra
    c148:	9e4d13b7          	lui	t2,0x9e4d1
    c14c:	55589b37          	lui	s6,0x55589
    c150:	0220e133          	rem	sp,ra,sp
    c154:	b47c2137          	lui	sp,0xb47c2
    c158:	006281bb          	addw	gp,t0,t1
    c15c:	01d1109b          	slliw	ra,sp,0x1d
    c160:	50ef6317          	auipc	t1,0x50ef6
    c164:	01b1d09b          	srliw	ra,gp,0x1b
    c168:	b4f681b7          	lui	gp,0xb4f68
    c16c:	8e9b91b7          	lui	gp,0x8e9b9
    c170:	03d1d193          	srli	gp,gp,0x3d
    c174:	00b21113          	slli	sp,tp,0xb
    c178:	0050d463          	bge	ra,t0,0xc180
    c17c:	0050c263          	blt	ra,t0,0xc180
    c180:	ff20b193          	sltiu	gp,ra,-14
    c184:	40d150bb          	sraw	ra,sp,a3
    c188:	0011c0b3          	xor	ra,gp,ra
    c18c:	404d0033          	sub	zero,s10,tp
    c190:	403059bb          	sraw	s3,zero,gp
    c194:	4050d11b          	sraiw	sp,ra,0x5
    c198:	0011823b          	addw	tp,gp,ra
    c19c:	03615493          	srli	s1,sp,0x36
    c1a0:	9a023113          	sltiu	sp,tp,-1632
    c1a4:	a3bf81b7          	lui	gp,0xa3bf8
    c1a8:	026351b3          	divu	gp,t1,t1
    c1ac:	be457137          	lui	sp,0xbe457
    c1b0:	401101bb          	subw	gp,sp,ra
    c1b4:	02610133          	mul	sp,sp,t1
    c1b8:	00c19093          	slli	ra,gp,0xc
    c1bc:	01e2121b          	slliw	tp,tp,0x1e
    c1c0:	13d0a593          	slti	a1,ra,317
    c1c4:	0220e4b3          	rem	s1,ra,sp
    c1c8:	03e39093          	slli	ra,t2,0x3e
    c1cc:	00412033          	slt	zero,sp,tp
    c1d0:	6d014093          	xori	ra,sp,1744
    c1d4:	002170b3          	and	ra,sp,sp
    c1d8:	021142b3          	div	t0,sp,ra
    c1dc:	c8912193          	slti	gp,sp,-887
    c1e0:	02215133          	divu	sp,sp,sp
    c1e4:	175113b7          	lui	t2,0x17511
    c1e8:	1561819b          	addiw	gp,gp,342
    c1ec:	21164137          	lui	sp,0x21164
    c1f0:	00a0d09b          	srliw	ra,ra,0xa
    c1f4:	0033513b          	srlw	sp,t1,gp
    c1f8:	1f71831b          	addiw	t1,gp,503
    c1fc:	0222e0b3          	rem	ra,t0,sp
    c200:	0010f0b3          	and	ra,ra,ra
    c204:	d46970e3          	bgeu	s2,t1,0xbf44
    c208:	d2696ee3          	bltu	s2,t1,0xbf44
    c20c:	0f49b197          	auipc	gp,0xf49b
    c210:	020372b3          	remu	t0,t1,zero
    c214:	00508033          	add	zero,ra,t0
    c218:	00a1511b          	srliw	sp,sp,0xa
    c21c:	fb530193          	addi	gp,t1,-75 # 0x50f02115
    c220:	0031a133          	slt	sp,gp,gp
    c224:	815d51b7          	lui	gp,0x815d5
    c228:	90508093          	addi	ra,ra,-1787 # 0xfffffffffd65e905
    c22c:	a2305297          	auipc	t0,0xa2305
    c230:	13a4b1b7          	lui	gp,0x13a4b
    c234:	40280333          	sub	t1,a6,sp
    c238:	001190b3          	sll	ra,gp,ra
    c23c:	ad320193          	addi	gp,tp,-1325 # 0xffffffffa4a07ad3
    c240:	c070809b          	addiw	ra,ra,-1017
    c244:	00a7d31b          	srliw	t1,a5,0xa
    c248:	1be37193          	andi	gp,t1,446
    c24c:	4053013b          	subw	sp,t1,t0
    c250:	040d90b7          	lui	ra,0x40d9
    c254:	3d5f8397          	auipc	t2,0x3d5f8
    c258:	022300b3          	mul	ra,t1,sp
    c25c:	401100b3          	sub	ra,sp,ra
    c260:	b590011b          	addiw	sp,zero,-1191
    c264:	02326333          	rem	t1,tp,gp
    c268:	0000919b          	slliw	gp,ra,0x0
    c26c:	0010b9b3          	sltu	s3,ra,ra
    c270:	20e6b317          	auipc	t1,0x20e6b
    c274:	2fad9237          	lui	tp,0x2fad9
    c278:	3b93a113          	slti	sp,t2,953
    c27c:	93557197          	auipc	gp,0x93557
    c280:	00125333          	srl	t1,tp,ra
    c284:	e622f4e3          	bgeu	t0,sp,0xc0ec
    c288:	e622e2e3          	bltu	t0,sp,0xc0ec
    c28c:	0080139b          	slliw	t2,zero,0x8
    c290:	003150bb          	srlw	ra,sp,gp
    c294:	ec57c297          	auipc	t0,0xec57c
    c298:	0141111b          	slliw	sp,sp,0x14
    c29c:	eba0a113          	slti	sp,ra,-326
    c2a0:	a8d57117          	auipc	sp,0xa8d57
    c2a4:	00237133          	and	sp,t1,sp
    c2a8:	020100b3          	mul	ra,sp,zero
    c2ac:	100e3117          	auipc	sp,0x100e3
    c2b0:	0709e437          	lui	s0,0x709e
    c2b4:	022370b3          	remu	ra,t1,sp
    c2b8:	009050bb          	srlw	ra,zero,s1
    c2bc:	007181bb          	addw	gp,gp,t2
    c2c0:	1f6fe097          	auipc	ra,0x1f6fe
    c2c4:	95ef6017          	auipc	zero,0x95ef6
    c2c8:	03809113          	slli	sp,ra,0x38
    c2cc:	0110919b          	slliw	gp,ra,0x11
    c2d0:	40b0d113          	srai	sp,ra,0xb
    c2d4:	0230f0b3          	remu	ra,ra,gp
    c2d8:	0223c1b3          	div	gp,t2,sp
    c2dc:	0221e0b3          	rem	ra,gp,sp
    c2e0:	4030d3b3          	sra	t2,ra,gp
    c2e4:	002316bb          	sllw	a3,t1,sp
    c2e8:	8fb1a113          	slti	sp,gp,-1797
    c2ec:	6b80b093          	sltiu	ra,ra,1720
    c2f0:	94812193          	slti	gp,sp,-1720
    c2f4:	009090bb          	sllw	ra,ra,s1
    c2f8:	00d09093          	slli	ra,ra,0xd
    c2fc:	0070909b          	slliw	ra,ra,0x7
    c300:	00bc919b          	slliw	gp,s9,0xb
    c304:	003151bb          	srlw	gp,sp,gp
    c308:	01c07133          	and	sp,zero,t3
    c30c:	46220663          	beq	tp,sp,0xc778
    c310:	468000ef          	jal	ra,0xc778
    c314:	de2f9337          	lui	t1,0xde2f9
    c318:	0075913b          	sllw	sp,a1,t2
    c31c:	5e90e293          	ori	t0,ra,1513
    c320:	42915193          	srai	gp,sp,0x29
    c324:	406280bb          	subw	ra,t0,t1
    c328:	0230d1b3          	divu	gp,ra,gp
    c32c:	4010d0b3          	sra	ra,ra,ra
    c330:	b801809b          	addiw	ra,gp,-1152
    c334:	0211c233          	div	tp,gp,ra
    c338:	00132333          	slt	t1,t1,ra
    c33c:	0233f0b3          	remu	ra,t2,gp
    c340:	3a224197          	auipc	gp,0x3a224
    c344:	d441e317          	auipc	t1,0xd441e
    c348:	b1246097          	auipc	ra,0xb1246
    c34c:	0140d19b          	srliw	gp,ra,0x14
    c350:	00a1119b          	slliw	gp,sp,0xa
    c354:	01908113          	addi	sp,ra,25 # 0xffffffffb1252361
    c358:	67e1e313          	ori	t1,gp,1662
    c35c:	001200b3          	add	ra,tp,ra
    c360:	fa718093          	addi	ra,gp,-89 # 0x3a2302e7
    c364:	0011119b          	slliw	gp,sp,0x1
    c368:	4191d993          	srai	s3,gp,0x19
    c36c:	0031d033          	srl	zero,gp,gp
    c370:	61c34093          	xori	ra,t1,1564
    c374:	017090b3          	sll	ra,ra,s7
    c378:	004153b3          	srl	t2,sp,tp
    c37c:	4013d31b          	sraiw	t1,t2,0x1
    c380:	023171b3          	remu	gp,sp,gp
    c384:	003350b3          	srl	ra,t1,gp
    c388:	0010c1b3          	xor	gp,ra,ra
    c38c:	1c308463          	beq	ra,gp,0xc554
    c390:	1c4000ef          	jal	ra,0xc554
    c394:	402083b3          	sub	t2,ra,sp
    c398:	001681b3          	add	gp,a3,ra
    c39c:	5210e113          	ori	sp,ra,1313
    c3a0:	01709093          	slli	ra,ra,0x17
    c3a4:	a7c1f313          	andi	t1,gp,-1412
    c3a8:	003139b3          	sltu	s3,sp,gp
    c3ac:	0036dcb3          	srl	s9,a3,gp
    c3b0:	00a0979b          	slliw	a5,ra,0xa
    c3b4:	0011d23b          	srlw	tp,gp,ra
    c3b8:	4014d0b3          	sra	ra,s1,ra
    c3bc:	002151b3          	srl	gp,sp,sp
    c3c0:	00135133          	srl	sp,t1,ra
    c3c4:	675c1097          	auipc	ra,0x675c1
    c3c8:	2a11811b          	addiw	sp,gp,673
    c3cc:	00c2501b          	srliw	zero,tp,0xc
    c3d0:	4033d29b          	sraiw	t0,t2,0x3
    c3d4:	0010c133          	xor	sp,ra,ra
    c3d8:	9e558197          	auipc	gp,0x9e558
    c3dc:	5ee3f197          	auipc	gp,0x5ee3f
    c3e0:	001135b3          	sltu	a1,sp,ra
    c3e4:	00118133          	add	sp,gp,ra
    c3e8:	023e0233          	mul	tp,t3,gp
    c3ec:	6581b093          	sltiu	ra,gp,1624
    c3f0:	57f345b7          	lui	a1,0x57f34
    c3f4:	6b9930b7          	lui	ra,0x6b993
    c3f8:	01211113          	slli	sp,sp,0x12
    c3fc:	4c732113          	slti	sp,t1,1223
    c400:	6961f013          	andi	zero,gp,1686
    c404:	0230d7b3          	divu	a5,ra,gp
    c408:	0031c233          	xor	tp,gp,gp
    c40c:	8d8c8137          	lui	sp,0x8d8c8
    c410:	a1ae0837          	lui	a6,0xa1ae0
    c414:	00008093          	mv	ra,ra
    c418:	2c108a63          	beq	ra,ra,0xc6ec
    c41c:	4021d1bb          	sraw	gp,gp,sp
    c420:	3acc41b7          	lui	gp,0x3acc4
    c424:	41a5d19b          	sraiw	gp,a1,0x1a
    c428:	2351b293          	sltiu	t0,gp,565
    c42c:	0020c1b3          	xor	gp,ra,sp
    c430:	00117233          	and	tp,sp,ra
    c434:	0110111b          	slliw	sp,zero,0x11
    c438:	d39071b7          	lui	gp,0xd3907
    c43c:	1d33d197          	auipc	gp,0x1d33d
    c440:	42e3d193          	srai	gp,t2,0x2e
    c444:	5523e193          	ori	gp,t2,1362
    c448:	0050e6b3          	or	a3,ra,t0
    c44c:	f75010b7          	lui	ra,0xf7501
    c450:	4044d133          	sra	sp,s1,tp
    c454:	00113133          	sltu	sp,sp,ra
    c458:	c7b0b113          	sltiu	sp,ra,-901
    c45c:	0162911b          	slliw	sp,t0,0x16
    c460:	01f1d19b          	srliw	gp,gp,0x1f
    c464:	a9de0197          	auipc	gp,0xa9de0
    c468:	4031013b          	subw	sp,sp,gp
    c46c:	01a22fb3          	slt	t6,tp,s10
    c470:	0043e0b3          	or	ra,t2,tp
    c474:	8a6131b7          	lui	gp,0x8a613
    c478:	48237093          	andi	ra,t1,1154
    c47c:	01f19193          	slli	gp,gp,0x1f
    c480:	000100bb          	addw	ra,sp,zero
    c484:	bce0b113          	sltiu	sp,ra,-1074
    c488:	00315133          	srl	sp,sp,gp
    c48c:	0190d31b          	srliw	t1,ra,0x19
    c490:	0230c1b3          	div	gp,ra,gp
    c494:	4281019b          	addiw	gp,sp,1064
    c498:	40110233          	sub	tp,sp,ra
    c49c:	025150b3          	divu	ra,sp,t0
    c4a0:	00018b93          	mv	s7,gp
    c4a4:	003b8263          	beq	s7,gp,0xc4a8
    c4a8:	19c93137          	lui	sp,0x19c93
    c4ac:	1a116093          	ori	ra,sp,417
    c4b0:	407301b3          	sub	gp,t1,t2
    c4b4:	000092bb          	sllw	t0,ra,zero
    c4b8:	4181d39b          	sraiw	t2,gp,0x18
    c4bc:	4bebb097          	auipc	ra,0x4bebb
    c4c0:	4041d23b          	sraw	tp,gp,tp
    c4c4:	4be0c193          	xori	gp,ra,1214
    c4c8:	406081bb          	subw	gp,ra,t1
    c4cc:	a960a113          	slti	sp,ra,-1386
    c4d0:	58414e93          	xori	t4,sp,1412
    c4d4:	0011d21b          	srliw	tp,gp,0x1
    c4d8:	0161109b          	slliw	ra,sp,0x16
    c4dc:	1eb76097          	auipc	ra,0x1eb76
    c4e0:	77a10013          	addi	zero,sp,1914 # 0x19c9377a
    c4e4:	1e972497          	auipc	s1,0x1e972
    c4e8:	bcd17193          	andi	gp,sp,-1075
    c4ec:	01d1929b          	slliw	t0,gp,0x1d
    c4f0:	0011f233          	and	tp,gp,ra
    c4f4:	0052d0bb          	srlw	ra,t0,t0
    c4f8:	8b91011b          	addiw	sp,sp,-1863
    c4fc:	0222d1b3          	divu	gp,t0,sp
    c500:	d4014113          	xori	sp,sp,-704
    c504:	9e602197          	auipc	gp,0x9e602
    c508:	02614333          	div	t1,sp,t1
    c50c:	0eef3197          	auipc	gp,0xeef3
    c510:	0224d113          	srli	sp,s1,0x22
    c514:	4010d0b3          	sra	ra,ra,ra
    c518:	0070813b          	addw	sp,ra,t2
    c51c:	02115233          	divu	tp,sp,ra
    c520:	001193bb          	sllw	t2,gp,ra
    c524:	d0eef2b7          	lui	t0,0xd0eef
    c528:	001350bb          	srlw	ra,t1,ra
    c52c:	bc38e137          	lui	sp,0xbc38e
    c530:	001080bb          	addw	ra,ra,ra
    c534:	022151b3          	divu	gp,sp,sp
    c538:	00b11213          	slli	tp,sp,0xb
    c53c:	0133111b          	slliw	sp,t1,0x13
    c540:	c5a6d317          	auipc	t1,0xc5a6d
    c544:	0002163b          	sllw	a2,tp,zero
    c548:	407150bb          	sraw	ra,sp,t2
    c54c:	8c1106e3          	beq	sp,ra,0xbe18
    c550:	8c9ff36f          	jal	t1,0xbe18
    c554:	6fabc0b7          	lui	ra,0x6fabc
    c558:	c4dd81b7          	lui	gp,0xc4dd8
    c55c:	4030d0bb          	sraw	ra,ra,gp
    c560:	4012813b          	subw	sp,t0,ra
    c564:	d6fb8097          	auipc	ra,0xd6fb8
    c568:	7b116113          	ori	sp,sp,1969
    c56c:	00211433          	sll	s0,sp,sp
    c570:	49058137          	lui	sp,0x49058
    c574:	0211e0b3          	rem	ra,gp,ra
    c578:	0021b133          	sltu	sp,gp,sp
    c57c:	02126133          	rem	sp,tp,ra
    c580:	f8b81037          	lui	zero,0xf8b81
    c584:	023081b3          	mul	gp,ra,gp
    c588:	027165b3          	rem	a1,sp,t2
    c58c:	0051513b          	srlw	sp,sp,t0
    c590:	003da1b3          	slt	gp,s11,gp
    c594:	0221c0b3          	div	ra,gp,sp
    c598:	002011bb          	sllw	gp,zero,sp
    c59c:	401155b3          	sra	a1,sp,ra
    c5a0:	ff9c80b7          	lui	ra,0xff9c8
    c5a4:	4110893b          	subw	s2,ra,a7
    c5a8:	0216f333          	remu	t1,a3,ra
    c5ac:	403100b3          	sub	ra,sp,gp
    c5b0:	0211d133          	divu	sp,gp,ra
    c5b4:	006b43b3          	xor	t2,s6,t1
    c5b8:	35703193          	sltiu	gp,zero,855
    c5bc:	0037b0b3          	sltu	ra,a5,gp
    c5c0:	404083bb          	subw	t2,ra,tp
    c5c4:	0061e0b3          	or	ra,gp,t1
    c5c8:	2fbcd217          	auipc	tp,0x2fbcd
    c5cc:	02315133          	divu	sp,sp,gp
    c5d0:	b282809b          	addiw	ra,t0,-1240
    c5d4:	26e0809b          	addiw	ra,ra,622
    c5d8:	00010093          	mv	ra,sp
    c5dc:	08208263          	beq	ra,sp,0xc660
    c5e0:	fbd12117          	auipc	sp,0xfbd12
    c5e4:	4041833b          	subw	t1,gp,tp
    c5e8:	026040b3          	div	ra,zero,t1
    c5ec:	f0913313          	sltiu	t1,sp,-247
    c5f0:	4020d3bb          	sraw	t2,ra,sp
    c5f4:	b760b117          	auipc	sp,0xb760b
    c5f8:	37026197          	auipc	gp,0x37026
    c5fc:	ae992297          	auipc	t0,0xae992
    c600:	023081b3          	mul	gp,ra,gp
    c604:	c4f26f93          	ori	t6,tp,-945
    c608:	a1f58097          	auipc	ra,0xa1f58
    c60c:	a2ad63b7          	lui	t2,0xa2ad6
    c610:	0020d29b          	srliw	t0,ra,0x2
    c614:	401180b3          	sub	ra,gp,ra
    c618:	f3d5a093          	slti	ra,a1,-195
    c61c:	9ed06197          	auipc	gp,0x9ed06
    c620:	41c3d09b          	sraiw	ra,t2,0x1c
    c624:	0200c0b3          	div	ra,ra,zero
    c628:	001080b3          	add	ra,ra,ra
    c62c:	ae308293          	addi	t0,ra,-1309 # 0xffffffffa1f640eb
    c630:	020163b3          	rem	t2,sp,zero
    c634:	00605133          	srl	sp,zero,t1
    c638:	02216f33          	rem	t5,sp,sp
    c63c:	00a1d09b          	srliw	ra,gp,0xa
    c640:	131710b7          	lui	ra,0x13171
    c644:	001091b3          	sll	gp,ra,ra
    c648:	0230c6b3          	div	a3,ra,gp
    c64c:	08e1809b          	addiw	ra,gp,142
    c650:	37e0811b          	addiw	sp,ra,894
    c654:	003190b3          	sll	ra,gp,gp
    c658:	962198e3          	bne	gp,sp,0xbfc8
    c65c:	962186e3          	beq	gp,sp,0xbfc8
    c660:	4e11e093          	ori	ra,gp,1249
    c664:	00391133          	sll	sp,s2,gp
    c668:	9411f093          	andi	ra,gp,-1727
    c66c:	0a01f113          	andi	sp,gp,160
    c670:	00e1111b          	slliw	sp,sp,0xe
    c674:	b834b1b7          	lui	gp,0xb834b
    c678:	0020d1b3          	srl	gp,ra,sp
    c67c:	005091bb          	sllw	gp,ra,t0
    c680:	005011bb          	sllw	gp,zero,t0
    c684:	021101b3          	mul	gp,sp,ra
    c688:	0051b1b3          	sltu	gp,gp,t0
    c68c:	0010e0b3          	or	ra,ra,ra
    c690:	5512d117          	auipc	sp,0x5512d
    c694:	f3010193          	addi	gp,sp,-208 # 0x551395c0
    c698:	001100bb          	addw	ra,sp,ra
    c69c:	4021d1b3          	sra	gp,gp,sp
    c6a0:	46715197          	auipc	gp,0x46715
    c6a4:	40b1511b          	sraiw	sp,sp,0xb
    c6a8:	b5abb137          	lui	sp,0xb5abb
    c6ac:	4390e193          	ori	gp,ra,1081
    c6b0:	dbf30593          	addi	a1,t1,-577 # 0xffffffffc5a792ff
    c6b4:	00211333          	sll	t1,sp,sp
    c6b8:	0030b1b3          	sltu	gp,ra,gp
    c6bc:	00218133          	add	sp,gp,sp
    c6c0:	0033023b          	addw	tp,t1,gp
    c6c4:	40e1511b          	sraiw	sp,sp,0xe
    c6c8:	00001093          	slli	ra,zero,0x0
    c6cc:	00a0919b          	slliw	gp,ra,0xa
    c6d0:	0251d1b3          	divu	gp,gp,t0
    c6d4:	0230f333          	remu	t1,ra,gp
    c6d8:	401081bb          	subw	gp,ra,ra
    c6dc:	8c1cd0b7          	lui	ra,0x8c1cd
    c6e0:	f8962037          	lui	zero,0xf8962
    c6e4:	00000197          	auipc	gp,0x0
    c6e8:	12c18167          	jalr	sp,300(gp) # 0xc810
    c6ec:	0010a0b3          	slt	ra,ra,ra
    c6f0:	007031b3          	snez	gp,t2
    c6f4:	31e23193          	sltiu	gp,tp,798
    c6f8:	0011103b          	sllw	zero,sp,ra
    c6fc:	0001909b          	slliw	ra,gp,0x0
    c700:	19213293          	sltiu	t0,sp,402
    c704:	d75c9097          	auipc	ra,0xd75c9
    c708:	9451c793          	xori	a5,gp,-1723
    c70c:	8e61f237          	lui	tp,0x8e61f
    c710:	9c4f0197          	auipc	gp,0x9c4f0
    c714:	d7a06113          	ori	sp,zero,-646
    c718:	55dcc017          	auipc	zero,0x55dcc
    c71c:	0050813b          	addw	sp,ra,t0
    c720:	13a2b093          	sltiu	ra,t0,314
    c724:	0ab594b7          	lui	s1,0xab59
    c728:	e1817293          	andi	t0,sp,-488
    c72c:	89114093          	xori	ra,sp,-1903
    c730:	0036c133          	xor	sp,a3,gp
    c734:	02317033          	remu	zero,sp,gp
    c738:	021152b3          	divu	t0,sp,ra
    c73c:	01f1521b          	srliw	tp,sp,0x1f
    c740:	02378333          	mul	t1,a5,gp
    c744:	5de00113          	li	sp,1502
    c748:	3063b1b7          	lui	gp,0x3063b
    c74c:	02120133          	mul	sp,tp,ra
    c750:	5fc1f093          	andi	ra,gp,1532
    c754:	0010d3bb          	srlw	t2,ra,ra
    c758:	0030823b          	addw	tp,ra,gp
    c75c:	40408133          	sub	sp,ra,tp
    c760:	21b2d337          	lui	t1,0x21b2d
    c764:	5711a013          	slti	zero,gp,1393
    c768:	0051c1b3          	xor	gp,gp,t0
    c76c:	41b1d093          	srai	ra,gp,0x1b
    c770:	ba7182e3          	beq	gp,t2,0xc314
    c774:	ba1ff26f          	jal	tp,0xc314
    c778:	6cc0b213          	sltiu	tp,ra,1740
    c77c:	7060819b          	addiw	gp,ra,1798
    c780:	001181b3          	add	gp,gp,ra
    c784:	023081b3          	mul	gp,ra,gp
    c788:	2d81b193          	sltiu	gp,gp,728
    c78c:	48d5cf37          	lui	t5,0x48d5c
    c790:	000231b3          	sltu	gp,tp,zero
    c794:	0011d13b          	srlw	sp,gp,ra
    c798:	026100b3          	mul	ra,sp,t1
    c79c:	d692e093          	ori	ra,t0,-663
    c7a0:	5661f113          	andi	sp,gp,1382
    c7a4:	d2f46397          	auipc	t2,0xd2f46
    c7a8:	00411113          	slli	sp,sp,0x4
    c7ac:	022181b3          	mul	gp,gp,sp
    c7b0:	0191509b          	srliw	ra,sp,0x19
    c7b4:	681a6197          	auipc	gp,0x681a6
    c7b8:	2f75c097          	auipc	ra,0x2f75c
    c7bc:	8081019b          	addiw	gp,sp,-2040
    c7c0:	509e6197          	auipc	gp,0x509e6
    c7c4:	0071169b          	slliw	a3,sp,0x7
    c7c8:	02400093          	li	ra,36
    c7cc:	67917313          	andi	t1,sp,1657
    c7d0:	003142b3          	xor	t0,sp,gp
    c7d4:	7824c517          	auipc	a0,0x7824c
    c7d8:	026350b3          	divu	ra,t1,t1
    c7dc:	4033d13b          	sraw	sp,t2,gp
    c7e0:	2631c013          	xori	zero,gp,611
    c7e4:	004161b3          	or	gp,sp,tp
    c7e8:	e640e113          	ori	sp,ra,-412
    c7ec:	5da34093          	xori	ra,t1,1498
    c7f0:	8d38f117          	auipc	sp,0x8d38f
    c7f4:	02814233          	div	tp,sp,s0
    c7f8:	03810133          	mul	sp,sp,s8
    c7fc:	80956117          	auipc	sp,0x80956
    c800:	01615113          	srli	sp,sp,0x16
    c804:	e60eb3b7          	lui	t2,0xe60eb
    c808:	00030093          	mv	ra,t1
    c80c:	46608e63          	beq	ra,t1,0xcc88
    c810:	78377137          	lui	sp,0x78377
    c814:	0147d09b          	srliw	ra,a5,0x14
    c818:	0011013b          	addw	sp,sp,ra
    c81c:	4053519b          	sraiw	gp,t1,0x5
    c820:	02300133          	mul	sp,zero,gp
    c824:	002111bb          	sllw	gp,sp,sp
    c828:	dc326093          	ori	ra,tp,-573
    c82c:	0111a833          	slt	a6,gp,a7
    c830:	dee14093          	xori	ra,sp,-530
    c834:	2550c113          	xori	sp,ra,597
    c838:	022151b3          	divu	gp,sp,sp
    c83c:	5a01b113          	sltiu	sp,gp,1440
    c840:	00112233          	slt	tp,sp,ra
    c844:	ddb7a397          	auipc	t2,0xddb7a
    c848:	55801117          	auipc	sp,0x55801
    c84c:	002063b3          	or	t2,zero,sp
    c850:	0030c133          	xor	sp,ra,gp
    c854:	c43a6397          	auipc	t2,0xc43a6
    c858:	01311a13          	slli	s4,sp,0x13
    c85c:	002191bb          	sllw	gp,gp,sp
    c860:	4012013b          	subw	sp,tp,ra
    c864:	2a95f0b7          	lui	ra,0x2a95f
    c868:	02509193          	slli	gp,ra,0x25
    c86c:	5101c193          	xori	gp,gp,1296
    c870:	03d31113          	slli	sp,t1,0x3d
    c874:	3a2c1197          	auipc	gp,0x3a2c1
    c878:	38673097          	auipc	ra,0x38673
    c87c:	403150bb          	sraw	ra,sp,gp
    c880:	b531819b          	addiw	gp,gp,-1197
    c884:	8b210093          	addi	ra,sp,-1870 # 0x5580d0fa
    c888:	021141b3          	div	gp,sp,ra
    c88c:	022081b3          	mul	gp,ra,sp
    c890:	d40ed8e3          	bgez	t4,0xc5e0
    c894:	d40ec6e3          	bltz	t4,0xc5e0
    c898:	01319113          	slli	sp,gp,0x13
    c89c:	001791b3          	sll	gp,a5,ra
    c8a0:	9a7ba317          	auipc	t1,0x9a7ba
    c8a4:	0231fab3          	remu	s5,gp,gp
    c8a8:	0031e0b3          	or	ra,gp,gp
    c8ac:	02114333          	div	t1,sp,ra
    c8b0:	0181121b          	slliw	tp,sp,0x18
    c8b4:	aa708093          	addi	ra,ra,-1369 # 0x3867f31f
    c8b8:	2921a113          	slti	sp,gp,658
    c8bc:	c600b193          	sltiu	gp,ra,-928
    c8c0:	4023003b          	subw	zero,t1,sp
    c8c4:	2cb1c0b7          	lui	ra,0x2cb1c
    c8c8:	021151b3          	divu	gp,sp,ra
    c8cc:	02626b33          	rem	s6,tp,t1
    c8d0:	2a31b193          	sltiu	gp,gp,675
    c8d4:	11616313          	ori	t1,sp,278
    c8d8:	004081b3          	add	gp,ra,tp
    c8dc:	00b1c133          	xor	sp,gp,a1
    c8e0:	022140b3          	div	ra,sp,sp
    c8e4:	0021033b          	addw	t1,sp,sp
    c8e8:	0030f033          	and	zero,ra,gp
    c8ec:	4b40c193          	xori	gp,ra,1204
    c8f0:	001190b3          	sll	ra,gp,ra
    c8f4:	0234c3b3          	div	t2,s1,gp
    c8f8:	0031a033          	slt	zero,gp,gp
    c8fc:	1d61d0b7          	lui	ra,0x1d61d
    c900:	02316333          	rem	t1,sp,gp
    c904:	023101b3          	mul	gp,sp,gp
    c908:	003130b3          	sltu	ra,sp,gp
    c90c:	0021e0b3          	or	ra,gp,sp
    c910:	40d081b3          	sub	gp,ra,a3
    c914:	4038513b          	sraw	sp,a6,gp
    c918:	41e4539b          	sraiw	t2,s0,0x1e
    c91c:	c870b213          	sltiu	tp,ra,-889
    c920:	0210f333          	remu	t1,ra,ra
    c924:	3f0552b7          	lui	t0,0x3f055
    c928:	0213c1b3          	div	gp,t2,ra
    c92c:	001082bb          	addw	t0,ra,ra
    c930:	b104f337          	lui	t1,0xb104f
    c934:	00118263          	beq	gp,ra,0xc938
    c938:	211005ef          	jal	a1,0xd348
    c93c:	00a0909b          	slliw	ra,ra,0xa
    c940:	f5d54097          	auipc	ra,0xf5d54
    c944:	00114233          	xor	tp,sp,ra
    c948:	0221f6b3          	remu	a3,gp,sp
    c94c:	37c1e193          	ori	gp,gp,892
    c950:	073d40b7          	lui	ra,0x73d4
    c954:	02215233          	divu	tp,sp,sp
    c958:	40500133          	neg	sp,t0
    c95c:	55f0c793          	xori	a5,ra,1375
    c960:	0043909b          	slliw	ra,t2,0x4
    c964:	91b1b193          	sltiu	gp,gp,-1765
    c968:	9d816593          	ori	a1,sp,-1576
    c96c:	4130d193          	srai	gp,ra,0x13
    c970:	4181d19b          	sraiw	gp,gp,0x18
    c974:	01e0901b          	slliw	zero,ra,0x1e
    c978:	0001d3bb          	srlw	t2,gp,zero
    c97c:	7ac14193          	xori	gp,sp,1964
    c980:	0111511b          	srliw	sp,sp,0x11
    c984:	66b0009b          	addiw	ra,zero,1643
    c988:	0231f133          	remu	sp,gp,gp
    c98c:	0171909b          	slliw	ra,gp,0x17
    c990:	0020a133          	slt	sp,ra,sp
    c994:	405353bb          	sraw	t2,t1,t0
    c998:	023183b3          	mul	t2,gp,gp
    c99c:	0030b133          	sltu	sp,ra,gp
    c9a0:	0231b113          	sltiu	sp,gp,35
    c9a4:	b6b511b7          	lui	gp,0xb6b51
    c9a8:	1780f113          	andi	sp,ra,376
    c9ac:	0021b1b3          	sltu	gp,gp,sp
    c9b0:	02235133          	divu	sp,t1,sp
    c9b4:	a5d1011b          	addiw	sp,sp,-1443
    c9b8:	0041023b          	addw	tp,sp,tp
    c9bc:	e3313113          	sltiu	sp,sp,-461
    c9c0:	7be18c63          	beq	gp,t5,0xd178
    c9c4:	7b4001ef          	jal	gp,0xd178
    c9c8:	40f3a097          	auipc	ra,0x40f3a
    c9cc:	0037a1b3          	slt	gp,a5,gp
    c9d0:	e06df1b7          	lui	gp,0xe06df
    c9d4:	40a2d133          	sra	sp,t0,a0
    c9d8:	023141b3          	div	gp,sp,gp
    c9dc:	0ff1b237          	lui	tp,0xff1b
    c9e0:	2361f813          	andi	a6,gp,566
    c9e4:	0213d133          	divu	sp,t2,ra
    c9e8:	9e3c7337          	lui	t1,0x9e3c7
    c9ec:	f11b7117          	auipc	sp,0xf11b7
    c9f0:	006160b3          	or	ra,sp,t1
    c9f4:	0cd12093          	slti	ra,sp,205
    c9f8:	02515133          	divu	sp,sp,t0
    c9fc:	03011093          	slli	ra,sp,0x30
    ca00:	0261d0b3          	divu	ra,gp,t1
    ca04:	002111b3          	sll	gp,sp,sp
    ca08:	4030d213          	srai	tp,ra,0x3
    ca0c:	003080b3          	add	ra,ra,gp
    ca10:	00d79f1b          	slliw	t5,a5,0xd
    ca14:	9ea1b113          	sltiu	sp,gp,-1558
    ca18:	57020297          	auipc	t0,0x57020
    ca1c:	4020d13b          	sraw	sp,ra,sp
    ca20:	94edc0b7          	lui	ra,0x94edc
    ca24:	49d72e97          	auipc	t4,0x49d72
    ca28:	4091513b          	sraw	sp,sp,s1
    ca2c:	003151b3          	srl	gp,sp,gp
    ca30:	b11f9097          	auipc	ra,0xb11f9
    ca34:	401150bb          	sraw	ra,sp,ra
    ca38:	0032101b          	slliw	zero,tp,0x3
    ca3c:	bc70b137          	lui	sp,0xbc70b
    ca40:	03f0d093          	srli	ra,ra,0x3f
    ca44:	0032d033          	srl	zero,t0,gp
    ca48:	00118463          	beq	gp,ra,0xca50
    ca4c:	004001ef          	jal	gp,0xca50
    ca50:	68adc537          	lui	a0,0x68adc
    ca54:	40f0dc9b          	sraiw	s9,ra,0xf
    ca58:	b4b40137          	lui	sp,0xb4b40
    ca5c:	0191111b          	slliw	sp,sp,0x19
    ca60:	1e486097          	auipc	ra,0x1e486
    ca64:	02809213          	slli	tp,ra,0x28
    ca68:	d5e1009b          	addiw	ra,sp,-674
    ca6c:	a632809b          	addiw	ra,t0,-1437
    ca70:	02301013          	slli	zero,zero,0x23
    ca74:	194f3017          	auipc	zero,0x194f3
    ca78:	002174b3          	and	s1,sp,sp
    ca7c:	0031d133          	srl	sp,gp,gp
    ca80:	40e1d19b          	sraiw	gp,gp,0xe
    ca84:	004351bb          	srlw	gp,t1,tp
    ca88:	0a527093          	andi	ra,tp,165
    ca8c:	fc208093          	addi	ra,ra,-62 # 0x1e492a22
    ca90:	020240b3          	div	ra,tp,zero
    ca94:	6c297b17          	auipc	s6,0x6c297
    ca98:	02304933          	div	s2,zero,gp
    ca9c:	00213133          	sltu	sp,sp,sp
    caa0:	d576d397          	auipc	t2,0xd576d
    caa4:	0211d133          	divu	sp,gp,ra
    caa8:	08328113          	addi	sp,t0,131 # 0x5702ca9b
    caac:	0206e4b3          	rem	s1,a3,zero
    cab0:	003140b3          	xor	ra,sp,gp
    cab4:	2154e113          	ori	sp,s1,533
    cab8:	2211e193          	ori	gp,gp,545
    cabc:	0231e1b3          	rem	gp,gp,gp
    cac0:	9aedd1b7          	lui	gp,0x9aedd
    cac4:	a3c2e093          	ori	ra,t0,-1476
    cac8:	02a11093          	slli	ra,sp,0x2a
    cacc:	f3b1c093          	xori	ra,gp,-197
    cad0:	d97a00b7          	lui	ra,0xd97a0
    cad4:	70bef097          	auipc	ra,0x70bef
    cad8:	0111909b          	slliw	ra,gp,0x11
    cadc:	2252fc63          	bgeu	t0,t0,0xcd14
    cae0:	2252ea63          	bltu	t0,t0,0xcd14
    cae4:	405101b3          	sub	gp,sp,t0
    cae8:	0031c1b3          	xor	gp,gp,gp
    caec:	0021003b          	addw	zero,sp,sp
    caf0:	a45b6217          	auipc	tp,0xa45b6
    caf4:	f371a593          	slti	a1,gp,-201
    caf8:	0031f0b3          	and	ra,gp,gp
    cafc:	00307233          	and	tp,zero,gp
    cb00:	00112133          	slt	sp,sp,ra
    cb04:	9cd3f113          	andi	sp,t2,-1587
    cb08:	1dc14013          	xori	zero,sp,476
    cb0c:	0042c633          	xor	a2,t0,tp
    cb10:	03a19393          	slli	t2,gp,0x3a
    cb14:	0020d0bb          	srlw	ra,ra,sp
    cb18:	0021f0b3          	and	ra,gp,sp
    cb1c:	08012113          	slti	sp,sp,128
    cb20:	cb20f393          	andi	t2,ra,-846
    cb24:	5f90809b          	addiw	ra,ra,1529
    cb28:	0334f137          	lui	sp,0x334f
    cb2c:	c9ff9137          	lui	sp,0xc9ff9
    cb30:	00d0d233          	srl	tp,ra,a3
    cb34:	001152bb          	srlw	t0,sp,ra
    cb38:	ffd1811b          	addiw	sp,gp,-3
    cb3c:	0210c133          	div	sp,ra,ra
    cb40:	2913f113          	andi	sp,t2,657
    cb44:	b2b32193          	slti	gp,t1,-1237
    cb48:	020100b3          	mul	ra,sp,zero
    cb4c:	002130b3          	sltu	ra,sp,sp
    cb50:	271a5117          	auipc	sp,0x271a5
    cb54:	03a09193          	slli	gp,ra,0x3a
    cb58:	0371d113          	srli	sp,gp,0x37
    cb5c:	006151b3          	srl	gp,sp,t1
    cb60:	0141931b          	slliw	t1,gp,0x14
    cb64:	002091b3          	sll	gp,ra,sp
    cb68:	0070b2b3          	sltu	t0,ra,t2
    cb6c:	0010a033          	slt	zero,ra,ra
    cb70:	13a0819b          	addiw	gp,ra,314
    cb74:	68110e63          	beq	sp,ra,0xd210
    cb78:	698000ef          	jal	ra,0xd210
    cb7c:	002110bb          	sllw	ra,sp,sp
    cb80:	002110b3          	sll	ra,sp,sp
    cb84:	37716193          	ori	gp,sp,887
    cb88:	40120333          	sub	t1,tp,ra
    cb8c:	40125093          	srai	ra,tp,0x1
    cb90:	5df8a117          	auipc	sp,0x5df8a
    cb94:	b950b293          	sltiu	t0,ra,-1131
    cb98:	0020c0b3          	xor	ra,ra,sp
    cb9c:	021171b3          	remu	gp,sp,ra
    cba0:	3a913793          	sltiu	a5,sp,937
    cba4:	4ecad117          	auipc	sp,0x4ecad
    cba8:	003183bb          	addw	t2,gp,gp
    cbac:	6e008093          	addi	ra,ra,1760 # 0x70bfc1b4
    cbb0:	939e31b7          	lui	gp,0x939e3
    cbb4:	4fe0f093          	andi	ra,ra,1278
    cbb8:	96ee01b7          	lui	gp,0x96ee0
    cbbc:	165b21b7          	lui	gp,0x165b2
    cbc0:	bba902b7          	lui	t0,0xbba90
    cbc4:	02c0d093          	srli	ra,ra,0x2c
    cbc8:	1a01e093          	ori	ra,gp,416
    cbcc:	4e41f5b7          	lui	a1,0x4e41f
    cbd0:	003103bb          	addw	t2,sp,gp
    cbd4:	00d170b3          	and	ra,sp,a3
    cbd8:	40f15213          	srai	tp,sp,0xf
    cbdc:	019370b3          	and	ra,t1,s9
    cbe0:	0011a0b3          	slt	ra,gp,ra
    cbe4:	40a1511b          	sraiw	sp,sp,0xa
    cbe8:	0091513b          	srlw	sp,sp,s1
    cbec:	406150bb          	sraw	ra,sp,t1
    cbf0:	7090819b          	addiw	gp,ra,1801
    cbf4:	00223233          	sltu	tp,tp,sp
    cbf8:	4160d31b          	sraiw	t1,ra,0x16
    cbfc:	00068113          	mv	sp,a3
    cc00:	6ad10663          	beq	sp,a3,0xd2ac
    cc04:	4031523b          	sraw	tp,sp,gp
    cc08:	0064c133          	xor	sp,s1,t1
    cc0c:	3ea75117          	auipc	sp,0x3ea75
    cc10:	0227c133          	div	sp,a5,sp
    cc14:	4897f097          	auipc	ra,0x4897f
    cc18:	4bb0a493          	slti	s1,ra,1211
    cc1c:	0034f1b3          	and	gp,s1,gp
    cc20:	cf27e0b7          	lui	ra,0xcf27e
    cc24:	002233b3          	sltu	t2,tp,sp
    cc28:	0022c1b3          	xor	gp,t0,sp
    cc2c:	5ca8a193          	slti	gp,a7,1482
    cc30:	002310b3          	sll	ra,t1,sp
    cc34:	4020d1b3          	sra	gp,ra,sp
    cc38:	0230d1b3          	divu	gp,ra,gp
    cc3c:	69414093          	xori	ra,sp,1684
    cc40:	0230d0b3          	divu	ra,ra,gp
    cc44:	bdec2117          	auipc	sp,0xbdec2
    cc48:	002f11b3          	sll	gp,t5,sp
    cc4c:	001302bb          	addw	t0,t1,ra
    cc50:	16218113          	addi	sp,gp,354 # 0x165b2162
    cc54:	a2e1809b          	addiw	ra,gp,-1490
    cc58:	4021d13b          	sraw	sp,gp,sp
    cc5c:	0050f0b3          	and	ra,ra,t0
    cc60:	8b687137          	lui	sp,0x8b687
    cc64:	403152b3          	sra	t0,sp,gp
    cc68:	7a5b31b7          	lui	gp,0x7a5b3
    cc6c:	1ad50197          	auipc	gp,0x1ad50
    cc70:	02b29193          	slli	gp,t0,0x2b
    cc74:	00114133          	xor	sp,sp,ra
    cc78:	cbdff117          	auipc	sp,0xcbdff
    cc7c:	001211b3          	sll	gp,tp,ra
    cc80:	d462d4e3          	bge	t0,t1,0xc9c8
    cc84:	d462c2e3          	blt	t0,t1,0xc9c8
    cc88:	c2a13397          	auipc	t2,0xc2a13
    cc8c:	0032519b          	srliw	gp,tp,0x3
    cc90:	0102111b          	slliw	sp,tp,0x10
    cc94:	d2697137          	lui	sp,0xd2697
    cc98:	001080bb          	addw	ra,ra,ra
    cc9c:	02215033          	divu	zero,sp,sp
    cca0:	f144f1b7          	lui	gp,0xf144f
    cca4:	4154d313          	srai	t1,s1,0x15
    cca8:	3887f1b7          	lui	gp,0x3887f
    ccac:	400a5e33          	sra	t3,s4,zero
    ccb0:	4001d0bb          	sraw	ra,gp,zero
    ccb4:	01d2e1b3          	or	gp,t0,t4
    ccb8:	16610b93          	addi	s7,sp,358 # 0xffffffffd2697166
    ccbc:	0bd0c393          	xori	t2,ra,189
    ccc0:	026081b3          	mul	gp,ra,t1
    ccc4:	02f081b3          	mul	gp,ra,a5
    ccc8:	00a3111b          	slliw	sp,t1,0xa
    cccc:	1de27013          	andi	zero,tp,478
    ccd0:	0020c1b3          	xor	gp,ra,sp
    ccd4:	b5b38337          	lui	t1,0xb5b38
    ccd8:	01e0931b          	slliw	t1,ra,0x1e
    ccdc:	e2f1b093          	sltiu	ra,gp,-465
    cce0:	00327133          	and	sp,tp,gp
    cce4:	bcf3e1b7          	lui	gp,0xbcf3e
    cce8:	0010fc33          	and	s8,ra,ra
    ccec:	00139133          	sll	sp,t2,ra
    ccf0:	31a17193          	andi	gp,sp,794
    ccf4:	05646197          	auipc	gp,0x5646
    ccf8:	0131929b          	slliw	t0,gp,0x13
    ccfc:	0221f9b3          	remu	s3,gp,sp
    cd00:	006090b3          	sll	ra,ra,t1
    cd04:	d1e6e197          	auipc	gp,0xd1e6e
    cd08:	96603493          	sltiu	s1,zero,-1690
    cd0c:	b830f6e3          	bgeu	ra,gp,0xc898
    cd10:	b830e4e3          	bltu	ra,gp,0xc898
    cd14:	01f1909b          	slliw	ra,gp,0x1f
    cd18:	e5608093          	addi	ra,ra,-426 # 0xffffffffcf27de56
    cd1c:	2ca8c297          	auipc	t0,0x2ca8c
    cd20:	2b013393          	sltiu	t2,sp,688
    cd24:	0187511b          	srliw	sp,a4,0x18
    cd28:	4090d01b          	sraiw	zero,ra,0x9
    cd2c:	4240d193          	srai	gp,ra,0x24
    cd30:	f7417193          	andi	gp,sp,-140
    cd34:	0081119b          	slliw	gp,sp,0x8
    cd38:	9e6f2437          	lui	s0,0x9e6f2
    cd3c:	402fd033          	sra	zero,t6,sp
    cd40:	90d0e1b7          	lui	gp,0x90d0e
    cd44:	ed63e193          	ori	gp,t2,-298
    cd48:	5e198337          	lui	t1,0x5e198
    cd4c:	0231e1b3          	rem	gp,gp,gp
    cd50:	02615233          	divu	tp,sp,t1
    cd54:	0204f0b3          	remu	ra,s1,zero
    cd58:	b0f10093          	addi	ra,sp,-1265
    cd5c:	d3de5137          	lui	sp,0xd3de5
    cd60:	00316233          	or	tp,sp,gp
    cd64:	1f0db5b7          	lui	a1,0x1f0db
    cd68:	001132b3          	sltu	t0,sp,ra
    cd6c:	00508a3b          	addw	s4,ra,t0
    cd70:	02d30233          	mul	tp,t1,a3
    cd74:	74717597          	auipc	a1,0x74717
    cd78:	01e2909b          	slliw	ra,t0,0x1e
    cd7c:	00a0931b          	slliw	t1,ra,0xa
    cd80:	006181b3          	add	gp,gp,t1
    cd84:	d66180e3          	beq	gp,t1,0xcae4
    cd88:	d5dff16f          	jal	sp,0xcae4
    cd8c:	baa513b7          	lui	t2,0xbaa51
    cd90:	aba0c693          	xori	a3,ra,-1350
    cd94:	01d13313          	sltiu	t1,sp,29
    cd98:	403151b3          	sra	gp,sp,gp
    cd9c:	4151c193          	xori	gp,gp,1045
    cda0:	8870819b          	addiw	gp,ra,-1913
    cda4:	00159333          	sll	t1,a1,ra
    cda8:	3d1b51b7          	lui	gp,0x3d1b5
    cdac:	0011c1b3          	xor	gp,gp,ra
    cdb0:	02218133          	mul	sp,gp,sp
    cdb4:	b90ca197          	auipc	gp,0xb90ca
    cdb8:	0210d133          	divu	sp,ra,ra
    cdbc:	0032d23b          	srlw	tp,t0,gp
    cdc0:	d313849b          	addiw	s1,t2,-719
    cdc4:	00d3e0b3          	or	ra,t2,a3
    cdc8:	9ca94797          	auipc	a5,0x9ca94
    cdcc:	1a917193          	andi	gp,sp,425
    cdd0:	c46891b7          	lui	gp,0xc4689
    cdd4:	004f519b          	srliw	gp,t5,0x4
    cdd8:	d130f013          	andi	zero,ra,-749
    cddc:	001970b3          	and	ra,s2,ra
    cde0:	294a4197          	auipc	gp,0x294a4
    cde4:	19c4a337          	lui	t1,0x19c4a
    cde8:	016201b7          	lui	gp,0x1620
    cdec:	40f150b3          	sra	ra,sp,a5
    cdf0:	02439013          	slli	zero,t2,0x24
    cdf4:	0031d033          	srl	zero,gp,gp
    cdf8:	0146909b          	slliw	ra,a3,0x14
    cdfc:	0073503b          	srlw	zero,t1,t2
    ce00:	02305333          	divu	t1,zero,gp
    ce04:	402180b3          	sub	ra,gp,sp
    ce08:	bb8ac3b7          	lui	t2,0xbb8ac
    ce0c:	8a60e193          	ori	gp,ra,-1882
    ce10:	2e00b193          	sltiu	gp,ra,736
    ce14:	f48ef193          	andi	gp,t4,-184
    ce18:	d62302e3          	beq	t1,sp,0xcb7c
    ce1c:	d61ff0ef          	jal	ra,0xcb7c
    ce20:	e96b0117          	auipc	sp,0xe96b0
    ce24:	0030d1b3          	srl	gp,ra,gp
    ce28:	401100bb          	subw	ra,sp,ra
    ce2c:	8d3681b7          	lui	gp,0x8d368
    ce30:	403250bb          	sraw	ra,tp,gp
    ce34:	41a1519b          	sraiw	gp,sp,0x1a
    ce38:	00309133          	sll	sp,ra,gp
    ce3c:	1a96f237          	lui	tp,0x1a96f
    ce40:	081ee113          	ori	sp,t4,129
    ce44:	0091c0b3          	xor	ra,gp,s1
    ce48:	b59262b7          	lui	t0,0xb5926
    ce4c:	0001a133          	sltz	sp,gp
    ce50:	02208333          	mul	t1,ra,sp
    ce54:	0011933b          	sllw	t1,gp,ra
    ce58:	eb016113          	ori	sp,sp,-336
    ce5c:	a1212793          	slti	a5,sp,-1518
    ce60:	002090b3          	sll	ra,ra,sp
    ce64:	03f19193          	slli	gp,gp,0x3f
    ce68:	683dc097          	auipc	ra,0x683dc
    ce6c:	4181d09b          	sraiw	ra,gp,0x18
    ce70:	98e14013          	xori	zero,sp,-1650
    ce74:	00311033          	sll	zero,sp,gp
    ce78:	02214133          	div	sp,sp,sp
    ce7c:	0011f0b3          	and	ra,gp,ra
    ce80:	02515133          	divu	sp,sp,t0
    ce84:	c957f097          	auipc	ra,0xc957f
    ce88:	853cf097          	auipc	ra,0x853cf
    ce8c:	57882197          	auipc	gp,0x57882
    ce90:	0220e033          	rem	zero,ra,sp
    ce94:	023150b3          	divu	ra,sp,gp
    ce98:	fe113493          	sltiu	s1,sp,-31
    ce9c:	19728197          	auipc	gp,0x19728
    cea0:	401151b3          	sra	gp,sp,ra
    cea4:	c7113113          	sltiu	sp,sp,-911
    cea8:	1e316093          	ori	ra,sp,483
    ceac:	00000197          	auipc	gp,0x0
    ceb0:	d5818667          	jalr	a2,-680(gp) # 0xcc04
    ceb4:	021047b3          	div	a5,zero,ra
    ceb8:	0021e0b3          	or	ra,gp,sp
    cebc:	01d1d19b          	srliw	gp,gp,0x1d
    cec0:	0213f0b3          	remu	ra,t2,ra
    cec4:	4011d1bb          	sraw	gp,gp,ra
    cec8:	0070dabb          	srlw	s5,ra,t2
    cecc:	3270011b          	addiw	sp,zero,807
    ced0:	68214093          	xori	ra,sp,1666
    ced4:	0011d3bb          	srlw	t2,gp,ra
    ced8:	58319117          	auipc	sp,0x58319
    cedc:	01c09093          	slli	ra,ra,0x1c
    cee0:	00328133          	add	sp,t0,gp
    cee4:	003111bb          	sllw	gp,sp,gp
    cee8:	4031d13b          	sraw	sp,gp,gp
    ceec:	7301f093          	andi	ra,gp,1840
    cef0:	02204133          	div	sp,zero,sp
    cef4:	0053111b          	slliw	sp,t1,0x5
    cef8:	0070d1b3          	srl	gp,ra,t2
    cefc:	402100bb          	subw	ra,sp,sp
    cf00:	d3b09097          	auipc	ra,0xd3b09
    cf04:	02619113          	slli	sp,gp,0x26
    cf08:	a93b77b7          	lui	a5,0xa93b7
    cf0c:	0060923b          	sllw	tp,ra,t1
    cf10:	0027b133          	sltu	sp,a5,sp
    cf14:	8a848093          	addi	ra,s1,-1880 # 0xab588a8
    cf18:	bb623193          	sltiu	gp,tp,-1098
    cf1c:	4fe0c293          	xori	t0,ra,1278
    cf20:	003186b3          	add	a3,gp,gp
    cf24:	00113333          	sltu	t1,sp,ra
    cf28:	40b25113          	srai	sp,tp,0xb
    cf2c:	b250e193          	ori	gp,ra,-1243
    cf30:	2a11b113          	sltiu	sp,gp,673
    cf34:	98e0f113          	andi	sp,ra,-1650
    cf38:	00000497          	auipc	s1,0x0
    cf3c:	1b848367          	jalr	t1,440(s1) # 0xd0f0
    cf40:	0070919b          	slliw	gp,ra,0x7
    cf44:	c7d06097          	auipc	ra,0xc7d06
    cf48:	a7873037          	lui	zero,0xa7873
    cf4c:	0091d49b          	srliw	s1,gp,0x9
    cf50:	40b1511b          	sraiw	sp,sp,0xb
    cf54:	0130f0b3          	and	ra,ra,s3
    cf58:	0021b1b3          	sltu	gp,gp,sp
    cf5c:	170b1117          	auipc	sp,0x170b1
    cf60:	022140b3          	div	ra,sp,sp
    cf64:	00d0b7b3          	sltu	a5,ra,a3
    cf68:	00004233          	xor	tp,zero,zero
    cf6c:	40418233          	sub	tp,gp,tp
    cf70:	00101133          	sll	sp,zero,ra
    cf74:	40708333          	sub	t1,ra,t2
    cf78:	42915093          	srai	ra,sp,0x29
    cf7c:	40b1513b          	sraw	sp,sp,a1
    cf80:	4161d0b3          	sra	ra,gp,s6
    cf84:	0111d093          	srli	ra,gp,0x11
    cf88:	0211e133          	rem	sp,gp,ra
    cf8c:	0213e133          	rem	sp,t2,ra
    cf90:	bd07c197          	auipc	gp,0xbd07c
    cf94:	98e0809b          	addiw	ra,ra,-1650
    cf98:	0211f1b3          	remu	gp,gp,ra
    cf9c:	0071d09b          	srliw	ra,gp,0x7
    cfa0:	287b3197          	auipc	gp,0x287b3
    cfa4:	401101b3          	sub	gp,sp,ra
    cfa8:	a3617113          	andi	sp,sp,-1482
    cfac:	00317fb3          	and	t6,sp,gp
    cfb0:	0161579b          	srliw	a5,sp,0x16
    cfb4:	021182b3          	mul	t0,gp,ra
    cfb8:	0012d13b          	srlw	sp,t0,ra
    cfbc:	daa7b393          	sltiu	t2,a5,-598
    cfc0:	96618ee3          	beq	gp,t1,0xc93c
    cfc4:	979ff16f          	jal	sp,0xc93c
    cfc8:	bf71a393          	slti	t2,gp,-1033
    cfcc:	00119233          	sll	tp,gp,ra
    cfd0:	40d68133          	sub	sp,a3,a3
    cfd4:	00010133          	add	sp,sp,zero
    cfd8:	0210d133          	divu	sp,ra,ra
    cfdc:	003191bb          	sllw	gp,gp,gp
    cfe0:	003002b3          	add	t0,zero,gp
    cfe4:	e923009b          	addiw	ra,t1,-366
    cfe8:	0011e1b3          	or	gp,gp,ra
    cfec:	bb508113          	addi	sp,ra,-1099 # 0xffffffffc7d12af9
    cff0:	401150b3          	sra	ra,sp,ra
    cff4:	2f802113          	slti	sp,zero,760
    cff8:	026157b3          	divu	a5,sp,t1
    cffc:	0030d13b          	srlw	sp,ra,gp
    d000:	37183697          	auipc	a3,0x37183
    d004:	7e30f093          	andi	ra,ra,2019
    d008:	0220d133          	divu	sp,ra,sp
    d00c:	1c65f1b7          	lui	gp,0x1c65f
    d010:	022102b3          	mul	t0,sp,sp
    d014:	0230f2b3          	remu	t0,ra,gp
    d018:	0210d033          	divu	zero,ra,ra
    d01c:	ca20c113          	xori	sp,ra,-862
    d020:	41010a3b          	subw	s4,sp,a6
    d024:	0260d093          	srli	ra,ra,0x26
    d028:	0003b3b3          	sltu	t2,t2,zero
    d02c:	102cd197          	auipc	gp,0x102cd
    d030:	021360b3          	rem	ra,t1,ra
    d034:	00207233          	and	tp,zero,sp
    d038:	b084e1b7          	lui	gp,0xb084e
    d03c:	a9c16093          	ori	ra,sp,-1380
    d040:	b5736093          	ori	ra,t1,-1193
    d044:	00316133          	or	sp,sp,gp
    d048:	02124133          	div	sp,tp,ra
    d04c:	0050d0b3          	srl	ra,ra,t0
    d050:	4450b013          	sltiu	zero,ra,1093
    d054:	0031e0b3          	or	ra,gp,gp
    d058:	00509133          	sll	sp,ra,t0
    d05c:	dc3102e3          	beq	sp,gp,0xce20
    d060:	dc1ff0ef          	jal	ra,0xce20
    d064:	0031c0b3          	xor	ra,gp,gp
    d068:	ca90a313          	slti	t1,ra,-855
    d06c:	c1296397          	auipc	t2,0xc1296
    d070:	0cd96113          	ori	sp,s2,205
    d074:	00210133          	add	sp,sp,sp
    d078:	0210d3b3          	divu	t2,ra,ra
    d07c:	01d0521b          	srliw	tp,zero,0x1d
    d080:	003091bb          	sllw	gp,ra,gp
    d084:	0210d113          	srli	sp,ra,0x21
    d088:	c571821b          	addiw	tp,gp,-937
    d08c:	00634133          	xor	sp,t1,t1
    d090:	00b1111b          	slliw	sp,sp,0xb
    d094:	003180b3          	add	ra,gp,gp
    d098:	0233d0b3          	divu	ra,t2,gp
    d09c:	95914313          	xori	t1,sp,-1703
    d0a0:	fb8b3197          	auipc	gp,0xfb8b3
    d0a4:	d28f8197          	auipc	gp,0xd28f8
    d0a8:	0af12793          	slti	a5,sp,175
    d0ac:	4101813b          	subw	sp,gp,a6
    d0b0:	022171b3          	remu	gp,sp,sp
    d0b4:	022246b3          	div	a3,tp,sp
    d0b8:	6c39b097          	auipc	ra,0x6c39b
    d0bc:	0010d13b          	srlw	sp,ra,ra
    d0c0:	0100909b          	slliw	ra,ra,0x10
    d0c4:	43b15093          	srai	ra,sp,0x3b
    d0c8:	023171b3          	remu	gp,sp,gp
    d0cc:	00227133          	and	sp,tp,sp
    d0d0:	01701213          	slli	tp,zero,0x17
    d0d4:	39a791b7          	lui	gp,0x39a79
    d0d8:	b26c0097          	auipc	ra,0xb26c0
    d0dc:	00a29593          	slli	a1,t0,0xa
    d0e0:	40715133          	sra	sp,sp,t2
    d0e4:	0071b1b3          	sltu	gp,gp,t2
    d0e8:	00000117          	auipc	sp,0x0
    d0ec:	dcc10167          	jalr	sp,-564(sp) # 0xceb4
    d0f0:	d131b193          	sltiu	gp,gp,-749
    d0f4:	55ef2137          	lui	sp,0x55ef2
    d0f8:	77b0811b          	addiw	sp,ra,1915
    d0fc:	9c00a113          	slti	sp,ra,-1600
    d100:	00130333          	add	t1,t1,ra
    d104:	0076a1b3          	slt	gp,a3,t2
    d108:	00f12033          	slt	zero,sp,a5
    d10c:	0201f033          	remu	zero,gp,zero
    d110:	556571b7          	lui	gp,0x55657
    d114:	00111133          	sll	sp,sp,ra
    d118:	26908193          	addi	gp,ra,617 # 0xffffffffb26cd341
    d11c:	0031133b          	sllw	t1,sp,gp
    d120:	00427113          	andi	sp,tp,4
    d124:	0007929b          	slliw	t0,a5,0x0
    d128:	116d7237          	lui	tp,0x116d7
    d12c:	95389237          	lui	tp,0x95389
    d130:	65de6097          	auipc	ra,0x65de6
    d134:	c7112193          	slti	gp,sp,-911
    d138:	0221c033          	div	zero,gp,sp
    d13c:	0042c133          	xor	sp,t0,tp
    d140:	0230e1b3          	rem	gp,ra,gp
    d144:	cd8651b7          	lui	gp,0xcd865
    d148:	92da7117          	auipc	sp,0x92da7
    d14c:	01d19093          	slli	ra,gp,0x1d
    d150:	9fc190b7          	lui	ra,0x9fc19
    d154:	e4634193          	xori	gp,t1,-442
    d158:	dcc23137          	lui	sp,0xdcc23
    d15c:	56d5e197          	auipc	gp,0x56d5e
    d160:	022100b3          	mul	ra,sp,sp
    d164:	4031d1b3          	sra	gp,gp,gp
    d168:	0232f0b3          	remu	ra,t0,gp
    d16c:	4020d1bb          	sraw	gp,ra,sp
    d170:	00208263          	beq	ra,sp,0xd174
    d174:	3910016f          	jal	sp,0xdd04
    d178:	003041b3          	xor	gp,zero,gp
    d17c:	6941e093          	ori	ra,gp,1684
    d180:	4021803b          	subw	zero,gp,sp
    d184:	89553197          	auipc	gp,0x89553
    d188:	000250bb          	srlw	ra,tp,zero
    d18c:	027141b3          	div	gp,sp,t2
    d190:	8a4f80b7          	lui	ra,0x8a4f8
    d194:	0210d0b3          	divu	ra,ra,ra
    d198:	0220d0b3          	divu	ra,ra,sp
    d19c:	7bbcf197          	auipc	gp,0x7bbcf
    d1a0:	4c10c293          	xori	t0,ra,1217
    d1a4:	023781b3          	mul	gp,a5,gp
    d1a8:	0011c0b3          	xor	ra,gp,ra
    d1ac:	0090e0b3          	or	ra,ra,s1
    d1b0:	5266f097          	auipc	ra,0x5266f
    d1b4:	40108d33          	sub	s10,ra,ra
    d1b8:	03c1e6b3          	rem	a3,gp,t3
    d1bc:	0240e133          	rem	sp,ra,tp
    d1c0:	003017b3          	sll	a5,zero,gp
    d1c4:	0111d09b          	srliw	ra,gp,0x11
    d1c8:	96ada097          	auipc	ra,0x96ada
    d1cc:	023160b3          	rem	ra,sp,gp
    d1d0:	00119133          	sll	sp,gp,ra
    d1d4:	002120b3          	slt	ra,sp,sp
    d1d8:	003081bb          	addw	gp,ra,gp
    d1dc:	2d01019b          	addiw	gp,sp,720
    d1e0:	001151bb          	srlw	gp,sp,ra
    d1e4:	0021f0b3          	and	ra,gp,sp
    d1e8:	02116133          	rem	sp,sp,ra
    d1ec:	a1b12213          	slti	tp,sp,-1509
    d1f0:	003081bb          	addw	gp,ra,gp
    d1f4:	0060b0b3          	sltu	ra,ra,t1
    d1f8:	01f15213          	srli	tp,sp,0x1f
    d1fc:	0140909b          	slliw	ra,ra,0x14
    d200:	464c8297          	auipc	t0,0x464c8
    d204:	0222e0b3          	rem	ra,t0,sp
    d208:	dc2080e3          	beq	ra,sp,0xcfc8
    d20c:	dbdff16f          	jal	sp,0xcfc8
    d210:	0210c133          	div	sp,ra,ra
    d214:	0051109b          	slliw	ra,sp,0x5
    d218:	09e17113          	andi	sp,sp,158
    d21c:	003130b3          	sltu	ra,sp,gp
    d220:	01e1919b          	slliw	gp,gp,0x1e
    d224:	0050913b          	sllw	sp,ra,t0
    d228:	2e592117          	auipc	sp,0x2e592
    d22c:	0270e033          	rem	zero,ra,t2
    d230:	cf136013          	ori	zero,t1,-783
    d234:	40125fbb          	sraw	t6,tp,ra
    d238:	6bd2f317          	auipc	t1,0x6bd2f
    d23c:	4136d19b          	sraiw	gp,a3,0x13
    d240:	9541a113          	slti	sp,gp,-1708
    d244:	6a20a313          	slti	t1,ra,1698
    d248:	01d1d293          	srli	t0,gp,0x1d
    d24c:	003150bb          	srlw	ra,sp,gp
    d250:	021ad1b3          	divu	gp,s5,ra
    d254:	0161579b          	srliw	a5,sp,0x16
    d258:	001cc133          	xor	sp,s9,ra
    d25c:	4021d1bb          	sraw	gp,gp,sp
    d260:	c889b0b7          	lui	ra,0xc889b
    d264:	0121109b          	slliw	ra,sp,0x12
    d268:	0100d113          	srli	sp,ra,0x10
    d26c:	0021d13b          	srlw	sp,gp,sp
    d270:	0031d6b3          	srl	a3,gp,gp
    d274:	021171b3          	remu	gp,sp,ra
    d278:	5c45a113          	slti	sp,a1,1476
    d27c:	fb816193          	ori	gp,sp,-72
    d280:	0231f133          	remu	sp,gp,gp
    d284:	15d80097          	auipc	ra,0x15d80
    d288:	00215133          	srl	sp,sp,sp
    d28c:	00a09093          	slli	ra,ra,0xa
    d290:	0011b0b3          	sltu	ra,gp,ra
    d294:	9e7f6497          	auipc	s1,0x9e7f6
    d298:	182800b7          	lui	ra,0x18280
    d29c:	3ef97137          	lui	sp,0x3ef97
    d2a0:	fb8de0b7          	lui	ra,0xfb8de
    d2a4:	00020113          	mv	sp,tp
    d2a8:	da410ee3          	beq	sp,tp,0xd064
    d2ac:	022c71b3          	remu	gp,s8,sp
    d2b0:	f380e193          	ori	gp,ra,-200
    d2b4:	c4416213          	ori	tp,sp,-956
    d2b8:	0223f233          	remu	tp,t2,sp
    d2bc:	0271d1b3          	divu	gp,gp,t2
    d2c0:	0020823b          	addw	tp,ra,sp
    d2c4:	402250bb          	sraw	ra,tp,sp
    d2c8:	84023137          	lui	sp,0x84023
    d2cc:	6e906193          	ori	gp,zero,1769
    d2d0:	0243d2b3          	divu	t0,t2,tp
    d2d4:	6ad7c0b7          	lui	ra,0x6ad7c
    d2d8:	9f70801b          	addiw	zero,ra,-1545
    d2dc:	69618193          	addi	gp,gp,1686 # 0x7bbdc832
    d2e0:	02108133          	mul	sp,ra,ra
    d2e4:	00c1109b          	slliw	ra,sp,0xc
    d2e8:	0051109b          	slliw	ra,sp,0x5
    d2ec:	0016b133          	sltu	sp,a3,ra
    d2f0:	003154b3          	srl	s1,sp,gp
    d2f4:	4bcbd0b7          	lui	ra,0x4bcbd
    d2f8:	00b1d03b          	srlw	zero,gp,a1
    d2fc:	8f51e193          	ori	gp,gp,-1803
    d300:	00211133          	sll	sp,sp,sp
    d304:	404150b3          	sra	ra,sp,tp
    d308:	0220f1b3          	remu	gp,ra,sp
    d30c:	09f47097          	auipc	ra,0x9f47
    d310:	d1216193          	ori	gp,sp,-750
    d314:	00019113          	slli	sp,gp,0x0
    d318:	6cb01317          	auipc	t1,0x6cb01
    d31c:	40525133          	sra	sp,tp,t0
    d320:	0301c133          	div	sp,gp,a6
    d324:	c2317213          	andi	tp,sp,-989
    d328:	4a9357b7          	lui	a5,0x4a935
    d32c:	a5006717          	auipc	a4,0xa5006
    d330:	0201d0b3          	divu	ra,gp,zero
    d334:	023100b3          	mul	ra,sp,gp
    d338:	bf72e113          	ori	sp,t0,-1033
    d33c:	00b0d21b          	srliw	tp,ra,0xb
    d340:	00020213          	mv	tp,tp
    d344:	be420ee3          	beq	tp,tp,0xcf40
    d348:	76f1f093          	andi	ra,gp,1903
    d34c:	42e9d213          	srai	tp,s3,0x2e
    d350:	0feb8097          	auipc	ra,0xfeb8
    d354:	0040911b          	slliw	sp,ra,0x4
    d358:	42a0d393          	srai	t2,ra,0x2a
    d35c:	1391b193          	sltiu	gp,gp,313
    d360:	ac03c0b7          	lui	ra,0xac03c
    d364:	4151d11b          	sraiw	sp,gp,0x15
    d368:	0092d2bb          	srlw	t0,t0,s1
    d36c:	0020a0b3          	slt	ra,ra,sp
    d370:	022171b3          	remu	gp,sp,sp
    d374:	bae1b113          	sltiu	sp,gp,-1106
    d378:	0031e3b3          	or	t2,gp,gp
    d37c:	4011d1b3          	sra	gp,gp,ra
    d380:	0221ef33          	rem	t5,gp,sp
    d384:	52f17093          	andi	ra,sp,1327
    d388:	0162d113          	srli	sp,t0,0x16
    d38c:	0a61a093          	slti	ra,gp,166
    d390:	7bee2097          	auipc	ra,0x7bee2
    d394:	004080bb          	addw	ra,ra,tp
    d398:	023350b3          	divu	ra,t1,gp
    d39c:	0031013b          	addw	sp,sp,gp
    d3a0:	02114133          	div	sp,sp,ra
    d3a4:	01612333          	slt	t1,sp,s6
    d3a8:	0001f1b3          	and	gp,gp,zero
    d3ac:	0030d1b3          	srl	gp,ra,gp
    d3b0:	0011139b          	slliw	t2,sp,0x1
    d3b4:	40115133          	sra	sp,sp,ra
    d3b8:	0212e1b3          	rem	gp,t0,ra
    d3bc:	eb617213          	andi	tp,sp,-330
    d3c0:	57b1821b          	addiw	tp,gp,1403
    d3c4:	0221f0b3          	remu	ra,gp,sp
    d3c8:	018181bb          	addw	gp,gp,s8
    d3cc:	0001e4b3          	or	s1,gp,zero
    d3d0:	9a115ee3          	bge	sp,ra,0xcd8c
    d3d4:	9a114ce3          	blt	sp,ra,0xcd8c
    d3d8:	002351bb          	srlw	gp,t1,sp
    d3dc:	0031f133          	and	sp,gp,gp
    d3e0:	02106033          	rem	zero,zero,ra
    d3e4:	003382bb          	addw	t0,t2,gp
    d3e8:	0013f3b3          	and	t2,t2,ra
    d3ec:	4a2592b7          	lui	t0,0x4a259
    d3f0:	dc51c113          	xori	sp,gp,-571
    d3f4:	401087b3          	sub	a5,ra,ra
    d3f8:	00f1909b          	slliw	ra,gp,0xf
    d3fc:	a8416113          	ori	sp,sp,-1404
    d400:	0070c133          	xor	sp,ra,t2
    d404:	023170b3          	remu	ra,sp,gp
    d408:	2cd5c317          	auipc	t1,0x2cd5c
    d40c:	d152b1b7          	lui	gp,0xd152b
    d410:	98236193          	ori	gp,t1,-1662
    d414:	00117633          	and	a2,sp,ra
    d418:	0010a0b3          	slt	ra,ra,ra
    d41c:	002110bb          	sllw	ra,sp,sp
    d420:	00b1c0b3          	xor	ra,gp,a1
    d424:	13c74217          	auipc	tp,0x13c74
    d428:	4382d093          	srai	ra,t0,0x38
    d42c:	002101bb          	addw	gp,sp,sp
    d430:	6013839b          	addiw	t2,t2,1537
    d434:	deadf0b7          	lui	ra,0xdeadf
    d438:	002280bb          	addw	ra,t0,sp
    d43c:	4010d13b          	sraw	sp,ra,ra
    d440:	5e0111b7          	lui	gp,0x5e011
    d444:	f1f17213          	andi	tp,sp,-225
    d448:	00b11213          	slli	tp,sp,0xb
    d44c:	01411113          	slli	sp,sp,0x14
    d450:	000481bb          	addw	gp,s1,zero
    d454:	0020d0b3          	srl	ra,ra,sp
    d458:	e4bff117          	auipc	sp,0xe4bff
    d45c:	00008093          	mv	ra,ra
    d460:	64108663          	beq	ra,ra,0xdaac
    d464:	000070b3          	and	ra,zero,zero
    d468:	0023b033          	sltu	zero,t2,sp
    d46c:	023150b3          	divu	ra,sp,gp
    d470:	84d23713          	sltiu	a4,tp,-1971
    d474:	003091bb          	sllw	gp,ra,gp
    d478:	003150b3          	srl	ra,sp,gp
    d47c:	4002d113          	srai	sp,t0,0x0
    d480:	0110921b          	slliw	tp,ra,0x11
    d484:	3550b293          	sltiu	t0,ra,853
    d488:	001054b3          	srl	s1,zero,ra
    d48c:	402101bb          	subw	gp,sp,sp
    d490:	4180d01b          	sraiw	zero,ra,0x18
    d494:	0181921b          	slliw	tp,gp,0x18
    d498:	0030a1b3          	slt	gp,ra,gp
    d49c:	01f3911b          	slliw	sp,t2,0x1f
    d4a0:	022071b3          	remu	gp,zero,sp
    d4a4:	3db17393          	andi	t2,sp,987
    d4a8:	c6f18393          	addi	t2,gp,-913 # 0x5e010c6f
    d4ac:	00511193          	slli	gp,sp,0x5
    d4b0:	0211d1b3          	divu	gp,gp,ra
    d4b4:	b3b3019b          	addiw	gp,t1,-1221
    d4b8:	0163d21b          	srliw	tp,t2,0x16
    d4bc:	0021a133          	slt	sp,gp,sp
    d4c0:	efbfc317          	auipc	t1,0xefbfc
    d4c4:	0223c133          	div	sp,t2,sp
    d4c8:	818f80b7          	lui	ra,0x818f8
    d4cc:	0041f133          	and	sp,gp,tp
    d4d0:	0181169b          	slliw	a3,sp,0x18
    d4d4:	00110263          	beq	sp,ra,0xd4d8
    d4d8:	1cd000ef          	jal	ra,0xdea4
    d4dc:	0033a133          	slt	sp,t2,gp
    d4e0:	c6110f13          	addi	t5,sp,-927 # 0xffffffffe4c0c0b9
    d4e4:	726ea117          	auipc	sp,0x726ea
    d4e8:	0030d2bb          	srlw	t0,ra,gp
    d4ec:	0033d233          	srl	tp,t2,gp
    d4f0:	4090d3b3          	sra	t2,ra,s1
    d4f4:	367ac197          	auipc	gp,0x367ac
    d4f8:	2b403137          	lui	sp,0x2b403
    d4fc:	0030a1b3          	slt	gp,ra,gp
    d500:	03015113          	srli	sp,sp,0x30
    d504:	02115133          	divu	sp,sp,ra
    d508:	a2b84237          	lui	tp,0xa2b84
    d50c:	0010a0b3          	slt	ra,ra,ra
    d510:	4171d19b          	sraiw	gp,gp,0x17
    d514:	5bedd0b7          	lui	ra,0x5bedd
    d518:	00b09193          	slli	gp,ra,0xb
    d51c:	907df1b7          	lui	gp,0x907df
    d520:	035152b3          	divu	t0,sp,s5
    d524:	402800bb          	subw	ra,a6,sp
    d528:	7f416093          	ori	ra,sp,2036
    d52c:	887b6197          	auipc	gp,0x887b6
    d530:	0016813b          	addw	sp,a3,ra
    d534:	402181bb          	subw	gp,gp,sp
    d538:	007380bb          	addw	ra,t2,t2
    d53c:	4072d3b3          	sra	t2,t0,t2
    d540:	42415593          	srai	a1,sp,0x24
    d544:	0170d11b          	srliw	sp,ra,0x17
    d548:	40225233          	sra	tp,tp,sp
    d54c:	00212133          	slt	sp,sp,sp
    d550:	02f3f133          	remu	sp,t2,a5
    d554:	0201f333          	remu	t1,gp,zero
    d558:	401300bb          	subw	ra,t1,ra
    d55c:	8d1a9137          	lui	sp,0x8d1a9
    d560:	88b18193          	addi	gp,gp,-1909 # 0xffffffff887c2db7
    d564:	be456117          	auipc	sp,0xbe456
    d568:	e610f8e3          	bgeu	ra,ra,0xd3d8
    d56c:	e610e6e3          	bltu	ra,ra,0xd3d8
    d570:	ac728193          	addi	gp,t0,-1337 # 0x4a258ac7
    d574:	02f662b3          	rem	t0,a2,a5
    d578:	0c534093          	xori	ra,t1,197
    d57c:	836f50b7          	lui	ra,0x836f5
    d580:	e003c117          	auipc	sp,0xe003c
    d584:	bf9ad197          	auipc	gp,0xbf9ad
    d588:	90310113          	addi	sp,sp,-1789 # 0xffffffffe0048e83
    d58c:	401100bb          	subw	ra,sp,ra
    d590:	c2523393          	sltiu	t2,tp,-987
    d594:	40d1d333          	sra	t1,gp,a3
    d598:	002150bb          	srlw	ra,sp,sp
    d59c:	002590b3          	sll	ra,a1,sp
    d5a0:	21f1a093          	slti	ra,gp,543
    d5a4:	00413133          	sltu	sp,sp,tp
    d5a8:	bb50a293          	slti	t0,ra,-1099
    d5ac:	033c9093          	slli	ra,s9,0x33
    d5b0:	b6f22113          	slti	sp,tp,-1169
    d5b4:	002271b3          	and	gp,tp,sp
    d5b8:	25c9e097          	auipc	ra,0x25c9e
    d5bc:	02119313          	slli	t1,gp,0x21
    d5c0:	ef849397          	auipc	t2,0xef849
    d5c4:	f8d10513          	addi	a0,sp,-115
    d5c8:	0020133b          	sllw	t1,zero,sp
    d5cc:	402053b3          	sra	t2,zero,sp
    d5d0:	8cf0a593          	slti	a1,ra,-1841
    d5d4:	002f82b3          	add	t0,t6,sp
    d5d8:	004150b3          	srl	ra,sp,tp
    d5dc:	00129233          	sll	tp,t0,ra
    d5e0:	4171509b          	sraiw	ra,sp,0x17
    d5e4:	0528f0b7          	lui	ra,0x528f
    d5e8:	163a011b          	addiw	sp,s4,355
    d5ec:	0030b133          	sltu	sp,ra,gp
    d5f0:	93e56137          	lui	sp,0x93e56
    d5f4:	e9625097          	auipc	ra,0xe9625
    d5f8:	4090521b          	sraiw	tp,zero,0x9
    d5fc:	002081bb          	addw	gp,ra,sp
    d600:	01a01313          	slli	t1,zero,0x1a
    d604:	00000117          	auipc	sp,0x0
    d608:	09c102e7          	jalr	t0,156(sp) # 0xd6a0
    d60c:	020171b3          	remu	gp,sp,zero
    d610:	001044b3          	xor	s1,zero,ra
    d614:	4022d133          	sra	sp,t0,sp
    d618:	e8f18093          	addi	ra,gp,-369 # 0xffffffffbf9ba413
    d61c:	0eb2a037          	lui	zero,0xeb2a
    d620:	0ac0a213          	slti	tp,ra,172
    d624:	2920e1b7          	lui	gp,0x2920e
    d628:	d204809b          	addiw	ra,s1,-736
    d62c:	47213293          	sltiu	t0,sp,1138
    d630:	12618093          	addi	ra,gp,294 # 0x2920e126
    d634:	020b57b3          	divu	a5,s6,zero
    d638:	c3508097          	auipc	ra,0xc3508
    d63c:	0032999b          	slliw	s3,t0,0x3
    d640:	9f453017          	auipc	zero,0x9f453
    d644:	2ff1001b          	addiw	zero,sp,767
    d648:	00411193          	slli	gp,sp,0x4
    d64c:	0251f133          	remu	sp,gp,t0
    d650:	99a10e9b          	addiw	t4,sp,-1638
    d654:	7d55d117          	auipc	sp,0x7d55d
    d658:	425dd113          	srai	sp,s11,0x25
    d65c:	1af8e097          	auipc	ra,0x1af8e
    d660:	00330bb3          	add	s7,t1,gp
    d664:	75ae4097          	auipc	ra,0x75ae4
    d668:	00212133          	slt	sp,sp,sp
    d66c:	ab712093          	slti	ra,sp,-1353
    d670:	021340b3          	div	ra,t1,ra
    d674:	002107bb          	addw	a5,sp,sp
    d678:	00119eb3          	sll	t4,gp,ra
    d67c:	3321a093          	slti	ra,gp,818
    d680:	27728113          	addi	sp,t0,631
    d684:	41c1dd93          	srai	s11,gp,0x1c
    d688:	a780809b          	addiw	ra,ra,-1416
    d68c:	0171109b          	slliw	ra,sp,0x17
    d690:	02117233          	remu	tp,sp,ra
    d694:	0011e033          	or	zero,gp,ra
    d698:	7611de63          	bge	gp,ra,0xde14
    d69c:	7611cc63          	blt	gp,ra,0xde14
    d6a0:	902f9317          	auipc	t1,0x902f9
    d6a4:	02c25193          	srli	gp,tp,0x2c
    d6a8:	02009093          	slli	ra,ra,0x20
    d6ac:	9fa2011b          	addiw	sp,tp,-1542
    d6b0:	3d0bf0b7          	lui	ra,0x3d0bf
    d6b4:	4001d91b          	sraiw	s2,gp,0x0
    d6b8:	0081929b          	slliw	t0,gp,0x8
    d6bc:	009750bb          	srlw	ra,a4,s1
    d6c0:	dcf1b113          	sltiu	sp,gp,-561
    d6c4:	01829313          	slli	t1,t0,0x18
    d6c8:	e041e113          	ori	sp,gp,-508
    d6cc:	56dbb097          	auipc	ra,0x56dbb
    d6d0:	400283bb          	subw	t2,t0,zero
    d6d4:	01011393          	slli	t2,sp,0x10
    d6d8:	009180b3          	add	ra,gp,s1
    d6dc:	172fe093          	ori	ra,t6,370
    d6e0:	001180bb          	addw	ra,gp,ra
    d6e4:	0151911b          	slliw	sp,gp,0x15
    d6e8:	0220d1b3          	divu	gp,ra,sp
    d6ec:	0030949b          	slliw	s1,ra,0x3
    d6f0:	0120909b          	slliw	ra,ra,0x12
    d6f4:	a670f213          	andi	tp,ra,-1433
    d6f8:	82095217          	auipc	tp,0x82095
    d6fc:	403200b3          	sub	ra,tp,gp
    d700:	e5e36893          	ori	a7,t1,-418
    d704:	3b83e217          	auipc	tp,0x3b83e
    d708:	003261b3          	or	gp,tp,gp
    d70c:	b9416193          	ori	gp,sp,-1132
    d710:	0230e133          	rem	sp,ra,gp
    d714:	007301bb          	addw	gp,t1,t2
    d718:	d7712113          	slti	sp,sp,-649
    d71c:	4011513b          	sraw	sp,sp,ra
    d720:	9c41c113          	xori	sp,gp,-1596
    d724:	0211f0b3          	remu	ra,gp,ra
    d728:	d1b8e197          	auipc	gp,0xd1b8e
    d72c:	00000117          	auipc	sp,0x0
    d730:	1bc102e7          	jalr	t0,444(sp) # 0xd8e8
    d734:	b761b093          	sltiu	ra,gp,-1162
    d738:	6e527493          	andi	s1,tp,1765
    d73c:	1b1d61b7          	lui	gp,0x1b1d6
    d740:	003191bb          	sllw	gp,gp,gp
    d744:	402182b3          	sub	t0,gp,sp
    d748:	0291d0b3          	divu	ra,gp,s1
    d74c:	0015e233          	or	tp,a1,ra
    d750:	0b203213          	sltiu	tp,zero,178
    d754:	021340b3          	div	ra,t1,ra
    d758:	7f510313          	addi	t1,sp,2037
    d75c:	402151b3          	sra	gp,sp,sp
    d760:	0021b2b3          	sltu	t0,gp,sp
    d764:	022bd113          	srli	sp,s7,0x22
    d768:	0052b0b3          	sltu	ra,t0,t0
    d76c:	001111b3          	sll	gp,sp,ra
    d770:	ab90c113          	xori	sp,ra,-1351
    d774:	13103113          	sltiu	sp,zero,305
    d778:	0011a1b3          	slt	gp,gp,ra
    d77c:	00109133          	sll	sp,ra,ra
    d780:	401101b3          	sub	gp,sp,ra
    d784:	4011513b          	sraw	sp,sp,ra
    d788:	4af1a093          	slti	ra,gp,1199
    d78c:	e6a17113          	andi	sp,sp,-406
    d790:	6c6f8297          	auipc	t0,0x6c6f8
    d794:	401151bb          	sraw	gp,sp,ra
    d798:	407906bb          	subw	a3,s2,t2
    d79c:	0031d033          	srl	zero,gp,gp
    d7a0:	02a30133          	mul	sp,t1,a0
    d7a4:	00533033          	sltu	zero,t1,t0
    d7a8:	40215133          	sra	sp,sp,sp
    d7ac:	00018093          	mv	ra,gp
    d7b0:	4c308063          	beq	ra,gp,0xdc70
    d7b4:	79b0031b          	addiw	t1,zero,1947
    d7b8:	04a87097          	auipc	ra,0x4a87
    d7bc:	0241c0b3          	div	ra,gp,tp
    d7c0:	3041f113          	andi	sp,gp,772
    d7c4:	8b81c113          	xori	sp,gp,-1864
    d7c8:	d520801b          	addiw	zero,ra,-686
    d7cc:	8460e113          	ori	sp,ra,-1978
    d7d0:	42e15193          	srai	gp,sp,0x2e
    d7d4:	03c21093          	slli	ra,tp,0x3c
    d7d8:	e8700397          	auipc	t2,0xe8700
    d7dc:	97419e97          	auipc	t4,0x97419
    d7e0:	02a09193          	slli	gp,ra,0x2a
    d7e4:	4321f293          	andi	t0,gp,1074
    d7e8:	402402b3          	sub	t0,s0,sp
    d7ec:	7026e1b7          	lui	gp,0x7026e
    d7f0:	00c2d19b          	srliw	gp,t0,0xc
    d7f4:	40324117          	auipc	sp,0x40324
    d7f8:	41e0d29b          	sraiw	t0,ra,0x1e
    d7fc:	79b520b7          	lui	ra,0x79b52
    d800:	003081bb          	addw	gp,ra,gp
    d804:	00209233          	sll	tp,ra,sp
    d808:	00208233          	add	tp,ra,sp
    d80c:	4170d113          	srai	sp,ra,0x17
    d810:	02388233          	mul	tp,a7,gp
    d814:	70f0f197          	auipc	gp,0x70f0f
    d818:	4027d0b3          	sra	ra,a5,sp
    d81c:	fb607093          	andi	ra,zero,-74
    d820:	6f9b9017          	auipc	zero,0x6f9b9
    d824:	0032b2b3          	sltu	t0,t0,gp
    d828:	0010f333          	and	t1,ra,ra
    d82c:	b382a1b7          	lui	gp,0xb382a
    d830:	03018133          	mul	sp,gp,a6
    d834:	17e48113          	addi	sp,s1,382 # 0xffffffff9e803412
    d838:	2bf0c093          	xori	ra,ra,703
    d83c:	4bf33337          	lui	t1,0x4bf33
    d840:	026680b3          	mul	ra,a3,t1
    d844:	00000193          	li	gp,0
    d848:	dc0182e3          	beqz	gp,0xd60c
    d84c:	003090b3          	sll	ra,ra,gp
    d850:	ce517137          	lui	sp,0xce517
    d854:	002250bb          	srlw	ra,tp,sp
    d858:	02218133          	mul	sp,gp,sp
    d85c:	930dd0b7          	lui	ra,0x930dd
    d860:	23319117          	auipc	sp,0x23319
    d864:	1b7692b7          	lui	t0,0x1b769
    d868:	5231b093          	sltiu	ra,gp,1315
    d86c:	0161d19b          	srliw	gp,gp,0x16
    d870:	24bb2317          	auipc	t1,0x24bb2
    d874:	03a25393          	srli	t2,tp,0x3a
    d878:	0040e113          	ori	sp,ra,4
    d87c:	0031c133          	xor	sp,gp,gp
    d880:	8909c1b7          	lui	gp,0x8909c
    d884:	e0e3019b          	addiw	gp,t1,-498
    d888:	3550a013          	slti	zero,ra,853
    d88c:	9241819b          	addiw	gp,gp,-1756
    d890:	40fb519b          	sraiw	gp,s6,0xf
    d894:	2bf23093          	sltiu	ra,tp,703
    d898:	4011003b          	subw	zero,sp,ra
    d89c:	01e0909b          	slliw	ra,ra,0x1e
    d8a0:	003262b3          	or	t0,tp,gp
    d8a4:	2cc22013          	slti	zero,tp,716
    d8a8:	40b0d19b          	sraiw	gp,ra,0xb
    d8ac:	0240c133          	div	sp,ra,tp
    d8b0:	4130d29b          	sraiw	t0,ra,0x13
    d8b4:	00d14133          	xor	sp,sp,a3
    d8b8:	081d8117          	auipc	sp,0x81d8
    d8bc:	bb824193          	xori	gp,tp,-1096
    d8c0:	9adca1b7          	lui	gp,0x9adca
    d8c4:	023160b3          	rem	ra,sp,gp
    d8c8:	5a60b093          	sltiu	ra,ra,1446
    d8cc:	433d9117          	auipc	sp,0x433d9
    d8d0:	03515133          	divu	sp,sp,s5
    d8d4:	4a0240b7          	lui	ra,0x4a024
    d8d8:	868a60b7          	lui	ra,0x868a6
    d8dc:	c48ebdb7          	lui	s11,0xc48eb
    d8e0:	2e208a63          	beq	ra,sp,0xdbd4
    d8e4:	2f00016f          	jal	sp,0xdbd4
    d8e8:	0020c133          	xor	sp,ra,sp
    d8ec:	4193d49b          	sraiw	s1,t2,0x19
    d8f0:	0071911b          	slliw	sp,gp,0x7
    d8f4:	4001d093          	srai	ra,gp,0x0
    d8f8:	020047b3          	div	a5,zero,zero
    d8fc:	00138533          	add	a0,t2,ra
    d900:	00285033          	srl	zero,a6,sp
    d904:	021161b3          	rem	gp,sp,ra
    d908:	01f386b3          	add	a3,t2,t6
    d90c:	0062b0b3          	sltu	ra,t0,t1
    d910:	22b1f193          	andi	gp,gp,555
    d914:	03f30097          	auipc	ra,0x3f30
    d918:	00308033          	add	zero,ra,gp
    d91c:	41615193          	srai	gp,sp,0x16
    d920:	00217133          	and	sp,sp,sp
    d924:	40118133          	sub	sp,gp,ra
    d928:	0b514113          	xori	sp,sp,181
    d92c:	0042e133          	or	sp,t0,tp
    d930:	4020513b          	sraw	sp,zero,sp
    d934:	407d023b          	subw	tp,s10,t2
    d938:	003090b3          	sll	ra,ra,gp
    d93c:	002340b3          	xor	ra,t1,sp
    d940:	df05f117          	auipc	sp,0xdf05f
    d944:	3f77f1b7          	lui	gp,0x3f77f
    d948:	001025b3          	sgtz	a1,ra
    d94c:	4031d13b          	sraw	sp,gp,gp
    d950:	0000c1b3          	xor	gp,ra,zero
    d954:	9d800193          	li	gp,-1576
    d958:	980ae093          	ori	ra,s5,-1664
    d95c:	0233c133          	div	sp,t2,gp
    d960:	023265b3          	rem	a1,tp,gp
    d964:	800b6097          	auipc	ra,0x800b6
    d968:	00117133          	and	sp,sp,ra
    d96c:	4930e093          	ori	ra,ra,1171
    d970:	2b513193          	sltiu	gp,sp,693
    d974:	00018b13          	mv	s6,gp
    d978:	ec3b0ae3          	beq	s6,gp,0xd84c
    d97c:	b4b1a193          	slti	gp,gp,-1205
    d980:	920a61b7          	lui	gp,0x920a6
    d984:	963df197          	auipc	gp,0x963df
    d988:	f6832b13          	slti	s6,t1,-152
    d98c:	b937e197          	auipc	gp,0xb937e
    d990:	00108133          	add	sp,ra,ra
    d994:	001131b3          	sltu	gp,sp,ra
    d998:	00327133          	and	sp,tp,gp
    d99c:	02114233          	div	tp,sp,ra
    d9a0:	0211d1b3          	divu	gp,gp,ra
    d9a4:	1794a1b7          	lui	gp,0x1794a
    d9a8:	0031b0b3          	sltu	ra,gp,gp
    d9ac:	01e0d11b          	srliw	sp,ra,0x1e
    d9b0:	0031e1b3          	or	gp,gp,gp
    d9b4:	0210f0b3          	remu	ra,ra,ra
    d9b8:	03b83113          	sltiu	sp,a6,59
    d9bc:	64c99197          	auipc	gp,0x64c99
    d9c0:	02fce1b3          	rem	gp,s9,a5
    d9c4:	37ea9037          	lui	zero,0x37ea9
    d9c8:	43915193          	srai	gp,sp,0x39
    d9cc:	4e7ab1b7          	lui	gp,0x4e7ab
    d9d0:	0131d11b          	srliw	sp,gp,0x13
    d9d4:	001081b3          	add	gp,ra,ra
    d9d8:	880731b7          	lui	gp,0x88073
    d9dc:	00b1511b          	srliw	sp,sp,0xb
    d9e0:	00110033          	add	zero,sp,ra
    d9e4:	01f0d39b          	srliw	t2,ra,0x1f
    d9e8:	1db8f117          	auipc	sp,0x1db8f
    d9ec:	01729193          	slli	gp,t0,0x17
    d9f0:	403151b3          	sra	gp,sp,gp
    d9f4:	d4510093          	addi	ra,sp,-699 # 0x1db9c72d
    d9f8:	0263f1b3          	remu	gp,t2,t1
    d9fc:	de516193          	ori	gp,sp,-539
    da00:	d1617113          	andi	sp,sp,-746
    da04:	72213193          	sltiu	gp,sp,1826
    da08:	401181b3          	sub	gp,gp,ra
    da0c:	401101b3          	sub	gp,sp,ra
    da10:	dac0e193          	ori	gp,ra,-596
    da14:	00508263          	beq	ra,t0,0xda18
    da18:	4b90016f          	jal	sp,0xe6d0
    da1c:	03a09113          	slli	sp,ra,0x3a
    da20:	099270b7          	lui	ra,0x9927
    da24:	0130989b          	slliw	a7,ra,0x13
    da28:	403150bb          	sraw	ra,sp,gp
    da2c:	01811193          	slli	gp,sp,0x18
    da30:	c7728097          	auipc	ra,0xc7728
    da34:	37392137          	lui	sp,0x37392
    da38:	00811193          	slli	gp,sp,0x8
    da3c:	0021f133          	and	sp,gp,sp
    da40:	021188b3          	mul	a7,gp,ra
    da44:	1abc4017          	auipc	zero,0x1abc4
    da48:	0011111b          	slliw	sp,sp,0x1
    da4c:	00726133          	or	sp,tp,t2
    da50:	0250f3b3          	remu	t2,ra,t0
    da54:	004e70b3          	and	ra,t3,tp
    da58:	00480233          	add	tp,a6,tp
    da5c:	b4352113          	slti	sp,a0,-1213
    da60:	00d09a13          	slli	s4,ra,0xd
    da64:	0030f0b3          	and	ra,ra,gp
    da68:	0030d0bb          	srlw	ra,ra,gp
    da6c:	8a41819b          	addiw	gp,gp,-1884
    da70:	9c20a093          	slti	ra,ra,-1598
    da74:	00119133          	sll	sp,gp,ra
    da78:	01a3119b          	slliw	gp,t1,0x1a
    da7c:	023101b3          	mul	gp,sp,gp
    da80:	f59dd237          	lui	tp,0xf59dd
    da84:	25604113          	xori	sp,zero,598
    da88:	0011d03b          	srlw	zero,gp,ra
    da8c:	0020d1bb          	srlw	gp,ra,sp
    da90:	0011513b          	srlw	sp,sp,ra
    da94:	0020f3b3          	and	t2,ra,sp
    da98:	7ac00093          	li	ra,1964
    da9c:	4012583b          	sraw	a6,tp,ra
    daa0:	6b9c0117          	auipc	sp,0x6b9c0
    daa4:	00000197          	auipc	gp,0x0
    daa8:	c90180e7          	jalr	-880(gp) # 0xd734
    daac:	40f15013          	srai	zero,sp,0xf
    dab0:	f3e16393          	ori	t2,sp,-194
    dab4:	5ff79137          	lui	sp,0x5ff79
    dab8:	c41c7097          	auipc	ra,0xc41c7
    dabc:	02f1d093          	srli	ra,gp,0x2f
    dac0:	002100bb          	addw	ra,sp,sp
    dac4:	0024f0b3          	and	ra,s1,sp
    dac8:	0051b0b3          	sltu	ra,gp,t0
    dacc:	faa02193          	slti	gp,zero,-86
    dad0:	d433b193          	sltiu	gp,t2,-701
    dad4:	7f30a093          	slti	ra,ra,2035
    dad8:	7a51a113          	slti	sp,gp,1957
    dadc:	0011c1b3          	xor	gp,gp,ra
    dae0:	c31600b7          	lui	ra,0xc3160
    dae4:	4233d113          	srai	sp,t2,0x23
    dae8:	0011b133          	sltu	sp,gp,ra
    daec:	03d35193          	srli	gp,t1,0x3d
    daf0:	48d17093          	andi	ra,sp,1165
    daf4:	1e274197          	auipc	gp,0x1e274
    daf8:	93117113          	andi	sp,sp,-1743
    dafc:	40a15313          	srai	t1,sp,0xa
    db00:	63113113          	sltiu	sp,sp,1585
    db04:	2531019b          	addiw	gp,sp,595
    db08:	13503197          	auipc	gp,0x13503
    db0c:	0040511b          	srliw	sp,zero,0x4
    db10:	4011013b          	subw	sp,sp,ra
    db14:	0179d11b          	srliw	sp,s3,0x17
    db18:	4222d197          	auipc	gp,0x4222d
    db1c:	5d86c0b7          	lui	ra,0x5d86c
    db20:	8db1a013          	slti	zero,gp,-1829
    db24:	1193a093          	slti	ra,t2,281
    db28:	0040509b          	srliw	ra,zero,0x4
    db2c:	34a12193          	slti	gp,sp,842
    db30:	cb177337          	lui	t1,0xcb177
    db34:	01f0931b          	slliw	t1,ra,0x1f
    db38:	2421fa63          	bgeu	gp,sp,0xdd8c
    db3c:	2421e863          	bltu	gp,sp,0xdd8c
    db40:	4071d133          	sra	sp,gp,t2
    db44:	35b5d037          	lui	zero,0x35b5d
    db48:	a26e5197          	auipc	gp,0xa26e5
    db4c:	0221c1b3          	div	gp,gp,sp
    db50:	00b350b3          	srl	ra,t1,a1
    db54:	0cc0e093          	ori	ra,ra,204
    db58:	9d636113          	ori	sp,t1,-1578
    db5c:	0222c0b3          	div	ra,t0,sp
    db60:	fbb0e113          	ori	sp,ra,-69
    db64:	a5403093          	sltiu	ra,zero,-1452
    db68:	00733133          	sltu	sp,t1,t2
    db6c:	42d4d313          	srai	t1,s1,0x2d
    db70:	35fb1137          	lui	sp,0x35fb1
    db74:	0030913b          	sllw	sp,ra,gp
    db78:	00338133          	add	sp,t2,gp
    db7c:	00d0a133          	slt	sp,ra,a3
    db80:	403100b3          	sub	ra,sp,gp
    db84:	00a11593          	slli	a1,sp,0xa
    db88:	30d14093          	xori	ra,sp,781
    db8c:	003340b3          	xor	ra,t1,gp
    db90:	47a08c13          	addi	s8,ra,1146 # 0x5d86c47a
    db94:	6b5371b7          	lui	gp,0x6b537
    db98:	03909293          	slli	t0,ra,0x39
    db9c:	00333133          	sltu	sp,t1,gp
    dba0:	71e0a193          	slti	gp,ra,1822
    dba4:	002143b3          	xor	t2,sp,sp
    dba8:	0043f6b3          	and	a3,t2,tp
    dbac:	ad7cd137          	lui	sp,0xad7cd
    dbb0:	31310013          	addi	zero,sp,787 # 0xffffffffad7cd313
    dbb4:	fdebf097          	auipc	ra,0xfdebf
    dbb8:	01b11113          	slli	sp,sp,0x1b
    dbbc:	02118bb3          	mul	s7,gp,ra
    dbc0:	ed674197          	auipc	gp,0xed674
    dbc4:	403080b3          	sub	ra,ra,gp
    dbc8:	027200b3          	mul	ra,tp,t2
    dbcc:	903088e3          	beq	ra,gp,0xd4dc
    dbd0:	90dff1ef          	jal	gp,0xd4dc
    dbd4:	5d2f8097          	auipc	ra,0x5d2f8
    dbd8:	0020d0b3          	srl	ra,ra,sp
    dbdc:	4dc1a193          	slti	gp,gp,1244
    dbe0:	001190b3          	sll	ra,gp,ra
    dbe4:	00f2de93          	srli	t4,t0,0xf
    dbe8:	06d0f193          	andi	gp,ra,109
    dbec:	935e1117          	auipc	sp,0x935e1
    dbf0:	0031f0b3          	and	ra,gp,gp
    dbf4:	02338133          	mul	sp,t2,gp
    dbf8:	e2959797          	auipc	a5,0xe2959
    dbfc:	405181bb          	subw	gp,gp,t0
    dc00:	4230d193          	srai	gp,ra,0x23
    dc04:	02d09993          	slli	s3,ra,0x2d
    dc08:	402081bb          	subw	gp,ra,sp
    dc0c:	403153bb          	sraw	t2,sp,gp
    dc10:	908a61b7          	lui	gp,0x908a6
    dc14:	3aae9097          	auipc	ra,0x3aae9
    dc18:	0011e133          	or	sp,gp,ra
    dc1c:	02f0d093          	srli	ra,ra,0x2f
    dc20:	003ce3b3          	or	t2,s9,gp
    dc24:	10a1e313          	ori	t1,gp,266
    dc28:	4021d13b          	sraw	sp,gp,sp
    dc2c:	021080b3          	mul	ra,ra,ra
    dc30:	245521b7          	lui	gp,0x24552
    dc34:	0210cfb3          	div	t6,ra,ra
    dc38:	3247f0b7          	lui	ra,0x3247f
    dc3c:	c843801b          	addiw	zero,t2,-892
    dc40:	8a116093          	ori	ra,sp,-1887
    dc44:	00f29093          	slli	ra,t0,0xf
    dc48:	00425133          	srl	sp,tp,tp
    dc4c:	0051013b          	addw	sp,sp,t0
    dc50:	03d1d5b3          	divu	a1,gp,t4
    dc54:	09e00013          	li	zero,158
    dc58:	9831b193          	sltiu	gp,gp,-1661
    dc5c:	000176b3          	and	a3,sp,zero
    dc60:	002050b3          	srl	ra,zero,sp
    dc64:	4091013b          	subw	sp,sp,s1
    dc68:	00308263          	beq	ra,gp,0xdc6c
    dc6c:	ff8ff96f          	jal	s2,0xd464
    dc70:	0021589b          	srliw	a7,sp,0x2
    dc74:	00f080bb          	addw	ra,ra,a5
    dc78:	001230b3          	sltu	ra,tp,ra
    dc7c:	79e37193          	andi	gp,t1,1950
    dc80:	002081bb          	addw	gp,ra,sp
    dc84:	8491811b          	addiw	sp,gp,-1975
    dc88:	4c62f397          	auipc	t2,0x4c62f
    dc8c:	0001b333          	sltu	t1,gp,zero
    dc90:	00108133          	add	sp,ra,ra
    dc94:	00309233          	sll	tp,ra,gp
    dc98:	004091b3          	sll	gp,ra,tp
    dc9c:	0000909b          	slliw	ra,ra,0x0
    dca0:	0021d33b          	srlw	t1,gp,sp
    dca4:	15a30013          	addi	zero,t1,346 # 0xffffffffcb17715a
    dca8:	0191d11b          	srliw	sp,gp,0x19
    dcac:	03711193          	slli	gp,sp,0x37
    dcb0:	00214c33          	xor	s8,sp,sp
    dcb4:	0050c0b3          	xor	ra,ra,t0
    dcb8:	004173b3          	and	t2,sp,tp
    dcbc:	00327233          	and	tp,tp,gp
    dcc0:	7a9570b7          	lui	ra,0x7a957
    dcc4:	002271b3          	and	gp,tp,sp
    dcc8:	1861d197          	auipc	gp,0x1861d
    dccc:	4c7f3317          	auipc	t1,0x4c7f3
    dcd0:	0230f333          	remu	t1,ra,gp
    dcd4:	007000bb          	addw	ra,zero,t2
    dcd8:	0191501b          	srliw	zero,sp,0x19
    dcdc:	4030d133          	sra	sp,ra,gp
    dce0:	0027b133          	sltu	sp,a5,sp
    dce4:	58585137          	lui	sp,0x58585
    dce8:	41a0d193          	srai	gp,ra,0x1a
    dcec:	3bab9337          	lui	t1,0x3bab9
    dcf0:	43825113          	srai	sp,tp,0x38
    dcf4:	0020e133          	or	sp,ra,sp
    dcf8:	006080bb          	addw	ra,ra,t1
    dcfc:	00018093          	mv	ra,gp
    dd00:	c6308ee3          	beq	ra,gp,0xd97c
    dd04:	023070b3          	remu	ra,zero,gp
    dd08:	ecd0c193          	xori	gp,ra,-307
    dd0c:	01c19093          	slli	ra,gp,0x1c
    dd10:	7d013093          	sltiu	ra,sp,2000
    dd14:	02207133          	remu	sp,zero,sp
    dd18:	7cf7e313          	ori	t1,a5,1999
    dd1c:	0220c333          	div	t1,ra,sp
    dd20:	00a131b3          	sltu	gp,sp,a0
    dd24:	4040813b          	subw	sp,ra,tp
    dd28:	17d1b313          	sltiu	t1,gp,381
    dd2c:	01e1129b          	slliw	t0,sp,0x1e
    dd30:	7600ce93          	xori	t4,ra,1888
    dd34:	00e3919b          	slliw	gp,t2,0xe
    dd38:	00b01f9b          	slliw	t6,zero,0xb
    dd3c:	40a1d19b          	sraiw	gp,gp,0xa
    dd40:	0010c133          	xor	sp,ra,ra
    dd44:	08f2c217          	auipc	tp,0x8f2c
    dd48:	eda1839b          	addiw	t2,gp,-294
    dd4c:	02314e33          	div	t3,sp,gp
    dd50:	4030d23b          	sraw	tp,ra,gp
    dd54:	002171b3          	and	gp,sp,sp
    dd58:	ec91f097          	auipc	ra,0xec91f
    dd5c:	0022a0b3          	slt	ra,t0,sp
    dd60:	3271f093          	andi	ra,gp,807
    dd64:	cff3f137          	lui	sp,0xcff3f
    dd68:	0041d09b          	srliw	ra,gp,0x4
    dd6c:	03715393          	srli	t2,sp,0x37
    dd70:	0590e093          	ori	ra,ra,89
    dd74:	93f0c093          	xori	ra,ra,-1729
    dd78:	001185bb          	addw	a1,gp,ra
    dd7c:	006220b3          	slt	ra,tp,t1
    dd80:	41a0d03b          	sraw	zero,ra,s10
    dd84:	00308263          	beq	ra,gp,0xdd88
    dd88:	fe8ff0ef          	jal	ra,0xd570
    dd8c:	02809093          	slli	ra,ra,0x28
    dd90:	0236e133          	rem	sp,a3,gp
    dd94:	a45a9097          	auipc	ra,0xa45a9
    dd98:	30578017          	auipc	zero,0x30578
    dd9c:	023060b3          	rem	ra,zero,gp
    dda0:	0011e0b3          	or	ra,gp,ra
    dda4:	4116d11b          	sraiw	sp,a3,0x11
    dda8:	01c1911b          	slliw	sp,gp,0x1c
    ddac:	3a616693          	ori	a3,sp,934
    ddb0:	ffc7e3b7          	lui	t2,0xffc7e
    ddb4:	e2802393          	slti	t2,zero,-472
    ddb8:	3444b137          	lui	sp,0x3444b
    ddbc:	0224c1b3          	div	gp,s1,sp
    ddc0:	0221f133          	remu	sp,gp,sp
    ddc4:	03231113          	slli	sp,t1,0x32
    ddc8:	0261d133          	divu	sp,gp,t1
    ddcc:	b023009b          	addiw	ra,t1,-1278
    ddd0:	00510133          	add	sp,sp,t0
    ddd4:	002eb133          	sltu	sp,t4,sp
    ddd8:	02e0d0b3          	divu	ra,ra,a4
    dddc:	3ada9117          	auipc	sp,0x3ada9
    dde0:	8801809b          	addiw	ra,gp,-1920
    dde4:	0210d133          	divu	sp,ra,ra
    dde8:	003081b3          	add	gp,ra,gp
    ddec:	0022d0bb          	srlw	ra,t0,sp
    ddf0:	8b7f3197          	auipc	gp,0x8b7f3
    ddf4:	34e1c197          	auipc	gp,0x34e1c
    ddf8:	14510013          	addi	zero,sp,325 # 0x3adb6f21
    ddfc:	01a3921b          	slliw	tp,t2,0x1a
    de00:	58067097          	auipc	ra,0x58067
    de04:	b75a61b7          	lui	gp,0xb75a6
    de08:	4010013b          	negw	sp,ra
    de0c:	9a6104e3          	beq	sp,t1,0xd7b4
    de10:	9a5fff6f          	jal	t5,0xd7b4
    de14:	f251e113          	ori	sp,gp,-219
    de18:	003191b3          	sll	gp,gp,gp
    de1c:	4011513b          	sraw	sp,sp,ra
    de20:	97e331b7          	lui	gp,0x97e33
    de24:	53942317          	auipc	t1,0x53942
    de28:	0023b133          	sltu	sp,t2,sp
    de2c:	dc41821b          	addiw	tp,gp,-572
    de30:	0015e1b3          	or	gp,a1,ra
    de34:	a8f5b0b7          	lui	ra,0xa8f5b
    de38:	001392b3          	sll	t0,t2,ra
    de3c:	0032b1b3          	sltu	gp,t0,gp
    de40:	d67641b7          	lui	gp,0xd6764
    de44:	52308093          	addi	ra,ra,1315 # 0xffffffffa8f5b523
    de48:	84116193          	ori	gp,sp,-1983
    de4c:	47aa8097          	auipc	ra,0x47aa8
    de50:	80e3b137          	lui	sp,0x80e3b
    de54:	f670881b          	addiw	a6,ra,-153
    de58:	18265cb7          	lui	s9,0x18265
    de5c:	00a0d29b          	srliw	t0,ra,0xa
    de60:	02f16133          	rem	sp,sp,a5
    de64:	4f512293          	slti	t0,sp,1269
    de68:	0347e1b3          	rem	gp,a5,s4
    de6c:	02718133          	mul	sp,gp,t2
    de70:	002080bb          	addw	ra,ra,sp
    de74:	40b181b3          	sub	gp,gp,a1
    de78:	40b082bb          	subw	t0,ra,a1
    de7c:	f0ef5137          	lui	sp,0xf0ef5
    de80:	2e31c113          	xori	sp,gp,739
    de84:	4021dcbb          	sraw	s9,gp,sp
    de88:	4a333193          	sltiu	gp,t1,1187
    de8c:	021152b3          	divu	t0,sp,ra
    de90:	e63311b7          	lui	gp,0xe6331
    de94:	42915693          	srai	a3,sp,0x29
    de98:	fa50b013          	sltiu	zero,ra,-91
    de9c:	b92180e3          	beq	gp,s2,0xda1c
    dea0:	b7dffcef          	jal	s9,0xda1c
    dea4:	d0aad697          	auipc	a3,0xd0aad
    dea8:	4010d0bb          	sraw	ra,ra,ra
    deac:	023156b3          	divu	a3,sp,gp
    deb0:	59417393          	andi	t2,sp,1428
    deb4:	8fe1c113          	xori	sp,gp,-1794
    deb8:	4070d13b          	sraw	sp,ra,t2
    debc:	a7279117          	auipc	sp,0xa7279
    dec0:	0023a333          	slt	t1,t2,sp
    dec4:	4011d0b3          	sra	ra,gp,ra
    dec8:	003b9133          	sll	sp,s7,gp
    decc:	4011d11b          	sraiw	sp,gp,0x1
    ded0:	0091d29b          	srliw	t0,gp,0x9
    ded4:	021b41b3          	div	gp,s6,ra
    ded8:	01f1901b          	slliw	zero,gp,0x1f
    dedc:	40735193          	srai	gp,t1,0x7
    dee0:	405050b3          	sra	ra,zero,t0
    dee4:	b1336113          	ori	sp,t1,-1261
    dee8:	a95492b7          	lui	t0,0xa9549
    deec:	00512c33          	slt	s8,sp,t0
    def0:	02f35333          	divu	t1,t1,a5
    def4:	24c1e193          	ori	gp,gp,588
    def8:	021f52b3          	divu	t0,t5,ra
    defc:	01c1109b          	slliw	ra,sp,0x1c
    df00:	b56c10b7          	lui	ra,0xb56c1
    df04:	0221d1b3          	divu	gp,gp,sp
    df08:	00e1509b          	srliw	ra,sp,0xe
    df0c:	0040f1b3          	and	gp,ra,tp
    df10:	00756097          	auipc	ra,0x756
    df14:	006050b3          	srl	ra,zero,t1
    df18:	003121b3          	slt	gp,sp,gp
    df1c:	70a16093          	ori	ra,sp,1802
    df20:	00010193          	mv	gp,sp
    df24:	c0218ee3          	beq	gp,sp,0xdb40
    df28:	03709193          	slli	gp,ra,0x37
    df2c:	002193b3          	sll	t2,gp,sp
    df30:	0000013b          	addw	sp,zero,zero
    df34:	001360b3          	or	ra,t1,ra
    df38:	dc108197          	auipc	gp,0xdc108
    df3c:	cd70f593          	andi	a1,ra,-809
    df40:	006120b3          	slt	ra,sp,t1
    df44:	012191b3          	sll	gp,gp,s2
    df48:	232bd197          	auipc	gp,0x232bd
    df4c:	001181b3          	add	gp,gp,ra
    df50:	01c0911b          	slliw	sp,ra,0x1c
    df54:	7100c293          	xori	t0,ra,1808
    df58:	5a21a113          	slti	sp,gp,1442
    df5c:	0210f133          	remu	sp,ra,ra
    df60:	402150b3          	sra	ra,sp,sp
    df64:	0010e033          	or	zero,ra,ra
    df68:	ae80c093          	xori	ra,ra,-1304
    df6c:	002190b3          	sll	ra,gp,sp
    df70:	16d940b7          	lui	ra,0x16d94
    df74:	0021c333          	xor	t1,gp,sp
    df78:	b0a13113          	sltiu	sp,sp,-1270
    df7c:	02216133          	rem	sp,sp,sp
    df80:	0071129b          	slliw	t0,sp,0x7
    df84:	00311133          	sll	sp,sp,gp
    df88:	0bb28337          	lui	t1,0xbb28
    df8c:	fb300193          	li	gp,-77
    df90:	5fed8117          	auipc	sp,0x5fed8
    df94:	2180c117          	auipc	sp,0x2180c
    df98:	00335533          	srl	a0,t1,gp
    df9c:	0030b333          	sltu	t1,ra,gp
    dfa0:	56300a63          	beq	zero,gp,0xe514
    dfa4:	57000eef          	jal	t4,0xe514
    dfa8:	00316cb3          	or	s9,sp,gp
    dfac:	05c13693          	sltiu	a3,sp,92
    dfb0:	41814d93          	xori	s11,sp,1048
    dfb4:	be186197          	auipc	gp,0xbe186
    dfb8:	56e10113          	addi	sp,sp,1390 # 0x2181a502
    dfbc:	a287e193          	ori	gp,a5,-1496
    dfc0:	40235233          	sra	tp,t1,sp
    dfc4:	aec1819b          	addiw	gp,gp,-1300
    dfc8:	21e1019b          	addiw	gp,sp,542
    dfcc:	00309bb3          	sll	s7,ra,gp
    dfd0:	038e1113          	slli	sp,t3,0x38
    dfd4:	011e0237          	lui	tp,0x11e0
    dfd8:	003151bb          	srlw	gp,sp,gp
    dfdc:	022760b3          	rem	ra,a4,sp
    dfe0:	d7f89097          	auipc	ra,0xd7f89
    dfe4:	002080bb          	addw	ra,ra,sp
    dfe8:	403180bb          	subw	ra,gp,gp
    dfec:	0020d0b3          	srl	ra,ra,sp
    dff0:	0031a1b3          	slt	gp,gp,gp
    dff4:	24d1f113          	andi	sp,gp,589
    dff8:	dad1f113          	andi	sp,gp,-595
    dffc:	509aa113          	slti	sp,s5,1289
    e000:	fb36801b          	addiw	zero,a3,-77
    e004:	0101109b          	slliw	ra,sp,0x10
    e008:	4070d19b          	sraiw	gp,ra,0x7
    e00c:	01a2909b          	slliw	ra,t0,0x1a
    e010:	0020d0bb          	srlw	ra,ra,sp
    e014:	002251b3          	srl	gp,tp,sp
    e018:	01011093          	slli	ra,sp,0x10
    e01c:	085c1097          	auipc	ra,0x85c1
    e020:	1490f093          	andi	ra,ra,329
    e024:	9dc78117          	auipc	sp,0x9dc78
    e028:	83499017          	auipc	zero,0x83499
    e02c:	3220da63          	bge	ra,sp,0xe360
    e030:	3220c863          	blt	ra,sp,0xe360
    e034:	403082b3          	sub	t0,ra,gp
    e038:	af04c117          	auipc	sp,0xaf04c
    e03c:	00f21d17          	auipc	s10,0xf21
    e040:	4031d3b3          	sra	t2,gp,gp
    e044:	9a824313          	xori	t1,tp,-1624
    e048:	0030d13b          	srlw	sp,ra,gp
    e04c:	0071d133          	srl	sp,gp,t2
    e050:	0061823b          	addw	tp,gp,t1
    e054:	4d771097          	auipc	ra,0x4d771
    e058:	0181523b          	srlw	tp,sp,s8
    e05c:	d981f193          	andi	gp,gp,-616
    e060:	0200f133          	remu	sp,ra,zero
    e064:	401981b3          	sub	gp,s3,ra
    e068:	0020833b          	addw	t1,ra,sp
    e06c:	d1876317          	auipc	t1,0xd1876
    e070:	25ee51b7          	lui	gp,0x25ee5
    e074:	01c0901b          	slliw	zero,ra,0x1c
    e078:	0a769137          	lui	sp,0xa769
    e07c:	00214333          	xor	t1,sp,sp
    e080:	02100133          	mul	sp,zero,ra
    e084:	00310233          	add	tp,sp,gp
    e088:	0060d13b          	srlw	sp,ra,t1
    e08c:	01a3539b          	srliw	t2,t1,0x1a
    e090:	00008233          	add	tp,ra,zero
    e094:	0011e1b3          	or	gp,gp,ra
    e098:	0260d2b3          	divu	t0,ra,t1
    e09c:	e911e093          	ori	ra,gp,-367
    e0a0:	b0c1849b          	addiw	s1,gp,-1268
    e0a4:	0242c033          	div	zero,t0,tp
    e0a8:	28bd90b7          	lui	ra,0x28bd9
    e0ac:	002221b3          	slt	gp,tp,sp
    e0b0:	6c524313          	xori	t1,tp,1733
    e0b4:	e2a1f293          	andi	t0,gp,-470
    e0b8:	4061833b          	subw	t1,gp,t1
    e0bc:	0230d0b3          	divu	ra,ra,gp
    e0c0:	0681811b          	addiw	sp,gp,104
    e0c4:	00218133          	add	sp,gp,sp
    e0c8:	01c0151b          	slliw	a0,zero,0x1c
    e0cc:	7001de63          	bgez	gp,0xe7e8
    e0d0:	7001cc63          	bltz	gp,0xe7e8
    e0d4:	003157b3          	srl	a5,sp,gp
    e0d8:	0250e3b3          	rem	t2,ra,t0
    e0dc:	023140b3          	div	ra,sp,gp
    e0e0:	78d22093          	slti	ra,tp,1933
    e0e4:	023260b3          	rem	ra,tp,gp
    e0e8:	f253b0b7          	lui	ra,0xf253b
    e0ec:	96bfe197          	auipc	gp,0x96bfe
    e0f0:	3eb9c3b7          	lui	t2,0x3eb9c
    e0f4:	020241b3          	div	gp,tp,zero
    e0f8:	201860b7          	lui	ra,0x20186
    e0fc:	02f01313          	slli	t1,zero,0x2f
    e100:	c341f013          	andi	zero,gp,-972
    e104:	0010d733          	srl	a4,ra,ra
    e108:	6ff5c1b7          	lui	gp,0x6ff5c
    e10c:	8523a313          	slti	t1,t2,-1966
    e110:	02124133          	div	sp,tp,ra
    e114:	003090b3          	sll	ra,ra,gp
    e118:	611f9117          	auipc	sp,0x611f9
    e11c:	5405b197          	auipc	gp,0x5405b
    e120:	0090d21b          	srliw	tp,ra,0x9
    e124:	0081139b          	slliw	t2,sp,0x8
    e128:	4031813b          	subw	sp,gp,gp
    e12c:	40128133          	sub	sp,t0,ra
    e130:	007aa733          	slt	a4,s5,t2
    e134:	8720f113          	andi	sp,ra,-1934
    e138:	003060b3          	or	ra,zero,gp
    e13c:	1401b193          	sltiu	gp,gp,320
    e140:	4010d13b          	sraw	sp,ra,ra
    e144:	40f0d133          	sra	sp,ra,a5
    e148:	00b1509b          	srliw	ra,sp,0xb
    e14c:	022160b3          	rem	ra,sp,sp
    e150:	000310b3          	sll	ra,t1,zero
    e154:	dc417ae3          	bgeu	sp,tp,0xdf28
    e158:	dc4168e3          	bltu	sp,tp,0xdf28
    e15c:	4021d13b          	sraw	sp,gp,sp
    e160:	00219c1b          	slliw	s8,gp,0x2
    e164:	0023513b          	srlw	sp,t1,sp
    e168:	b94b94b7          	lui	s1,0xb94b9
    e16c:	0013c1b3          	xor	gp,t2,ra
    e170:	0053519b          	srliw	gp,t1,0x5
    e174:	5be8e697          	auipc	a3,0x5be8e
    e178:	0080119b          	slliw	gp,zero,0x8
    e17c:	ab533337          	lui	t1,0xab533
    e180:	7771b213          	sltiu	tp,gp,1911
    e184:	022370b3          	remu	ra,t1,sp
    e188:	001150b3          	srl	ra,sp,ra
    e18c:	02405393          	srli	t2,zero,0x24
    e190:	0211f033          	remu	zero,gp,ra
    e194:	0071f133          	and	sp,gp,t2
    e198:	0262f1b3          	remu	gp,t0,t1
    e19c:	c6446097          	auipc	ra,0xc6446
    e1a0:	b0a78113          	addi	sp,a5,-1270 # 0xffffffffe2966702
    e1a4:	9d181117          	auipc	sp,0x9d181
    e1a8:	9311b113          	sltiu	sp,gp,-1743
    e1ac:	002261b3          	or	gp,tp,sp
    e1b0:	0290d233          	divu	tp,ra,s1
    e1b4:	004141b3          	xor	gp,sp,tp
    e1b8:	4191d09b          	sraiw	ra,gp,0x19
    e1bc:	0371f233          	remu	tp,gp,s7
    e1c0:	6651819b          	addiw	gp,gp,1637
    e1c4:	4010d13b          	sraw	sp,ra,ra
    e1c8:	cf20a117          	auipc	sp,0xcf20a
    e1cc:	401481bb          	subw	gp,s1,ra
    e1d0:	2bb27093          	andi	ra,tp,699
    e1d4:	58308663          	beq	ra,gp,0xe760
    e1d8:	588006ef          	jal	a3,0xe760
    e1dc:	0211d0b3          	divu	ra,gp,ra
    e1e0:	0010951b          	slliw	a0,ra,0x1
    e1e4:	40618333          	sub	t1,gp,t1
    e1e8:	402280bb          	subw	ra,t0,sp
    e1ec:	257f71b7          	lui	gp,0x257f7
    e1f0:	022161b3          	rem	gp,sp,sp
    e1f4:	92b1fb17          	auipc	s6,0x92b1f
    e1f8:	a7c0c213          	xori	tp,ra,-1412
    e1fc:	00024333          	xor	t1,tp,zero
    e200:	0041909b          	slliw	ra,gp,0x4
    e204:	026160b3          	rem	ra,sp,t1
    e208:	021241b3          	div	gp,tp,ra
    e20c:	3041011b          	addiw	sp,sp,772
    e210:	0021afb3          	slt	t6,gp,sp
    e214:	021160b3          	rem	ra,sp,ra
    e218:	e223a097          	auipc	ra,0xe223a
    e21c:	45437697          	auipc	a3,0x45437
    e220:	1580809b          	addiw	ra,ra,344
    e224:	0010b3b3          	sltu	t2,ra,ra
    e228:	0180931b          	slliw	t1,ra,0x18
    e22c:	a4930a37          	lui	s4,0xa4930
    e230:	d5376297          	auipc	t0,0xd5376
    e234:	005d919b          	slliw	gp,s11,0x5
    e238:	a273e137          	lui	sp,0xa273e
    e23c:	0020d133          	srl	sp,ra,sp
    e240:	00e1911b          	slliw	sp,gp,0xe
    e244:	41a103b3          	sub	t2,sp,s10
    e248:	0217e0b3          	rem	ra,a5,ra
    e24c:	00000117          	auipc	sp,0x0
    e250:	238100e7          	jalr	568(sp) # 0xe484
    e254:	6c344097          	auipc	ra,0x6c344
    e258:	4001d11b          	sraiw	sp,gp,0x0
    e25c:	0000929b          	slliw	t0,ra,0x0
    e260:	cafc0197          	auipc	gp,0xcafc0
    e264:	4b54819b          	addiw	gp,s1,1205
    e268:	00b11093          	slli	ra,sp,0xb
    e26c:	4051d1b3          	sra	gp,gp,t0
    e270:	89b90097          	auipc	ra,0x89b90
    e274:	00008233          	add	tp,ra,zero
    e278:	19f12113          	slti	sp,sp,415
    e27c:	e9763117          	auipc	sp,0xe9763
    e280:	03909c93          	slli	s9,ra,0x39
    e284:	b01f40b7          	lui	ra,0xb01f4
    e288:	002153bb          	srlw	t2,sp,sp
    e28c:	70a47117          	auipc	sp,0x70a47
    e290:	f9aa9137          	lui	sp,0xf9aa9
    e294:	40310133          	sub	sp,sp,gp
    e298:	43015113          	srai	sp,sp,0x30
    e29c:	b9271117          	auipc	sp,0xb9271
    e2a0:	0221d033          	divu	zero,gp,sp
    e2a4:	407057bb          	sraw	a5,zero,t2
    e2a8:	e600c113          	xori	sp,ra,-416
    e2ac:	03715093          	srli	ra,sp,0x37
    e2b0:	0031d1b3          	srl	gp,gp,gp
    e2b4:	004150b3          	srl	ra,sp,tp
    e2b8:	a437a137          	lui	sp,0xa437a
    e2bc:	0221d2b3          	divu	t0,gp,sp
    e2c0:	acc1809b          	addiw	ra,gp,-1332
    e2c4:	88687317          	auipc	t1,0x88687
    e2c8:	58403193          	sltiu	gp,zero,1412
    e2cc:	36315863          	bge	sp,gp,0xe63c
    e2d0:	36314663          	blt	sp,gp,0xe63c
    e2d4:	acc0f213          	andi	tp,ra,-1332
    e2d8:	3d493197          	auipc	gp,0x3d493
    e2dc:	00708133          	add	sp,ra,t2
    e2e0:	1f652197          	auipc	gp,0x1f652
    e2e4:	401101bb          	subw	gp,sp,ra
    e2e8:	0021b233          	sltu	tp,gp,sp
    e2ec:	84914593          	xori	a1,sp,-1975
    e2f0:	aaf08093          	addi	ra,ra,-1361 # 0xffffffffb01f3aaf
    e2f4:	0041013b          	addw	sp,sp,tp
    e2f8:	00b15113          	srli	sp,sp,0xb
    e2fc:	6b15b113          	sltiu	sp,a1,1713
    e300:	00416033          	or	zero,sp,tp
    e304:	0391e313          	ori	t1,gp,57
    e308:	403bd0b3          	sra	ra,s7,gp
    e30c:	406351bb          	sraw	gp,t1,t1
    e310:	00311333          	sll	t1,sp,gp
    e314:	4ff0849b          	addiw	s1,ra,1279
    e318:	9a60e093          	ori	ra,ra,-1626
    e31c:	5d1df097          	auipc	ra,0x5d1df
    e320:	d3c9a137          	lui	sp,0xd3c9a
    e324:	b54ff037          	lui	zero,0xb54ff
    e328:	01c1909b          	slliw	ra,gp,0x1c
    e32c:	0260d1b3          	divu	gp,ra,t1
    e330:	d9d62297          	auipc	t0,0xd9d62
    e334:	001031b3          	snez	gp,ra
    e338:	3ff4a6b7          	lui	a3,0x3ff4a
    e33c:	4313d117          	auipc	sp,0x4313d
    e340:	4093519b          	sraiw	gp,t1,0x9
    e344:	cd100313          	li	t1,-815
    e348:	e0a10113          	addi	sp,sp,-502 # 0x4314b146
    e34c:	0020c133          	xor	sp,ra,sp
    e350:	4140d09b          	sraiw	ra,ra,0x14
    e354:	11a0a0b7          	lui	ra,0x11a0a
    e358:	c413d8e3          	bge	t2,ra,0xdfa8
    e35c:	c413c6e3          	blt	t2,ra,0xdfa8
    e360:	f9018113          	addi	sp,gp,-112 # 0x1f660270
    e364:	407181bb          	subw	gp,gp,t2
    e368:	af6e60b7          	lui	ra,0xaf6e6
    e36c:	401101bb          	subw	gp,sp,ra
    e370:	001712b3          	sll	t0,a4,ra
    e374:	323870b7          	lui	ra,0x32387
    e378:	88ef6137          	lui	sp,0x88ef6
    e37c:	4173d01b          	sraiw	zero,t2,0x17
    e380:	edd1c093          	xori	ra,gp,-291
    e384:	002111b3          	sll	gp,sp,sp
    e388:	027100b3          	mul	ra,sp,t2
    e38c:	4130539b          	sraiw	t2,zero,0x13
    e390:	003081b3          	add	gp,ra,gp
    e394:	021101b3          	mul	gp,sp,ra
    e398:	ea510113          	addi	sp,sp,-347 # 0xffffffff88ef5ea5
    e39c:	599e7197          	auipc	gp,0x599e7
    e3a0:	0002131b          	slliw	t1,tp,0x0
    e3a4:	84733197          	auipc	gp,0x84733
    e3a8:	c75c20b7          	lui	ra,0xc75c2
    e3ac:	4030d0bb          	sraw	ra,ra,gp
    e3b0:	1ae00313          	li	t1,430
    e3b4:	d2c14013          	xori	zero,sp,-724
    e3b8:	001281bb          	addw	gp,t0,ra
    e3bc:	407253bb          	sraw	t2,tp,t2
    e3c0:	6a61f113          	andi	sp,gp,1702
    e3c4:	40335233          	sra	tp,t1,gp
    e3c8:	40b15133          	sra	sp,sp,a1
    e3cc:	021170b3          	remu	ra,sp,ra
    e3d0:	0001013b          	addw	sp,sp,zero
    e3d4:	0238e133          	rem	sp,a7,gp
    e3d8:	9e113293          	sltiu	t0,sp,-1567
    e3dc:	2cf1b193          	sltiu	gp,gp,719
    e3e0:	00619b33          	sll	s6,gp,t1
    e3e4:	022240b3          	div	ra,tp,sp
    e3e8:	c0a16113          	ori	sp,sp,-1014
    e3ec:	0250d0b3          	divu	ra,ra,t0
    e3f0:	0232e133          	rem	sp,t0,gp
    e3f4:	00000097          	auipc	ra,0x0
    e3f8:	ce0081e7          	jalr	gp,-800(ra) # 0xe0d4
    e3fc:	0051119b          	slliw	gp,sp,0x5
    e400:	0020d4bb          	srlw	s1,ra,sp
    e404:	15c1b193          	sltiu	gp,gp,348
    e408:	306aa093          	slti	ra,s5,774
    e40c:	00234133          	xor	sp,t1,sp
    e410:	d764c017          	auipc	zero,0xd764c
    e414:	001110bb          	sllw	ra,sp,ra
    e418:	bd43f293          	andi	t0,t2,-1068
    e41c:	2691a213          	slti	tp,gp,617
    e420:	002bd63b          	srlw	a2,s7,sp
    e424:	97dc7797          	auipc	a5,0x97dc7
    e428:	03419113          	slli	sp,gp,0x34
    e42c:	e5e680b7          	lui	ra,0xe5e68
    e430:	03a09113          	slli	sp,ra,0x3a
    e434:	0141919b          	slliw	gp,gp,0x14
    e438:	4021d13b          	sraw	sp,gp,sp
    e43c:	ccc0b013          	sltiu	zero,ra,-820
    e440:	74e35097          	auipc	ra,0x74e35
    e444:	004010b3          	sll	ra,zero,tp
    e448:	0231d1b3          	divu	gp,gp,gp
    e44c:	0230e1b3          	rem	gp,ra,gp
    e450:	5de1c113          	xori	sp,gp,1502
    e454:	b5bcb197          	auipc	gp,0xb5bcb
    e458:	4bf6b597          	auipc	a1,0x4bf6b
    e45c:	02115333          	divu	t1,sp,ra
    e460:	23b12093          	slti	ra,sp,571
    e464:	0227d0b3          	divu	ra,a5,sp
    e468:	027082b3          	mul	t0,ra,t2
    e46c:	c2c6021b          	addiw	tp,a2,-980
    e470:	f1204197          	auipc	gp,0xf1204
    e474:	a1be4117          	auipc	sp,0xa1be4
    e478:	85e45197          	auipc	gp,0x85e45
    e47c:	00020113          	mv	sp,tp
    e480:	3e410e63          	beq	sp,tp,0xe87c
    e484:	4011513b          	sraw	sp,sp,ra
    e488:	404309b3          	sub	s3,t1,tp
    e48c:	4032d0bb          	sraw	ra,t0,gp
    e490:	0222d1b3          	divu	gp,t0,sp
    e494:	002152b3          	srl	t0,sp,sp
    e498:	0071b133          	sltu	sp,gp,t2
    e49c:	02317133          	remu	sp,sp,gp
    e4a0:	0231e0b3          	rem	ra,gp,gp
    e4a4:	8a9df697          	auipc	a3,0x8a9df
    e4a8:	66a3f137          	lui	sp,0x66a3f
    e4ac:	02f06f33          	rem	t5,zero,a5
    e4b0:	02308133          	mul	sp,ra,gp
    e4b4:	2161c017          	auipc	zero,0x2161c
    e4b8:	0261e133          	rem	sp,gp,t1
    e4bc:	b596d217          	auipc	tp,0xb596d
    e4c0:	a093f193          	andi	gp,t2,-1527
    e4c4:	0010e1b3          	or	gp,ra,ra
    e4c8:	00314333          	xor	t1,sp,gp
    e4cc:	003150bb          	srlw	ra,sp,gp
    e4d0:	1dd1b313          	sltiu	t1,gp,477
    e4d4:	a5e1b337          	lui	t1,0xa5e1b
    e4d8:	02a11113          	slli	sp,sp,0x2a
    e4dc:	19e1c093          	xori	ra,gp,414
    e4e0:	85614093          	xori	ra,sp,-1962
    e4e4:	022100b3          	mul	ra,sp,sp
    e4e8:	3005a1b7          	lui	gp,0x3005a
    e4ec:	4013093b          	subw	s2,t1,ra
    e4f0:	d89660b7          	lui	ra,0xd8966
    e4f4:	942c7137          	lui	sp,0x942c7
    e4f8:	197f60b7          	lui	ra,0x197f6
    e4fc:	02f170b3          	remu	ra,sp,a5
    e500:	58e18293          	addi	t0,gp,1422 # 0x3005a58e
    e504:	0031a0b3          	slt	ra,gp,gp
    e508:	de7600b7          	lui	ra,0xde760
    e50c:	00000117          	auipc	sp,0x0
    e510:	dc810367          	jalr	t1,-568(sp) # 0xe2d4
    e514:	5b2841b7          	lui	gp,0x5b284
    e518:	00e09213          	slli	tp,ra,0xe
    e51c:	02327333          	remu	t1,tp,gp
    e520:	004351b3          	srl	gp,t1,tp
    e524:	001091bb          	sllw	gp,ra,ra
    e528:	2982b093          	sltiu	ra,t0,664
    e52c:	02b01113          	slli	sp,zero,0x2b
    e530:	4020d2b3          	sra	t0,ra,sp
    e534:	f5813193          	sltiu	gp,sp,-168
    e538:	001090bb          	sllw	ra,ra,ra
    e53c:	006153b3          	srl	t2,sp,t1
    e540:	00115193          	srli	gp,sp,0x1
    e544:	50e2c1b7          	lui	gp,0x50e2c
    e548:	016860b3          	or	ra,a6,s6
    e54c:	d8d0809b          	addiw	ra,ra,-627
    e550:	40b150bb          	sraw	ra,sp,a1
    e554:	00219133          	sll	sp,gp,sp
    e558:	7e0f22b7          	lui	t0,0x7e0f2
    e55c:	4140d1b3          	sra	gp,ra,s4
    e560:	002141b3          	xor	gp,sp,sp
    e564:	002700b3          	add	ra,a4,sp
    e568:	bb2c7137          	lui	sp,0xbb2c7
    e56c:	003310b3          	sll	ra,t1,gp
    e570:	006190b3          	sll	ra,gp,t1
    e574:	4000d133          	sra	sp,ra,zero
    e578:	00204133          	xor	sp,zero,sp
    e57c:	4d21b017          	auipc	zero,0x4d21b
    e580:	00327033          	and	zero,tp,gp
    e584:	023270b3          	remu	ra,tp,gp
    e588:	0001101b          	slliw	zero,sp,0x0
    e58c:	0221e233          	rem	tp,gp,sp
    e590:	00e0d09b          	srliw	ra,ra,0xe
    e594:	a984a117          	auipc	sp,0xa984a
    e598:	3415a317          	auipc	t1,0x3415a
    e59c:	4012513b          	sraw	sp,tp,ra
    e5a0:	00018c93          	mv	s9,gp
    e5a4:	ca3c88e3          	beq	s9,gp,0xe254
    e5a8:	cfd1ba93          	sltiu	s5,gp,-771
    e5ac:	01b0923b          	sllw	tp,ra,s11
    e5b0:	4032d0b3          	sra	ra,t0,gp
    e5b4:	a240829b          	addiw	t0,ra,-1500
    e5b8:	42a4d093          	srai	ra,s1,0x2a
    e5bc:	0251c133          	div	sp,gp,t0
    e5c0:	003081bb          	addw	gp,ra,gp
    e5c4:	0234e0b3          	rem	ra,s1,gp
    e5c8:	0021c0b3          	xor	ra,gp,sp
    e5cc:	0011a0b3          	slt	ra,gp,ra
    e5d0:	0031f0b3          	and	ra,gp,gp
    e5d4:	f6814313          	xori	t1,sp,-152
    e5d8:	a6e12093          	slti	ra,sp,-1426
    e5dc:	0060803b          	addw	zero,ra,t1
    e5e0:	e6c1a013          	slti	zero,gp,-404
    e5e4:	7a50f413          	andi	s0,ra,1957
    e5e8:	97b01597          	auipc	a1,0x97b01
    e5ec:	00102333          	sgtz	t1,ra
    e5f0:	0061513b          	srlw	sp,sp,t1
    e5f4:	00b0919b          	slliw	gp,ra,0xb
    e5f8:	3a90f093          	andi	ra,ra,937
    e5fc:	b9e5d337          	lui	t1,0xb9e5d
    e600:	0390d193          	srli	gp,ra,0x39
    e604:	ba43c193          	xori	gp,t2,-1116
    e608:	9fa2f093          	andi	ra,t0,-1542
    e60c:	41b0531b          	sraiw	t1,zero,0x1b
    e610:	2bec2137          	lui	sp,0x2bec2
    e614:	0022d1b3          	srl	gp,t0,sp
    e618:	001171b3          	and	gp,sp,ra
    e61c:	001136b3          	sltu	a3,sp,ra
    e620:	0220d533          	divu	a0,ra,sp
    e624:	0041539b          	srliw	t2,sp,0x4
    e628:	be813897          	auipc	a7,0xbe813
    e62c:	0240c133          	div	sp,ra,tp
    e630:	1de8d3b7          	lui	t2,0x1de8d
    e634:	dc9104e3          	beq	sp,s1,0xe3fc
    e638:	dc5ff06f          	j	0xe3fc
    e63c:	bc06e137          	lui	sp,0xbc06e
    e640:	003172b3          	and	t0,sp,gp
    e644:	f511009b          	addiw	ra,sp,-175
    e648:	002057bb          	srlw	a5,zero,sp
    e64c:	03711293          	slli	t0,sp,0x37
    e650:	4cb0a113          	slti	sp,ra,1227
    e654:	bab0f113          	andi	sp,ra,-1109
    e658:	3df26193          	ori	gp,tp,991
    e65c:	a1f31097          	auipc	ra,0xa1f31
    e660:	00e3909b          	slliw	ra,t2,0xe
    e664:	401180bb          	subw	ra,gp,ra
    e668:	0131d11b          	srliw	sp,gp,0x13
    e66c:	e4e71397          	auipc	t2,0xe4e71
    e670:	0220c9b3          	div	s3,ra,sp
    e674:	403151bb          	sraw	gp,sp,gp
    e678:	0181509b          	srliw	ra,sp,0x18
    e67c:	0240d333          	divu	t1,ra,tp
    e680:	40610333          	sub	t1,sp,t1
    e684:	0003d293          	srli	t0,t2,0x0
    e688:	03e61093          	slli	ra,a2,0x3e
    e68c:	0021e0b3          	or	ra,gp,sp
    e690:	1eb35117          	auipc	sp,0x1eb35
    e694:	01b0909b          	slliw	ra,ra,0x1b
    e698:	4020d133          	sra	sp,ra,sp
    e69c:	fee27593          	andi	a1,tp,-18
    e6a0:	0020d1bb          	srlw	gp,ra,sp
    e6a4:	0015913b          	sllw	sp,a1,ra
    e6a8:	1fe3f393          	andi	t2,t2,510
    e6ac:	08cbd197          	auipc	gp,0x8cbd
    e6b0:	00219b33          	sll	s6,gp,sp
    e6b4:	401180bb          	subw	ra,gp,ra
    e6b8:	02227133          	remu	sp,tp,sp
    e6bc:	0071023b          	addw	tp,sp,t2
    e6c0:	401102bb          	subw	t0,sp,ra
    e6c4:	00302d33          	sgtz	s10,gp
    e6c8:	00000093          	li	ra,0
    e6cc:	ec008ee3          	beqz	ra,0xe5a8
    e6d0:	2b80e113          	ori	sp,ra,696
    e6d4:	74591197          	auipc	gp,0x74591
    e6d8:	5dd17093          	andi	ra,sp,1501
    e6dc:	003060b3          	or	ra,zero,gp
    e6e0:	003350b3          	srl	ra,t1,gp
    e6e4:	4c55f097          	auipc	ra,0x4c55f
    e6e8:	102526b7          	lui	a3,0x10252
    e6ec:	43215013          	srai	zero,sp,0x32
    e6f0:	02114133          	div	sp,sp,ra
    e6f4:	b612a113          	slti	sp,t0,-1183
    e6f8:	0065a1b3          	slt	gp,a1,t1
    e6fc:	023063b3          	rem	t2,zero,gp
    e700:	0001c033          	xor	zero,gp,zero
    e704:	79d10113          	addi	sp,sp,1949 # 0x1eb43e2d
    e708:	65814193          	xori	gp,sp,1624
    e70c:	85516193          	ori	gp,sp,-1963
    e710:	4100d29b          	sraiw	t0,ra,0x10
    e714:	2a90f293          	andi	t0,ra,681
    e718:	4036513b          	sraw	sp,a2,gp
    e71c:	03a153b3          	divu	t2,sp,s10
    e720:	635a5117          	auipc	sp,0x635a5
    e724:	402081b3          	sub	gp,ra,sp
    e728:	f54ac1b7          	lui	gp,0xf54ac
    e72c:	406150bb          	sraw	ra,sp,t1
    e730:	4010d0bb          	sraw	ra,ra,ra
    e734:	00918133          	add	sp,gp,s1
    e738:	f5705117          	auipc	sp,0xf5705
    e73c:	4012d1bb          	sraw	gp,t0,ra
    e740:	00221133          	sll	sp,tp,sp
    e744:	01e1111b          	slliw	sp,sp,0x1e
    e748:	02208133          	mul	sp,ra,sp
    e74c:	003251b3          	srl	gp,tp,gp
    e750:	03c21313          	slli	t1,tp,0x3c
    e754:	0020833b          	addw	t1,ra,sp
    e758:	a03102e3          	beq	sp,gp,0xe15c
    e75c:	a01ff16f          	jal	sp,0xe15c
    e760:	81458313          	addi	t1,a1,-2028 # 0xffffffff97b0edfc
    e764:	51ec7097          	auipc	ra,0x51ec7
    e768:	023040b3          	div	ra,zero,gp
    e76c:	9361b193          	sltiu	gp,gp,-1738
    e770:	0061833b          	addw	t1,gp,t1
    e774:	41128233          	sub	tp,t0,a7
    e778:	4023d0bb          	sraw	ra,t2,sp
    e77c:	a7e17113          	andi	sp,sp,-1410
    e780:	74f13093          	sltiu	ra,sp,1871
    e784:	d010b313          	sltiu	t1,ra,-767
    e788:	ed00e217          	auipc	tp,0xed00e
    e78c:	0131109b          	slliw	ra,sp,0x13
    e790:	0010d1bb          	srlw	gp,ra,ra
    e794:	03705093          	srli	ra,zero,0x37
    e798:	402100bb          	subw	ra,sp,sp
    e79c:	02208233          	mul	tp,ra,sp
    e7a0:	17b0819b          	addiw	gp,ra,379
    e7a4:	01a0919b          	slliw	gp,ra,0x1a
    e7a8:	66d6f1b7          	lui	gp,0x66d6f
    e7ac:	0210c0b3          	div	ra,ra,ra
    e7b0:	0220f333          	remu	t1,ra,sp
    e7b4:	0221e133          	rem	sp,gp,sp
    e7b8:	8df91117          	auipc	sp,0x8df91
    e7bc:	436d5337          	lui	t1,0x436d5
    e7c0:	00337333          	and	t1,t1,gp
    e7c4:	d762079b          	addiw	a5,tp,-650
    e7c8:	65017113          	andi	sp,sp,1616
    e7cc:	0020919b          	slliw	gp,ra,0x2
    e7d0:	0021b3b3          	sltu	t2,gp,sp
    e7d4:	0223c0b3          	div	ra,t2,sp
    e7d8:	b982a137          	lui	sp,0xb982a
    e7dc:	0230c133          	div	sp,ra,gp
    e7e0:	12718663          	beq	gp,t2,0xe90c
    e7e4:	128001ef          	jal	gp,0xe90c
    e7e8:	4020d0b3          	sra	ra,ra,sp
    e7ec:	04f561b7          	lui	gp,0x4f56
    e7f0:	4011d03b          	sraw	zero,gp,ra
    e7f4:	4020d813          	srai	a6,ra,0x2
    e7f8:	af20c193          	xori	gp,ra,-1294
    e7fc:	4151d11b          	sraiw	sp,gp,0x15
    e800:	40d1533b          	sraw	t1,sp,a3
    e804:	d0914213          	xori	tp,sp,-759
    e808:	01919593          	slli	a1,gp,0x19
    e80c:	02508133          	mul	sp,ra,t0
    e810:	0230f1b3          	remu	gp,ra,gp
    e814:	006100b3          	add	ra,sp,t1
    e818:	00416133          	or	sp,sp,tp
    e81c:	02117333          	remu	t1,sp,ra
    e820:	0091911b          	slliw	sp,gp,0x9
    e824:	002151bb          	srlw	gp,sp,sp
    e828:	d0b52117          	auipc	sp,0xd0b52
    e82c:	002150bb          	srlw	ra,sp,sp
    e830:	0031813b          	addw	sp,gp,gp
    e834:	0010a133          	slt	sp,ra,ra
    e838:	eddc30b7          	lui	ra,0xeddc3
    e83c:	00f1d29b          	srliw	t0,gp,0xf
    e840:	62f01117          	auipc	sp,0x62f01
    e844:	0021a033          	slt	zero,gp,sp
    e848:	003315bb          	sllw	a1,t1,gp
    e84c:	021101b3          	mul	gp,sp,ra
    e850:	0033a133          	slt	sp,t2,gp
    e854:	8e32a193          	slti	gp,t0,-1821
    e858:	8e718193          	addi	gp,gp,-1817 # 0x4f558e7
    e85c:	0010d0b3          	srl	ra,ra,ra
    e860:	0231c033          	div	zero,gp,gp
    e864:	c91cf0b7          	lui	ra,0xc91cf
    e868:	6ac19137          	lui	sp,0x6ac19
    e86c:	9b0fe117          	auipc	sp,0x9b0fe
    e870:	1c8420b7          	lui	ra,0x1c842
    e874:	961104e3          	beq	sp,ra,0xe1dc
    e878:	965ff0ef          	jal	ra,0xe1dc
    e87c:	4391d193          	srai	gp,gp,0x39
    e880:	e041019b          	addiw	gp,sp,-508
    e884:	41a1509b          	sraiw	ra,sp,0x1a
    e888:	57c17193          	andi	gp,sp,1404
    e88c:	00f3129b          	slliw	t0,t1,0xf
    e890:	00708233          	add	tp,ra,t2
    e894:	4031d1b3          	sra	gp,gp,gp
    e898:	006173b3          	and	t2,sp,t1
    e89c:	0010d133          	srl	sp,ra,ra
    e8a0:	4022513b          	sraw	sp,tp,sp
    e8a4:	f25a009b          	addiw	ra,s4,-219
    e8a8:	025208b3          	mul	a7,tp,t0
    e8ac:	a3b40197          	auipc	gp,0xa3b40
    e8b0:	4022033b          	subw	t1,tp,sp
    e8b4:	3e63b093          	sltiu	ra,t2,998
    e8b8:	acd0a093          	slti	ra,ra,-1331
    e8bc:	0021511b          	srliw	sp,sp,0x2
    e8c0:	01418133          	add	sp,gp,s4
    e8c4:	5be42113          	slti	sp,s0,1470
    e8c8:	5ad1059b          	addiw	a1,sp,1453
    e8cc:	002230b3          	sltu	ra,tp,sp
    e8d0:	7d41c093          	xori	ra,gp,2004
    e8d4:	003091b3          	sll	gp,ra,gp
    e8d8:	021150b3          	divu	ra,sp,ra
    e8dc:	001193bb          	sllw	t2,gp,ra
    e8e0:	44d0a093          	slti	ra,ra,1101
    e8e4:	001091b3          	sll	gp,ra,ra
    e8e8:	00319233          	sll	tp,gp,gp
    e8ec:	022182b3          	mul	t0,gp,sp
    e8f0:	58712113          	slti	sp,sp,1415
    e8f4:	6996c137          	lui	sp,0x6996c
    e8f8:	0031e0b3          	or	ra,gp,gp
    e8fc:	0001e133          	or	sp,gp,zero
    e900:	002152bb          	srlw	t0,sp,sp
    e904:	08218c63          	beq	gp,sp,0xe99c
    e908:	094001ef          	jal	gp,0xe99c
    e90c:	1181e113          	ori	sp,gp,280
    e910:	00e21093          	slli	ra,tp,0xe
    e914:	001181bb          	addw	gp,gp,ra
    e918:	91724093          	xori	ra,tp,-1769
    e91c:	00118b33          	add	s6,gp,ra
    e920:	01d0d11b          	srliw	sp,ra,0x1d
    e924:	0033f1b3          	and	gp,t2,gp
    e928:	ecaf1097          	auipc	ra,0xecaf1
    e92c:	8075a297          	auipc	t0,0x8075a
    e930:	0080909b          	slliw	ra,ra,0x8
    e934:	61d31097          	auipc	ra,0x61d31
    e938:	000240b3          	xor	ra,tp,zero
    e93c:	49af21b7          	lui	gp,0x49af2
    e940:	00b1119b          	slliw	gp,sp,0xb
    e944:	0031b1b3          	sltu	gp,gp,gp
    e948:	48803093          	sltiu	ra,zero,1160
    e94c:	00209233          	sll	tp,ra,sp
    e950:	90010093          	addi	ra,sp,-1792 # 0x6996b900
    e954:	003182b3          	add	t0,gp,gp
    e958:	00230d33          	add	s10,t1,sp
    e95c:	9210831b          	addiw	t1,ra,-1759
    e960:	301aa197          	auipc	gp,0x301aa
    e964:	0020933b          	sllw	t1,ra,sp
    e968:	1b90f113          	andi	sp,ra,441
    e96c:	78136193          	ori	gp,t1,1921
    e970:	001121b3          	slt	gp,sp,ra
    e974:	0010813b          	addw	sp,ra,ra
    e978:	39584137          	lui	sp,0x39584
    e97c:	4ee6819b          	addiw	gp,a3,1262
    e980:	dd50a093          	slti	ra,ra,-555
    e984:	0031913b          	sllw	sp,gp,gp
    e988:	8a51f117          	auipc	sp,0x8a51f
    e98c:	403181b3          	sub	gp,gp,gp
    e990:	bcbee097          	auipc	ra,0xbcbee
    e994:	00410263          	beq	sp,tp,0xe998
    e998:	e9cff0ef          	jal	ra,0xe034
    e99c:	244101b7          	lui	gp,0x24410
    e9a0:	00311133          	sll	sp,sp,gp
    e9a4:	d5636113          	ori	sp,t1,-682
    e9a8:	001110bb          	sllw	ra,sp,ra
    e9ac:	62e19297          	auipc	t0,0x62e19
    e9b0:	a43052b7          	lui	t0,0xa4305
    e9b4:	61f0e313          	ori	t1,ra,1567
    e9b8:	43c05197          	auipc	gp,0x43c05
    e9bc:	77a41097          	auipc	ra,0x77a41
    e9c0:	02308133          	mul	sp,ra,gp
    e9c4:	d556c1b7          	lui	gp,0xd556c
    e9c8:	001c1233          	sll	tp,s8,ra
    e9cc:	002090b3          	sll	ra,ra,sp
    e9d0:	9dbe96b7          	lui	a3,0x9dbe9
    e9d4:	4021d133          	sra	sp,gp,sp
    e9d8:	0010d13b          	srlw	sp,ra,ra
    e9dc:	8da1c513          	xori	a0,gp,-1830
    e9e0:	40235133          	sra	sp,t1,sp
    e9e4:	abf6819b          	addiw	gp,a3,-1345
    e9e8:	4111509b          	sraiw	ra,sp,0x11
    e9ec:	02625133          	divu	sp,tp,t1
    e9f0:	023172b3          	remu	t0,sp,gp
    e9f4:	01012093          	slti	ra,sp,16
    e9f8:	0211d133          	divu	sp,gp,ra
    e9fc:	021050b3          	divu	ra,zero,ra
    ea00:	980b7017          	auipc	zero,0x980b7
    ea04:	025181b3          	mul	gp,gp,t0
    ea08:	021901b3          	mul	gp,s2,ra
    ea0c:	02308333          	mul	t1,ra,gp
    ea10:	ba431297          	auipc	t0,0xba431
    ea14:	0036a133          	slt	sp,a3,gp
    ea18:	00128263          	beq	t0,ra,0xea1c
    ea1c:	23d001ef          	jal	gp,0xf458
    ea20:	0021f133          	and	sp,gp,sp
    ea24:	0011f133          	and	sp,gp,ra
    ea28:	02509193          	slli	gp,ra,0x25
    ea2c:	12a18113          	addi	sp,gp,298 # 0xffffffffd556c12a
    ea30:	00295133          	srl	sp,s2,sp
    ea34:	4072013b          	subw	sp,tp,t2
    ea38:	4b116013          	ori	zero,sp,1201
    ea3c:	0030c1b3          	xor	gp,ra,gp
    ea40:	002183bb          	addw	t2,gp,sp
    ea44:	8271001b          	addiw	zero,sp,-2009
    ea48:	0150c133          	xor	sp,ra,s5
    ea4c:	42518097          	auipc	ra,0x42518
    ea50:	007101b3          	add	gp,sp,t2
    ea54:	66768113          	addi	sp,a3,1639 # 0xffffffff9dbe9667
    ea58:	006f53b3          	srl	t2,t5,t1
    ea5c:	007120b3          	slt	ra,sp,t2
    ea60:	a68f1237          	lui	tp,0xa68f1
    ea64:	4010d193          	srai	gp,ra,0x1
    ea68:	01815313          	srli	t1,sp,0x18
    ea6c:	e4d1b513          	sltiu	a0,gp,-435
    ea70:	6f6090b7          	lui	ra,0x6f609
    ea74:	7a41e013          	ori	zero,gp,1956
    ea78:	00307333          	and	t1,zero,gp
    ea7c:	10d600b7          	lui	ra,0x10d60
    ea80:	003371b3          	and	gp,t1,gp
    ea84:	43d1f097          	auipc	ra,0x43d1f
    ea88:	0030d1bb          	srlw	gp,ra,gp
    ea8c:	4010d933          	sra	s2,ra,ra
    ea90:	022081b3          	mul	gp,ra,sp
    ea94:	0053c7b3          	xor	a5,t2,t0
    ea98:	53d13e93          	sltiu	t4,sp,1341
    ea9c:	a0b91137          	lui	sp,0xa0b91
    eaa0:	0050911b          	slliw	sp,ra,0x5
    eaa4:	78137663          	bgeu	t1,ra,0xf230
    eaa8:	78136463          	bltu	t1,ra,0xf230
    eaac:	0222dc33          	divu	s8,t0,sp
    eab0:	0d412293          	slti	t0,sp,212
    eab4:	0001b7b3          	sltu	a5,gp,zero
    eab8:	02137133          	remu	sp,t1,ra
    eabc:	ff81819b          	addiw	gp,gp,-8
    eac0:	01b11113          	slli	sp,sp,0x1b
    eac4:	bbe1b0b7          	lui	ra,0xbbe1b
    eac8:	44257217          	auipc	tp,0x44257
    eacc:	0181521b          	srliw	tp,sp,0x18
    ead0:	023081b3          	mul	gp,ra,gp
    ead4:	41f201b3          	sub	gp,tp,t6
    ead8:	402303b3          	sub	t2,t1,sp
    eadc:	022180b3          	mul	ra,gp,sp
    eae0:	0230c4b3          	div	s1,ra,gp
    eae4:	0221f0b3          	remu	ra,gp,sp
    eae8:	0252d3b3          	divu	t2,t0,t0
    eaec:	d0d3a1b7          	lui	gp,0xd0d3a
    eaf0:	02115033          	divu	zero,sp,ra
    eaf4:	4000d11b          	sraiw	sp,ra,0x0
    eaf8:	02111113          	slli	sp,sp,0x21
    eafc:	c7c0829b          	addiw	t0,ra,-900
    eb00:	7e0a4097          	auipc	ra,0x7e0a4
    eb04:	403184bb          	subw	s1,gp,gp
    eb08:	00711093          	slli	ra,sp,0x7
    eb0c:	01d0d113          	srli	sp,ra,0x1d
    eb10:	1f032093          	slti	ra,t1,496
    eb14:	2a7181b7          	lui	gp,0x2a718
    eb18:	2f20b113          	sltiu	sp,ra,754
    eb1c:	02218133          	mul	sp,gp,sp
    eb20:	0011c2b3          	xor	t0,gp,ra
    eb24:	40318133          	sub	sp,gp,gp
    eb28:	f3454137          	lui	sp,0xf3454
    eb2c:	002101b3          	add	gp,sp,sp
    eb30:	01d078b3          	and	a7,zero,t4
    eb34:	0037c133          	xor	sp,a5,gp
    eb38:	402382bb          	subw	t0,t2,sp
    eb3c:	de83029b          	addiw	t0,t1,-536
    eb40:	cd1f92b7          	lui	t0,0xcd1f9
    eb44:	00000197          	auipc	gp,0x0
    eb48:	0b018067          	jr	176(gp) # 0xebf4
    eb4c:	0261f1b3          	remu	gp,gp,t1
    eb50:	0083101b          	slliw	zero,t1,0x8
    eb54:	001010b3          	sll	ra,zero,ra
    eb58:	6892e0b7          	lui	ra,0x6892e
    eb5c:	b8d2c2b7          	lui	t0,0xb8d2c
    eb60:	457ae337          	lui	t1,0x457ae
    eb64:	0060e133          	or	sp,ra,t1
    eb68:	07f4c097          	auipc	ra,0x7f4c
    eb6c:	0010d1bb          	srlw	gp,ra,ra
    eb70:	990b1297          	auipc	t0,0x990b1
    eb74:	0021119b          	slliw	gp,sp,0x2
    eb78:	b283be17          	auipc	t3,0xb283b
    eb7c:	40e1539b          	sraiw	t2,sp,0xe
    eb80:	d0a50117          	auipc	sp,0xd0a50
    eb84:	0231e0b3          	rem	ra,gp,gp
    eb88:	c590e217          	auipc	tp,0xc590e
    eb8c:	d241031b          	addiw	t1,sp,-732
    eb90:	c0bee217          	auipc	tp,0xc0bee
    eb94:	002250b3          	srl	ra,tp,sp
    eb98:	c0cfd137          	lui	sp,0xc0cfd
    eb9c:	402380b3          	sub	ra,t2,sp
    eba0:	76118093          	addi	ra,gp,1889
    eba4:	02418333          	mul	t1,gp,tp
    eba8:	0222e133          	rem	sp,t0,sp
    ebac:	01c1d113          	srli	sp,gp,0x1c
    ebb0:	0230c3b3          	div	t2,ra,gp
    ebb4:	3f7e1137          	lui	sp,0x3f7e1
    ebb8:	402288bb          	subw	a7,t0,sp
    ebbc:	0060a333          	slt	t1,ra,t1
    ebc0:	ec86e017          	auipc	zero,0xec86e
    ebc4:	2a916793          	ori	a5,sp,681
    ebc8:	4de0f113          	andi	sp,ra,1246
    ebcc:	74c68093          	addi	ra,a3,1868
    ebd0:	407000b3          	neg	ra,t2
    ebd4:	0231f133          	remu	sp,gp,gp
    ebd8:	b7bc4497          	auipc	s1,0xb7bc4
    ebdc:	62d0e113          	ori	sp,ra,1581
    ebe0:	003172b3          	and	t0,sp,gp
    ebe4:	aae1cbb7          	lui	s7,0xaae1c
    ebe8:	009131b3          	sltu	gp,sp,s1
    ebec:	14260663          	beq	a2,sp,0xed38
    ebf0:	148001ef          	jal	gp,0xed38
    ebf4:	0021a0b3          	slt	ra,gp,sp
    ebf8:	170cd317          	auipc	t1,0x170cd
    ebfc:	002d9133          	sll	sp,s11,sp
    ec00:	0180d31b          	srliw	t1,ra,0x18
    ec04:	7980e193          	ori	gp,ra,1944
    ec08:	0060e1b3          	or	gp,ra,t1
    ec0c:	001043b3          	xor	t2,zero,ra
    ec10:	402101bb          	subw	gp,sp,sp
    ec14:	0e3f4217          	auipc	tp,0xe3f4
    ec18:	002080b3          	add	ra,ra,sp
    ec1c:	4241011b          	addiw	sp,sp,1060
    ec20:	30e5f0b7          	lui	ra,0x30e5f
    ec24:	eed2011b          	addiw	sp,tp,-275
    ec28:	00222233          	slt	tp,tp,sp
    ec2c:	4091d1b3          	sra	gp,gp,s1
    ec30:	0141919b          	slliw	gp,gp,0x14
    ec34:	0012f2b3          	and	t0,t0,ra
    ec38:	006061b3          	or	gp,zero,t1
    ec3c:	022356b3          	divu	a3,t1,sp
    ec40:	0020c733          	xor	a4,ra,sp
    ec44:	00117333          	and	t1,sp,ra
    ec48:	404153b3          	sra	t2,sp,tp
    ec4c:	00218933          	add	s2,gp,sp
    ec50:	003211b3          	sll	gp,tp,gp
    ec54:	40c0d21b          	sraiw	tp,ra,0xc
    ec58:	40208733          	sub	a4,ra,sp
    ec5c:	b490a193          	slti	gp,ra,-1207
    ec60:	4010d133          	sra	sp,ra,ra
    ec64:	00218133          	add	sp,gp,sp
    ec68:	fa60f193          	andi	gp,ra,-90
    ec6c:	00116933          	or	s2,sp,ra
    ec70:	560e92b7          	lui	t0,0x560e9
    ec74:	01b1909b          	slliw	ra,gp,0x1b
    ec78:	0231f233          	remu	tp,gp,gp
    ec7c:	9eaa90b7          	lui	ra,0x9eaa9
    ec80:	01a0919b          	slliw	gp,ra,0x1a
    ec84:	4001509b          	sraiw	ra,sp,0x0
    ec88:	0030d1b3          	srl	gp,ra,gp
    ec8c:	0210d1b3          	divu	gp,ra,ra
    ec90:	54521297          	auipc	t0,0x54521
    ec94:	5dd0e093          	ori	ra,ra,1501
    ec98:	00020113          	mv	sp,tp
    ec9c:	1c410263          	beq	sp,tp,0xee60
    eca0:	401101bb          	subw	gp,sp,ra
    eca4:	00122433          	slt	s0,tp,ra
    eca8:	4030d5b3          	sra	a1,ra,gp
    ecac:	0011acb3          	slt	s9,gp,ra
    ecb0:	73b14113          	xori	sp,sp,1851
    ecb4:	8568d0b7          	lui	ra,0x8568d
    ecb8:	6ee0b197          	auipc	gp,0x6ee0b
    ecbc:	027101b3          	mul	gp,sp,t2
    ecc0:	0061c3b3          	xor	t2,gp,t1
    ecc4:	0070e2b3          	or	t0,ra,t2
    ecc8:	5a817813          	andi	a6,sp,1448
    eccc:	4003833b          	subw	t1,t2,zero
    ecd0:	a4932193          	slti	gp,t1,-1463
    ecd4:	022362b3          	rem	t0,t1,sp
    ecd8:	247a4117          	auipc	sp,0x247a4
    ecdc:	03115093          	srli	ra,sp,0x31
    ece0:	0040813b          	addw	sp,ra,tp
    ece4:	0010d3b3          	srl	t2,ra,ra
    ece8:	3ed1081b          	addiw	a6,sp,1005
    ecec:	002181bb          	addw	gp,gp,sp
    ecf0:	557cb197          	auipc	gp,0x557cb
    ecf4:	5f3f4597          	auipc	a1,0x5f3f4
    ecf8:	7cc0809b          	addiw	ra,ra,1996
    ecfc:	02410233          	mul	tp,sp,tp
    ed00:	0221e0b3          	rem	ra,gp,sp
    ed04:	0153833b          	addw	t1,t2,s5
    ed08:	00b3d1bb          	srlw	gp,t2,a1
    ed0c:	02c0d013          	srli	zero,ra,0x2c
    ed10:	90006097          	auipc	ra,0x90006
    ed14:	a64a1137          	lui	sp,0xa64a1
    ed18:	9b31e293          	ori	t0,gp,-1613
    ed1c:	e0618193          	addi	gp,gp,-506 # 0x557d9af6
    ed20:	bb406313          	ori	t1,zero,-1100
    ed24:	bab141b7          	lui	gp,0xbab14
    ed28:	02128133          	mul	sp,t0,ra
    ed2c:	b84e01b7          	lui	gp,0xb84e0
    ed30:	7c129663          	bne	t0,ra,0xf4fc
    ed34:	7c128463          	beq	t0,ra,0xf4fc
    ed38:	12170017          	auipc	zero,0x12170
    ed3c:	0030f733          	and	a4,ra,gp
    ed40:	001280bb          	addw	ra,t0,ra
    ed44:	001110bb          	sllw	ra,sp,ra
    ed48:	0030513b          	srlw	sp,zero,gp
    ed4c:	35213313          	sltiu	t1,sp,850
    ed50:	6837e137          	lui	sp,0x6837e
    ed54:	bcf0e393          	ori	t2,ra,-1073
    ed58:	4171d19b          	sraiw	gp,gp,0x17
    ed5c:	0140909b          	slliw	ra,ra,0x14
    ed60:	6cd1e093          	ori	ra,gp,1741
    ed64:	00819113          	slli	sp,gp,0x8
    ed68:	1b5280b7          	lui	ra,0x1b528
    ed6c:	02c0d113          	srli	sp,ra,0x2c
    ed70:	3dbaa137          	lui	sp,0x3dbaa
    ed74:	0021113b          	sllw	sp,sp,sp
    ed78:	0040111b          	slliw	sp,zero,0x4
    ed7c:	b341019b          	addiw	gp,sp,-1228
    ed80:	de927093          	andi	ra,tp,-535
    ed84:	f6124093          	xori	ra,tp,-159
    ed88:	007010bb          	sllw	ra,zero,t2
    ed8c:	6fb3b2b7          	lui	t0,0x6fb3b
    ed90:	a5469337          	lui	t1,0xa5469
    ed94:	0210f0b3          	remu	ra,ra,ra
    ed98:	ec016113          	ori	sp,sp,-320
    ed9c:	e3916397          	auipc	t2,0xe3916
    eda0:	00e19193          	slli	gp,gp,0xe
    eda4:	5740b393          	sltiu	t2,ra,1396
    eda8:	01e0901b          	slliw	zero,ra,0x1e
    edac:	81a16113          	ori	sp,sp,-2022
    edb0:	e24de137          	lui	sp,0xe24de
    edb4:	8a75f1b7          	lui	gp,0x8a75f
    edb8:	003241b3          	xor	gp,tp,gp
    edbc:	0022c1b3          	xor	gp,t0,sp
    edc0:	00000697          	auipc	a3,0x0
    edc4:	258684e7          	jalr	s1,600(a3) # 0xf018
    edc8:	02316133          	rem	sp,sp,gp
    edcc:	40210233          	sub	tp,sp,sp
    edd0:	02219213          	slli	tp,gp,0x22
    edd4:	02210233          	mul	tp,sp,sp
    edd8:	accf3017          	auipc	zero,0xaccf3
    eddc:	027363b3          	rem	t2,t1,t2
    ede0:	00baf597          	auipc	a1,0xbaf
    ede4:	00316133          	or	sp,sp,gp
    ede8:	291171b7          	lui	gp,0x29117
    edec:	0052513b          	srlw	sp,tp,t0
    edf0:	0033e0b3          	or	ra,t2,gp
    edf4:	afed7137          	lui	sp,0xafed7
    edf8:	403201bb          	subw	gp,tp,gp
    edfc:	002081bb          	addw	gp,ra,sp
    ee00:	40505133          	sra	sp,zero,t0
    ee04:	02315133          	divu	sp,sp,gp
    ee08:	72f26117          	auipc	sp,0x72f26
    ee0c:	0220f0b3          	remu	ra,ra,sp
    ee10:	0022813b          	addw	sp,t0,sp
    ee14:	0220c0b3          	div	ra,ra,sp
    ee18:	4e49b137          	lui	sp,0x4e49b
    ee1c:	4382009b          	addiw	ra,tp,1080
    ee20:	01bc511b          	srliw	sp,s8,0x1b
    ee24:	4a1ef213          	andi	tp,t4,1185
    ee28:	ce0e3197          	auipc	gp,0xce0e3
    ee2c:	0002a1b3          	sltz	gp,t0
    ee30:	4751f013          	andi	zero,gp,1141
    ee34:	00209333          	sll	t1,ra,sp
    ee38:	0021d19b          	srliw	gp,gp,0x2
    ee3c:	b7124293          	xori	t0,tp,-1167
    ee40:	003071b3          	and	gp,zero,gp
    ee44:	40320333          	sub	t1,tp,gp
    ee48:	40d084bb          	subw	s1,ra,a3
    ee4c:	0032d09b          	srliw	ra,t0,0x3
    ee50:	b0239097          	auipc	ra,0xb0239
    ee54:	8c308093          	addi	ra,ra,-1853 # 0xffffffffb0247713
    ee58:	00018113          	mv	sp,gp
    ee5c:	ce3108e3          	beq	sp,gp,0xeb4c
    ee60:	003161b3          	or	gp,sp,gp
    ee64:	450aa197          	auipc	gp,0x450aa
    ee68:	3c872097          	auipc	ra,0x3c872
    ee6c:	4031513b          	sraw	sp,sp,gp
    ee70:	fe20a093          	slti	ra,ra,-30
    ee74:	0220c0b3          	div	ra,ra,sp
    ee78:	b1aa8197          	auipc	gp,0xb1aa8
    ee7c:	0070d0b3          	srl	ra,ra,t2
    ee80:	d3d13093          	sltiu	ra,sp,-707
    ee84:	bdc00137          	lui	sp,0xbdc00
    ee88:	0013013b          	addw	sp,t1,ra
    ee8c:	bb718193          	addi	gp,gp,-1097 # 0xffffffffb1ab6a2f
    ee90:	003090bb          	sllw	ra,ra,gp
    ee94:	0210f1b3          	remu	gp,ra,ra
    ee98:	0060c1b3          	xor	gp,ra,t1
    ee9c:	369f2137          	lui	sp,0x369f2
    eea0:	00218133          	add	sp,gp,sp
    eea4:	01a3501b          	srliw	zero,t1,0x1a
    eea8:	1266b397          	auipc	t2,0x1266b
    eeac:	25846197          	auipc	gp,0x25846
    eeb0:	3ee84117          	auipc	sp,0x3ee84
    eeb4:	384df2b7          	lui	t0,0x384df
    eeb8:	00a1531b          	srliw	t1,sp,0xa
    eebc:	0220c0b3          	div	ra,ra,sp
    eec0:	02018133          	mul	sp,gp,zero
    eec4:	b1b17217          	auipc	tp,0xb1b17
    eec8:	0307c133          	div	sp,a5,a6
    eecc:	00116133          	or	sp,sp,ra
    eed0:	666c7013          	andi	zero,s8,1638
    eed4:	02615313          	srli	t1,sp,0x26
    eed8:	74ec21b7          	lui	gp,0x74ec2
    eedc:	0236c0b3          	div	ra,a3,gp
    eee0:	0011813b          	addw	sp,gp,ra
    eee4:	024071b3          	remu	gp,zero,tp
    eee8:	42d1df13          	srai	t5,gp,0x2d
    eeec:	b196f197          	auipc	gp,0xb196f
    eef0:	d08ee1b7          	lui	gp,0xd08ee
    eef4:	1a708063          	beq	ra,t2,0xf094
    eef8:	19c000ef          	jal	ra,0xf094
    eefc:	42a66017          	auipc	zero,0x42a66
    ef00:	0032f333          	and	t1,t0,gp
    ef04:	4063541b          	sraiw	s0,t1,0x6
    ef08:	0260fd33          	remu	s10,ra,t1
    ef0c:	417101b3          	sub	gp,sp,s7
    ef10:	402100bb          	subw	ra,sp,sp
    ef14:	a330811b          	addiw	sp,ra,-1485
    ef18:	00914133          	xor	sp,sp,s1
    ef1c:	4011d1bb          	sraw	gp,gp,ra
    ef20:	4140d113          	srai	sp,ra,0x14
    ef24:	0030901b          	slliw	zero,ra,0x3
    ef28:	022171b3          	remu	gp,sp,sp
    ef2c:	6bf1d397          	auipc	t2,0x6bf1d
    ef30:	0230fbb3          	remu	s7,ra,gp
    ef34:	0272c1b3          	div	gp,t0,t2
    ef38:	92a16113          	ori	sp,sp,-1750
    ef3c:	4f7c0097          	auipc	ra,0x4f7c0
    ef40:	79193397          	auipc	t2,0x79193
    ef44:	0060d0bb          	srlw	ra,ra,t1
    ef48:	973ad017          	auipc	zero,0x973ad
    ef4c:	001251b3          	srl	gp,tp,ra
    ef50:	01a1911b          	slliw	sp,gp,0x1a
    ef54:	a0c3b037          	lui	zero,0xa0c3b
    ef58:	0172813b          	addw	sp,t0,s7
    ef5c:	0020d0bb          	srlw	ra,ra,sp
    ef60:	286b1117          	auipc	sp,0x286b1
    ef64:	003170b3          	and	ra,sp,gp
    ef68:	002191b3          	sll	gp,gp,sp
    ef6c:	00e1511b          	srliw	sp,sp,0xe
    ef70:	0211e1b3          	rem	gp,gp,ra
    ef74:	be13c113          	xori	sp,t2,-1055
    ef78:	00613133          	sltu	sp,sp,t1
    ef7c:	40218133          	sub	sp,gp,sp
    ef80:	efd0839b          	addiw	t2,ra,-259
    ef84:	4032533b          	sraw	t1,tp,gp
    ef88:	00000197          	auipc	gp,0x0
    ef8c:	18c18167          	jalr	sp,396(gp) # 0xf114
    ef90:	69516093          	ori	ra,sp,1685
    ef94:	19d9a2b7          	lui	t0,0x19d9a
    ef98:	0250c0b3          	div	ra,ra,t0
    ef9c:	00310033          	add	zero,sp,gp
    efa0:	0221d6b3          	divu	a3,gp,sp
    efa4:	df50f193          	andi	gp,ra,-523
    efa8:	0030c133          	xor	sp,ra,gp
    efac:	02314233          	div	tp,sp,gp
    efb0:	4a04f293          	andi	t0,s1,1184
    efb4:	01f0101b          	slliw	zero,zero,0x1f
    efb8:	f0f16317          	auipc	t1,0xf0f16
    efbc:	4022509b          	sraiw	ra,tp,0x2
    efc0:	01e1819b          	addiw	gp,gp,30
    efc4:	fb496093          	ori	ra,s2,-76
    efc8:	4021d11b          	sraiw	sp,gp,0x2
    efcc:	00f14233          	xor	tp,sp,a5
    efd0:	4020db3b          	sraw	s6,ra,sp
    efd4:	0206d0b3          	divu	ra,a3,zero
    efd8:	0100d113          	srli	sp,ra,0x10
    efdc:	024103b3          	mul	t2,sp,tp
    efe0:	9bc390b7          	lui	ra,0x9bc39
    efe4:	403100b3          	sub	ra,sp,gp
    efe8:	0220f1b3          	remu	gp,ra,sp
    efec:	0170d19b          	srliw	gp,ra,0x17
    eff0:	02230233          	mul	tp,t1,sp
    eff4:	003b80bb          	addw	ra,s7,gp
    eff8:	002101bb          	addw	gp,sp,sp
    effc:	0080911b          	slliw	sp,ra,0x8
    f000:	002101b3          	add	gp,sp,sp
    f004:	d30cc137          	lui	sp,0xd30cc
    f008:	00354133          	xor	sp,a0,gp
    f00c:	5bd49637          	lui	a2,0x5bd49
    f010:	3cf18063          	beq	gp,a5,0xf3d0
    f014:	3bc002ef          	jal	t0,0xf3d0
    f018:	c7318093          	addi	ra,gp,-909
    f01c:	00309233          	sll	tp,ra,gp
    f020:	41a1d09b          	sraiw	ra,gp,0x1a
    f024:	03e15313          	srli	t1,sp,0x3e
    f028:	6b998297          	auipc	t0,0x6b998
    f02c:	3fe181b7          	lui	gp,0x3fe18
    f030:	00d18233          	add	tp,gp,a3
    f034:	4031d333          	sra	t1,gp,gp
    f038:	f0210113          	addi	sp,sp,-254 # 0xffffffffd30cbf02
    f03c:	2d9121b7          	lui	gp,0x2d912
    f040:	02849193          	slli	gp,s1,0x28
    f044:	0230d133          	divu	sp,ra,gp
    f048:	004131b3          	sltu	gp,sp,tp
    f04c:	402300bb          	subw	ra,t1,sp
    f050:	003150b3          	srl	ra,sp,gp
    f054:	dd7aa097          	auipc	ra,0xdd7aa
    f058:	005251bb          	srlw	gp,tp,t0
    f05c:	0031563b          	srlw	a2,sp,gp
    f060:	5dfc22b7          	lui	t0,0x5dfc2
    f064:	02237133          	remu	sp,t1,sp
    f068:	8ce4e137          	lui	sp,0x8ce4e
    f06c:	4061013b          	subw	sp,sp,t1
    f070:	0030f1b3          	and	gp,ra,gp
    f074:	002290bb          	sllw	ra,t0,sp
    f078:	0210e133          	rem	sp,ra,ra
    f07c:	ccf1c213          	xori	tp,gp,-817
    f080:	03b1811b          	addiw	sp,gp,59
    f084:	1e04c197          	auipc	gp,0x1e04c
    f088:	e1f20b93          	addi	s7,tp,-481 # 0xffffffffb1b25ce3
    f08c:	00008113          	mv	sp,ra
    f090:	981108e3          	beq	sp,ra,0xea20
    f094:	406150bb          	sraw	ra,sp,t1
    f098:	19c1829b          	addiw	t0,gp,412
    f09c:	0041b333          	sltu	t1,gp,tp
    f0a0:	402180bb          	subw	ra,gp,sp
    f0a4:	39118093          	addi	ra,gp,913 # 0x1e05b415
    f0a8:	dbc35137          	lui	sp,0xdbc35
    f0ac:	82448237          	lui	tp,0x82448
    f0b0:	6457d0b7          	lui	ra,0x6457d
    f0b4:	0010e0b3          	or	ra,ra,ra
    f0b8:	01c0919b          	slliw	gp,ra,0x1c
    f0bc:	0040d1b3          	srl	gp,ra,tp
    f0c0:	36f071b7          	lui	gp,0x36f07
    f0c4:	54c0811b          	addiw	sp,ra,1356
    f0c8:	0041d033          	srl	zero,gp,tp
    f0cc:	3f43811b          	addiw	sp,t2,1012
    f0d0:	38422093          	slti	ra,tp,900
    f0d4:	00b14233          	xor	tp,sp,a1
    f0d8:	402351b3          	sra	gp,t1,sp
    f0dc:	0031513b          	srlw	sp,sp,gp
    f0e0:	0011f3b3          	and	t2,gp,ra
    f0e4:	0021823b          	addw	tp,gp,sp
    f0e8:	01e1511b          	srliw	sp,sp,0x1e
    f0ec:	0221c133          	div	sp,gp,sp
    f0f0:	ed913113          	sltiu	sp,sp,-295
    f0f4:	4010d1b3          	sra	gp,ra,ra
    f0f8:	5dab7197          	auipc	gp,0x5dab7
    f0fc:	4030d0b3          	sra	ra,ra,gp
    f100:	0261f133          	remu	sp,gp,t1
    f104:	0001c333          	xor	t1,gp,zero
    f108:	2a50b393          	sltiu	t2,ra,677
    f10c:	1a217663          	bgeu	sp,sp,0xf2b8
    f110:	1a216463          	bltu	sp,sp,0xf2b8
    f114:	cfeb0617          	auipc	a2,0xcfeb0
    f118:	56027293          	andi	t0,tp,1376
    f11c:	93873397          	auipc	t2,0x93873
    f120:	20b10d9b          	addiw	s11,sp,523
    f124:	001340b3          	xor	ra,t1,ra
    f128:	0011a133          	slt	sp,gp,ra
    f12c:	fc114193          	xori	gp,sp,-63
    f130:	003151bb          	srlw	gp,sp,gp
    f134:	0011dabb          	srlw	s5,gp,ra
    f138:	d506a137          	lui	sp,0xd506a
    f13c:	0031a0b3          	slt	ra,gp,gp
    f140:	0091e233          	or	tp,gp,s1
    f144:	002a2133          	slt	sp,s4,sp
    f148:	0221f733          	remu	a4,gp,sp
    f14c:	403201bb          	subw	gp,tp,gp
    f150:	0215f4b3          	remu	s1,a1,ra
    f154:	001083bb          	addw	t2,ra,ra
    f158:	001481b3          	add	gp,s1,ra
    f15c:	0041d1bb          	srlw	gp,gp,tp
    f160:	c3543137          	lui	sp,0xc3543
    f164:	e16f0097          	auipc	ra,0xe16f0
    f168:	77a7e0b7          	lui	ra,0x77a7e
    f16c:	4610819b          	addiw	gp,ra,1121
    f170:	004041b3          	xor	gp,zero,tp
    f174:	a1ea30b7          	lui	ra,0xa1ea3
    f178:	0230d0b3          	divu	ra,ra,gp
    f17c:	93156597          	auipc	a1,0x93156
    f180:	cf61e093          	ori	ra,gp,-778
    f184:	0021d1b3          	srl	gp,gp,sp
    f188:	001100b3          	add	ra,sp,ra
    f18c:	00505a33          	srl	s4,zero,t0
    f190:	c6c712b7          	lui	t0,0xc6c71
    f194:	0030c033          	xor	zero,ra,gp
    f198:	6a308a63          	beq	ra,gp,0xf84c
    f19c:	6b0001ef          	jal	gp,0xf84c
    f1a0:	c1da3097          	auipc	ra,0xc1da3
    f1a4:	7df2a193          	slti	gp,t0,2015
    f1a8:	0221d3b3          	divu	t2,gp,sp
    f1ac:	0043f1b3          	and	gp,t2,tp
    f1b0:	02714233          	div	tp,sp,t2
    f1b4:	00c1519b          	srliw	gp,sp,0xc
    f1b8:	0201d133          	divu	sp,gp,zero
    f1bc:	0b18c197          	auipc	gp,0xb18c
    f1c0:	7a34b037          	lui	zero,0x7a34b
    f1c4:	e4370337          	lui	t1,0xe4370
    f1c8:	a9dfb137          	lui	sp,0xa9dfb
    f1cc:	0020f133          	and	sp,ra,sp
    f1d0:	aa92811b          	addiw	sp,t0,-1367
    f1d4:	0033113b          	sllw	sp,t1,gp
    f1d8:	0030d13b          	srlw	sp,ra,gp
    f1dc:	01bcb117          	auipc	sp,0x1bcb
    f1e0:	f18c5117          	auipc	sp,0xf18c5
    f1e4:	9511e093          	ori	ra,gp,-1711
    f1e8:	0131919b          	slliw	gp,gp,0x13
    f1ec:	0211d1b3          	divu	gp,gp,ra
    f1f0:	401280b3          	sub	ra,t0,ra
    f1f4:	02d1ff33          	remu	t5,gp,a3
    f1f8:	66bac337          	lui	t1,0x66bac
    f1fc:	1821c113          	xori	sp,gp,386
    f200:	0b27f937          	lui	s2,0xb27f
    f204:	023170b3          	remu	ra,sp,gp
    f208:	0031e0b3          	or	ra,gp,gp
    f20c:	a60f90b7          	lui	ra,0xa60f9
    f210:	d471031b          	addiw	t1,sp,-697
    f214:	f09ca137          	lui	sp,0xf09ca
    f218:	021150b3          	divu	ra,sp,ra
    f21c:	021200b3          	mul	ra,tp,ra
    f220:	00216233          	or	tp,sp,sp
    f224:	02330133          	mul	sp,t1,gp
    f228:	12337263          	bgeu	t1,gp,0xf34c
    f22c:	12336063          	bltu	t1,gp,0xf34c
    f230:	01b03133          	snez	sp,s11
    f234:	e611c093          	xori	ra,gp,-415
    f238:	02117233          	remu	tp,sp,ra
    f23c:	004201b3          	add	gp,tp,tp
    f240:	006b32b3          	sltu	t0,s6,t1
    f244:	0012d033          	srl	zero,t0,ra
    f248:	26f30213          	addi	tp,t1,623 # 0x66bac26f
    f24c:	02214133          	div	sp,sp,sp
    f250:	01919f9b          	slliw	t6,gp,0x19
    f254:	7960819b          	addiw	gp,ra,1942
    f258:	0360d313          	srli	t1,ra,0x36
    f25c:	8661809b          	addiw	ra,gp,-1946
    f260:	005152b3          	srl	t0,sp,t0
    f264:	4021013b          	subw	sp,sp,sp
    f268:	0012113b          	sllw	sp,tp,ra
    f26c:	5ce59237          	lui	tp,0x5ce59
    f270:	003141b3          	xor	gp,sp,gp
    f274:	9ccdc017          	auipc	zero,0x9ccdc
    f278:	4051813b          	subw	sp,gp,t0
    f27c:	cee9e097          	auipc	ra,0xcee9e
    f280:	96e47317          	auipc	t1,0x96e47
    f284:	023161b3          	rem	gp,sp,gp
    f288:	c8817093          	andi	ra,sp,-888
    f28c:	403180b3          	sub	ra,gp,gp
    f290:	fde26313          	ori	t1,tp,-34
    f294:	0013a133          	slt	sp,t2,ra
    f298:	00113033          	sltu	zero,sp,ra
    f29c:	0011a0b3          	slt	ra,gp,ra
    f2a0:	ce11b093          	sltiu	ra,gp,-799
    f2a4:	00311133          	sll	sp,sp,gp
    f2a8:	0260f1b3          	remu	gp,ra,t1
    f2ac:	0050d11b          	srliw	sp,ra,0x5
    f2b0:	003d0263          	beq	s10,gp,0xf2b4
    f2b4:	ff8ff0ef          	jal	ra,0xeaac
    f2b8:	00436133          	or	sp,t1,tp
    f2bc:	02424133          	div	sp,tp,tp
    f2c0:	0c91011b          	addiw	sp,sp,201
    f2c4:	01b0f133          	and	sp,ra,s11
    f2c8:	1790e113          	ori	sp,ra,377
    f2cc:	021180b3          	mul	ra,gp,ra
    f2d0:	02217133          	remu	sp,sp,sp
    f2d4:	4ae50117          	auipc	sp,0x4ae50
    f2d8:	78a521b7          	lui	gp,0x78a52
    f2dc:	88517113          	andi	sp,sp,-1915
    f2e0:	00dc919b          	slliw	gp,s9,0xd
    f2e4:	94e2e193          	ori	gp,t0,-1714
    f2e8:	b8408113          	addi	sp,ra,-1148 # 0xffffffffceeace00
    f2ec:	28706113          	ori	sp,zero,647
    f2f0:	0021d2bb          	srlw	t0,gp,sp
    f2f4:	44f1a193          	slti	gp,gp,1103
    f2f8:	25112093          	slti	ra,sp,593
    f2fc:	74a1c1b7          	lui	gp,0x74a1c
    f300:	002150bb          	srlw	ra,sp,sp
    f304:	bbe0c193          	xori	gp,ra,-1090
    f308:	00e1109b          	slliw	ra,sp,0xe
    f30c:	9096b0b7          	lui	ra,0x9096b
    f310:	003131b3          	sltu	gp,sp,gp
    f314:	006100bb          	addw	ra,sp,t1
    f318:	007101bb          	addw	gp,sp,t2
    f31c:	4021d03b          	sraw	zero,gp,sp
    f320:	7bab7197          	auipc	gp,0x7bab7
    f324:	2310b213          	sltiu	tp,ra,561
    f328:	003990b3          	sll	ra,s3,gp
    f32c:	4151d29b          	sraiw	t0,gp,0x15
    f330:	3e416213          	ori	tp,sp,996
    f334:	0031d1b3          	srl	gp,gp,gp
    f338:	026101b3          	mul	gp,sp,t1
    f33c:	4e426313          	ori	t1,tp,1252
    f340:	022154b3          	divu	s1,sp,sp
    f344:	c43106e3          	beq	sp,gp,0xef90
    f348:	c49ff1ef          	jal	gp,0xef90
    f34c:	0a31f113          	andi	sp,gp,163
    f350:	02d09013          	slli	zero,ra,0x2d
    f354:	00931093          	slli	ra,t1,0x9
    f358:	5771871b          	addiw	a4,gp,1399
    f35c:	0291c4b3          	div	s1,gp,s1
    f360:	4011013b          	subw	sp,sp,ra
    f364:	0027823b          	addw	tp,a5,sp
    f368:	95f6c197          	auipc	gp,0x95f6c
    f36c:	b5817113          	andi	sp,sp,-1192
    f370:	00339f3b          	sllw	t5,t2,gp
    f374:	0071d133          	srl	sp,gp,t2
    f378:	9b996193          	ori	gp,s2,-1607
    f37c:	002340b3          	xor	ra,t1,sp
    f380:	bdd1011b          	addiw	sp,sp,-1059
    f384:	c53d0117          	auipc	sp,0xc53d0
    f388:	af60c113          	xori	sp,ra,-1290
    f38c:	f2a16093          	ori	ra,sp,-214
    f390:	0062a0b3          	slt	ra,t0,t1
    f394:	2e01f213          	andi	tp,gp,736
    f398:	0010e133          	or	sp,ra,ra
    f39c:	02127133          	remu	sp,tp,ra
    f3a0:	00015033          	srl	zero,sp,zero
    f3a4:	004380bb          	addw	ra,t2,tp
    f3a8:	0200d133          	divu	sp,ra,zero
    f3ac:	2230821b          	addiw	tp,ra,547
    f3b0:	0021d13b          	srlw	sp,gp,sp
    f3b4:	402f50bb          	sraw	ra,t5,sp
    f3b8:	c88c2197          	auipc	gp,0xc88c2
    f3bc:	01c1011b          	addiw	sp,sp,28
    f3c0:	003080bb          	addw	ra,ra,gp
    f3c4:	01e1119b          	slliw	gp,sp,0x1e
    f3c8:	a01110e3          	bne	sp,ra,0xedc8
    f3cc:	9e110ee3          	beq	sp,ra,0xedc8
    f3d0:	c4f13113          	sltiu	sp,sp,-945
    f3d4:	9e91c193          	xori	gp,gp,-1559
    f3d8:	4030d0bb          	sraw	ra,ra,gp
    f3dc:	0101919b          	slliw	gp,gp,0x10
    f3e0:	0011b133          	sltu	sp,gp,ra
    f3e4:	3c003093          	sltiu	ra,zero,960
    f3e8:	1960c213          	xori	tp,ra,406
    f3ec:	004151bb          	srlw	gp,sp,tp
    f3f0:	0030c3b3          	xor	t2,ra,gp
    f3f4:	2df03293          	sltiu	t0,zero,735
    f3f8:	0230e133          	rem	sp,ra,gp
    f3fc:	00317133          	and	sp,sp,gp
    f400:	400181b3          	sub	gp,gp,zero
    f404:	00c11093          	slli	ra,sp,0xc
    f408:	00609133          	sll	sp,ra,t1
    f40c:	0210e2b3          	rem	t0,ra,ra
    f410:	0020e0b3          	or	ra,ra,sp
    f414:	022151b3          	divu	gp,sp,sp
    f418:	b58535b7          	lui	a1,0xb5853
    f41c:	493860b7          	lui	ra,0x49386
    f420:	003080bb          	addw	ra,ra,gp
    f424:	4090d09b          	sraiw	ra,ra,0x9
    f428:	e7f04093          	xori	ra,zero,-385
    f42c:	384e821b          	addiw	tp,t4,900
    f430:	003171b3          	and	gp,sp,gp
    f434:	c0412093          	slti	ra,sp,-1020
    f438:	401350bb          	sraw	ra,t1,ra
    f43c:	ec3b51b7          	lui	gp,0xec3b5
    f440:	003112b3          	sll	t0,sp,gp
    f444:	406056b3          	sra	a3,zero,t1
    f448:	f23b21b7          	lui	gp,0xf23b2
    f44c:	57b1829b          	addiw	t0,gp,1403
    f450:	859188e3          	beq	gp,s9,0xeca0
    f454:	84dff1ef          	jal	gp,0xeca0
    f458:	03fa7033          	remu	zero,s4,t6
    f45c:	ba11f593          	andi	a1,gp,-1119
    f460:	0181d13b          	srlw	sp,gp,s8
    f464:	db78a7b7          	lui	a5,0xdb78a
    f468:	1926f197          	auipc	gp,0x1926f
    f46c:	fad8d2b7          	lui	t0,0xfad8d
    f470:	bed64097          	auipc	ra,0xbed64
    f474:	037301b3          	mul	gp,t1,s7
    f478:	40b1519b          	sraiw	gp,sp,0xb
    f47c:	4cd2d037          	lui	zero,0x4cd2d
    f480:	007181b3          	add	gp,gp,t2
    f484:	3d00019b          	addiw	gp,zero,976
    f488:	0061c333          	xor	t1,gp,t1
    f48c:	06018093          	addi	ra,gp,96 # 0x1927e4c8
    f490:	53dcb0b7          	lui	ra,0x53dcb
    f494:	0171d09b          	srliw	ra,gp,0x17
    f498:	3322c397          	auipc	t2,0x3322c
    f49c:	9d633093          	sltiu	ra,t1,-1578
    f4a0:	01d1b1b3          	sltu	gp,gp,t4
    f4a4:	c9069137          	lui	sp,0xc9069
    f4a8:	0012a2b3          	slt	t0,t0,ra
    f4ac:	13e13393          	sltiu	t2,sp,318
    f4b0:	73e0a337          	lui	t1,0x73e0a
    f4b4:	3796d0b7          	lui	ra,0x3796d
    f4b8:	f7b17213          	andi	tp,sp,-133
    f4bc:	044c0197          	auipc	gp,0x44c0
    f4c0:	4020d0b3          	sra	ra,ra,sp
    f4c4:	f5e82117          	auipc	sp,0xf5e82
    f4c8:	5fb87097          	auipc	ra,0x5fb87
    f4cc:	02408333          	mul	t1,ra,tp
    f4d0:	463c91b7          	lui	gp,0x463c9
    f4d4:	007191b3          	sll	gp,gp,t2
    f4d8:	00b1e1b3          	or	gp,gp,a1
    f4dc:	00208333          	add	t1,ra,sp
    f4e0:	02d15133          	divu	sp,sp,a3
    f4e4:	a2bd3097          	auipc	ra,0xa2bd3
    f4e8:	0222d1b3          	divu	gp,t0,sp
    f4ec:	00217133          	and	sp,sp,sp
    f4f0:	1557e017          	auipc	zero,0x1557e
    f4f4:	ca3106e3          	beq	sp,gp,0xf1a0
    f4f8:	ca9ff16f          	jal	sp,0xf1a0
    f4fc:	4011d13b          	sraw	sp,gp,ra
    f500:	0031a133          	slt	sp,gp,gp
    f504:	0243f0b3          	remu	ra,t2,tp
    f508:	42d0d013          	srai	zero,ra,0x2d
    f50c:	2a91009b          	addiw	ra,sp,681
    f510:	4f90b797          	auipc	a5,0x4f90b
    f514:	5feab137          	lui	sp,0x5feab
    f518:	77308093          	addi	ra,ra,1907 # 0xffffffffa2be2c57
    f51c:	0031e133          	or	sp,gp,gp
    f520:	56370137          	lui	sp,0x56370
    f524:	4031d1bb          	sraw	gp,gp,gp
    f528:	00625333          	srl	t1,tp,t1
    f52c:	3e408113          	addi	sp,ra,996
    f530:	91357197          	auipc	gp,0x91357
    f534:	0231c1b3          	div	gp,gp,gp
    f538:	021160b3          	rem	ra,sp,ra
    f53c:	0030f1b3          	and	gp,ra,gp
    f540:	23f8b097          	auipc	ra,0x23f8b
    f544:	e7697097          	auipc	ra,0xe7697
    f548:	57b1869b          	addiw	a3,gp,1403
    f54c:	65ff01b7          	lui	gp,0x65ff0
    f550:	789611b7          	lui	gp,0x78961
    f554:	00016133          	or	sp,sp,zero
    f558:	00109133          	sll	sp,ra,ra
    f55c:	6e24a237          	lui	tp,0x6e24a
    f560:	bd31a093          	slti	ra,gp,-1069
    f564:	0021501b          	srliw	zero,sp,0x2
    f568:	003091bb          	sllw	gp,ra,gp
    f56c:	002172b3          	and	t0,sp,sp
    f570:	60e22113          	slti	sp,tp,1550
    f574:	15f64097          	auipc	ra,0x15f64
    f578:	026ed233          	divu	tp,t4,t1
    f57c:	003161b3          	or	gp,sp,gp
    f580:	022180b3          	mul	ra,gp,sp
    f584:	e43e2a17          	auipc	s4,0xe43e2
    f588:	0e298097          	auipc	ra,0xe298
    f58c:	963088e3          	beq	ra,gp,0xeefc
    f590:	96dff0ef          	jal	ra,0xeefc
    f594:	3aa0049b          	addiw	s1,zero,938
    f598:	45a1809b          	addiw	ra,gp,1114
    f59c:	7a63e293          	ori	t0,t2,1958
    f5a0:	00a0d093          	srli	ra,ra,0xa
    f5a4:	0220deb3          	divu	t4,ra,sp
    f5a8:	001333b3          	sltu	t2,t1,ra
    f5ac:	00d19113          	slli	sp,gp,0xd
    f5b0:	024150b3          	divu	ra,sp,tp
    f5b4:	67258197          	auipc	gp,0x67258
    f5b8:	ed730593          	addi	a1,t1,-297 # 0x73e09ed7
    f5bc:	c1b190b7          	lui	ra,0xc1b19
    f5c0:	36800113          	li	sp,872
    f5c4:	003081b3          	add	gp,ra,gp
    f5c8:	0031a0b3          	slt	ra,gp,gp
    f5cc:	15b0821b          	addiw	tp,ra,347
    f5d0:	0010e1b3          	or	gp,ra,ra
    f5d4:	50e85137          	lui	sp,0x50e85
    f5d8:	2de37313          	andi	t1,t1,734
    f5dc:	4061013b          	subw	sp,sp,t1
    f5e0:	00136133          	or	sp,t1,ra
    f5e4:	0031d0b3          	srl	ra,gp,gp
    f5e8:	b8a461b7          	lui	gp,0xb8a46
    f5ec:	e9419197          	auipc	gp,0xe9419
    f5f0:	0030c033          	xor	zero,ra,gp
    f5f4:	f0b12193          	slti	gp,sp,-245
    f5f8:	0020f1b3          	and	gp,ra,sp
    f5fc:	03b11113          	slli	sp,sp,0x3b
    f600:	f3c5e397          	auipc	t2,0xf3c5e
    f604:	01d0909b          	slliw	ra,ra,0x1d
    f608:	003200bb          	addw	ra,tp,gp
    f60c:	a32de097          	auipc	ra,0xa32de
    f610:	7a56ec37          	lui	s8,0x7a56e
    f614:	01911193          	slli	gp,sp,0x19
    f618:	fb2d4317          	auipc	t1,0xfb2d4
    f61c:	343edc63          	bge	t4,gp,0xf974
    f620:	343eca63          	blt	t4,gp,0xf974
    f624:	00f2f2b3          	and	t0,t0,a5
    f628:	68d0b213          	sltiu	tp,ra,1677
    f62c:	71b0b113          	sltiu	sp,ra,1819
    f630:	001101bb          	addw	gp,sp,ra
    f634:	cbc3811b          	addiw	sp,t2,-836
    f638:	2f518093          	addi	ra,gp,757 # 0xffffffffe94288e1
    f63c:	00115333          	srl	t1,sp,ra
    f640:	021180b3          	mul	ra,gp,ra
    f644:	bad61137          	lui	sp,0xbad61
    f648:	8ceff1b7          	lui	gp,0x8ceff
    f64c:	3b15c097          	auipc	ra,0x3b15c
    f650:	8a380117          	auipc	sp,0x8a380
    f654:	0270e1b3          	rem	gp,ra,t2
    f658:	0030b0b3          	sltu	ra,ra,gp
    f65c:	00409193          	slli	gp,ra,0x4
    f660:	0060d5bb          	srlw	a1,ra,t1
    f664:	003e11bb          	sllw	gp,t3,gp
    f668:	9b82f113          	andi	sp,t0,-1608
    f66c:	0012c1b3          	xor	gp,t0,ra
    f670:	0210e133          	rem	sp,ra,ra
    f674:	cef84097          	auipc	ra,0xcef84
    f678:	4010d49b          	sraiw	s1,ra,0x1
    f67c:	0021d13b          	srlw	sp,gp,sp
    f680:	84bd4197          	auipc	gp,0x84bd4
    f684:	0230d1b3          	divu	gp,ra,gp
    f688:	0181911b          	slliw	sp,gp,0x18
    f68c:	403001b3          	neg	gp,gp
    f690:	00219193          	slli	gp,gp,0x2
    f694:	0271f133          	remu	sp,gp,t2
    f698:	0032c1b3          	xor	gp,t0,gp
    f69c:	cc73c293          	xori	t0,t2,-825
    f6a0:	74310c63          	beq	sp,gp,0xfdf8
    f6a4:	754001ef          	jal	gp,0xfdf8
    f6a8:	0231e133          	rem	sp,gp,gp
    f6ac:	004143b3          	xor	t2,sp,tp
    f6b0:	03f101b3          	mul	gp,sp,t6
    f6b4:	359b0197          	auipc	gp,0x359b0
    f6b8:	00c0131b          	slliw	t1,zero,0xc
    f6bc:	400101b3          	sub	gp,sp,zero
    f6c0:	02334133          	div	sp,t1,gp
    f6c4:	2981e193          	ori	gp,gp,664
    f6c8:	0101929b          	slliw	t0,gp,0x10
    f6cc:	98f1a117          	auipc	sp,0x98f1a
    f6d0:	4df19197          	auipc	gp,0x4df19
    f6d4:	12a08017          	auipc	zero,0x12a08
    f6d8:	dc517193          	andi	gp,sp,-571
    f6dc:	001001bb          	addw	gp,zero,ra
    f6e0:	85e12093          	slti	ra,sp,-1954
    f6e4:	e32a2117          	auipc	sp,0xe32a2
    f6e8:	00d29093          	slli	ra,t0,0xd
    f6ec:	9b70e113          	ori	sp,ra,-1609
    f6f0:	0051c133          	xor	sp,gp,t0
    f6f4:	02307133          	remu	sp,zero,gp
    f6f8:	403201b3          	sub	gp,tp,gp
    f6fc:	1d98e097          	auipc	ra,0x1d98e
    f700:	023174b3          	remu	s1,sp,gp
    f704:	0006d0b3          	srl	ra,a3,zero
    f708:	0251c1b3          	div	gp,gp,t0
    f70c:	8880019b          	addiw	gp,zero,-1912
    f710:	00d1511b          	srliw	sp,sp,0xd
    f714:	00317133          	and	sp,sp,gp
    f718:	53802313          	slti	t1,zero,1336
    f71c:	fbcfb193          	sltiu	gp,t6,-68
    f720:	0030d0bb          	srlw	ra,ra,gp
    f724:	4010d1b3          	sra	gp,ra,ra
    f728:	00215133          	srl	sp,sp,sp
    f72c:	00000397          	auipc	t2,0x0
    f730:	ef8381e7          	jalr	gp,-264(t2) # 0xf624
    f734:	4021013b          	subw	sp,sp,sp
    f738:	08485197          	auipc	gp,0x8485
    f73c:	1085a137          	lui	sp,0x1085a
    f740:	03b0a013          	slti	zero,ra,59
    f744:	c250c113          	xori	sp,ra,-987
    f748:	0210e2b3          	rem	t0,ra,ra
    f74c:	7eb421b7          	lui	gp,0x7eb42
    f750:	0033f133          	and	sp,t2,gp
    f754:	002110bb          	sllw	ra,sp,sp
    f758:	023101b3          	mul	gp,sp,gp
    f75c:	03215113          	srli	sp,sp,0x32
    f760:	8c724093          	xori	ra,tp,-1849
    f764:	42912193          	slti	gp,sp,1065
    f768:	1faab117          	auipc	sp,0x1faab
    f76c:	01b1d21b          	srliw	tp,gp,0x1b
    f770:	00319133          	sll	sp,gp,gp
    f774:	0011c233          	xor	tp,gp,ra
    f778:	87914093          	xori	ra,sp,-1927
    f77c:	0051e133          	or	sp,gp,t0
    f780:	0230f0b3          	remu	ra,ra,gp
    f784:	003171b3          	and	gp,sp,gp
    f788:	2623e213          	ori	tp,t2,610
    f78c:	00631133          	sll	sp,t1,t1
    f790:	2641b113          	sltiu	sp,gp,612
    f794:	69512093          	slti	ra,sp,1685
    f798:	02231d93          	slli	s11,t1,0x22
    f79c:	b3a9d237          	lui	tp,0xb3a9d
    f7a0:	3131e093          	ori	ra,gp,787
    f7a4:	00000197          	auipc	gp,0x0
    f7a8:	26018167          	jalr	sp,608(gp) # 0xfa04
    f7ac:	000130b3          	sltu	ra,sp,zero
    f7b0:	403781b3          	sub	gp,a5,gp
    f7b4:	0261f033          	remu	zero,gp,t1
    f7b8:	0180d0b3          	srl	ra,ra,s8
    f7bc:	913ba0b7          	lui	ra,0x913ba
    f7c0:	ae72cb93          	xori	s7,t0,-1305
    f7c4:	0071913b          	sllw	sp,gp,t2
    f7c8:	4151d39b          	sraiw	t2,gp,0x15
    f7cc:	003091bb          	sllw	gp,ra,gp
    f7d0:	40f0d09b          	sraiw	ra,ra,0xf
    f7d4:	6e7b30b7          	lui	ra,0x6e7b3
    f7d8:	71708093          	addi	ra,ra,1815 # 0x6e7b3717
    f7dc:	006110b3          	sll	ra,sp,t1
    f7e0:	d080e093          	ori	ra,ra,-760
    f7e4:	0010e4b3          	or	s1,ra,ra
    f7e8:	001221b3          	slt	gp,tp,ra
    f7ec:	01a0519b          	srliw	gp,zero,0x1a
    f7f0:	1b21b093          	sltiu	ra,gp,434
    f7f4:	62c1811b          	addiw	sp,gp,1580
    f7f8:	0101109b          	slliw	ra,sp,0x10
    f7fc:	2dd58117          	auipc	sp,0x2dd58
    f800:	63c12113          	slti	sp,sp,1596
    f804:	7f023017          	auipc	zero,0x7f023
    f808:	191ab1b7          	lui	gp,0x191ab
    f80c:	0220f0b3          	remu	ra,ra,sp
    f810:	0022d633          	srl	a2,t0,sp
    f814:	62914093          	xori	ra,sp,1577
    f818:	c5b30193          	addi	gp,t1,-933 # 0xfffffffffb2e3273
    f81c:	0025d1b3          	srl	gp,a1,sp
    f820:	c54b11b7          	lui	gp,0xc54b1
    f824:	0040813b          	addw	sp,ra,tp
    f828:	002050bb          	srlw	ra,zero,sp
    f82c:	01809093          	slli	ra,ra,0x18
    f830:	ab110e9b          	addiw	t4,sp,-1359
    f834:	409300b3          	sub	ra,t1,s1
    f838:	e901819b          	addiw	gp,gp,-368
    f83c:	405150bb          	sraw	ra,sp,t0
    f840:	da3ca0b7          	lui	ra,0xda3ca
    f844:	25310263          	beq	sp,s3,0xfa88
    f848:	240000ef          	jal	ra,0xfa88
    f84c:	00e1919b          	slliw	gp,gp,0xe
    f850:	6d8362b7          	lui	t0,0x6d836
    f854:	004302bb          	addw	t0,t1,tp
    f858:	04f10093          	addi	ra,sp,79 # 0x2dd6784b
    f85c:	a30195b7          	lui	a1,0xa3019
    f860:	b4e10e13          	addi	t3,sp,-1202
    f864:	290a5137          	lui	sp,0x290a5
    f868:	40415b93          	srai	s7,sp,0x4
    f86c:	403100bb          	subw	ra,sp,gp
    f870:	ace58097          	auipc	ra,0xace58
    f874:	4061d093          	srai	ra,gp,0x6
    f878:	001082b3          	add	t0,ra,ra
    f87c:	00113133          	sltu	sp,sp,ra
    f880:	5548e137          	lui	sp,0x5548e
    f884:	fa30c193          	xori	gp,ra,-93
    f888:	75a56197          	auipc	gp,0x75a56
    f88c:	0211c1b3          	div	gp,gp,ra
    f890:	022160b3          	rem	ra,sp,sp
    f894:	02709113          	slli	sp,ra,0x27
    f898:	01501113          	slli	sp,zero,0x15
    f89c:	e0017193          	andi	gp,sp,-512
    f8a0:	5d414113          	xori	sp,sp,1492
    f8a4:	4bb1c793          	xori	a5,gp,1211
    f8a8:	0061921b          	slliw	tp,gp,0x6
    f8ac:	02b15113          	srli	sp,sp,0x2b
    f8b0:	94191137          	lui	sp,0x94191
    f8b4:	4040d13b          	sraw	sp,ra,tp
    f8b8:	bf20819b          	addiw	gp,ra,-1038
    f8bc:	78a0a113          	slti	sp,ra,1930
    f8c0:	45a871b7          	lui	gp,0x45a87
    f8c4:	78743337          	lui	t1,0x78743
    f8c8:	e63256e3          	bge	tp,gp,0xf734
    f8cc:	e63244e3          	blt	tp,gp,0xf734
    f8d0:	01d0939b          	slliw	t2,ra,0x1d
    f8d4:	01a0919b          	slliw	gp,ra,0x1a
    f8d8:	88a1a093          	slti	ra,gp,-1910
    f8dc:	4091d09b          	sraiw	ra,gp,0x9
    f8e0:	168ec137          	lui	sp,0x168ec
    f8e4:	0012d3b3          	srl	t2,t0,ra
    f8e8:	020365b3          	rem	a1,t1,zero
    f8ec:	00d01313          	slli	t1,zero,0xd
    f8f0:	97b0c093          	xori	ra,ra,-1669
    f8f4:	0000f0b3          	and	ra,ra,zero
    f8f8:	0021c0b3          	xor	ra,gp,sp
    f8fc:	9bb0b313          	sltiu	t1,ra,-1605
    f900:	15246497          	auipc	s1,0x15246
    f904:	403151b3          	sra	gp,sp,gp
    f908:	0240e133          	rem	sp,ra,tp
    f90c:	001191b3          	sll	gp,gp,ra
    f910:	0021911b          	slliw	sp,gp,0x2
    f914:	c1605317          	auipc	t1,0xc1605
    f918:	0242c033          	div	zero,t0,tp
    f91c:	9cc98097          	auipc	ra,0x9cc98
    f920:	0030d09b          	srliw	ra,ra,0x3
    f924:	0220d0b3          	divu	ra,ra,sp
    f928:	0030a7b3          	slt	a5,ra,gp
    f92c:	43f0d193          	srai	gp,ra,0x3f
    f930:	aae18013          	addi	zero,gp,-1362 # 0x45a86aae
    f934:	9cdcc113          	xori	sp,s9,-1587
    f938:	00219193          	slli	gp,gp,0x2
    f93c:	001361b3          	or	gp,t1,ra
    f940:	024d1193          	slli	gp,s10,0x24
    f944:	0021e1b3          	or	gp,gp,sp
    f948:	02118133          	mul	sp,gp,ra
    f94c:	78d08093          	addi	ra,ra,1933 # 0xffffffff9cca80a9
    f950:	5141019b          	addiw	gp,sp,1300
    f954:	0020b7b3          	sltu	a5,ra,sp
    f958:	0140129b          	slliw	t0,zero,0x14
    f95c:	00106133          	or	sp,zero,ra
    f960:	e5a1809b          	addiw	ra,gp,-422
    f964:	00515033          	srl	zero,sp,t0
    f968:	7101029b          	addiw	t0,sp,1808
    f96c:	00018193          	mv	gp,gp
    f970:	2c318663          	beq	gp,gp,0xfc3c
    f974:	92a12113          	slti	sp,sp,-1750
    f978:	58e1e017          	auipc	zero,0x58e1e
    f97c:	0223c133          	div	sp,t2,sp
    f980:	823a0297          	auipc	t0,0x823a0
    f984:	6d18fa97          	auipc	s5,0x6d18f
    f988:	06004093          	xori	ra,zero,96
    f98c:	e2758793          	addi	a5,a1,-473 # 0xffffffffa3018e27
    f990:	039f8017          	auipc	zero,0x39f8
    f994:	40318333          	sub	t1,gp,gp
    f998:	00317133          	and	sp,sp,gp
    f99c:	d0c0e193          	ori	gp,ra,-756
    f9a0:	2c816693          	ori	a3,sp,712
    f9a4:	0071019b          	addiw	gp,sp,7
    f9a8:	01715213          	srli	tp,sp,0x17
    f9ac:	00106133          	or	sp,zero,ra
    f9b0:	57e28117          	auipc	sp,0x57e28
    f9b4:	0091c133          	xor	sp,gp,s1
    f9b8:	0031d1b3          	srl	gp,gp,gp
    f9bc:	004103b3          	add	t2,sp,tp
    f9c0:	ae513017          	auipc	zero,0xae513
    f9c4:	01a0d2b3          	srl	t0,ra,s10
    f9c8:	62e14193          	xori	gp,sp,1582
    f9cc:	03d19113          	slli	sp,gp,0x3d
    f9d0:	fa8aa2b7          	lui	t0,0xfa8aa
    f9d4:	00221233          	sll	tp,tp,sp
    f9d8:	0c32b113          	sltiu	sp,t0,195
    f9dc:	568571b7          	lui	gp,0x56857
    f9e0:	52e9c137          	lui	sp,0x52e9c
    f9e4:	0047b0b3          	sltu	ra,a5,tp
    f9e8:	0035c233          	xor	tp,a1,gp
    f9ec:	021080b3          	mul	ra,ra,ra
    f9f0:	407180bb          	subw	ra,gp,t2
    f9f4:	d3010013          	addi	zero,sp,-720 # 0x52e9bd30
    f9f8:	9d188137          	lui	sp,0x9d188
    f9fc:	00008093          	mv	ra,ra
    fa00:	2c108c63          	beq	ra,ra,0xfcd8
    fa04:	0231c0b3          	div	ra,gp,gp
    fa08:	01a03633          	snez	a2,s10
    fa0c:	34612093          	slti	ra,sp,838
    fa10:	402107b3          	sub	a5,sp,sp
    fa14:	00b844b3          	xor	s1,a6,a1
    fa18:	002331b3          	sltu	gp,t1,sp
    fa1c:	85b1819b          	addiw	gp,gp,-1957
    fa20:	0221c133          	div	sp,gp,sp
    fa24:	002190bb          	sllw	ra,gp,sp
    fa28:	4012813b          	subw	sp,t0,ra
    fa2c:	0021123b          	sllw	tp,sp,sp
    fa30:	4c30f113          	andi	sp,ra,1219
    fa34:	0201c1b3          	div	gp,gp,zero
    fa38:	0210c0b3          	div	ra,ra,ra
    fa3c:	404080bb          	subw	ra,ra,tp
    fa40:	002280b3          	add	ra,t0,sp
    fa44:	bfd0809b          	addiw	ra,ra,-1027
    fa48:	59d48197          	auipc	gp,0x59d48
    fa4c:	00231133          	sll	sp,t1,sp
    fa50:	724fe197          	auipc	gp,0x724fe
    fa54:	4131d29b          	sraiw	t0,gp,0x13
    fa58:	0023c1b3          	xor	gp,t2,sp
    fa5c:	014301bb          	addw	gp,t1,s4
    fa60:	36390237          	lui	tp,0x36390
    fa64:	ece33193          	sltiu	gp,t1,-306
    fa68:	8ad40197          	auipc	gp,0x8ad40
    fa6c:	000091b3          	sll	gp,ra,zero
    fa70:	0231e0b3          	rem	ra,gp,gp
    fa74:	0232c133          	div	sp,t0,gp
    fa78:	01e19093          	slli	ra,gp,0x1e
    fa7c:	001142b3          	xor	t0,sp,ra
    fa80:	46308e63          	beq	ra,gp,0xfefc
    fa84:	4780016f          	jal	sp,0xfefc
    fa88:	00201133          	sll	sp,zero,sp
    fa8c:	0230f033          	remu	zero,ra,gp
    fa90:	5de27117          	auipc	sp,0x5de27
    fa94:	0231c1b3          	div	gp,gp,gp
    fa98:	001191bb          	sllw	gp,gp,ra
    fa9c:	df5cb117          	auipc	sp,0xdf5cb
    faa0:	42d35293          	srai	t0,t1,0x2d
    faa4:	0091c193          	xori	gp,gp,9
    faa8:	4020dc33          	sra	s8,ra,sp
    faac:	00219e33          	sll	t3,gp,sp
    fab0:	e4464017          	auipc	zero,0xe4464
    fab4:	01e1d31b          	srliw	t1,gp,0x1e
    fab8:	0030f1b3          	and	gp,ra,gp
    fabc:	023070b3          	remu	ra,zero,gp
    fac0:	713b30b7          	lui	ra,0x713b3
    fac4:	402180bb          	subw	ra,gp,sp
    fac8:	0030a233          	slt	tp,ra,gp
    facc:	4361d193          	srai	gp,gp,0x36
    fad0:	3d7f41b7          	lui	gp,0x3d7f4
    fad4:	b5700137          	lui	sp,0xb5700
    fad8:	6e608193          	addi	gp,ra,1766 # 0x713b36e6
    fadc:	52c27113          	andi	sp,tp,1324
    fae0:	65c23113          	sltiu	sp,tp,1628
    fae4:	67a42137          	lui	sp,0x67a42
    fae8:	0220d1b3          	divu	gp,ra,sp
    faec:	e451b013          	sltiu	zero,gp,-443
    faf0:	02116133          	rem	sp,sp,ra
    faf4:	8e60f013          	andi	zero,ra,-1818
    faf8:	507281b7          	lui	gp,0x50728
    fafc:	0220c0b3          	div	ra,ra,sp
    fb00:	063fc1b7          	lui	gp,0x63fc
    fb04:	0045179b          	slliw	a5,a0,0x4
    fb08:	022075b3          	remu	a1,zero,sp
    fb0c:	006237b3          	sltu	a5,tp,t1
    fb10:	b8325ce3          	bge	tp,gp,0xf6a8
    fb14:	b8324ae3          	blt	tp,gp,0xf6a8
    fb18:	02314133          	div	sp,sp,gp
    fb1c:	002252b3          	srl	t0,tp,sp
    fb20:	41d35113          	srai	sp,t1,0x1d
    fb24:	4837b193          	sltiu	gp,a5,1155
    fb28:	005191b3          	sll	gp,gp,t0
    fb2c:	0011c133          	xor	sp,gp,ra
    fb30:	404080bb          	subw	ra,ra,tp
    fb34:	37e03237          	lui	tp,0x37e03
    fb38:	4020d433          	sra	s0,ra,sp
    fb3c:	4220d113          	srai	sp,ra,0x22
    fb40:	402301b3          	sub	gp,t1,sp
    fb44:	403150bb          	sraw	ra,sp,gp
    fb48:	05fc4193          	xori	gp,s8,95
    fb4c:	bc86811b          	addiw	sp,a3,-1080
    fb50:	42e1d113          	srai	sp,gp,0x2e
    fb54:	71c30313          	addi	t1,t1,1820 # 0xffffffffc1615030
    fb58:	0042a1b3          	slt	gp,t0,tp
    fb5c:	008135b3          	sltu	a1,sp,s0
    fb60:	0021023b          	addw	tp,sp,sp
    fb64:	90530393          	addi	t2,t1,-1787
    fb68:	00d0c0b3          	xor	ra,ra,a3
    fb6c:	0011f2b3          	and	t0,gp,ra
    fb70:	029341b3          	div	gp,t1,s1
    fb74:	0020c1b3          	xor	gp,ra,sp
    fb78:	02e18133          	mul	sp,gp,a4
    fb7c:	9ddad3b7          	lui	t2,0x9ddad
    fb80:	bc8120b7          	lui	ra,0xbc812
    fb84:	0181911b          	slliw	sp,gp,0x18
    fb88:	90bab117          	auipc	sp,0x90bab
    fb8c:	87897097          	auipc	ra,0x87897
    fb90:	0010e333          	or	t1,ra,ra
    fb94:	4010823b          	subw	tp,ra,ra
    fb98:	001166b3          	or	a3,sp,ra
    fb9c:	bc59b117          	auipc	sp,0xbc59b
    fba0:	02001113          	slli	sp,zero,0x20
    fba4:	00227463          	bgeu	tp,sp,0xfbac
    fba8:	00226263          	bltu	tp,sp,0xfbac
    fbac:	5318a117          	auipc	sp,0x5318a
    fbb0:	009373b3          	and	t2,t1,s1
    fbb4:	001159b3          	srl	s3,sp,ra
    fbb8:	0021513b          	srlw	sp,sp,sp
    fbbc:	2b713093          	sltiu	ra,sp,695
    fbc0:	0bdc9137          	lui	sp,0xbdc9
    fbc4:	8590e093          	ori	ra,ra,-1959
    fbc8:	0021f1b3          	and	gp,gp,sp
    fbcc:	02216933          	rem	s2,sp,sp
    fbd0:	1bfec117          	auipc	sp,0x1bfec
    fbd4:	038170b3          	remu	ra,sp,s8
    fbd8:	02115133          	divu	sp,sp,ra
    fbdc:	002151b3          	srl	gp,sp,sp
    fbe0:	9e96811b          	addiw	sp,a3,-1559
    fbe4:	01a05193          	srli	gp,zero,0x1a
    fbe8:	0050b233          	sltu	tp,ra,t0
    fbec:	4020d1bb          	sraw	gp,ra,sp
    fbf0:	a1617193          	andi	gp,sp,-1514
    fbf4:	02149393          	slli	t2,s1,0x21
    fbf8:	0001b1b3          	sltu	gp,gp,zero
    fbfc:	4052013b          	subw	sp,tp,t0
    fc00:	0261c133          	div	sp,gp,t1
    fc04:	4000521b          	sraiw	tp,zero,0x0
    fc08:	02921a93          	slli	s5,tp,0x29
    fc0c:	000305bb          	addw	a1,t1,zero
    fc10:	402251bb          	sraw	gp,tp,sp
    fc14:	0980b313          	sltiu	t1,ra,152
    fc18:	00e2121b          	slliw	tp,tp,0xe
    fc1c:	001236b3          	sltu	a3,tp,ra
    fc20:	30f0f193          	andi	gp,ra,783
    fc24:	cd91c113          	xori	sp,gp,-807
    fc28:	0021023b          	addw	tp,sp,sp
    fc2c:	c36c4297          	auipc	t0,0xc36c4
    fc30:	fa10f313          	andi	t1,ra,-95
    fc34:	b6718ce3          	beq	gp,t2,0xf7ac
    fc38:	b75ff1ef          	jal	gp,0xf7ac
    fc3c:	01a1d09b          	srliw	ra,gp,0x1a
    fc40:	69694017          	auipc	zero,0x69694
    fc44:	46e3e093          	ori	ra,t2,1134
    fc48:	0060d1b3          	srl	gp,ra,t1
    fc4c:	a491d0b7          	lui	ra,0xa491d
    fc50:	c0b960b7          	lui	ra,0xc0b96
    fc54:	00217133          	and	sp,sp,sp
    fc58:	edb1031b          	addiw	t1,sp,-293
    fc5c:	aaf923b7          	lui	t2,0xaaf92
    fc60:	ae110193          	addi	gp,sp,-1311 # 0x1bffb6b1
    fc64:	4c665237          	lui	tp,0x4c665
    fc68:	412a81bb          	subw	gp,s5,s2
    fc6c:	0011c133          	xor	sp,gp,ra
    fc70:	0220d133          	divu	sp,ra,sp
    fc74:	8b70c137          	lui	sp,0x8b70c
    fc78:	0221d0b3          	divu	ra,gp,sp
    fc7c:	0231c333          	div	t1,gp,gp
    fc80:	002311bb          	sllw	gp,t1,sp
    fc84:	02c0d093          	srli	ra,ra,0x2c
    fc88:	40b0d333          	sra	t1,ra,a1
    fc8c:	007291bb          	sllw	gp,t0,t2
    fc90:	001180b3          	add	ra,gp,ra
    fc94:	00418233          	add	tp,gp,tp
    fc98:	0030b0b3          	sltu	ra,ra,gp
    fc9c:	40c1d09b          	sraiw	ra,gp,0xc
    fca0:	40118333          	sub	t1,gp,ra
    fca4:	402100b3          	sub	ra,sp,sp
    fca8:	00b1131b          	slliw	t1,sp,0xb
    fcac:	8051031b          	addiw	t1,sp,-2043
    fcb0:	407180bb          	subw	ra,gp,t2
    fcb4:	41620133          	sub	sp,tp,s6
    fcb8:	d13230b7          	lui	ra,0xd1323
    fcbc:	41a0d09b          	sraiw	ra,ra,0x1a
    fcc0:	928c6097          	auipc	ra,0x928c6
    fcc4:	2773e0b7          	lui	ra,0x2773e
    fcc8:	82b0849b          	addiw	s1,ra,-2005
    fccc:	0f0a1117          	auipc	sp,0xf0a1
    fcd0:	0a320063          	beq	tp,gp,0xfd70
    fcd4:	09c001ef          	jal	gp,0xfd70
    fcd8:	403080b3          	sub	ra,ra,gp
    fcdc:	a0f0a093          	slti	ra,ra,-1521
    fce0:	41a1511b          	sraiw	sp,sp,0x1a
    fce4:	13762097          	auipc	ra,0x13762
    fce8:	79ee0037          	lui	zero,0x79ee0
    fcec:	0021d1bb          	srlw	gp,gp,sp
    fcf0:	3f023117          	auipc	sp,0x3f023
    fcf4:	d9f27097          	auipc	ra,0xd9f27
    fcf8:	0030f033          	and	zero,ra,gp
    fcfc:	290ae1b7          	lui	gp,0x290ae
    fd00:	0170919b          	slliw	gp,ra,0x17
    fd04:	01d09093          	slli	ra,ra,0x1d
    fd08:	adf1a093          	slti	ra,gp,-1313
    fd0c:	d5e0a613          	slti	a2,ra,-674
    fd10:	0040a4b3          	slt	s1,ra,tp
    fd14:	01e1519b          	srliw	gp,sp,0x1e
    fd18:	3b713493          	sltiu	s1,sp,951
    fd1c:	02315033          	divu	zero,sp,gp
    fd20:	7d71831b          	addiw	t1,gp,2007
    fd24:	25923193          	sltiu	gp,tp,601
    fd28:	02809137          	lui	sp,0x2809
    fd2c:	fd218013          	addi	zero,gp,-46 # 0x290adfd2
    fd30:	0120d01b          	srliw	zero,ra,0x12
    fd34:	6c414193          	xori	gp,sp,1732
    fd38:	0060d593          	srli	a1,ra,0x6
    fd3c:	4030d0bb          	sraw	ra,ra,gp
    fd40:	3c60b237          	lui	tp,0x3c60b
    fd44:	0041c133          	xor	sp,gp,tp
    fd48:	0820e213          	ori	tp,ra,130
    fd4c:	01f46137          	lui	sp,0x1f46
    fd50:	002810bb          	sllw	ra,a6,sp
    fd54:	41e1d013          	srai	zero,gp,0x1e
    fd58:	98c0f093          	andi	ra,ra,-1652
    fd5c:	002181bb          	addw	gp,gp,sp
    fd60:	4701c493          	xori	s1,gp,1136
    fd64:	b5534113          	xori	sp,t1,-1195
    fd68:	b62a04e3          	beq	s4,sp,0xf8d0
    fd6c:	b65ff1ef          	jal	gp,0xf8d0
    fd70:	4b2ed3b7          	lui	t2,0x4b2ed
    fd74:	d030e093          	ori	ra,ra,-765
    fd78:	4011823b          	subw	tp,gp,ra
    fd7c:	8651b113          	sltiu	sp,gp,-1947
    fd80:	6281c0b7          	lui	ra,0x6281c
    fd84:	0012b1b3          	sltu	gp,t0,ra
    fd88:	00111713          	slli	a4,sp,0x1
    fd8c:	bdd2b237          	lui	tp,0xbdd2b
    fd90:	022300b3          	mul	ra,t1,sp
    fd94:	407850bb          	sraw	ra,a6,t2
    fd98:	0031823b          	addw	tp,gp,gp
    fd9c:	01a0919b          	slliw	gp,ra,0x1a
    fda0:	32010f93          	addi	t6,sp,800 # 0x1f46320
    fda4:	00b160b3          	or	ra,sp,a1
    fda8:	4130d11b          	sraiw	sp,ra,0x13
    fdac:	0010b1b3          	sltu	gp,ra,ra
    fdb0:	0030933b          	sllw	t1,ra,gp
    fdb4:	b048a117          	auipc	sp,0xb048a
    fdb8:	4020d0b3          	sra	ra,ra,sp
    fdbc:	406200b3          	sub	ra,tp,t1
    fdc0:	2ee78137          	lui	sp,0x2ee78
    fdc4:	002141b3          	xor	gp,sp,sp
    fdc8:	0001919b          	slliw	gp,gp,0x0
    fdcc:	4021d133          	sra	sp,gp,sp
    fdd0:	002151b3          	srl	gp,sp,sp
    fdd4:	3a5ae0b7          	lui	ra,0x3a5ae
    fdd8:	00b1909b          	slliw	ra,gp,0xb
    fddc:	00151abb          	sllw	s5,a0,ra
    fde0:	61d3b117          	auipc	sp,0x61d3b
    fde4:	4021d23b          	sraw	tp,gp,sp
    fde8:	f47f60b7          	lui	ra,0xf47f6
    fdec:	28f18193          	addi	gp,gp,655
    fdf0:	d221d4e3          	bge	gp,sp,0xfb18
    fdf4:	d221c2e3          	blt	gp,sp,0xfb18
    fdf8:	0230c1b3          	div	gp,ra,gp
    fdfc:	a24f6137          	lui	sp,0xa24f6
    fe00:	022082b3          	mul	t0,ra,sp
    fe04:	002110bb          	sllw	ra,sp,sp
    fe08:	c340e113          	ori	sp,ra,-972
    fe0c:	0221f0b3          	remu	ra,gp,sp
    fe10:	00f2d193          	srli	gp,t0,0xf
    fe14:	404d8097          	auipc	ra,0x404d8
    fe18:	4040d133          	sra	sp,ra,tp
    fe1c:	9ed14093          	xori	ra,sp,-1555
    fe20:	0010d7bb          	srlw	a5,ra,ra
    fe24:	4021d13b          	sraw	sp,gp,sp
    fe28:	403101bb          	subw	gp,sp,gp
    fe2c:	40338033          	sub	zero,t2,gp
    fe30:	4021d113          	srai	sp,gp,0x2
    fe34:	91290097          	auipc	ra,0x91290
    fe38:	4011813b          	subw	sp,gp,ra
    fe3c:	0222d0b3          	divu	ra,t0,sp
    fe40:	02100133          	mul	sp,zero,ra
    fe44:	0290d013          	srli	zero,ra,0x29
    fe48:	0011e1b3          	or	gp,gp,ra
    fe4c:	4030813b          	subw	sp,ra,gp
    fe50:	81f1f093          	andi	ra,gp,-2017
    fe54:	00205333          	srl	t1,zero,sp
    fe58:	b7c16293          	ori	t0,sp,-1156
    fe5c:	63fb3117          	auipc	sp,0x63fb3
    fe60:	4241d093          	srai	ra,gp,0x24
    fe64:	54bf5117          	auipc	sp,0x54bf5
    fe68:	00710463          	beq	sp,t2,0xfe70
    fe6c:	0040046f          	jal	s0,0xfe70
    fe70:	0041b1b3          	sltu	gp,gp,tp
    fe74:	d5cd6097          	auipc	ra,0xd5cd6
    fe78:	406153bb          	sraw	t2,sp,t1
    fe7c:	405101b3          	sub	gp,sp,t0
    fe80:	5371c113          	xori	sp,gp,1335
    fe84:	02330233          	mul	tp,t1,gp
    fe88:	0026933b          	sllw	t1,a3,sp
    fe8c:	b34fb097          	auipc	ra,0xb34fb
    fe90:	34c34193          	xori	gp,t1,844
    fe94:	002081b3          	add	gp,ra,sp
    fe98:	002100b3          	add	ra,sp,sp
    fe9c:	003267b3          	or	a5,tp,gp
    fea0:	01b1509b          	srliw	ra,sp,0x1b
    fea4:	9a6eb1b7          	lui	gp,0x9a6eb
    fea8:	aed5d197          	auipc	gp,0xaed5d
    feac:	0211d1b3          	divu	gp,gp,ra
    feb0:	0031ccb3          	xor	s9,gp,gp
    feb4:	02b840b3          	div	ra,a6,a1
    feb8:	001081bb          	addw	gp,ra,ra
    febc:	40110133          	sub	sp,sp,ra
    fec0:	0076b1b3          	sltu	gp,a3,t2
    fec4:	d761b193          	sltiu	gp,gp,-650
    fec8:	4021d3b3          	sra	t2,gp,sp
    fecc:	001bdf33          	srl	t5,s7,ra
    fed0:	0021513b          	srlw	sp,sp,sp
    fed4:	02a09113          	slli	sp,ra,0x2a
    fed8:	db33011b          	addiw	sp,t1,-589
    fedc:	2109f093          	andi	ra,s3,528
    fee0:	00000513          	li	a0,0
    fee4:	23300093          	li	ra,563
    fee8:	23333137          	lui	sp,0x23333
    feec:	00113023          	sd	ra,0(sp) # 0x23333000
    fef0:	0005006b          	0x5006b
    fef4:	00000093          	li	ra,0
    fef8:	0000006f          	j	0xfef8
    fefc:	00440fb3          	add	t6,s0,tp
    ff00:	02a5e133          	rem	sp,a1,a0
    ff04:	0331d113          	srli	sp,gp,0x33
    ff08:	b6208313          	addi	t1,ra,-1182 # 0xffffffffb350a9ee
    ff0c:	405205bb          	subw	a1,tp,t0
    ff10:	a5516093          	ori	ra,sp,-1451
    ff14:	002350b3          	srl	ra,t1,sp
    ff18:	4183d33b          	sraw	t1,t2,s8
    ff1c:	0073e133          	or	sp,t2,t2
    ff20:	39bcb613          	sltiu	a2,s9,923
    ff24:	003161b3          	or	gp,sp,gp
    ff28:	2bcf76b7          	lui	a3,0x2bcf7
    ff2c:	f3b18213          	addi	tp,gp,-197 # 0xffffffffaed6cde3
    ff30:	dc257797          	auipc	a5,0xdc257
    ff34:	002181bb          	addw	gp,gp,sp
    ff38:	022101b3          	mul	gp,sp,sp
    ff3c:	03119093          	slli	ra,gp,0x31
    ff40:	32144137          	lui	sp,0x32144
    ff44:	92e1c193          	xori	gp,gp,-1746
    ff48:	00c10263          	beq	sp,a2,0xff4c
    ff4c:	e48ff16f          	jal	sp,0xf594
    ff50:	deadbeef          	jal	t4,0xfffffffffffeb53a
    ff54:	deadbeef          	jal	t4,0xfffffffffffeb53e
    ff58:	deadbeef          	jal	t4,0xfffffffffffeb542
    ff5c:	deadbeef          	jal	t4,0xfffffffffffeb546
    ff60:	deadbeef          	jal	t4,0xfffffffffffeb54a
    ff64:	deadbeef          	jal	t4,0xfffffffffffeb54e
    ff68:	deadbeef          	jal	t4,0xfffffffffffeb552
    ff6c:	deadbeef          	jal	t4,0xfffffffffffeb556
    ff70:	deadbeef          	jal	t4,0xfffffffffffeb55a
    ff74:	deadbeef          	jal	t4,0xfffffffffffeb55e
    ff78:	deadbeef          	jal	t4,0xfffffffffffeb562
    ff7c:	deadbeef          	jal	t4,0xfffffffffffeb566
    ff80:	deadbeef          	jal	t4,0xfffffffffffeb56a
    ff84:	deadbeef          	jal	t4,0xfffffffffffeb56e
    ff88:	deadbeef          	jal	t4,0xfffffffffffeb572
    ff8c:	deadbeef          	jal	t4,0xfffffffffffeb576
    ff90:	deadbeef          	jal	t4,0xfffffffffffeb57a
    ff94:	deadbeef          	jal	t4,0xfffffffffffeb57e
    ff98:	deadbeef          	jal	t4,0xfffffffffffeb582
    ff9c:	deadbeef          	jal	t4,0xfffffffffffeb586
    ffa0:	deadbeef          	jal	t4,0xfffffffffffeb58a
    ffa4:	deadbeef          	jal	t4,0xfffffffffffeb58e
    ffa8:	deadbeef          	jal	t4,0xfffffffffffeb592
    ffac:	deadbeef          	jal	t4,0xfffffffffffeb596
    ffb0:	deadbeef          	jal	t4,0xfffffffffffeb59a
    ffb4:	deadbeef          	jal	t4,0xfffffffffffeb59e
    ffb8:	deadbeef          	jal	t4,0xfffffffffffeb5a2
    ffbc:	deadbeef          	jal	t4,0xfffffffffffeb5a6
    ffc0:	deadbeef          	jal	t4,0xfffffffffffeb5aa
    ffc4:	deadbeef          	jal	t4,0xfffffffffffeb5ae
    ffc8:	deadbeef          	jal	t4,0xfffffffffffeb5b2
    ffcc:	deadbeef          	jal	t4,0xfffffffffffeb5b6
