
test.bin:     file format binary


Disassembly of section .data:

0000000000000000 <.data>:
       0:	00000093          	li	ra,0
       4:	00000113          	li	sp,0
       8:	00000193          	li	gp,0
       c:	de7e1037          	lui	zero,0xde7e1
      10:	c79bd137          	lui	sp,0xc79bd
      14:	afc14213          	xori	tp,sp,-1284
      18:	002171b3          	and	gp,sp,sp
      1c:	0f90c193          	xori	gp,ra,249
      20:	a0208613          	addi	a2,ra,-1534
      24:	4a734193          	xori	gp,t1,1191
      28:	40118133          	sub	sp,gp,ra
      2c:	74f831b7          	lui	gp,0x74f83
      30:	113d8317          	auipc	t1,0x113d8
      34:	14db9197          	auipc	gp,0x14db9
      38:	406181b3          	sub	gp,gp,t1
      3c:	0052c133          	xor	sp,t0,t0
      40:	ba00c113          	xori	sp,ra,-1120
      44:	00117233          	and	tp,sp,ra
      48:	f5a96117          	auipc	sp,0xf5a96
      4c:	2501e193          	ori	gp,gp,592
      50:	40068133          	sub	sp,a3,zero
      54:	f034d117          	auipc	sp,0xf034d
      58:	d6e867b7          	lui	a5,0xd6e86
      5c:	403301b3          	sub	gp,t1,gp
      60:	cd10f193          	andi	gp,ra,-815
      64:	e2344093          	xori	ra,s0,-477
      68:	bf8781b7          	lui	gp,0xbf878
      6c:	002a8233          	add	tp,s5,sp
      70:	87bf90b7          	lui	ra,0x87bf9
      74:	4674c037          	lui	zero,0x4674c
      78:	7a02c113          	xori	sp,t0,1952
      7c:	9aa21037          	lui	zero,0x9aa21
      80:	00716233          	or	tp,sp,t2
      84:	00710033          	add	zero,sp,t2
      88:	c09912b7          	lui	t0,0xc0991
      8c:	37638097          	auipc	ra,0x37638
      90:	4b16d197          	auipc	gp,0x4b16d
      94:	f1727093          	andi	ra,tp,-233
      98:	0030e0b3          	or	ra,ra,gp
      9c:	7c120e63          	beq	tp,ra,0x878
      a0:	7d8003ef          	jal	t2,0x878
      a4:	d2797117          	auipc	sp,0xd2797
      a8:	4a169197          	auipc	gp,0x4a169
      ac:	e84cb0b7          	lui	ra,0xe84cb
      b0:	8e259237          	lui	tp,0x8e259
      b4:	aae75197          	auipc	gp,0xaae75
      b8:	7a0ae317          	auipc	t1,0x7a0ae
      bc:	7b942097          	auipc	ra,0x7b942
      c0:	00134133          	xor	sp,t1,ra
      c4:	002670b3          	and	ra,a2,sp
      c8:	62e83117          	auipc	sp,0x62e83
      cc:	001361b3          	or	gp,t1,ra
      d0:	d9968b37          	lui	s6,0xd9968
      d4:	dffe4197          	auipc	gp,0xdffe4
      d8:	aa2fe0b7          	lui	ra,0xaa2fe
      dc:	d850e113          	ori	sp,ra,-635
      e0:	f3963137          	lui	sp,0xf3963
      e4:	48d1d137          	lui	sp,0x48d1d
      e8:	89f920b7          	lui	ra,0x89f92
      ec:	1114a137          	lui	sp,0x1114a
      f0:	a39890b7          	lui	ra,0xa3989
      f4:	003081b3          	add	gp,ra,gp
      f8:	145f5597          	auipc	a1,0x145f5
      fc:	70cbc117          	auipc	sp,0x70cbc
     100:	a7d0e193          	ori	gp,ra,-1411
     104:	00606133          	or	sp,zero,t1
     108:	fe39d0b7          	lui	ra,0xfe39d
     10c:	cea0e293          	ori	t0,ra,-790
     110:	a66bd117          	auipc	sp,0xa66bd
     114:	855fc137          	lui	sp,0x855fc
     118:	2d510193          	addi	gp,sp,725 # 0xffffffff855fc2d5
     11c:	00116133          	or	sp,sp,ra
     120:	5b527297          	auipc	t0,0x5b527
     124:	32ed5137          	lui	sp,0x32ed5
     128:	220b8097          	auipc	ra,0x220b8
     12c:	18b1f193          	andi	gp,gp,395
     130:	0023e1b3          	or	gp,t2,sp
     134:	00000317          	auipc	t1,0x0
     138:	24030167          	jalr	sp,576(t1) # 0x374
     13c:	2191c093          	xori	ra,gp,537
     140:	2f236093          	ori	ra,t1,754
     144:	39baa317          	auipc	t1,0x39baa
     148:	0010f1b3          	and	gp,ra,ra
     14c:	41fb0097          	auipc	ra,0x41fb0
     150:	001080b3          	add	ra,ra,ra
     154:	a2d904b7          	lui	s1,0xa2d90
     158:	40218133          	sub	sp,gp,sp
     15c:	58e08093          	addi	ra,ra,1422 # 0x41fb06da
     160:	00995337          	lui	t1,0x995
     164:	00078533          	add	a0,a5,zero
     168:	dce3e193          	ori	gp,t2,-562
     16c:	f1459137          	lui	sp,0xf1459
     170:	6d606093          	ori	ra,zero,1750
     174:	006140b3          	xor	ra,sp,t1
     178:	13226193          	ori	gp,tp,306
     17c:	00110033          	add	zero,sp,ra
     180:	7948ae97          	auipc	t4,0x7948a
     184:	3a626137          	lui	sp,0x3a626
     188:	ab11f093          	andi	ra,gp,-1359
     18c:	174ee117          	auipc	sp,0x174ee
     190:	00324033          	xor	zero,tp,gp
     194:	6b73c013          	xori	zero,t2,1719
     198:	001381b3          	add	gp,t2,ra
     19c:	69123097          	auipc	ra,0x69123
     1a0:	13a0c193          	xori	gp,ra,314
     1a4:	aea28217          	auipc	tp,0xaea28
     1a8:	645fc137          	lui	sp,0x645fc
     1ac:	1400e193          	ori	gp,ra,320
     1b0:	0bff7017          	auipc	zero,0xbff7
     1b4:	003101b3          	add	gp,sp,gp
     1b8:	48d0e813          	ori	a6,ra,1165
     1bc:	b68a7393          	andi	t2,s4,-1176
     1c0:	cb4be137          	lui	sp,0xcb4be
     1c4:	e1368137          	lui	sp,0xe1368
     1c8:	1d90b117          	auipc	sp,0x1d90b
     1cc:	4e700063          	beq	zero,t2,0x6ac
     1d0:	4dc0016f          	jal	sp,0x6ac
     1d4:	00bda0b7          	lui	ra,0xbda
     1d8:	f8135137          	lui	sp,0xf8135
     1dc:	401180b3          	sub	ra,gp,ra
     1e0:	002241b3          	xor	gp,tp,sp
     1e4:	e7c08193          	addi	gp,ra,-388 # 0xbd9e7c
     1e8:	29f4d217          	auipc	tp,0x29f4d
     1ec:	24c18093          	addi	ra,gp,588 # 0xffffffffdffe4320
     1f0:	40118133          	sub	sp,gp,ra
     1f4:	00260133          	add	sp,a2,sp
     1f8:	0015e1b3          	or	gp,a1,ra
     1fc:	f2f9d097          	auipc	ra,0xf2f9d
     200:	0042f1b3          	and	gp,t0,tp
     204:	932d9037          	lui	zero,0x932d9
     208:	f6827113          	andi	sp,tp,-152
     20c:	ce8291b7          	lui	gp,0xce829
     210:	01c041b3          	xor	gp,zero,t3
     214:	003171b3          	and	gp,sp,gp
     218:	edf34913          	xori	s2,t1,-289
     21c:	c7034213          	xori	tp,t1,-912
     220:	18237193          	andi	gp,t1,386
     224:	54112197          	auipc	gp,0x54112
     228:	407783b3          	sub	t2,a5,t2
     22c:	1ba07213          	andi	tp,zero,442
     230:	8e9b3117          	auipc	sp,0x8e9b3
     234:	e877f137          	lui	sp,0xe877f
     238:	866510b7          	lui	ra,0x86651
     23c:	0030f1b3          	and	gp,ra,gp
     240:	fd90c193          	xori	gp,ra,-39
     244:	74b70137          	lui	sp,0x74b70
     248:	f6926093          	ori	ra,tp,-151
     24c:	517b6097          	auipc	ra,0x517b6
     250:	cd7ef0b7          	lui	ra,0xcd7ef
     254:	904f70b7          	lui	ra,0x904f7
     258:	89e0f113          	andi	sp,ra,-1890
     25c:	005101b3          	add	gp,sp,t0
     260:	00000117          	auipc	sp,0x0
     264:	e44107e7          	jalr	a5,-444(sp) # 0xa4
     268:	0d11e093          	ori	ra,gp,209
     26c:	00218133          	add	sp,gp,sp
     270:	430190b7          	lui	ra,0x43019
     274:	90dc4097          	auipc	ra,0x90dc4
     278:	2fcc50b7          	lui	ra,0x2fcc5
     27c:	001001b3          	add	gp,zero,ra
     280:	a1971117          	auipc	sp,0xa1971
     284:	00208033          	add	zero,ra,sp
     288:	001245b3          	xor	a1,tp,ra
     28c:	98e1c193          	xori	gp,gp,-1650
     290:	db2543b7          	lui	t2,0xdb254
     294:	1600c593          	xori	a1,ra,352
     298:	16226113          	ori	sp,tp,354
     29c:	e97b0717          	auipc	a4,0xe97b0
     2a0:	df538337          	lui	t1,0xdf538
     2a4:	00008133          	add	sp,ra,zero
     2a8:	af70c093          	xori	ra,ra,-1289
     2ac:	00410133          	add	sp,sp,tp
     2b0:	353620b7          	lui	ra,0x35362
     2b4:	4f7aa197          	auipc	gp,0x4f7aa
     2b8:	9253c093          	xori	ra,t2,-1755
     2bc:	401102b3          	sub	t0,sp,ra
     2c0:	02f86137          	lui	sp,0x2f86
     2c4:	5afbc237          	lui	tp,0x5afbc
     2c8:	e61e8097          	auipc	ra,0xe61e8
     2cc:	af78d0b7          	lui	ra,0xaf78d
     2d0:	002176b3          	and	a3,sp,sp
     2d4:	25c26093          	ori	ra,tp,604
     2d8:	7f219097          	auipc	ra,0x7f219
     2dc:	893aa137          	lui	sp,0x893aa
     2e0:	45607317          	auipc	t1,0x45607
     2e4:	00000097          	auipc	ra,0x0
     2e8:	ef0080e7          	jalr	-272(ra) # 0x1d4
     2ec:	fefa9017          	auipc	zero,0xfefa9
     2f0:	401103b3          	sub	t2,sp,ra
     2f4:	483ec197          	auipc	gp,0x483ec
     2f8:	7ba0e193          	ori	gp,ra,1978
     2fc:	f4a10113          	addi	sp,sp,-182 # 0xffffffff893a9f4a
     300:	b5ee4117          	auipc	sp,0xb5ee4
     304:	002180b3          	add	ra,gp,sp
     308:	4f41c193          	xori	gp,gp,1268
     30c:	0015f033          	and	zero,a1,ra
     310:	b60ac237          	lui	tp,0xb60ac
     314:	1637f0b7          	lui	ra,0x1637f
     318:	aec14013          	xori	zero,sp,-1300
     31c:	00d7f833          	and	a6,a5,a3
     320:	45116193          	ori	gp,sp,1105
     324:	f9102317          	auipc	t1,0xf9102
     328:	0e25b137          	lui	sp,0xe25b
     32c:	003080b3          	add	ra,ra,gp
     330:	d24d9397          	auipc	t2,0xd24d9
     334:	36000113          	li	sp,864
     338:	7850d037          	lui	zero,0x7850d
     33c:	40b18133          	sub	sp,gp,a1
     340:	76c7d1b7          	lui	gp,0x76c7d
     344:	b214b137          	lui	sp,0xb214b
     348:	5dcd71b7          	lui	gp,0x5dcd7
     34c:	4380e113          	ori	sp,ra,1080
     350:	113180b7          	lui	ra,0x11318
     354:	3e4b41b7          	lui	gp,0x3e4b4
     358:	ca1db137          	lui	sp,0xca1db
     35c:	f235c0b7          	lui	ra,0xf235c
     360:	e4c00217          	auipc	tp,0xe4c00
     364:	00b32137          	lui	sp,0xb32
     368:	38c39117          	auipc	sp,0x38c39
     36c:	00008093          	mv	ra,ra
     370:	3c108e63          	beq	ra,ra,0x74c
     374:	00314033          	xor	zero,sp,gp
     378:	d4314113          	xori	sp,sp,-701
     37c:	2cf2f113          	andi	sp,t0,719
     380:	ee408013          	addi	zero,ra,-284 # 0xfffffffff235bee4
     384:	cabff137          	lui	sp,0xcabff
     388:	0051f133          	and	sp,gp,t0
     38c:	40b183b3          	sub	t2,gp,a1
     390:	3747c117          	auipc	sp,0x3747c
     394:	6ffea097          	auipc	ra,0x6ffea
     398:	e35020b7          	lui	ra,0xe3502
     39c:	c0f57317          	auipc	t1,0xc0f57
     3a0:	8f517193          	andi	gp,sp,-1803
     3a4:	dbd2c013          	xori	zero,t0,-579
     3a8:	2862d117          	auipc	sp,0x2862d
     3ac:	aa427097          	auipc	ra,0xaa427
     3b0:	00318033          	add	zero,gp,gp
     3b4:	26d14193          	xori	gp,sp,621
     3b8:	6a933117          	auipc	sp,0x6a933
     3bc:	8a35e237          	lui	tp,0x8a35e
     3c0:	18c83097          	auipc	ra,0x18c83
     3c4:	d5a08193          	addi	gp,ra,-678 # 0x18c8311a
     3c8:	002100b3          	add	ra,sp,sp
     3cc:	5360f093          	andi	ra,ra,1334
     3d0:	b63a4197          	auipc	gp,0xb63a4
     3d4:	35fc32b7          	lui	t0,0x35fc3
     3d8:	c88c3117          	auipc	sp,0xc88c3
     3dc:	62b0f113          	andi	sp,ra,1579
     3e0:	6ecaf137          	lui	sp,0x6ecaf
     3e4:	9c418097          	auipc	ra,0x9c418
     3e8:	2d010013          	addi	zero,sp,720 # 0x6ecaf2d0
     3ec:	9d274197          	auipc	gp,0x9d274
     3f0:	d2cad217          	auipc	tp,0xd2cad
     3f4:	58810497          	auipc	s1,0x58810
     3f8:	b5410193          	addi	gp,sp,-1196
     3fc:	591a90b7          	lui	ra,0x591a9
     400:	f0716113          	ori	sp,sp,-249
     404:	00c0c0b3          	xor	ra,ra,a2
     408:	00000297          	auipc	t0,0x0
     40c:	12028367          	jalr	t1,288(t0) # 0x528
     410:	e1108113          	addi	sp,ra,-495 # 0x591a8e11
     414:	9809a2b7          	lui	t0,0x9809a
     418:	53889217          	auipc	tp,0x53889
     41c:	4ae882b7          	lui	t0,0x4ae88
     420:	00afb1b7          	lui	gp,0xafb
     424:	36836393          	ori	t2,t1,872
     428:	0031e2b3          	or	t0,gp,gp
     42c:	a1f1c013          	xori	zero,gp,-1505
     430:	002180b3          	add	ra,gp,sp
     434:	0051fbb3          	and	s7,gp,t0
     438:	2a86b117          	auipc	sp,0x2a86b
     43c:	00c041b3          	xor	gp,zero,a2
     440:	003171b3          	and	gp,sp,gp
     444:	f887e317          	auipc	t1,0xf887e
     448:	d2517193          	andi	gp,sp,-731
     44c:	40608133          	sub	sp,ra,t1
     450:	e853c113          	xori	sp,t2,-379
     454:	9e91f113          	andi	sp,gp,-1559
     458:	cb452097          	auipc	ra,0xcb452
     45c:	002141b3          	xor	gp,sp,sp
     460:	00314133          	xor	sp,sp,gp
     464:	c5978097          	auipc	ra,0xc5978
     468:	7c514193          	xori	gp,sp,1989
     46c:	01d261b3          	or	gp,tp,t4
     470:	a6c9b197          	auipc	gp,0xa6c9b
     474:	001080b3          	add	ra,ra,ra
     478:	e0ee02b7          	lui	t0,0xe0ee0
     47c:	6e0f3017          	auipc	zero,0x6e0f3
     480:	00308133          	add	sp,ra,gp
     484:	0eb2e117          	auipc	sp,0xeb2e
     488:	9b668313          	addi	t1,a3,-1610
     48c:	60a160b7          	lui	ra,0x60a16
     490:	6a110263          	beq	sp,ra,0xb34
     494:	6a0000ef          	jal	ra,0xb34
     498:	6eeac197          	auipc	gp,0x6eeac
     49c:	0c5b00b7          	lui	ra,0xc5b0
     4a0:	003d40b3          	xor	ra,s10,gp
     4a4:	e94740b7          	lui	ra,0xe9474
     4a8:	f9b20113          	addi	sp,tp,-101 # 0x538893b3
     4ac:	0004f233          	and	tp,s1,zero
     4b0:	402187b3          	sub	a5,gp,sp
     4b4:	00d0f133          	and	sp,ra,a3
     4b8:	51c87037          	lui	zero,0x51c87
     4bc:	14079317          	auipc	t1,0x14079
     4c0:	73fa7097          	auipc	ra,0x73fa7
     4c4:	6f676117          	auipc	sp,0x6f676
     4c8:	c9236193          	ori	gp,t1,-878
     4cc:	26910113          	addi	sp,sp,617 # 0x6f67672d
     4d0:	849ab137          	lui	sp,0x849ab
     4d4:	31948113          	addi	sp,s1,793 # 0x5881070d
     4d8:	07964117          	auipc	sp,0x7964
     4dc:	45a07013          	andi	zero,zero,1114
     4e0:	3f1ed1b7          	lui	gp,0x3f1ed
     4e4:	9fcc0137          	lui	sp,0x9fcc0
     4e8:	6251f293          	andi	t0,gp,1573
     4ec:	bb417193          	andi	gp,sp,-1100
     4f0:	acbd2197          	auipc	gp,0xacbd2
     4f4:	401185b3          	sub	a1,gp,ra
     4f8:	bed32117          	auipc	sp,0xbed32
     4fc:	c80c0117          	auipc	sp,0xc80c0
     500:	60753197          	auipc	gp,0x60753
     504:	f36b51b7          	lui	gp,0xf36b5
     508:	d8a9d737          	lui	a4,0xd8a9d
     50c:	e2317193          	andi	gp,sp,-477
     510:	82fe2137          	lui	sp,0x82fe2
     514:	00208133          	add	sp,ra,sp
     518:	43689117          	auipc	sp,0x43689
     51c:	94304013          	xori	zero,zero,-1725
     520:	00300263          	beq	zero,gp,0x524
     524:	0c00116f          	jal	sp,0x15e4
     528:	67d02217          	auipc	tp,0x67d02
     52c:	9c4bb037          	lui	zero,0x9c4bb
     530:	ca519197          	auipc	gp,0xca519
     534:	00514933          	xor	s2,sp,t0
     538:	ca51e113          	ori	sp,gp,-859
     53c:	d194a3b7          	lui	t2,0xd194a
     540:	31424037          	lui	zero,0x31424
     544:	63cd60b7          	lui	ra,0x63cd6
     548:	9d04f137          	lui	sp,0x9d04f
     54c:	5bb27c93          	andi	s9,tp,1467
     550:	402101b3          	sub	gp,sp,sp
     554:	1af8d197          	auipc	gp,0x1af8d
     558:	36a17193          	andi	gp,sp,874
     55c:	91910393          	addi	t2,sp,-1767 # 0xffffffff9d04e919
     560:	007360b3          	or	ra,t1,t2
     564:	40128133          	sub	sp,t0,ra
     568:	0032f0b3          	and	ra,t0,gp
     56c:	ca11d217          	auipc	tp,0xca11d
     570:	d5d19117          	auipc	sp,0xd5d19
     574:	2aa0f113          	andi	sp,ra,682
     578:	3be14093          	xori	ra,sp,958
     57c:	52e0e293          	ori	t0,ra,1326
     580:	2cd27093          	andi	ra,tp,717
     584:	0c50e193          	ori	gp,ra,197
     588:	19c34213          	xori	tp,t1,412
     58c:	18046117          	auipc	sp,0x18046
     590:	9f4821b7          	lui	gp,0x9f482
     594:	49d35097          	auipc	ra,0x49d35
     598:	0fc10093          	addi	ra,sp,252 # 0x18046688
     59c:	cf6ad137          	lui	sp,0xcf6ad
     5a0:	1bd9f197          	auipc	gp,0x1bd9f
     5a4:	003ff133          	and	sp,t6,gp
     5a8:	ee2188e3          	beq	gp,sp,0x498
     5ac:	eedff1ef          	jal	gp,0x498
     5b0:	ea518193          	addi	gp,gp,-347 # 0x1bd9f445
     5b4:	75e18293          	addi	t0,gp,1886
     5b8:	00127133          	and	sp,tp,ra
     5bc:	4cc16093          	ori	ra,sp,1228
     5c0:	0015f033          	and	zero,a1,ra
     5c4:	002101b3          	add	gp,sp,sp
     5c8:	de68b1b7          	lui	gp,0xde68b
     5cc:	5e7db1b7          	lui	gp,0x5e7db
     5d0:	d2cd4197          	auipc	gp,0xd2cd4
     5d4:	5d20f293          	andi	t0,ra,1490
     5d8:	00600033          	add	zero,zero,t1
     5dc:	24799317          	auipc	t1,0x24799
     5e0:	404280b3          	sub	ra,t0,tp
     5e4:	40308133          	sub	sp,ra,gp
     5e8:	764c6137          	lui	sp,0x764c6
     5ec:	b7b3e193          	ori	gp,t2,-1157
     5f0:	7682e193          	ori	gp,t0,1896
     5f4:	88d0f313          	andi	t1,ra,-1907
     5f8:	6dca4137          	lui	sp,0x6dca4
     5fc:	8d2d23b7          	lui	t2,0x8d2d2
     600:	8bda2297          	auipc	t0,0x8bda2
     604:	2b1820b7          	lui	ra,0x2b182
     608:	00118133          	add	sp,gp,ra
     60c:	7d9bf0b7          	lui	ra,0x7d9bf
     610:	0020e0b3          	or	ra,ra,sp
     614:	6aa1c193          	xori	gp,gp,1706
     618:	00d180b3          	add	ra,gp,a3
     61c:	0010f0b3          	and	ra,ra,ra
     620:	0000c133          	xor	sp,ra,zero
     624:	401085b3          	sub	a1,ra,ra
     628:	00000197          	auipc	gp,0x0
     62c:	2e818067          	jr	744(gp) # 0x910
     630:	de13eab7          	lui	s5,0xde13e
     634:	00116233          	or	tp,sp,ra
     638:	b0d1c197          	auipc	gp,0xb0d1c
     63c:	dc8ad217          	auipc	tp,0xdc8ad
     640:	00168033          	add	zero,a3,ra
     644:	60cd0117          	auipc	sp,0x60cd0
     648:	0e20c193          	xori	gp,ra,226
     64c:	556be237          	lui	tp,0x556be
     650:	004082b3          	add	t0,ra,tp
     654:	040d5317          	auipc	t1,0x40d5
     658:	a0034193          	xori	gp,t1,-1536
     65c:	b412c693          	xori	a3,t0,-1215
     660:	002143b3          	xor	t2,sp,sp
     664:	85764097          	auipc	ra,0x85764
     668:	3831c093          	xori	ra,gp,899
     66c:	0032f0b3          	and	ra,t0,gp
     670:	29833097          	auipc	ra,0x29833
     674:	0000c1b3          	xor	gp,ra,zero
     678:	d076f197          	auipc	gp,0xd076f
     67c:	b18c2097          	auipc	ra,0xb18c2
     680:	09b65117          	auipc	sp,0x9b65
     684:	f2546117          	auipc	sp,0xf2546
     688:	88db67b7          	lui	a5,0x88db6
     68c:	972ab3b7          	lui	t2,0x972ab
     690:	003180b3          	add	ra,gp,gp
     694:	c2308113          	addi	sp,ra,-989 # 0xffffffffb18c229f
     698:	50b16293          	ori	t0,sp,1291
     69c:	6a50c213          	xori	tp,ra,1701
     6a0:	b2cc8117          	auipc	sp,0xb2cc8
     6a4:	00000117          	auipc	sp,0x0
     6a8:	37c101e7          	jalr	gp,892(sp) # 0xa20
     6ac:	46bf2197          	auipc	gp,0x46bf2
     6b0:	002160b3          	or	ra,sp,sp
     6b4:	002270b3          	and	ra,tp,sp
     6b8:	0020c1b3          	xor	gp,ra,sp
     6bc:	52321197          	auipc	gp,0x52321
     6c0:	fa5cc117          	auipc	sp,0xfa5cc
     6c4:	00214333          	xor	t1,sp,sp
     6c8:	27608093          	addi	ra,ra,630
     6cc:	6b0eb317          	auipc	t1,0x6b0eb
     6d0:	2510e193          	ori	gp,ra,593
     6d4:	49538217          	auipc	tp,0x49538
     6d8:	28c30117          	auipc	sp,0x28c30
     6dc:	0010f0b3          	and	ra,ra,ra
     6e0:	000ac0b7          	lui	ra,0xac
     6e4:	40108233          	sub	tp,ra,ra
     6e8:	00008cb3          	add	s9,ra,zero
     6ec:	886c91b7          	lui	gp,0x886c9
     6f0:	004060b3          	or	ra,zero,tp
     6f4:	b0647317          	auipc	t1,0xb0647
     6f8:	0bcdb117          	auipc	sp,0xbcdb
     6fc:	a7d1e293          	ori	t0,gp,-1411
     700:	0073e1b3          	or	gp,t2,t2
     704:	d9626013          	ori	zero,tp,-618
     708:	e9416013          	ori	zero,sp,-364
     70c:	e4700393          	li	t2,-441
     710:	8ed99117          	auipc	sp,0x8ed99
     714:	007272b3          	and	t0,tp,t2
     718:	ccb3e293          	ori	t0,t2,-821
     71c:	581c35b7          	lui	a1,0x581c3
     720:	11526137          	lui	sp,0x11526
     724:	00116133          	or	sp,sp,ra
     728:	f8439397          	auipc	t2,0xf8439
     72c:	006141b3          	xor	gp,sp,t1
     730:	8412c237          	lui	tp,0x8412c
     734:	00224233          	xor	tp,tp,sp
     738:	4d068137          	lui	sp,0x4d068
     73c:	003142b3          	xor	t0,sp,gp
     740:	43ef8237          	lui	tp,0x43ef8
     744:	00000197          	auipc	gp,0x0
     748:	374180e7          	jalr	884(gp) # 0xab8
     74c:	fbbeb137          	lui	sp,0xfbbeb
     750:	001d41b3          	xor	gp,s10,ra
     754:	53f17013          	andi	zero,sp,1343
     758:	00308233          	add	tp,ra,gp
     75c:	654b1097          	auipc	ra,0x654b1
     760:	40110eb3          	sub	t4,sp,ra
     764:	e7dbc117          	auipc	sp,0xe7dbc
     768:	403180b3          	sub	ra,gp,gp
     76c:	0010e133          	or	sp,ra,ra
     770:	264260b7          	lui	ra,0x26426
     774:	00116133          	or	sp,sp,ra
     778:	0031f1b3          	and	gp,gp,gp
     77c:	0036e033          	or	zero,a3,gp
     780:	974bf097          	auipc	ra,0x974bf
     784:	400101b3          	sub	gp,sp,zero
     788:	000ce0b3          	or	ra,s9,zero
     78c:	000140b3          	xor	ra,sp,zero
     790:	530b90b7          	lui	ra,0x530b9
     794:	c0234193          	xori	gp,t1,-1022
     798:	350bc197          	auipc	gp,0x350bc
     79c:	b8114193          	xori	gp,sp,-1151
     7a0:	0548c097          	auipc	ra,0x548c
     7a4:	8ef28113          	addi	sp,t0,-1809 # 0xffffffff8bda1eef
     7a8:	eab79317          	auipc	t1,0xeab79
     7ac:	0021e133          	or	sp,gp,sp
     7b0:	29214113          	xori	sp,sp,658
     7b4:	6612f1b7          	lui	gp,0x6612f
     7b8:	13d0f193          	andi	gp,ra,317
     7bc:	96311137          	lui	sp,0x96311
     7c0:	0031f133          	and	sp,gp,gp
     7c4:	aa2182e3          	beq	gp,sp,0x268
     7c8:	aa1ff06f          	j	0x268
     7cc:	00718397          	auipc	t2,0x718
     7d0:	002280b3          	add	ra,t0,sp
     7d4:	1d2250b7          	lui	ra,0x1d225
     7d8:	e6136193          	ori	gp,t1,-415
     7dc:	3082a0b7          	lui	ra,0x3082a
     7e0:	00124133          	xor	sp,tp,ra
     7e4:	6e010197          	auipc	gp,0x6e010
     7e8:	ca51b137          	lui	sp,0xca51b
     7ec:	00226033          	or	zero,tp,sp
     7f0:	8de882b7          	lui	t0,0x8de88
     7f4:	3a4b63b7          	lui	t2,0x3a4b6
     7f8:	7b3f8317          	auipc	t1,0x7b3f8
     7fc:	55b451b7          	lui	gp,0x55b45
     800:	d5660117          	auipc	sp,0xd5660
     804:	ded17137          	lui	sp,0xded17
     808:	4a359617          	auipc	a2,0x4a359
     80c:	6053b1b7          	lui	gp,0x6053b
     810:	3650e713          	ori	a4,ra,869
     814:	40610133          	sub	sp,sp,t1
     818:	dd60e117          	auipc	sp,0xdd60e
     81c:	002081b3          	add	gp,ra,sp
     820:	18d08393          	addi	t2,ra,397 # 0x3082a18d
     824:	d9c1e093          	ori	ra,gp,-612
     828:	c9e30213          	addi	tp,t1,-866 # 0x7b3f8496
     82c:	0010f133          	and	sp,ra,ra
     830:	2a1d97b7          	lui	a5,0x2a1d9
     834:	71e3e093          	ori	ra,t2,1822
     838:	b7e57097          	auipc	ra,0xb7e57
     83c:	0011c1b3          	xor	gp,gp,ra
     840:	62416013          	ori	zero,sp,1572
     844:	406381b3          	sub	gp,t2,t1
     848:	f9e0e293          	ori	t0,ra,-98
     84c:	3811f193          	andi	gp,gp,897
     850:	e69d8097          	auipc	ra,0xe69d8
     854:	b06240b7          	lui	ra,0xb0624
     858:	002181b3          	add	gp,gp,sp
     85c:	42f1e193          	ori	gp,gp,1071
     860:	403200b3          	sub	ra,tp,gp
     864:	002ff133          	and	sp,t6,sp
     868:	75611117          	auipc	sp,0x75611
     86c:	5711e193          	ori	gp,gp,1393
     870:	00000097          	auipc	ra,0x0
     874:	d40081e7          	jalr	gp,-704(ra) # 0x5b0
     878:	002280b3          	add	ra,t0,sp
     87c:	e88be2b7          	lui	t0,0xe88be
     880:	9b7c50b7          	lui	ra,0x9b7c5
     884:	6961c113          	xori	sp,gp,1686
     888:	e6de2117          	auipc	sp,0xe6de2
     88c:	e5834197          	auipc	gp,0xe5834
     890:	cc702097          	auipc	ra,0xcc702
     894:	1ba4e013          	ori	zero,s1,442
     898:	5bf50297          	auipc	t0,0x5bf50
     89c:	003163b3          	or	t2,sp,gp
     8a0:	ce992097          	auipc	ra,0xce992
     8a4:	6c81e113          	ori	sp,gp,1736
     8a8:	44836197          	auipc	gp,0x44836
     8ac:	ce01d697          	auipc	a3,0xce01d
     8b0:	0030c1b3          	xor	gp,ra,gp
     8b4:	00308233          	add	tp,ra,gp
     8b8:	d48b3137          	lui	sp,0xd48b3
     8bc:	40110133          	sub	sp,sp,ra
     8c0:	0020c0b3          	xor	ra,ra,sp
     8c4:	e5bf2097          	auipc	ra,0xe5bf2
     8c8:	6eada0b7          	lui	ra,0x6eada
     8cc:	a0817193          	andi	gp,sp,-1528
     8d0:	0000c1b3          	xor	gp,ra,zero
     8d4:	003080b3          	add	ra,ra,gp
     8d8:	25d38193          	addi	gp,t2,605 # 0x3a4b625d
     8dc:	0020ed33          	or	s10,ra,sp
     8e0:	90c17113          	andi	sp,sp,-1780
     8e4:	0032c2b3          	xor	t0,t0,gp
     8e8:	002180b3          	add	ra,gp,sp
     8ec:	de61b1b7          	lui	gp,0xde61b
     8f0:	a36ae097          	auipc	ra,0xa36ae
     8f4:	94c20093          	addi	ra,tp,-1716 # 0x43ef794c
     8f8:	de4a9097          	auipc	ra,0xde4a9
     8fc:	52a0c093          	xori	ra,ra,1322
     900:	9310e093          	ori	ra,ra,-1743
     904:	40230133          	sub	sp,t1,sp
     908:	00008113          	mv	sp,ra
     90c:	b01102e3          	beq	sp,ra,0x410
     910:	921ef197          	auipc	gp,0x921ef
     914:	001186b3          	add	a3,gp,ra
     918:	c942e313          	ori	t1,t0,-876
     91c:	21cae193          	ori	gp,s5,540
     920:	55eef037          	lui	zero,0x55eef
     924:	00310233          	add	tp,sp,gp
     928:	987f5097          	auipc	ra,0x987f5
     92c:	2ce922b7          	lui	t0,0x2ce92
     930:	401280b3          	sub	ra,t0,ra
     934:	ee9c0137          	lui	sp,0xee9c0
     938:	acabb137          	lui	sp,0xacabb
     93c:	11be2137          	lui	sp,0x11be2
     940:	73d2e313          	ori	t1,t0,1853
     944:	0031f133          	and	sp,gp,gp
     948:	eab73137          	lui	sp,0xeab73
     94c:	a67011b7          	lui	gp,0xa6701
     950:	0060c1b3          	xor	gp,ra,t1
     954:	00327133          	and	sp,tp,gp
     958:	09fe8097          	auipc	ra,0x9fe8
     95c:	4890c093          	xori	ra,ra,1161
     960:	dc328193          	addi	gp,t0,-573 # 0x2ce91dc3
     964:	6bb0e393          	ori	t2,ra,1723
     968:	40118133          	sub	sp,gp,ra
     96c:	5f772137          	lui	sp,0x5f772
     970:	9c6ab017          	auipc	zero,0x9c6ab
     974:	f15ed397          	auipc	t2,0xf15ed
     978:	40410633          	sub	a2,sp,tp
     97c:	1e4111b7          	lui	gp,0x1e411
     980:	18cc7237          	lui	tp,0x18cc7
     984:	5bd27193          	andi	gp,tp,1469
     988:	32445d97          	auipc	s11,0x32445
     98c:	00000397          	auipc	t2,0x0
     990:	00838167          	jalr	sp,8(t2) # 0x994
     994:	5b00c013          	xori	zero,ra,1456
     998:	3041a1b7          	lui	gp,0x3041a
     99c:	898a2097          	auipc	ra,0x898a2
     9a0:	0a2ad037          	lui	zero,0xa2ad
     9a4:	e6b27393          	andi	t2,tp,-405
     9a8:	41b10133          	sub	sp,sp,s11
     9ac:	006240b3          	xor	ra,tp,t1
     9b0:	41a480b3          	sub	ra,s1,s10
     9b4:	108ea117          	auipc	sp,0x108ea
     9b8:	e5ffc117          	auipc	sp,0xe5ffc
     9bc:	402181b3          	sub	gp,gp,sp
     9c0:	001161b3          	or	gp,sp,ra
     9c4:	0024f233          	and	tp,s1,sp
     9c8:	2bf14113          	xori	sp,sp,703
     9cc:	b6c7c313          	xori	t1,a5,-1172
     9d0:	74440037          	lui	zero,0x74440
     9d4:	20d16193          	ori	gp,sp,525
     9d8:	524ef197          	auipc	gp,0x524ef
     9dc:	b0108093          	addi	ra,ra,-1279 # 0xffffffff898a249d
     9e0:	6c61f1b7          	lui	gp,0x6c61f
     9e4:	37aed0b7          	lui	ra,0x37aed
     9e8:	0030c133          	xor	sp,ra,gp
     9ec:	e326c137          	lui	sp,0xe326c
     9f0:	523240b7          	lui	ra,0x52324
     9f4:	f3b10093          	addi	ra,sp,-197 # 0xffffffffe326bf3b
     9f8:	feeec197          	auipc	gp,0xfeeec
     9fc:	0061c1b3          	xor	gp,gp,t1
     a00:	79319137          	lui	sp,0x79319
     a04:	400080b3          	sub	ra,ra,zero
     a08:	0fb79137          	lui	sp,0xfb79
     a0c:	b769f0b7          	lui	ra,0xb769f
     a10:	b8df4237          	lui	tp,0xb8df4
     a14:	bbc08113          	addi	sp,ra,-1092 # 0xffffffffb769ebbc
     a18:	00000197          	auipc	gp,0x0
     a1c:	c18187e7          	jalr	a5,-1000(gp) # 0x630
     a20:	cf2ca217          	auipc	tp,0xcf2ca
     a24:	00114033          	xor	zero,sp,ra
     a28:	40318033          	sub	zero,gp,gp
     a2c:	00628233          	add	tp,t0,t1
     a30:	dd6661b7          	lui	gp,0xdd666
     a34:	0040c133          	xor	sp,ra,tp
     a38:	292420b7          	lui	ra,0x29242
     a3c:	b98d7217          	auipc	tp,0xb98d7
     a40:	c8006113          	ori	sp,zero,-896
     a44:	db919197          	auipc	gp,0xdb919
     a48:	401100b3          	sub	ra,sp,ra
     a4c:	2ccb51b7          	lui	gp,0x2ccb5
     a50:	09d07113          	andi	sp,zero,157
     a54:	46b34097          	auipc	ra,0x46b34
     a58:	9192e017          	auipc	zero,0x9192e
     a5c:	b17fb137          	lui	sp,0xb17fb
     a60:	006160b3          	or	ra,sp,t1
     a64:	c99680b7          	lui	ra,0xc9968
     a68:	00508833          	add	a6,ra,t0
     a6c:	00334133          	xor	sp,t1,gp
     a70:	1e317193          	andi	gp,sp,483
     a74:	0020e1b3          	or	gp,ra,sp
     a78:	842af1b7          	lui	gp,0x842af
     a7c:	ea50c113          	xori	sp,ra,-347
     a80:	e3e39317          	auipc	t1,0xe3e39
     a84:	17e1f093          	andi	ra,gp,382
     a88:	013060b3          	or	ra,zero,s3
     a8c:	c3a16113          	ori	sp,sp,-966
     a90:	0021c133          	xor	sp,gp,sp
     a94:	be6f5197          	auipc	gp,0xbe6f5
     a98:	c10fb5b7          	lui	a1,0xc10fb
     a9c:	40c18133          	sub	sp,gp,a2
     aa0:	0071e2b3          	or	t0,gp,t2
     aa4:	5a10f0b7          	lui	ra,0x5a10f
     aa8:	7d518193          	addi	gp,gp,2005 # 0xffffffffbe6f6269
     aac:	57818093          	addi	ra,gp,1400
     ab0:	00118263          	beq	gp,ra,0xab4
     ab4:	e88ff0ef          	jal	ra,0x13c
     ab8:	00317233          	and	tp,sp,gp
     abc:	db21f113          	andi	sp,gp,-590
     ac0:	25c0e013          	ori	zero,ra,604
     ac4:	cb93f593          	andi	a1,t2,-839
     ac8:	a562e193          	ori	gp,t0,-1450
     acc:	26922197          	auipc	gp,0x26922
     ad0:	f1ec71b7          	lui	gp,0xf1ec7
     ad4:	001240b3          	xor	ra,tp,ra
     ad8:	0022c0b3          	xor	ra,t0,sp
     adc:	e8872137          	lui	sp,0xe8872
     ae0:	d2a1c193          	xori	gp,gp,-726
     ae4:	84f613b7          	lui	t2,0x84f61
     ae8:	b5dd71b7          	lui	gp,0xb5dd7
     aec:	4f3517b7          	lui	a5,0x4f351
     af0:	47da3317          	auipc	t1,0x47da3
     af4:	003080b3          	add	ra,ra,gp
     af8:	0030c0b3          	xor	ra,ra,gp
     afc:	16526113          	ori	sp,tp,357
     b00:	0b538393          	addi	t2,t2,181 # 0xffffffff84f610b5
     b04:	cf406137          	lui	sp,0xcf406
     b08:	0011f133          	and	sp,gp,ra
     b0c:	0a8ff1b7          	lui	gp,0xa8ff
     b10:	42f9e193          	ori	gp,s3,1071
     b14:	0060c033          	xor	zero,ra,t1
     b18:	0195f0b3          	and	ra,a1,s9
     b1c:	bbe18193          	addi	gp,gp,-1090 # 0xa8febbe
     b20:	6ebb40b7          	lui	ra,0x6ebb4
     b24:	67e51197          	auipc	gp,0x67e51
     b28:	6d9af037          	lui	zero,0x6d9af
     b2c:	01518263          	beq	gp,s5,0xb30
     b30:	fbcff0ef          	jal	ra,0x2ec
     b34:	00fbc133          	xor	sp,s7,a5
     b38:	7ee00113          	li	sp,2030
     b3c:	ac8f00b7          	lui	ra,0xac8f0
     b40:	c5fa4037          	lui	zero,0xc5fa4
     b44:	8231e117          	auipc	sp,0x8231e
     b48:	09b1fd93          	andi	s11,gp,155
     b4c:	0030c1b3          	xor	gp,ra,gp
     b50:	0020e0b3          	or	ra,ra,sp
     b54:	6d4a5317          	auipc	t1,0x6d4a5
     b58:	2aacd0b7          	lui	ra,0x2aacd
     b5c:	b4e161b7          	lui	gp,0xb4e16
     b60:	4d243097          	auipc	ra,0x4d243
     b64:	7cd9f097          	auipc	ra,0x7cd9f
     b68:	ca8f6097          	auipc	ra,0xca8f6
     b6c:	8b9d81b7          	lui	gp,0x8b9d8
     b70:	a3c85097          	auipc	ra,0xa3c85
     b74:	1d934113          	xori	sp,t1,473
     b78:	00018333          	add	t1,gp,zero
     b7c:	3adde097          	auipc	ra,0x3adde
     b80:	e5465097          	auipc	ra,0xe5465
     b84:	00117133          	and	sp,sp,ra
     b88:	eab6f137          	lui	sp,0xeab6f
     b8c:	a93d6137          	lui	sp,0xa93d6
     b90:	62f33197          	auipc	gp,0x62f33
     b94:	f7c76237          	lui	tp,0xf7c76
     b98:	d630f113          	andi	sp,ra,-669
     b9c:	0024f133          	and	sp,s1,sp
     ba0:	19d1f093          	andi	ra,gp,413
     ba4:	dffec137          	lui	sp,0xdffec
     ba8:	07914093          	xori	ra,sp,121
     bac:	0045e0b3          	or	ra,a1,tp
     bb0:	4ac0f117          	auipc	sp,0x4ac0f
     bb4:	00018113          	mv	sp,gp
     bb8:	c0310ae3          	beq	sp,gp,0x7cc
     bbc:	6d608193          	addi	gp,ra,1750 # 0xffffffffe5466256
     bc0:	95bf4217          	auipc	tp,0x95bf4
     bc4:	5cf881b7          	lui	gp,0x5cf88
     bc8:	0011c133          	xor	sp,gp,ra
     bcc:	4da17137          	lui	sp,0x4da17
     bd0:	31208293          	addi	t0,ra,786
     bd4:	406483b3          	sub	t2,s1,t1
     bd8:	5171b2b7          	lui	t0,0x5171b
     bdc:	aac0f113          	andi	sp,ra,-1364
     be0:	f5901137          	lui	sp,0xf5901
     be4:	cfb17393          	andi	t2,sp,-773
     be8:	ee75c197          	auipc	gp,0xee75c
     bec:	99516093          	ori	ra,sp,-1643
     bf0:	005081b3          	add	gp,ra,t0
     bf4:	adb08213          	addi	tp,ra,-1317
     bf8:	99816113          	ori	sp,sp,-1640
     bfc:	008a8133          	add	sp,s5,s0
     c00:	0e432217          	auipc	tp,0xe432
     c04:	875d4297          	auipc	t0,0x875d4
     c08:	3790e193          	ori	gp,ra,889
     c0c:	9621f193          	andi	gp,gp,-1694
     c10:	550772b7          	lui	t0,0x55077
     c14:	2352c397          	auipc	t2,0x2352c
     c18:	0013c3b3          	xor	t2,t2,ra
     c1c:	df0bf093          	andi	ra,s7,-528
     c20:	db0040b7          	lui	ra,0xdb004
     c24:	003101b3          	add	gp,sp,gp
     c28:	5b362097          	auipc	ra,0x5b362
     c2c:	2d920117          	auipc	sp,0x2d920
     c30:	6b587137          	lui	sp,0x6b587
     c34:	001100b3          	add	ra,sp,ra
     c38:	005170b3          	and	ra,sp,t0
     c3c:	ae1a50b7          	lui	ra,0xae1a5
     c40:	b3a18193          	addi	gp,gp,-1222 # 0xffffffffee75c722
     c44:	0020f1b3          	and	gp,ra,sp
     c48:	0010f0b3          	and	ra,ra,ra
     c4c:	00230263          	beq	t1,sp,0xc50
     c50:	6190016f          	jal	sp,0x1a68
     c54:	79310093          	addi	ra,sp,1939 # 0x6b587793
     c58:	6fa4b197          	auipc	gp,0x6fa4b
     c5c:	1750c113          	xori	sp,ra,373
     c60:	59734193          	xori	gp,t1,1431
     c64:	5dd562b7          	lui	t0,0x5dd56
     c68:	69634593          	xori	a1,t1,1686
     c6c:	79b75117          	auipc	sp,0x79b75
     c70:	c23180b7          	lui	ra,0xc2318
     c74:	40310233          	sub	tp,sp,gp
     c78:	6ac3c213          	xori	tp,t2,1708
     c7c:	002041b3          	xor	gp,zero,sp
     c80:	52ac2037          	lui	zero,0x52ac2
     c84:	40f001b3          	neg	gp,a5
     c88:	0001f1b3          	and	gp,gp,zero
     c8c:	17515097          	auipc	ra,0x17515
     c90:	00cb5297          	auipc	t0,0xcb5
     c94:	003085b3          	add	a1,ra,gp
     c98:	403081b3          	sub	gp,ra,gp
     c9c:	0ad42197          	auipc	gp,0xad42
     ca0:	eea3e317          	auipc	t1,0xeea3e
     ca4:	003162b3          	or	t0,sp,gp
     ca8:	8174b0b7          	lui	ra,0x8174b
     cac:	27c191b7          	lui	gp,0x27c19
     cb0:	005141b3          	xor	gp,sp,t0
     cb4:	4f210093          	addi	ra,sp,1266 # 0x79b7615e
     cb8:	0ca5e137          	lui	sp,0xca5e
     cbc:	401781b3          	sub	gp,a5,ra
     cc0:	2a564317          	auipc	t1,0x2a564
     cc4:	b38090b7          	lui	ra,0xb3809
     cc8:	08996237          	lui	tp,0x8996
     ccc:	8531e213          	ori	tp,gp,-1965
     cd0:	e805a237          	lui	tp,0xe805a
     cd4:	00000393          	li	t2,0
     cd8:	12038863          	beqz	t2,0xe08
     cdc:	0051e0b3          	or	ra,gp,t0
     ce0:	402180b3          	sub	ra,gp,sp
     ce4:	49a1f113          	andi	sp,gp,1178
     ce8:	16a2a3b7          	lui	t2,0x16a2a
     cec:	00207133          	and	sp,zero,sp
     cf0:	bc97a117          	auipc	sp,0xbc97a
     cf4:	b1ca70b7          	lui	ra,0xb1ca7
     cf8:	0000e0b3          	or	ra,ra,zero
     cfc:	3b40c313          	xori	t1,ra,948
     d00:	6f71e113          	ori	sp,gp,1783
     d04:	ef19f097          	auipc	ra,0xef19f
     d08:	91a25217          	auipc	tp,0x91a25
     d0c:	8f211117          	auipc	sp,0x8f211
     d10:	0079f117          	auipc	sp,0x79f
     d14:	0011e433          	or	s0,gp,ra
     d18:	512150b7          	lui	ra,0x51215
     d1c:	8111c1b7          	lui	gp,0x8111c
     d20:	5e2e8317          	auipc	t1,0x5e2e8
     d24:	386d0197          	auipc	gp,0x386d0
     d28:	fefad097          	auipc	ra,0xfefad
     d2c:	6323e1b7          	lui	gp,0x6323e
     d30:	0021c433          	xor	s0,gp,sp
     d34:	0030e233          	or	tp,ra,gp
     d38:	c9aea1b7          	lui	gp,0xc9aea
     d3c:	74cfd137          	lui	sp,0x74cfd
     d40:	7781a0b7          	lui	ra,0x7781a
     d44:	05660137          	lui	sp,0x5660
     d48:	fb685a97          	auipc	s5,0xfb685
     d4c:	5c84e393          	ori	t2,s1,1480
     d50:	6d317193          	andi	gp,sp,1747
     d54:	0c5fa097          	auipc	ra,0xc5fa
     d58:	a6008c97          	auipc	s9,0xa6008
     d5c:	52d6f3b7          	lui	t2,0x52d6f
     d60:	de411137          	lui	sp,0xde411
     d64:	00010113          	mv	sp,sp
     d68:	62210463          	beq	sp,sp,0x1390
     d6c:	fd027113          	andi	sp,tp,-48
     d70:	65aa40b7          	lui	ra,0x65aa4
     d74:	27a62117          	auipc	sp,0x27a62
     d78:	9afeb1b7          	lui	gp,0x9afeb
     d7c:	56b142b7          	lui	t0,0x56b14
     d80:	c9a13317          	auipc	t1,0xc9a13
     d84:	b6660697          	auipc	a3,0xb6660
     d88:	7086f3b7          	lui	t2,0x7086f
     d8c:	8cb20313          	addi	t1,tp,-1845 # 0xffffffff91a255d3
     d90:	e0b2d117          	auipc	sp,0xe0b2d
     d94:	0020c133          	xor	sp,ra,sp
     d98:	004341b3          	xor	gp,t1,tp
     d9c:	dd9cc237          	lui	tp,0xdd9cc
     da0:	5254e1b7          	lui	gp,0x5254e
     da4:	6388c197          	auipc	gp,0x6388c
     da8:	55fe52b7          	lui	t0,0x55fe5
     dac:	45d0c193          	xori	gp,ra,1117
     db0:	86f1f193          	andi	gp,gp,-1937
     db4:	40630033          	sub	zero,t1,t1
     db8:	4eb652b7          	lui	t0,0x4eb65
     dbc:	0010e0b3          	or	ra,ra,ra
     dc0:	00738033          	add	zero,t2,t2
     dc4:	40208233          	sub	tp,ra,sp
     dc8:	bac26313          	ori	t1,tp,-1108
     dcc:	065c8197          	auipc	gp,0x65c8
     dd0:	4b90d397          	auipc	t2,0x4b90d
     dd4:	f0c310b7          	lui	ra,0xf0c31
     dd8:	cf4be317          	auipc	t1,0xcf4be
     ddc:	f3c7e0b7          	lui	ra,0xf3c7e
     de0:	f0f17093          	andi	ra,sp,-241
     de4:	0ca21137          	lui	sp,0xca21
     de8:	12c22117          	auipc	sp,0x12c22
     dec:	82be3197          	auipc	gp,0x82be3
     df0:	e17dd197          	auipc	gp,0xe17dd
     df4:	79048117          	auipc	sp,0x79048
     df8:	0022e133          	or	sp,t0,sp
     dfc:	1b40e013          	ori	zero,ra,436
     e00:	00028313          	mv	t1,t0
     e04:	12530063          	beq	t1,t0,0xf24
     e08:	29344097          	auipc	ra,0x29344
     e0c:	0001c1b3          	xor	gp,gp,zero
     e10:	0000f2b3          	and	t0,ra,zero
     e14:	8fe1e113          	ori	sp,gp,-1794
     e18:	8541e393          	ori	t2,gp,-1964
     e1c:	40d184b3          	sub	s1,gp,a3
     e20:	8941f293          	andi	t0,gp,-1900
     e24:	ed0a1317          	auipc	t1,0xed0a1
     e28:	c1716013          	ori	zero,sp,-1001
     e2c:	045d13b7          	lui	t2,0x45d1
     e30:	f2394197          	auipc	gp,0xf2394
     e34:	000181b3          	add	gp,gp,zero
     e38:	d1652197          	auipc	gp,0xd1652
     e3c:	2b510313          	addi	t1,sp,693 # 0x790490a9
     e40:	0031e133          	or	sp,gp,gp
     e44:	dc910113          	addi	sp,sp,-567
     e48:	ec42e113          	ori	sp,t0,-316
     e4c:	64fce1b7          	lui	gp,0x64fce
     e50:	f531f093          	andi	ra,gp,-173
     e54:	f3c60193          	addi	gp,a2,-196 # 0x4a359744
     e58:	5b3cf097          	auipc	ra,0x5b3cf
     e5c:	89edf197          	auipc	gp,0x89edf
     e60:	006161b3          	or	gp,sp,t1
     e64:	02bbe117          	auipc	sp,0x2bbe
     e68:	61f2e093          	ori	ra,t0,1567
     e6c:	13c14093          	xori	ra,sp,316
     e70:	00210033          	add	zero,sp,sp
     e74:	0071c033          	xor	zero,gp,t2
     e78:	5cc32137          	lui	sp,0x5cc32
     e7c:	0c90f213          	andi	tp,ra,201
     e80:	002161b3          	or	gp,sp,sp
     e84:	401081b3          	sub	gp,ra,ra
     e88:	f7404213          	xori	tp,zero,-140
     e8c:	d56ac017          	auipc	zero,0xd56ac
     e90:	00000097          	auipc	ra,0x0
     e94:	3e4086e7          	jalr	a3,996(ra) # 0x1274
     e98:	57e4e197          	auipc	gp,0x57e4e
     e9c:	402080b3          	sub	ra,ra,sp
     ea0:	03ea9697          	auipc	a3,0x3ea9
     ea4:	a4f14193          	xori	gp,sp,-1457
     ea8:	47030793          	addi	a5,t1,1136 # 0xffffffffed0a2294
     eac:	ce34f0b7          	lui	ra,0xce34f
     eb0:	29704393          	xori	t2,zero,663
     eb4:	cc008293          	addi	t0,ra,-832 # 0xffffffffce34ecc0
     eb8:	71f0e693          	ori	a3,ra,1823
     ebc:	eb8f0313          	addi	t1,t5,-328
     ec0:	7cda80b7          	lui	ra,0x7cda8
     ec4:	cb9da097          	auipc	ra,0xcb9da
     ec8:	008170b3          	and	ra,sp,s0
     ecc:	c5f381b7          	lui	gp,0xc5f38
     ed0:	0030f1b3          	and	gp,ra,gp
     ed4:	e03170b7          	lui	ra,0xe0317
     ed8:	019141b3          	xor	gp,sp,s9
     edc:	1c40f313          	andi	t1,ra,452
     ee0:	9ad07713          	andi	a4,zero,-1619
     ee4:	ea8c4197          	auipc	gp,0xea8c4
     ee8:	0021f033          	and	zero,gp,sp
     eec:	a7030213          	addi	tp,t1,-1424
     ef0:	6f97d017          	auipc	zero,0x6f97d
     ef4:	0011f0b3          	and	ra,gp,ra
     ef8:	29e00193          	li	gp,670
     efc:	bd23a1b7          	lui	gp,0xbd23a
     f00:	8590c193          	xori	gp,ra,-1959
     f04:	283ee197          	auipc	gp,0x283ee
     f08:	401c0133          	sub	sp,s8,ra
     f0c:	e0b07197          	auipc	gp,0xe0b07
     f10:	6f0fe717          	auipc	a4,0x6f0fe
     f14:	6901e113          	ori	sp,gp,1680
     f18:	003171b3          	and	gp,sp,gp
     f1c:	00000697          	auipc	a3,0x0
     f20:	e50681e7          	jalr	gp,-432(a3) # 0xd6c
     f24:	8539b197          	auipc	gp,0x8539b
     f28:	1d51f193          	andi	gp,gp,469
     f2c:	3d10f393          	andi	t2,ra,977
     f30:	ce01e093          	ori	ra,gp,-800
     f34:	f9370317          	auipc	t1,0xf9370
     f38:	7ec42317          	auipc	t1,0x7ec42
     f3c:	cead7117          	auipc	sp,0xcead7
     f40:	9394fa93          	andi	s5,s1,-1735
     f44:	0010ec33          	or	s8,ra,ra
     f48:	96f10013          	addi	zero,sp,-1681 # 0xffffffffcead78ab
     f4c:	fa0df117          	auipc	sp,0xfa0df
     f50:	46b45197          	auipc	gp,0x46b45
     f54:	0030f433          	and	s0,ra,gp
     f58:	0024c133          	xor	sp,s1,sp
     f5c:	5ac0f293          	andi	t0,ra,1452
     f60:	3c916093          	ori	ra,sp,969
     f64:	057b2097          	auipc	ra,0x57b2
     f68:	1b54d097          	auipc	ra,0x1b54d
     f6c:	7da4e117          	auipc	sp,0x7da4e
     f70:	79614093          	xori	ra,sp,1942
     f74:	06597137          	lui	sp,0x6597
     f78:	41f100b3          	sub	ra,sp,t6
     f7c:	00324133          	xor	sp,tp,gp
     f80:	cc60c097          	auipc	ra,0xcc60c
     f84:	d675f317          	auipc	t1,0xd675f
     f88:	3cc0f293          	andi	t0,ra,972
     f8c:	0443e137          	lui	sp,0x443e
     f90:	20837293          	andi	t0,t1,520
     f94:	a9117093          	andi	ra,sp,-1391
     f98:	0002f193          	andi	gp,t0,0
     f9c:	03b59037          	lui	zero,0x3b59
     fa0:	42f0c113          	xori	sp,ra,1071
     fa4:	1c310263          	beq	sp,gp,0x1168
     fa8:	1c00006f          	j	0x1168
     fac:	5dade0b7          	lui	ra,0x5dade
     fb0:	1ccf83b7          	lui	t2,0x1ccf8
     fb4:	e2679137          	lui	sp,0xe2679
     fb8:	0033f3b3          	and	t2,t2,gp
     fbc:	03e85137          	lui	sp,0x3e85
     fc0:	958041b7          	lui	gp,0x95804
     fc4:	116afa37          	lui	s4,0x116af
     fc8:	60ab61b7          	lui	gp,0x60ab6
     fcc:	8d180297          	auipc	t0,0x8d180
     fd0:	0030c333          	xor	t1,ra,gp
     fd4:	c4f43137          	lui	sp,0xc4f43
     fd8:	d97d8297          	auipc	t0,0xd97d8
     fdc:	8a9cb0b7          	lui	ra,0x8a9cb
     fe0:	0070c1b3          	xor	gp,ra,t2
     fe4:	afba40b7          	lui	ra,0xafba4
     fe8:	9495c093          	xori	ra,a1,-1719
     fec:	cee16093          	ori	ra,sp,-786
     ff0:	2e11e093          	ori	ra,gp,737
     ff4:	e9a566b7          	lui	a3,0xe9a56
     ff8:	1930e113          	ori	sp,ra,403
     ffc:	c5f0f113          	andi	sp,ra,-929
    1000:	25a10393          	addi	t2,sp,602 # 0xffffffffc4f4325a
    1004:	30f10293          	addi	t0,sp,783
    1008:	44318a13          	addi	s4,gp,1091 # 0x60ab6443
    100c:	8ba990b7          	lui	ra,0x8ba99
    1010:	aebb6117          	auipc	sp,0xaebb6
    1014:	401184b3          	sub	s1,gp,ra
    1018:	e8e95337          	lui	t1,0xe8e95
    101c:	b0f1e393          	ori	t2,gp,-1265
    1020:	00720133          	add	sp,tp,t2
    1024:	a0035c37          	lui	s8,0xa0035
    1028:	d9338c13          	addi	s8,t2,-621 # 0x1ccf7d93
    102c:	5a03f113          	andi	sp,t2,1440
    1030:	2b40e093          	ori	ra,ra,692
    1034:	b6fa2397          	auipc	t2,0xb6fa2
    1038:	0cf08193          	addi	gp,ra,207 # 0xffffffff8ba990cf
    103c:	46728863          	beq	t0,t2,0x14ac
    1040:	46c003ef          	jal	t2,0x14ac
    1044:	0041f0b3          	and	ra,gp,tp
    1048:	74f860b7          	lui	ra,0x74f86
    104c:	00616333          	or	t1,sp,t1
    1050:	ca8fa117          	auipc	sp,0xca8fa
    1054:	502820b7          	lui	ra,0x50282
    1058:	018060b3          	or	ra,zero,s8
    105c:	4250f113          	andi	sp,ra,1061
    1060:	0067f0b3          	and	ra,a5,t1
    1064:	51ac6117          	auipc	sp,0x51ac6
    1068:	65f18013          	addi	zero,gp,1631
    106c:	c80e2137          	lui	sp,0xc80e2
    1070:	401102b3          	sub	t0,sp,ra
    1074:	9be14013          	xori	zero,sp,-1602
    1078:	0030e0b3          	or	ra,ra,gp
    107c:	37684097          	auipc	ra,0x37684
    1080:	40218133          	sub	sp,gp,sp
    1084:	0062c133          	xor	sp,t0,t1
    1088:	ef40e293          	ori	t0,ra,-268
    108c:	e4b54113          	xori	sp,a0,-437
    1090:	86114313          	xori	t1,sp,-1951
    1094:	b9336093          	ori	ra,t1,-1133
    1098:	ab37f397          	auipc	t2,0xab37f
    109c:	00328333          	add	t1,t0,gp
    10a0:	b90db137          	lui	sp,0xb90db
    10a4:	bb36e193          	ori	gp,a3,-1101
    10a8:	139b5337          	lui	t1,0x139b5
    10ac:	00ed4037          	lui	zero,0xed4
    10b0:	cc11f137          	lui	sp,0xcc11f
    10b4:	2eefa397          	auipc	t2,0x2eefa
    10b8:	b9056117          	auipc	sp,0xb9056
    10bc:	ce826137          	lui	sp,0xce826
    10c0:	63f32117          	auipc	sp,0x63f32
    10c4:	ce6981b7          	lui	gp,0xce698
    10c8:	00110463          	beq	sp,ra,0x10d0
    10cc:	004001ef          	jal	gp,0x10d0
    10d0:	9fae9137          	lui	sp,0x9fae9
    10d4:	3c60e013          	ori	zero,ra,966
    10d8:	0003c133          	xor	sp,t2,zero
    10dc:	26010013          	addi	zero,sp,608 # 0xffffffff9fae9260
    10e0:	d14f8197          	auipc	gp,0xd14f8
    10e4:	0030f233          	and	tp,ra,gp
    10e8:	00217233          	and	tp,sp,sp
    10ec:	b65162b7          	lui	t0,0xb6516
    10f0:	e9b16113          	ori	sp,sp,-357
    10f4:	ded36113          	ori	sp,t1,-531
    10f8:	ee838013          	addi	zero,t2,-280 # 0x2eefaf9c
    10fc:	6be4c0b7          	lui	ra,0x6be4c
    1100:	402182b3          	sub	t0,gp,sp
    1104:	091be197          	auipc	gp,0x91be
    1108:	b2510193          	addi	gp,sp,-1243
    110c:	40118233          	sub	tp,gp,ra
    1110:	0020f0b3          	and	ra,ra,sp
    1114:	c32de137          	lui	sp,0xc32de
    1118:	45b200b7          	lui	ra,0x45b20
    111c:	d864c113          	xori	sp,s1,-634
    1120:	67961397          	auipc	t2,0x67961
    1124:	21ce4117          	auipc	sp,0x21ce4
    1128:	64f50197          	auipc	gp,0x64f50
    112c:	003200b3          	add	ra,tp,gp
    1130:	001080b3          	add	ra,ra,ra
    1134:	50f17793          	andi	a5,sp,1295
    1138:	c8296097          	auipc	ra,0xc8296
    113c:	fdd06117          	auipc	sp,0xfdd06
    1140:	7aa8b0b7          	lui	ra,0x7aa8b
    1144:	76f180b7          	lui	ra,0x76f18
    1148:	e7108393          	addi	t2,ra,-399 # 0x76f17e71
    114c:	0032c0b3          	xor	ra,t0,gp
    1150:	0f5801b7          	lui	gp,0xf580
    1154:	2483e313          	ori	t1,t2,584
    1158:	db60a137          	lui	sp,0xdb60a
    115c:	2568b117          	auipc	sp,0x2568b
    1160:	00000097          	auipc	ra,0x0
    1164:	3ec08ee7          	jalr	t4,1004(ra) # 0x154c
    1168:	ad841117          	auipc	sp,0xad841
    116c:	1a414113          	xori	sp,sp,420
    1170:	8340d297          	auipc	t0,0x8340d
    1174:	e0e37593          	andi	a1,t1,-498
    1178:	27f18193          	addi	gp,gp,639 # 0xf58027f
    117c:	928f0137          	lui	sp,0x928f0
    1180:	197cd0b7          	lui	ra,0x197cd
    1184:	671893b7          	lui	t2,0x67189
    1188:	85a201b7          	lui	gp,0x85a20
    118c:	8b5b6197          	auipc	gp,0x8b5b6
    1190:	00f300b3          	add	ra,t1,a5
    1194:	002087b3          	add	a5,ra,sp
    1198:	f99c6117          	auipc	sp,0xf99c6
    119c:	64d4d197          	auipc	gp,0x64d4d
    11a0:	b596e017          	auipc	zero,0xb596e
    11a4:	3e1103b7          	lui	t2,0x3e110
    11a8:	df5801b7          	lui	gp,0xdf580
    11ac:	48c902b7          	lui	t0,0x48c90
    11b0:	3be82097          	auipc	ra,0x3be82
    11b4:	0010f133          	and	sp,ra,ra
    11b8:	0022e1b3          	or	gp,t0,sp
    11bc:	e90d1017          	auipc	zero,0xe90d1
    11c0:	a35a0017          	auipc	zero,0xa35a0
    11c4:	c6506093          	ori	ra,zero,-923
    11c8:	db954117          	auipc	sp,0xdb954
    11cc:	95f36093          	ori	ra,t1,-1697
    11d0:	dd114c93          	xori	s9,sp,-559
    11d4:	1c408193          	addi	gp,ra,452 # 0x3be83374
    11d8:	b7300337          	lui	t1,0xb7300
    11dc:	66216093          	ori	ra,sp,1634
    11e0:	402380b3          	sub	ra,t2,sp
    11e4:	c0c1f113          	andi	sp,gp,-1012
    11e8:	40708233          	sub	tp,ra,t2
    11ec:	00000097          	auipc	ra,0x0
    11f0:	e58080e7          	jalr	-424(ra) # 0x1044
    11f4:	9b5991b7          	lui	gp,0x9b599
    11f8:	60e07093          	andi	ra,zero,1550
    11fc:	7ae9c0b7          	lui	ra,0x7ae9c
    1200:	00198033          	add	zero,s3,ra
    1204:	40110133          	sub	sp,sp,ra
    1208:	40608133          	sub	sp,ra,t1
    120c:	000480b3          	add	ra,s1,zero
    1210:	bde18193          	addi	gp,gp,-1058 # 0xffffffff9b598bde
    1214:	1ee96137          	lui	sp,0x1ee96
    1218:	feb6d317          	auipc	t1,0xfeb6d
    121c:	0022f133          	and	sp,t0,sp
    1220:	403f00b3          	sub	ra,t5,gp
    1224:	f8d1c213          	xori	tp,gp,-115
    1228:	00237133          	and	sp,t1,sp
    122c:	0b41f113          	andi	sp,gp,180
    1230:	4b810093          	addi	ra,sp,1208 # 0x1ee964b8
    1234:	425cd337          	lui	t1,0x425cd
    1238:	2e208093          	addi	ra,ra,738 # 0x7ae9c2e2
    123c:	0010f3b3          	and	t2,ra,ra
    1240:	c38871b7          	lui	gp,0xc3887
    1244:	b9f16093          	ori	ra,sp,-1121
    1248:	fa01e293          	ori	t0,gp,-96
    124c:	001166b3          	or	a3,sp,ra
    1250:	22765d97          	auipc	s11,0x22765
    1254:	41d002b3          	neg	t0,t4
    1258:	6d417113          	andi	sp,sp,1748
    125c:	812a9117          	auipc	sp,0x812a9
    1260:	92156137          	lui	sp,0x92156
    1264:	0001f133          	and	sp,gp,zero
    1268:	dd03aa17          	auipc	s4,0xdd03a
    126c:	a63088e3          	beq	ra,gp,0xcdc
    1270:	a6dff1ef          	jal	gp,0xcdc
    1274:	40308133          	sub	sp,ra,gp
    1278:	0010c3b3          	xor	t2,ra,ra
    127c:	2541c193          	xori	gp,gp,596
    1280:	be9f5097          	auipc	ra,0xbe9f5
    1284:	2666b097          	auipc	ra,0x2666b
    1288:	2910e193          	ori	gp,ra,657
    128c:	a810e137          	lui	sp,0xa810e
    1290:	50057137          	lui	sp,0x50057
    1294:	ab7d9217          	auipc	tp,0xab7d9
    1298:	7d7a00b7          	lui	ra,0x7d7a0
    129c:	9b834113          	xori	sp,t1,-1608
    12a0:	6c517113          	andi	sp,sp,1733
    12a4:	bd03b117          	auipc	sp,0xbd03b
    12a8:	06776137          	lui	sp,0x6776
    12ac:	0027e0b3          	or	ra,a5,sp
    12b0:	5df1f293          	andi	t0,gp,1503
    12b4:	0031c1b3          	xor	gp,gp,gp
    12b8:	ded2a237          	lui	tp,0xded2a
    12bc:	7fa8f217          	auipc	tp,0x7fa8f
    12c0:	b98f41b7          	lui	gp,0xb98f4
    12c4:	005160b3          	or	ra,sp,t0
    12c8:	feb003b7          	lui	t2,0xfeb00
    12cc:	8a37b1b7          	lui	gp,0x8a37b
    12d0:	0204c1b7          	lui	gp,0x204c
    12d4:	f1d15137          	lui	sp,0xf1d15
    12d8:	c7118113          	addi	sp,gp,-911 # 0x204bc71
    12dc:	a1965137          	lui	sp,0xa1965
    12e0:	e7720097          	auipc	ra,0xe7720
    12e4:	0020c1b3          	xor	gp,ra,sp
    12e8:	5d5e9097          	auipc	ra,0x5d5e9
    12ec:	7c509117          	auipc	sp,0x7c509
    12f0:	342f0597          	auipc	a1,0x342f0
    12f4:	6951c113          	xori	sp,gp,1685
    12f8:	407201b3          	sub	gp,tp,t2
    12fc:	00018213          	mv	tp,gp
    1300:	36320a63          	beq	tp,gp,0x1674
    1304:	0020c033          	xor	zero,ra,sp
    1308:	40230133          	sub	sp,t1,sp
    130c:	a8f34097          	auipc	ra,0xa8f34
    1310:	6d59d117          	auipc	sp,0x6d59d
    1314:	cb73c193          	xori	gp,t2,-841
    1318:	005183b3          	add	t2,gp,t0
    131c:	0041c1b3          	xor	gp,gp,tp
    1320:	0021f0b3          	and	ra,gp,sp
    1324:	401101b3          	sub	gp,sp,ra
    1328:	0060e1b3          	or	gp,ra,t1
    132c:	3f2a4093          	xori	ra,s4,1010
    1330:	865cf1b7          	lui	gp,0x865cf
    1334:	513760b7          	lui	ra,0x51376
    1338:	5fabe097          	auipc	ra,0x5fabe
    133c:	001161b3          	or	gp,sp,ra
    1340:	401180b3          	sub	ra,gp,ra
    1344:	c7f220b7          	lui	ra,0xc7f22
    1348:	0030e133          	or	sp,ra,gp
    134c:	c1e24097          	auipc	ra,0xc1e24
    1350:	7a36c393          	xori	t2,a3,1955
    1354:	7f0480b7          	lui	ra,0x7f048
    1358:	002061b3          	or	gp,zero,sp
    135c:	8ff10093          	addi	ra,sp,-1793 # 0x6d59dc0f
    1360:	0010e0b3          	or	ra,ra,ra
    1364:	3b4cc193          	xori	gp,s9,948
    1368:	5db1c097          	auipc	ra,0x5db1c
    136c:	00b17333          	and	t1,sp,a1
    1370:	40318133          	sub	sp,gp,gp
    1374:	389b0137          	lui	sp,0x389b0
    1378:	3c308193          	addi	gp,ra,963 # 0x5db1d72b
    137c:	40610133          	sub	sp,sp,t1
    1380:	ae20c193          	xori	gp,ra,-1310
    1384:	855ea137          	lui	sp,0x855ea
    1388:	00010193          	mv	gp,sp
    138c:	c22180e3          	beq	gp,sp,0xfac
    1390:	0041c1b3          	xor	gp,gp,tp
    1394:	0010e133          	or	sp,ra,ra
    1398:	ef190297          	auipc	t0,0xef190
    139c:	c962f193          	andi	gp,t0,-874
    13a0:	003471b3          	and	gp,s0,gp
    13a4:	26f0ce93          	xori	t4,ra,623
    13a8:	00116333          	or	t1,sp,ra
    13ac:	39200137          	lui	sp,0x39200
    13b0:	b7b26093          	ori	ra,tp,-1157
    13b4:	739641b7          	lui	gp,0x73964
    13b8:	00317033          	and	zero,sp,gp
    13bc:	712800b7          	lui	ra,0x71280
    13c0:	00416133          	or	sp,sp,tp
    13c4:	00b0e9b3          	or	s3,ra,a1
    13c8:	0010c3b3          	xor	t2,ra,ra
    13cc:	1a916113          	ori	sp,sp,425
    13d0:	ab8f3137          	lui	sp,0xab8f3
    13d4:	43b01097          	auipc	ra,0x43b01
    13d8:	2c20f093          	andi	ra,ra,706
    13dc:	d7314113          	xori	sp,sp,-653
    13e0:	f5116393          	ori	t2,sp,-175
    13e4:	34937193          	andi	gp,t1,841
    13e8:	4eb5d1b7          	lui	gp,0x4eb5d
    13ec:	32018193          	addi	gp,gp,800 # 0x4eb5d320
    13f0:	0cda40b7          	lui	ra,0xcda4
    13f4:	0031e3b3          	or	t2,gp,gp
    13f8:	bcf19137          	lui	sp,0xbcf19
    13fc:	dc018297          	auipc	t0,0xdc018
    1400:	0cf14137          	lui	sp,0xcf14
    1404:	001161b3          	or	gp,sp,ra
    1408:	403180b3          	sub	ra,gp,gp
    140c:	024a0097          	auipc	ra,0x24a0
    1410:	00030263          	beqz	t1,0x1414
    1414:	fa8ff06f          	j	0xbbc
    1418:	e14f01b7          	lui	gp,0xe14f0
    141c:	48cf7697          	auipc	a3,0x48cf7
    1420:	ee777197          	auipc	gp,0xee777
    1424:	78ebd1b7          	lui	gp,0x78ebd
    1428:	489bb197          	auipc	gp,0x489bb
    142c:	96cad097          	auipc	ra,0x96cad
    1430:	177a6137          	lui	sp,0x177a6
    1434:	b8ecfa17          	auipc	s4,0xb8ecf
    1438:	2c8d3197          	auipc	gp,0x2c8d3
    143c:	50e0e213          	ori	tp,ra,1294
    1440:	009180b3          	add	ra,gp,s1
    1444:	60e52237          	lui	tp,0x60e52
    1448:	315d8117          	auipc	sp,0x315d8
    144c:	f8e5e097          	auipc	ra,0xf8e5e
    1450:	4b767037          	lui	zero,0x4b767
    1454:	e3f89197          	auipc	gp,0xe3f89
    1458:	001082b3          	add	t0,ra,ra
    145c:	7fd7c0b7          	lui	ra,0x7fd7c
    1460:	edd1f193          	andi	gp,gp,-291
    1464:	a381e093          	ori	ra,gp,-1480
    1468:	00214133          	xor	sp,sp,sp
    146c:	7debd237          	lui	tp,0x7debd
    1470:	be2ab097          	auipc	ra,0xbe2ab
    1474:	add17193          	andi	gp,sp,-1315
    1478:	003107b3          	add	a5,sp,gp
    147c:	104ed237          	lui	tp,0x104ed
    1480:	b598f197          	auipc	gp,0xb598f
    1484:	2e518193          	addi	gp,gp,741 # 0xffffffffb5990765
    1488:	3f46b137          	lui	sp,0x3f46b
    148c:	77607013          	andi	zero,zero,1910
    1490:	fb310793          	addi	a5,sp,-77 # 0x3f46afb3
    1494:	0022e1b3          	or	gp,t0,sp
    1498:	672e31b7          	lui	gp,0x672e3
    149c:	06367597          	auipc	a1,0x6367
    14a0:	406180b3          	sub	ra,gp,t1
    14a4:	00008213          	mv	tp,ra
    14a8:	9e1208e3          	beq	tp,ra,0xe98
    14ac:	0031f9b3          	and	s3,gp,gp
    14b0:	4aa1e113          	ori	sp,gp,1194
    14b4:	9df8d197          	auipc	gp,0x9df8d
    14b8:	e9b64137          	lui	sp,0xe9b64
    14bc:	6c03c1b7          	lui	gp,0x6c03c
    14c0:	fbed4097          	auipc	ra,0xfbed4
    14c4:	bcbf8137          	lui	sp,0xbcbf8
    14c8:	2323b037          	lui	zero,0x2323b
    14cc:	003141b3          	xor	gp,sp,gp
    14d0:	0021c1b3          	xor	gp,gp,sp
    14d4:	00308233          	add	tp,ra,gp
    14d8:	9d4ea217          	auipc	tp,0x9d4ea
    14dc:	0020f233          	and	tp,ra,sp
    14e0:	0051f0b3          	and	ra,gp,t0
    14e4:	003177b3          	and	a5,sp,gp
    14e8:	d8f5b117          	auipc	sp,0xd8f5b
    14ec:	04320293          	addi	t0,tp,67 # 0xffffffff9d4eb51b
    14f0:	15cee037          	lui	zero,0x15cee
    14f4:	401183b3          	sub	t2,gp,ra
    14f8:	eee0e193          	ori	gp,ra,-274
    14fc:	327374b7          	lui	s1,0x32737
    1500:	a6d04393          	xori	t2,zero,-1427
    1504:	4a83b137          	lui	sp,0x4a83b
    1508:	1fe48117          	auipc	sp,0x1fe48
    150c:	a3e14093          	xori	ra,sp,-1474
    1510:	6f3bb237          	lui	tp,0x6f3bb
    1514:	00428333          	add	t1,t0,tp
    1518:	e75ff697          	auipc	a3,0xe75ff
    151c:	1b19e1b7          	lui	gp,0x1b19e
    1520:	7a2db097          	auipc	ra,0x7a2db
    1524:	40220133          	sub	sp,tp,sp
    1528:	d3600117          	auipc	sp,0xd3600
    152c:	4b3a0217          	auipc	tp,0x4b3a0
    1530:	a4889197          	auipc	gp,0xa4889
    1534:	a20de197          	auipc	gp,0xa20de
    1538:	007140b3          	xor	ra,sp,t2
    153c:	b5617293          	andi	t0,sp,-1194
    1540:	480e7717          	auipc	a4,0x480e7
    1544:	00068113          	mv	sp,a3
    1548:	ecd108e3          	beq	sp,a3,0x1418
    154c:	0021e233          	or	tp,gp,sp
    1550:	005081b3          	add	gp,ra,t0
    1554:	524ec117          	auipc	sp,0x524ec
    1558:	00308133          	add	sp,ra,gp
    155c:	0160e0b3          	or	ra,ra,s6
    1560:	04c24193          	xori	gp,tp,76
    1564:	f5a7e313          	ori	t1,a5,-166
    1568:	0060e7b3          	or	a5,ra,t1
    156c:	40710033          	sub	zero,sp,t2
    1570:	0661f113          	andi	sp,gp,102
    1574:	d6b1c193          	xori	gp,gp,-661
    1578:	0032c3b3          	xor	t2,t0,gp
    157c:	f8d76f17          	auipc	t5,0xf8d76
    1580:	c97e0117          	auipc	sp,0xc97e0
    1584:	c9918213          	addi	tp,gp,-871 # 0xffffffffa20df1cd
    1588:	cab31317          	auipc	t1,0xcab31
    158c:	003101b3          	add	gp,sp,gp
    1590:	384673b7          	lui	t2,0x38467
    1594:	cbc58393          	addi	t2,a1,-836 # 0x6368158
    1598:	580c32b7          	lui	t0,0x580c3
    159c:	403182b3          	sub	t0,gp,gp
    15a0:	003100b3          	add	ra,sp,gp
    15a4:	bb20a197          	auipc	gp,0xbb20a
    15a8:	f5ee9097          	auipc	ra,0xf5ee9
    15ac:	f2aa2337          	lui	t1,0xf2aa2
    15b0:	ce87c0b7          	lui	ra,0xce87c
    15b4:	0071e033          	or	zero,gp,t2
    15b8:	4a434237          	lui	tp,0x4a434
    15bc:	2167d1b7          	lui	gp,0x2167d
    15c0:	05f08393          	addi	t2,ra,95 # 0xffffffffce87c05f
    15c4:	bfc450b7          	lui	ra,0xbfc45
    15c8:	a0117193          	andi	gp,sp,-1535
    15cc:	0011f1b3          	and	gp,gp,ra
    15d0:	205d82b7          	lui	t0,0x205d8
    15d4:	833ee197          	auipc	gp,0x833ee
    15d8:	1ce671b7          	lui	gp,0x1ce67
    15dc:	c0208ce3          	beq	ra,sp,0x11f4
    15e0:	c15ff1ef          	jal	gp,0x11f4
    15e4:	ea394137          	lui	sp,0xea394
    15e8:	8aa64117          	auipc	sp,0x8aa64
    15ec:	edbc7237          	lui	tp,0xedbc7
    15f0:	9431e113          	ori	sp,gp,-1725
    15f4:	8c12d197          	auipc	gp,0x8c12d
    15f8:	40110133          	sub	sp,sp,ra
    15fc:	96514093          	xori	ra,sp,-1691
    1600:	a8708113          	addi	sp,ra,-1401 # 0xffffffffbfc44a87
    1604:	e9a3d1b7          	lui	gp,0xe9a3d
    1608:	c1a26113          	ori	sp,tp,-998
    160c:	002141b3          	xor	gp,sp,sp
    1610:	2dd14213          	xori	tp,sp,733
    1614:	57c08093          	addi	ra,ra,1404
    1618:	002140b3          	xor	ra,sp,sp
    161c:	7b263597          	auipc	a1,0x7b263
    1620:	ebe0f093          	andi	ra,ra,-322
    1624:	a64bf097          	auipc	ra,0xa64bf
    1628:	0aaed097          	auipc	ra,0xaaed
    162c:	97e97137          	lui	sp,0x97e97
    1630:	d1acf1b7          	lui	gp,0xd1acf
    1634:	c841d997          	auipc	s3,0xc841d
    1638:	10d24137          	lui	sp,0x10d24
    163c:	bf3fc117          	auipc	sp,0xbf3fc
    1640:	bec08197          	auipc	gp,0xbec08
    1644:	0051f1b3          	and	gp,gp,t0
    1648:	f4508113          	addi	sp,ra,-187 # 0xaaee56d
    164c:	0051f3b3          	and	t2,gp,t0
    1650:	e5556317          	auipc	t1,0xe5556
    1654:	73808113          	addi	sp,ra,1848
    1658:	62ddf137          	lui	sp,0x62ddf
    165c:	118da117          	auipc	sp,0x118da
    1660:	73b4e037          	lui	zero,0x73b4e
    1664:	70dc1117          	auipc	sp,0x70dc1
    1668:	43414113          	xori	sp,sp,1076
    166c:	00408263          	beq	ra,tp,0x1670
    1670:	de4ff06f          	j	0xc54
    1674:	c9f08193          	addi	gp,ra,-865
    1678:	65f0f193          	andi	gp,ra,1631
    167c:	f65ad097          	auipc	ra,0xf65ad
    1680:	8a85f193          	andi	gp,a1,-1880
    1684:	1916b1b7          	lui	gp,0x1916b
    1688:	f180c093          	xori	ra,ra,-232
    168c:	0010f1b3          	and	gp,ra,ra
    1690:	27acb137          	lui	sp,0x27acb
    1694:	ec1e3037          	lui	zero,0xec1e3
    1698:	0001e2b3          	or	t0,gp,zero
    169c:	31bdc093          	xori	ra,s11,795
    16a0:	498df1b7          	lui	gp,0x498df
    16a4:	fddb6797          	auipc	a5,0xfddb6
    16a8:	4830f093          	andi	ra,ra,1155
    16ac:	cbd25217          	auipc	tp,0xcbd25
    16b0:	99ece117          	auipc	sp,0x99ece
    16b4:	b81df0b7          	lui	ra,0xb81df
    16b8:	4bd07213          	andi	tp,zero,1213
    16bc:	835c9337          	lui	t1,0x835c9
    16c0:	78a0c293          	xori	t0,ra,1930
    16c4:	952b9a97          	auipc	s5,0x952b9
    16c8:	f2d78117          	auipc	sp,0xf2d78
    16cc:	93f2d1b7          	lui	gp,0x93f2d
    16d0:	b3c840b7          	lui	ra,0xb3c84
    16d4:	06e67117          	auipc	sp,0x6e67
    16d8:	001141b3          	xor	gp,sp,ra
    16dc:	389a6097          	auipc	ra,0x389a6
    16e0:	4c3e6217          	auipc	tp,0x4c3e6
    16e4:	e3fb50b7          	lui	ra,0xe3fb5
    16e8:	93cfd237          	lui	tp,0x93cfd
    16ec:	d984e697          	auipc	a3,0xd984e
    16f0:	94118a93          	addi	s5,gp,-1727 # 0xffffffff93f2c941
    16f4:	8c536293          	ori	t0,t1,-1851
    16f8:	9a68d337          	lui	t1,0x9a68d
    16fc:	001362b3          	or	t0,t1,ra
    1700:	74418093          	addi	ra,gp,1860
    1704:	7fb20113          	addi	sp,tp,2043 # 0xffffffff93cfd7fb
    1708:	00030113          	mv	sp,t1
    170c:	be610ce3          	beq	sp,t1,0x1304
    1710:	403180b3          	sub	ra,gp,gp
    1714:	9c7f7237          	lui	tp,0x9c7f7
    1718:	88b17113          	andi	sp,sp,-1909
    171c:	4b3cf117          	auipc	sp,0x4b3cf
    1720:	d86871b7          	lui	gp,0xd8687
    1724:	0031c2b3          	xor	t0,gp,gp
    1728:	6e1802b7          	lui	t0,0x6e180
    172c:	8d81f113          	andi	sp,gp,-1832
    1730:	ca4bf137          	lui	sp,0xca4bf
    1734:	74101197          	auipc	gp,0x74101
    1738:	7929b097          	auipc	ra,0x7929b
    173c:	8e718013          	addi	zero,gp,-1817 # 0x7410201b
    1740:	d340e193          	ori	gp,ra,-716
    1744:	cfb68297          	auipc	t0,0xcfb68
    1748:	b160e193          	ori	gp,ra,-1258
    174c:	d0d08193          	addi	gp,ra,-755 # 0x7929c445
    1750:	fdf68117          	auipc	sp,0xfdf68
    1754:	648717b7          	lui	a5,0x64871
    1758:	80e07093          	andi	ra,zero,-2034
    175c:	29543097          	auipc	ra,0x29543
    1760:	2af8f317          	auipc	t1,0x2af8f
    1764:	01f06417          	auipc	s0,0x1f06
    1768:	40208133          	sub	sp,ra,sp
    176c:	00227233          	and	tp,tp,sp
    1770:	003102b3          	add	t0,sp,gp
    1774:	6aa18093          	addi	ra,gp,1706
    1778:	0010e133          	or	sp,ra,ra
    177c:	cf01c113          	xori	sp,gp,-784
    1780:	f3508113          	addi	sp,ra,-203 # 0x29544691
    1784:	aa8c8137          	lui	sp,0xaa8c8
    1788:	14aad1b7          	lui	gp,0x14aad
    178c:	5c230113          	addi	sp,t1,1474 # 0x2af90d22
    1790:	58618463          	beq	gp,t1,0x1d18
    1794:	58400eef          	jal	t4,0x1d18
    1798:	48aad137          	lui	sp,0x48aad
    179c:	99bfd297          	auipc	t0,0x99bfd
    17a0:	cc84f237          	lui	tp,0xcc84f
    17a4:	002160b3          	or	ra,sp,sp
    17a8:	16e398b7          	lui	a7,0x16e39
    17ac:	003140b3          	xor	ra,sp,gp
    17b0:	c1533197          	auipc	gp,0xc1533
    17b4:	0031e1b3          	or	gp,gp,gp
    17b8:	40208033          	sub	zero,ra,sp
    17bc:	246a1117          	auipc	sp,0x246a1
    17c0:	f8d845b7          	lui	a1,0xf8d84
    17c4:	ef7e80b7          	lui	ra,0xef7e8
    17c8:	aeabb6b7          	lui	a3,0xaeabb
    17cc:	7029b1b7          	lui	gp,0x7029b
    17d0:	0091e133          	or	sp,gp,s1
    17d4:	8b118317          	auipc	t1,0x8b118
    17d8:	002172b3          	and	t0,sp,sp
    17dc:	ea3d8197          	auipc	gp,0xea3d8
    17e0:	e5af4017          	auipc	zero,0xe5af4
    17e4:	114a8117          	auipc	sp,0x114a8
    17e8:	0350e113          	ori	sp,ra,53
    17ec:	8b9901b7          	lui	gp,0x8b990
    17f0:	aa01c037          	lui	zero,0xaa01c
    17f4:	f3a1e113          	ori	sp,gp,-198
    17f8:	6cb211b7          	lui	gp,0x6cb21
    17fc:	2aeac117          	auipc	sp,0x2aeac
    1800:	0030f233          	and	tp,ra,gp
    1804:	0040c0b3          	xor	ra,ra,tp
    1808:	406086b3          	sub	a3,ra,t1
    180c:	99f18193          	addi	gp,gp,-1633 # 0x6cb2099f
    1810:	338c1097          	auipc	ra,0x338c1
    1814:	25d1f293          	andi	t0,gp,605
    1818:	0681e113          	ori	sp,gp,104
    181c:	00308263          	beq	ra,gp,0x1820
    1820:	205000ef          	jal	ra,0x2224
    1824:	c7775197          	auipc	gp,0xc7775
    1828:	002100b3          	add	ra,sp,sp
    182c:	70e10193          	addi	gp,sp,1806 # 0x2aeadf0a
    1830:	bd47a1b7          	lui	gp,0xbd47a
    1834:	2dd16313          	ori	t1,sp,733
    1838:	00118133          	add	sp,gp,ra
    183c:	402102b3          	sub	t0,sp,sp
    1840:	e83e5497          	auipc	s1,0xe83e5
    1844:	006361b3          	or	gp,t1,t1
    1848:	0020e1b3          	or	gp,ra,sp
    184c:	416a0117          	auipc	sp,0x416a0
    1850:	68c1e113          	ori	sp,gp,1676
    1854:	0033e1b3          	or	gp,t2,gp
    1858:	002171b3          	and	gp,sp,sp
    185c:	406480b3          	sub	ra,s1,t1
    1860:	40110233          	sub	tp,sp,ra
    1864:	de9230b7          	lui	ra,0xde923
    1868:	5241c293          	xori	t0,gp,1316
    186c:	003060b3          	or	ra,zero,gp
    1870:	04f16193          	ori	gp,sp,79
    1874:	00118133          	add	sp,gp,ra
    1878:	53057117          	auipc	sp,0x53057
    187c:	b55100b7          	lui	ra,0xb5510
    1880:	f242e093          	ori	ra,t0,-220
    1884:	84930197          	auipc	gp,0x84930
    1888:	5237d197          	auipc	gp,0x5237d
    188c:	7865f313          	andi	t1,a1,1926
    1890:	a8110193          	addi	gp,sp,-1407 # 0x530582f9
    1894:	77e1f193          	andi	gp,gp,1918
    1898:	00316233          	or	tp,sp,gp
    189c:	b0e26013          	ori	zero,tp,-1266
    18a0:	4ff66e37          	lui	t3,0x4ff66
    18a4:	00000393          	li	t2,0
    18a8:	2c038e63          	beqz	t2,0x1b84
    18ac:	110fd2b7          	lui	t0,0x110fd
    18b0:	3a5931b7          	lui	gp,0x3a593
    18b4:	5f80c313          	xori	t1,ra,1528
    18b8:	000141b3          	xor	gp,sp,zero
    18bc:	6ee16113          	ori	sp,sp,1774
    18c0:	0030f133          	and	sp,ra,gp
    18c4:	f690c113          	xori	sp,ra,-151
    18c8:	d6199097          	auipc	ra,0xd6199
    18cc:	06d17297          	auipc	t0,0x6d17
    18d0:	f737f097          	auipc	ra,0xf737f
    18d4:	45f14313          	xori	t1,sp,1119
    18d8:	b1e1e093          	ori	ra,gp,-1250
    18dc:	18e6f1b7          	lui	gp,0x18e6f
    18e0:	0d1cb137          	lui	sp,0xd1cb
    18e4:	00008133          	add	sp,ra,zero
    18e8:	650a9117          	auipc	sp,0x650a9
    18ec:	27017293          	andi	t0,sp,624
    18f0:	00310233          	add	tp,sp,gp
    18f4:	003d80b3          	add	ra,s11,gp
    18f8:	49644137          	lui	sp,0x49644
    18fc:	74143097          	auipc	ra,0x74143
    1900:	30d7a097          	auipc	ra,0x30d7a
    1904:	89165317          	auipc	t1,0x89165
    1908:	0836f1b7          	lui	gp,0x836f
    190c:	001140b3          	xor	ra,sp,ra
    1910:	b47f4197          	auipc	gp,0xb47f4
    1914:	49704093          	xori	ra,zero,1175
    1918:	ca144137          	lui	sp,0xca144
    191c:	afff9117          	auipc	sp,0xafff9
    1920:	57ae0197          	auipc	gp,0x57ae0
    1924:	403101b3          	sub	gp,sp,gp
    1928:	968db117          	auipc	sp,0x968db
    192c:	48e18113          	addi	sp,gp,1166 # 0x57ae1dae
    1930:	dc7b40b7          	lui	ra,0xdc7b4
    1934:	00214833          	xor	a6,sp,sp
    1938:	00000197          	auipc	gp,0x0
    193c:	2e818367          	jalr	t1,744(gp) # 0x1c20
    1940:	01f171b3          	and	gp,sp,t6
    1944:	1ac960b7          	lui	ra,0x1ac96
    1948:	11e1e093          	ori	ra,gp,286
    194c:	fadac017          	auipc	zero,0xfadac
    1950:	0020c0b3          	xor	ra,ra,sp
    1954:	9c0bd097          	auipc	ra,0x9c0bd
    1958:	6b05c0b7          	lui	ra,0x6b05c
    195c:	6b817113          	andi	sp,sp,1720
    1960:	0021c2b3          	xor	t0,gp,sp
    1964:	5cd20317          	auipc	t1,0x5cd20
    1968:	3787f337          	lui	t1,0x3787f
    196c:	ac0f4037          	lui	zero,0xac0f4
    1970:	e649a137          	lui	sp,0xe649a
    1974:	ffbdc137          	lui	sp,0xffbdc
    1978:	413181b3          	sub	gp,gp,s3
    197c:	00257e33          	and	t3,a0,sp
    1980:	865fa3b7          	lui	t2,0x865fa
    1984:	0010c0b3          	xor	ra,ra,ra
    1988:	00216133          	or	sp,sp,sp
    198c:	09438113          	addi	sp,t2,148 # 0xffffffff865fa094
    1990:	ee110137          	lui	sp,0xee110
    1994:	007181b3          	add	gp,gp,t2
    1998:	40110233          	sub	tp,sp,ra
    199c:	06a10393          	addi	t2,sp,106 # 0xffffffffee11006a
    19a0:	0020c1b3          	xor	gp,ra,sp
    19a4:	f161c193          	xori	gp,gp,-234
    19a8:	c980c213          	xori	tp,ra,-872
    19ac:	6b71c093          	xori	ra,gp,1719
    19b0:	a4cee117          	auipc	sp,0xa4cee
    19b4:	f142c293          	xori	t0,t0,-236
    19b8:	f76d3117          	auipc	sp,0xf76d3
    19bc:	ffdc00b7          	lui	ra,0xffdc0
    19c0:	003081b3          	add	gp,ra,gp
    19c4:	08ef1197          	auipc	gp,0x8ef1
    19c8:	e4110ee3          	beq	sp,ra,0x1824
    19cc:	e59ff1ef          	jal	gp,0x1824
    19d0:	dc110097          	auipc	ra,0xdc110
    19d4:	84c3f113          	andi	sp,t2,-1972
    19d8:	006004b3          	add	s1,zero,t1
    19dc:	98e08213          	addi	tp,ra,-1650 # 0xffffffffdc11135e
    19e0:	08f14193          	xori	gp,sp,143
    19e4:	db56c1b7          	lui	gp,0xdb56c
    19e8:	003381b3          	add	gp,t2,gp
    19ec:	ce617113          	andi	sp,sp,-794
    19f0:	5a217713          	andi	a4,sp,1442
    19f4:	7ca1c097          	auipc	ra,0x7ca1c
    19f8:	0031e133          	or	sp,gp,gp
    19fc:	bf51c293          	xori	t0,gp,-1035
    1a00:	402101b3          	sub	gp,sp,sp
    1a04:	b3808117          	auipc	sp,0xb3808
    1a08:	001100b3          	add	ra,sp,ra
    1a0c:	8600fa13          	andi	s4,ra,-1952
    1a10:	67d56197          	auipc	gp,0x67d56
    1a14:	076fa137          	lui	sp,0x76fa
    1a18:	df3d1117          	auipc	sp,0xdf3d1
    1a1c:	c5d16013          	ori	zero,sp,-931
    1a20:	001170b3          	and	ra,sp,ra
    1a24:	b5ef70b7          	lui	ra,0xb5ef7
    1a28:	d6225237          	lui	tp,0xd6225
    1a2c:	0cccccb7          	lui	s9,0xcccc
    1a30:	c747f0b7          	lui	ra,0xc747f
    1a34:	105c3097          	auipc	ra,0x105c3
    1a38:	001160b3          	or	ra,sp,ra
    1a3c:	402781b3          	sub	gp,a5,sp
    1a40:	e85eb2b7          	lui	t0,0xe85eb
    1a44:	50db9197          	auipc	gp,0x50db9
    1a48:	9df14113          	xori	sp,sp,-1569
    1a4c:	cca17113          	andi	sp,sp,-822
    1a50:	00214133          	xor	sp,sp,sp
    1a54:	5f4f3117          	auipc	sp,0x5f4f3
    1a58:	6f7d23b7          	lui	t2,0x6f7d2
    1a5c:	6f4711b7          	lui	gp,0x6f471
    1a60:	00018193          	mv	gp,gp
    1a64:	0a318263          	beq	gp,gp,0x1b08
    1a68:	004163b3          	or	t2,sp,tp
    1a6c:	003173b3          	and	t2,sp,gp
    1a70:	711af1b7          	lui	gp,0x711af
    1a74:	a89483b7          	lui	t2,0xa8948
    1a78:	46914097          	auipc	ra,0x46914
    1a7c:	00b0edb3          	or	s11,ra,a1
    1a80:	b2a2a117          	auipc	sp,0xb2a2a
    1a84:	a0cec0b7          	lui	ra,0xa0cec
    1a88:	404100b3          	sub	ra,sp,tp
    1a8c:	a4ee4497          	auipc	s1,0xa4ee4
    1a90:	b2106113          	ori	sp,zero,-1247
    1a94:	808a72b7          	lui	t0,0x808a7
    1a98:	15c27097          	auipc	ra,0x15c27
    1a9c:	1241e013          	ori	zero,gp,292
    1aa0:	402180b3          	sub	ra,gp,sp
    1aa4:	4d09b037          	lui	zero,0x4d09b
    1aa8:	00318333          	add	t1,gp,gp
    1aac:	a8d39117          	auipc	sp,0xa8d39
    1ab0:	4509d217          	auipc	tp,0x4509d
    1ab4:	e60d90b7          	lui	ra,0xe60d9
    1ab8:	7f6633b7          	lui	t2,0x7f663
    1abc:	ce1401b7          	lui	gp,0xce140
    1ac0:	04c3c113          	xori	sp,t2,76
    1ac4:	9d8ca137          	lui	sp,0x9d8ca
    1ac8:	2791f213          	andi	tp,gp,633
    1acc:	53097097          	auipc	ra,0x53097
    1ad0:	0bc8e1b7          	lui	gp,0xbc8e
    1ad4:	c061c193          	xori	gp,gp,-1018
    1ad8:	0040e1b3          	or	gp,ra,tp
    1adc:	33ad42b7          	lui	t0,0x33ad4
    1ae0:	0040f0b3          	and	ra,ra,tp
    1ae4:	002073b3          	and	t2,zero,sp
    1ae8:	1d8461b7          	lui	gp,0x1d846
    1aec:	00218333          	add	t1,gp,sp
    1af0:	0040e133          	or	sp,ra,tp
    1af4:	660892b7          	lui	t0,0x66089
    1af8:	6fe3c137          	lui	sp,0x6fe3c
    1afc:	8fe470b7          	lui	ra,0x8fe47
    1b00:	00000097          	auipc	ra,0x0
    1b04:	320080e7          	jalr	800(ra) # 0x1e20
    1b08:	0028e1b3          	or	gp,a7,sp
    1b0c:	1f616093          	ori	ra,sp,502
    1b10:	ae9cc117          	auipc	sp,0xae9cc
    1b14:	95711197          	auipc	gp,0x95711
    1b18:	0000c1b3          	xor	gp,ra,zero
    1b1c:	0011e133          	or	sp,gp,ra
    1b20:	00214233          	xor	tp,sp,sp
    1b24:	9d534113          	xori	sp,t1,-1579
    1b28:	5c6b2117          	auipc	sp,0x5c6b2
    1b2c:	7104b137          	lui	sp,0x7104b
    1b30:	02114113          	xori	sp,sp,33
    1b34:	42d1e193          	ori	gp,gp,1069
    1b38:	d273a197          	auipc	gp,0xd273a
    1b3c:	7471c9b7          	lui	s3,0x7471c
    1b40:	b0b050b7          	lui	ra,0xb0b05
    1b44:	6e38c197          	auipc	gp,0x6e38c
    1b48:	004280b3          	add	ra,t0,tp
    1b4c:	571c6117          	auipc	sp,0x571c6
    1b50:	7ec0f093          	andi	ra,ra,2028
    1b54:	f3727a97          	auipc	s5,0xf3727
    1b58:	3e26d097          	auipc	ra,0x3e26d
    1b5c:	4bf29137          	lui	sp,0x4bf29
    1b60:	386d33b7          	lui	t2,0x386d3
    1b64:	5050f093          	andi	ra,ra,1285
    1b68:	05a610b7          	lui	ra,0x5a61
    1b6c:	7afe8217          	auipc	tp,0x7afe8
    1b70:	3c618093          	addi	ra,gp,966 # 0x6e38df0a
    1b74:	fd233117          	auipc	sp,0xfd233
    1b78:	d887c137          	lui	sp,0xd887c
    1b7c:	00000117          	auipc	sp,0x0
    1b80:	118100e7          	jalr	280(sp) # 0x1c94
    1b84:	35352097          	auipc	ra,0x35352
    1b88:	dde0f093          	andi	ra,ra,-546
    1b8c:	001102b3          	add	t0,sp,ra
    1b90:	4a6d0017          	auipc	zero,0x4a6d0
    1b94:	22f23117          	auipc	sp,0x22f23
    1b98:	72c27193          	andi	gp,tp,1836
    1b9c:	003680b3          	add	ra,a3,gp
    1ba0:	31674137          	lui	sp,0x31674
    1ba4:	0011f1b3          	and	gp,gp,ra
    1ba8:	eefb4117          	auipc	sp,0xeefb4
    1bac:	12f39317          	auipc	t1,0x12f39
    1bb0:	003be0b3          	or	ra,s7,gp
    1bb4:	0b4d7197          	auipc	gp,0xb4d7
    1bb8:	6fe63137          	lui	sp,0x6fe63
    1bbc:	4290c113          	xori	sp,ra,1065
    1bc0:	81750097          	auipc	ra,0x81750
    1bc4:	0031f333          	and	t1,gp,gp
    1bc8:	0800e037          	lui	zero,0x800e
    1bcc:	f95a6137          	lui	sp,0xf95a6
    1bd0:	9f655097          	auipc	ra,0x9f655
    1bd4:	40320133          	sub	sp,tp,gp
    1bd8:	02df2297          	auipc	t0,0x2df2
    1bdc:	4a64c197          	auipc	gp,0x4a64c
    1be0:	46008393          	addi	t2,ra,1120 # 0xffffffff9f657030
    1be4:	0031e5b3          	or	a1,gp,gp
    1be8:	43c08093          	addi	ra,ra,1084
    1bec:	00218333          	add	t1,gp,sp
    1bf0:	78926097          	auipc	ra,0x78926
    1bf4:	00010033          	add	zero,sp,zero
    1bf8:	bb814093          	xori	ra,sp,-1096
    1bfc:	40310133          	sub	sp,sp,gp
    1c00:	71a0e113          	ori	sp,ra,1818
    1c04:	00137133          	and	sp,t1,ra
    1c08:	22c91437          	lui	s0,0x22c91
    1c0c:	1801f293          	andi	t0,gp,384
    1c10:	2b21f093          	andi	ra,gp,690
    1c14:	a67430b7          	lui	ra,0xa6743
    1c18:	58110263          	beq	sp,ra,0x219c
    1c1c:	5800016f          	jal	sp,0x219c
    1c20:	bdd09137          	lui	sp,0xbdd09
    1c24:	7021b2b7          	lui	t0,0x7021b
    1c28:	0022c5b3          	xor	a1,t0,sp
    1c2c:	96a3e113          	ori	sp,t2,-1686
    1c30:	7d41d3b7          	lui	t2,0x7d41d
    1c34:	d818c1b7          	lui	gp,0xd818c
    1c38:	7e52c117          	auipc	sp,0x7e52c
    1c3c:	401100b3          	sub	ra,sp,ra
    1c40:	bdbd8d17          	auipc	s10,0xbdbd8
    1c44:	a1548137          	lui	sp,0xa1548
    1c48:	b4526693          	ori	a3,tp,-1211
    1c4c:	ead17193          	andi	gp,sp,-339
    1c50:	0010e0b3          	or	ra,ra,ra
    1c54:	42be6097          	auipc	ra,0x42be6
    1c58:	00a181b3          	add	gp,gp,a0
    1c5c:	00210333          	add	t1,sp,sp
    1c60:	4e713117          	auipc	sp,0x4e713
    1c64:	3c4e0d37          	lui	s10,0x3c4e0
    1c68:	caa14113          	xori	sp,sp,-854
    1c6c:	002100b3          	add	ra,sp,sp
    1c70:	cce17193          	andi	gp,sp,-818
    1c74:	e668e213          	ori	tp,a7,-410
    1c78:	51614113          	xori	sp,sp,1302
    1c7c:	74527193          	andi	gp,tp,1861
    1c80:	8e7f0097          	auipc	ra,0x8e7f0
    1c84:	2fff6097          	auipc	ra,0x2fff6
    1c88:	c9310093          	addi	ra,sp,-877 # 0x4e7148f3
    1c8c:	00000197          	auipc	gp,0x0
    1c90:	2c418367          	jalr	t1,708(gp) # 0x1f50
    1c94:	402186b3          	sub	a3,gp,sp
    1c98:	18f35137          	lui	sp,0x18f35
    1c9c:	9c19e117          	auipc	sp,0x9c19e
    1ca0:	b8316393          	ori	t2,sp,-1149
    1ca4:	0034e133          	or	sp,s1,gp
    1ca8:	0031f1b3          	and	gp,gp,gp
    1cac:	61825137          	lui	sp,0x61825
    1cb0:	0354a097          	auipc	ra,0x354a
    1cb4:	35f8f197          	auipc	gp,0x35f8f
    1cb8:	4b4c4197          	auipc	gp,0x4b4c4
    1cbc:	000171b3          	and	gp,sp,zero
    1cc0:	ef838193          	addi	gp,t2,-264 # 0x7d41cef8
    1cc4:	bee76237          	lui	tp,0xbee76
    1cc8:	00234133          	xor	sp,t1,sp
    1ccc:	57a27293          	andi	t0,tp,1402
    1cd0:	4bd6b1b7          	lui	gp,0x4bd6b
    1cd4:	40508133          	sub	sp,ra,t0
    1cd8:	40318033          	sub	zero,gp,gp
    1cdc:	a9636397          	auipc	t2,0xa9636
    1ce0:	fa34f093          	andi	ra,s1,-93
    1ce4:	38b94113          	xori	sp,s2,907
    1ce8:	40108233          	sub	tp,ra,ra
    1cec:	4378e217          	auipc	tp,0x4378e
    1cf0:	e84cf697          	auipc	a3,0xe84cf
    1cf4:	0e147397          	auipc	t2,0xe147
    1cf8:	c8fb50b7          	lui	ra,0xc8fb5
    1cfc:	7445a417          	auipc	s0,0x7445a
    1d00:	d801c113          	xori	sp,gp,-640
    1d04:	f720e093          	ori	ra,ra,-142
    1d08:	583003b7          	lui	t2,0x58300
    1d0c:	bfc5d337          	lui	t1,0xbfc5d
    1d10:	00000117          	auipc	sp,0x0
    1d14:	08c103e7          	jalr	t2,140(sp) # 0x1d9c
    1d18:	403080b3          	sub	ra,ra,gp
    1d1c:	927216b7          	lui	a3,0x92721
    1d20:	9b41c193          	xori	gp,gp,-1612
    1d24:	003261b3          	or	gp,tp,gp
    1d28:	27929317          	auipc	t1,0x27929
    1d2c:	1da0f117          	auipc	sp,0x1da0f
    1d30:	ef6f7097          	auipc	ra,0xef6f7
    1d34:	00114233          	xor	tp,sp,ra
    1d38:	7856c193          	xori	gp,a3,1925
    1d3c:	97393197          	auipc	gp,0x97393
    1d40:	a8b1c1b7          	lui	gp,0xa8b1c
    1d44:	6271f093          	andi	ra,gp,1575
    1d48:	530a7197          	auipc	gp,0x530a7
    1d4c:	d3295397          	auipc	t2,0xd3295
    1d50:	a2e97197          	auipc	gp,0xa2e97
    1d54:	58e3c113          	xori	sp,t2,1422
    1d58:	0031c1b3          	xor	gp,gp,gp
    1d5c:	001040b3          	xor	ra,zero,ra
    1d60:	79bd61b7          	lui	gp,0x79bd6
    1d64:	1f5531b7          	lui	gp,0x1f553
    1d68:	2736c113          	xori	sp,a3,627
    1d6c:	d6f3e193          	ori	gp,t2,-657
    1d70:	2c348137          	lui	sp,0x2c348
    1d74:	2d145137          	lui	sp,0x2d145
    1d78:	b72de337          	lui	t1,0xb72de
    1d7c:	e9b6f193          	andi	gp,a3,-357
    1d80:	f6a11297          	auipc	t0,0xf6a11
    1d84:	58c590b7          	lui	ra,0x58c59
    1d88:	ce51f093          	andi	ra,gp,-795
    1d8c:	4e114093          	xori	ra,sp,1249
    1d90:	40708133          	sub	sp,ra,t2
    1d94:	ba5106e3          	beq	sp,t0,0x1940
    1d98:	ba9ff1ef          	jal	gp,0x1940
    1d9c:	402e80b3          	sub	ra,t4,sp
    1da0:	002360b3          	or	ra,t1,sp
    1da4:	401080b3          	sub	ra,ra,ra
    1da8:	493310b7          	lui	ra,0x49331
    1dac:	ce936693          	ori	a3,t1,-791
    1db0:	94c18113          	addi	sp,gp,-1716 # 0x1f55294c
    1db4:	c19ea2b7          	lui	t0,0xc19ea
    1db8:	75173117          	auipc	sp,0x75173
    1dbc:	7e2bb0b7          	lui	ra,0x7e2bb
    1dc0:	a8310593          	addi	a1,sp,-1405 # 0x7517483b
    1dc4:	1cd18093          	addi	ra,gp,461
    1dc8:	9ae0e093          	ori	ra,ra,-1618
    1dcc:	e9c7e213          	ori	tp,a5,-356
    1dd0:	0051f1b3          	and	gp,gp,t0
    1dd4:	808e1137          	lui	sp,0x808e1
    1dd8:	99281117          	auipc	sp,0x99281
    1ddc:	22b39197          	auipc	gp,0x22b39
    1de0:	41b590b7          	lui	ra,0x41b59
    1de4:	96f1f193          	andi	gp,gp,-1681
    1de8:	006043b3          	xor	t2,zero,t1
    1dec:	e5218193          	addi	gp,gp,-430 # 0x22b3ac2e
    1df0:	875dd117          	auipc	sp,0x875dd
    1df4:	693362b7          	lui	t0,0x69336
    1df8:	47b08113          	addi	sp,ra,1147 # 0x41b5947b
    1dfc:	687f3837          	lui	a6,0x687f3
    1e00:	002082b3          	add	t0,ra,sp
    1e04:	0091c2b3          	xor	t0,gp,s1
    1e08:	0014f133          	and	sp,s1,ra
    1e0c:	00617133          	and	sp,sp,t1
    1e10:	e8310013          	addi	zero,sp,-381 # 0xffffffff875dec73
    1e14:	006272b3          	and	t0,tp,t1
    1e18:	a8118ae3          	beq	gp,ra,0x18ac
    1e1c:	a91ff46f          	jal	s0,0x18ac
    1e20:	0034c133          	xor	sp,s1,gp
    1e24:	001360b3          	or	ra,t1,ra
    1e28:	c1b1e193          	ori	gp,gp,-997
    1e2c:	009040b3          	xor	ra,zero,s1
    1e30:	a5d610b7          	lui	ra,0xa5d61
    1e34:	b8f1f193          	andi	gp,gp,-1137
    1e38:	003101b3          	add	gp,sp,gp
    1e3c:	006306b3          	add	a3,t1,t1
    1e40:	17eb6137          	lui	sp,0x17eb6
    1e44:	ed2e0197          	auipc	gp,0xed2e0
    1e48:	e1d26393          	ori	t2,tp,-483
    1e4c:	30517013          	andi	zero,sp,773
    1e50:	fba08193          	addi	gp,ra,-70 # 0xffffffffa5d60fba
    1e54:	003271b3          	and	gp,tp,gp
    1e58:	402081b3          	sub	gp,ra,sp
    1e5c:	53f0e113          	ori	sp,ra,1343
    1e60:	218a9197          	auipc	gp,0x218a9
    1e64:	7d76a797          	auipc	a5,0x7d76a
    1e68:	0020e133          	or	sp,ra,sp
    1e6c:	63417293          	andi	t0,sp,1588
    1e70:	72648eb7          	lui	t4,0x72648
    1e74:	a774d737          	lui	a4,0xa774d
    1e78:	6588a117          	auipc	sp,0x6588a
    1e7c:	5b008093          	addi	ra,ra,1456
    1e80:	00446133          	or	sp,s0,tp
    1e84:	40708333          	sub	t1,ra,t2
    1e88:	362bb197          	auipc	gp,0x362bb
    1e8c:	562bc097          	auipc	ra,0x562bc
    1e90:	149bd097          	auipc	ra,0x149bd
    1e94:	b39f9197          	auipc	gp,0xb39f9
    1e98:	ea50a117          	auipc	sp,0xea50a
    1e9c:	4790d0b7          	lui	ra,0x4790d
    1ea0:	a56ed117          	auipc	sp,0xa56ed
    1ea4:	7f3c9137          	lui	sp,0x7f3c9
    1ea8:	401603b3          	sub	t2,a2,ra
    1eac:	00018113          	mv	sp,gp
    1eb0:	12310863          	beq	sp,gp,0x1fe0
    1eb4:	05f1e193          	ori	gp,gp,95
    1eb8:	f126c193          	xori	gp,a3,-238
    1ebc:	0000f1b3          	and	gp,ra,zero
    1ec0:	fc71e293          	ori	t0,gp,-57
    1ec4:	006001b3          	add	gp,zero,t1
    1ec8:	f47161b7          	lui	gp,0xf4716
    1ecc:	ff4aa0b7          	lui	ra,0xff4aa
    1ed0:	e4a94137          	lui	sp,0xe4a94
    1ed4:	40130133          	sub	sp,t1,ra
    1ed8:	ec048097          	auipc	ra,0xec048
    1edc:	03d34db7          	lui	s11,0x3d34
    1ee0:	760ce237          	lui	tp,0x760ce
    1ee4:	5341c193          	xori	gp,gp,1332
    1ee8:	c2e5e2b7          	lui	t0,0xc2e5e
    1eec:	3ca88137          	lui	sp,0x3ca88
    1ef0:	e59a6137          	lui	sp,0xe59a6
    1ef4:	01b1c1b3          	xor	gp,gp,s11
    1ef8:	6ffa1117          	auipc	sp,0x6ffa1
    1efc:	65b1f193          	andi	gp,gp,1627
    1f00:	0033c0b3          	xor	ra,t2,gp
    1f04:	bafcf197          	auipc	gp,0xbafcf
    1f08:	1ed10293          	addi	t0,sp,493 # 0x6ffa30e5
    1f0c:	2d755337          	lui	t1,0x2d755
    1f10:	8ae3c013          	xori	zero,t2,-1874
    1f14:	b5f07213          	andi	tp,zero,-1185
    1f18:	4afeb0b7          	lui	ra,0x4afeb
    1f1c:	b5a0c5b7          	lui	a1,0xb5a0c
    1f20:	00a802b3          	add	t0,a6,a0
    1f24:	555a5137          	lui	sp,0x555a5
    1f28:	00416133          	or	sp,sp,tp
    1f2c:	83826113          	ori	sp,tp,-1992
    1f30:	003165b3          	or	a1,sp,gp
    1f34:	7a4af117          	auipc	sp,0x7a4af
    1f38:	be841217          	auipc	tp,0xbe841
    1f3c:	562ef197          	auipc	gp,0x562ef
    1f40:	c7637793          	andi	a5,t1,-906
    1f44:	6ea00013          	li	zero,1770
    1f48:	00000117          	auipc	sp,0x0
    1f4c:	1bc101e7          	jalr	gp,444(sp) # 0x2104
    1f50:	728911b7          	lui	gp,0x72891
    1f54:	0027e1b3          	or	gp,a5,sp
    1f58:	f754f097          	auipc	ra,0xf754f
    1f5c:	cb34c1b7          	lui	gp,0xcb34c
    1f60:	003141b3          	xor	gp,sp,gp
    1f64:	0071c1b3          	xor	gp,gp,t2
    1f68:	403101b3          	sub	gp,sp,gp
    1f6c:	26f1c793          	xori	a5,gp,623
    1f70:	40118133          	sub	sp,gp,ra
    1f74:	c6e1e213          	ori	tp,gp,-914
    1f78:	015461b7          	lui	gp,0x1546
    1f7c:	bca6f197          	auipc	gp,0xbca6f
    1f80:	775ee0b7          	lui	ra,0x775ee
    1f84:	f61b8097          	auipc	ra,0xf61b8
    1f88:	8c269117          	auipc	sp,0x8c269
    1f8c:	0052e0b3          	or	ra,t0,t0
    1f90:	4ec0f093          	andi	ra,ra,1260
    1f94:	918f1197          	auipc	gp,0x918f1
    1f98:	365df0b7          	lui	ra,0x365df
    1f9c:	e287e097          	auipc	ra,0xe287e
    1fa0:	003045b3          	xor	a1,zero,gp
    1fa4:	40500133          	neg	sp,t0
    1fa8:	00326133          	or	sp,tp,gp
    1fac:	103a53b7          	lui	t2,0x103a5
    1fb0:	ad410113          	addi	sp,sp,-1324 # 0xffffffff8c26aa5c
    1fb4:	bdd81117          	auipc	sp,0xbdd81
    1fb8:	ee737213          	andi	tp,t1,-281
    1fbc:	001241b3          	xor	gp,tp,ra
    1fc0:	3531c013          	xori	zero,gp,851
    1fc4:	b8e1e013          	ori	zero,gp,-1138
    1fc8:	ad310093          	addi	ra,sp,-1325 # 0xffffffffbdd82a87
    1fcc:	003102b3          	add	t0,sp,gp
    1fd0:	3c93c097          	auipc	ra,0x3c93c
    1fd4:	4d214193          	xori	gp,sp,1234
    1fd8:	00000397          	auipc	t2,0x0
    1fdc:	edc381e7          	jalr	gp,-292(t2) # 0x1eb4
    1fe0:	1ba0e593          	ori	a1,ra,442
    1fe4:	21e1e493          	ori	s1,gp,542
    1fe8:	12314193          	xori	gp,sp,291
    1fec:	95377237          	lui	tp,0x95377
    1ff0:	6c398117          	auipc	sp,0x6c398
    1ff4:	5c314113          	xori	sp,sp,1475
    1ff8:	028fd0b7          	lui	ra,0x28fd
    1ffc:	00138233          	add	tp,t2,ra
    2000:	5b5d40b7          	lui	ra,0x5b5d4
    2004:	bddfd097          	auipc	ra,0xbddfd
    2008:	5f87a0b7          	lui	ra,0x5f87a
    200c:	0482d137          	lui	sp,0x482d
    2010:	829a3097          	auipc	ra,0x829a3
    2014:	5e5af137          	lui	sp,0x5e5af
    2018:	40300233          	neg	tp,gp
    201c:	3c22e097          	auipc	ra,0x3c22e
    2020:	494a0017          	auipc	zero,0x494a0
    2024:	5f2b6137          	lui	sp,0x5f2b6
    2028:	b8f94137          	lui	sp,0xb8f94
    202c:	accbb097          	auipc	ra,0xaccbb
    2030:	618591b7          	lui	gp,0x61859
    2034:	80608313          	addi	t1,ra,-2042 # 0xffffffffaccbc832
    2038:	31ea8117          	auipc	sp,0x31ea8
    203c:	418101b3          	sub	gp,sp,s8
    2040:	31908293          	addi	t0,ra,793
    2044:	004000b3          	add	ra,zero,tp
    2048:	9268a197          	auipc	gp,0x9268a
    204c:	3217d137          	lui	sp,0x3217d
    2050:	2a317293          	andi	t0,sp,675
    2054:	006780b3          	add	ra,a5,t1
    2058:	e3e12197          	auipc	gp,0xe3e12
    205c:	1e2ec117          	auipc	sp,0x1e2ec
    2060:	df708093          	addi	ra,ra,-521
    2064:	3c949117          	auipc	sp,0x3c949
    2068:	49e3c197          	auipc	gp,0x49e3c
    206c:	00337033          	and	zero,t1,gp
    2070:	967100e3          	beq	sp,t2,0x19d0
    2074:	95dff1ef          	jal	gp,0x19d0
    2078:	00b140b3          	xor	ra,sp,a1
    207c:	ba559097          	auipc	ra,0xba559
    2080:	c9aa8113          	addi	sp,s5,-870 # 0xfffffffff37287ee
    2084:	55dc1137          	lui	sp,0x55dc1
    2088:	104436b7          	lui	a3,0x10443
    208c:	00f1e133          	or	sp,gp,a5
    2090:	918a3197          	auipc	gp,0x918a3
    2094:	d8b361b7          	lui	gp,0xd8b36
    2098:	0031c133          	xor	sp,gp,gp
    209c:	76c452b7          	lui	t0,0x76c45
    20a0:	4523e013          	ori	zero,t2,1106
    20a4:	139b6117          	auipc	sp,0x139b6
    20a8:	0010c1b3          	xor	gp,ra,ra
    20ac:	0013e133          	or	sp,t2,ra
    20b0:	8ddaa037          	lui	zero,0x8ddaa
    20b4:	f7e52017          	auipc	zero,0xf7e52
    20b8:	861c00b7          	lui	ra,0x861c0
    20bc:	003303b3          	add	t2,t1,gp
    20c0:	8fbeb137          	lui	sp,0x8fbeb
    20c4:	00786133          	or	sp,a6,t2
    20c8:	ef5f3217          	auipc	tp,0xef5f3
    20cc:	de2ac117          	auipc	sp,0xde2ac
    20d0:	0071c333          	xor	t1,gp,t2
    20d4:	421ee197          	auipc	gp,0x421ee
    20d8:	0010cfb3          	xor	t6,ra,ra
    20dc:	0011c1b3          	xor	gp,gp,ra
    20e0:	db623c97          	auipc	s9,0xdb623
    20e4:	93438193          	addi	gp,t2,-1740
    20e8:	d88d0197          	auipc	gp,0xd88d0
    20ec:	0016c1b3          	xor	gp,a3,ra
    20f0:	0050c1b3          	xor	gp,ra,t0
    20f4:	001161b3          	or	gp,sp,ra
    20f8:	40318233          	sub	tp,gp,gp
    20fc:	00418263          	beq	gp,tp,0x2100
    2100:	e98ff1ef          	jal	gp,0x1798
    2104:	ab61f193          	andi	gp,gp,-1354
    2108:	b7e590b7          	lui	ra,0xb7e59
    210c:	0011f133          	and	sp,gp,ra
    2110:	ba3ba197          	auipc	gp,0xba3ba
    2114:	39a75117          	auipc	sp,0x39a75
    2118:	dda07293          	andi	t0,zero,-550
    211c:	a396c1b7          	lui	gp,0xa396c
    2120:	0011c3b3          	xor	t2,gp,ra
    2124:	e2f1b0b7          	lui	ra,0xe2f1b
    2128:	4082a117          	auipc	sp,0x4082a
    212c:	c480b137          	lui	sp,0xc480b
    2130:	9c336113          	ori	sp,t1,-1597
    2134:	0679d097          	auipc	ra,0x679d
    2138:	0010e133          	or	sp,ra,ra
    213c:	95b34117          	auipc	sp,0x95b34
    2140:	aad58117          	auipc	sp,0xaad58
    2144:	6aa9b6b7          	lui	a3,0x6aa9b
    2148:	93c0f113          	andi	sp,ra,-1732
    214c:	ac81c113          	xori	sp,gp,-1336
    2150:	001060b3          	or	ra,zero,ra
    2154:	0061ebb3          	or	s7,gp,t1
    2158:	005071b3          	and	gp,zero,t0
    215c:	13cda2b7          	lui	t0,0x13cda
    2160:	9cd1c113          	xori	sp,gp,-1587
    2164:	402080b3          	sub	ra,ra,sp
    2168:	44635117          	auipc	sp,0x44635
    216c:	c51bc5b7          	lui	a1,0xc51bc
    2170:	0004c233          	xor	tp,s1,zero
    2174:	d4327313          	andi	t1,tp,-701
    2178:	b3311137          	lui	sp,0xb3311
    217c:	e6c0e393          	ori	t2,ra,-404
    2180:	9aca1117          	auipc	sp,0x9aca1
    2184:	52e0e213          	ori	tp,ra,1326
    2188:	1a0761b7          	lui	gp,0x1a076
    218c:	abc6b097          	auipc	ra,0xabc6b
    2190:	459c4117          	auipc	sp,0x459c4
    2194:	00510263          	beq	sp,t0,0x2198
    2198:	d78ff06f          	j	0x1710
    219c:	b0c27097          	auipc	ra,0xb0c27
    21a0:	26d1f693          	andi	a3,gp,621
    21a4:	7e79b137          	lui	sp,0x7e79b
    21a8:	01f04093          	xori	ra,zero,31
    21ac:	38a0c093          	xori	ra,ra,906
    21b0:	e49a2317          	auipc	t1,0xe49a2
    21b4:	17a10113          	addi	sp,sp,378 # 0x7e79b17a
    21b8:	085e61b7          	lui	gp,0x85e6
    21bc:	001101b3          	add	gp,sp,ra
    21c0:	e5c00137          	lui	sp,0xe5c00
    21c4:	b047a117          	auipc	sp,0xb047a
    21c8:	b77d8113          	addi	sp,s11,-1161 # 0x3d33b77
    21cc:	403001b3          	neg	gp,gp
    21d0:	c9c63097          	auipc	ra,0xc9c63
    21d4:	fec10113          	addi	sp,sp,-20 # 0xffffffffb047c1b0
    21d8:	a2c92117          	auipc	sp,0xa2c92
    21dc:	402181b3          	sub	gp,gp,sp
    21e0:	24f170b7          	lui	ra,0x24f17
    21e4:	a3b1d117          	auipc	sp,0xa3b1d
    21e8:	400201b3          	sub	gp,tp,zero
    21ec:	0015e233          	or	tp,a1,ra
    21f0:	5881c193          	xori	gp,gp,1416
    21f4:	5b675297          	auipc	t0,0x5b675
    21f8:	f7303137          	lui	sp,0xf7303
    21fc:	2c2b0117          	auipc	sp,0x2c2b0
    2200:	0b20c113          	xori	sp,ra,178
    2204:	8b422117          	auipc	sp,0x8b422
    2208:	e7a13197          	auipc	gp,0xe7a13
    220c:	41111317          	auipc	t1,0x41111
    2210:	2427c0b7          	lui	ra,0x2427c
    2214:	401300b3          	sub	ra,t1,ra
    2218:	0063e333          	or	t1,t2,t1
    221c:	e4518ee3          	beq	gp,t0,0x2078
    2220:	e59ff0ef          	jal	ra,0x2078
    2224:	683650b7          	lui	ra,0x68365
    2228:	003161b3          	or	gp,sp,gp
    222c:	9e76e093          	ori	ra,a3,-1561
    2230:	004302b3          	add	t0,t1,tp
    2234:	ba82a117          	auipc	sp,0xba82a
    2238:	06514193          	xori	gp,sp,101
    223c:	4aa10113          	addi	sp,sp,1194 # 0xffffffffba82c6de
    2240:	00410133          	add	sp,sp,tp
    2244:	cfb1e293          	ori	t0,gp,-773
    2248:	ce30d097          	auipc	ra,0xce30d
    224c:	001175b3          	and	a1,sp,ra
    2250:	d4ec54b7          	lui	s1,0xd4ec5
    2254:	001240b3          	xor	ra,tp,ra
    2258:	779d5697          	auipc	a3,0x779d5
    225c:	5b816493          	ori	s1,sp,1464
    2260:	0020e0b3          	or	ra,ra,sp
    2264:	33810393          	addi	t2,sp,824
    2268:	40f1e193          	ori	gp,gp,1039
    226c:	0010f0b3          	and	ra,ra,ra
    2270:	00117133          	and	sp,sp,ra
    2274:	402081b3          	sub	gp,ra,sp
    2278:	3e55a117          	auipc	sp,0x3e55a
    227c:	5746e1b7          	lui	gp,0x5746e
    2280:	95a0f013          	andi	zero,ra,-1702
    2284:	7cd0d097          	auipc	ra,0x7cd0d
    2288:	fc4c8537          	lui	a0,0xfc4c8
    228c:	205fb197          	auipc	gp,0x205fb
    2290:	c75862b7          	lui	t0,0xc7586
    2294:	00317333          	and	t1,sp,gp
    2298:	9c579097          	auipc	ra,0x9c579
    229c:	0020c133          	xor	sp,ra,sp
    22a0:	00b0e1b3          	or	gp,ra,a1
    22a4:	30896013          	ori	zero,s2,776
    22a8:	00118263          	beq	gp,ra,0x22ac
    22ac:	069005ef          	jal	a1,0x2b14
    22b0:	67c513b7          	lui	t2,0x67c51
    22b4:	d610b237          	lui	tp,0xd610b
    22b8:	0aecf097          	auipc	ra,0xaecf
    22bc:	89ab92b7          	lui	t0,0x89ab9
    22c0:	44521137          	lui	sp,0x44521
    22c4:	8bfe72b7          	lui	t0,0x8bfe7
    22c8:	76c84117          	auipc	sp,0x76c84
    22cc:	3d736193          	ori	gp,t1,983
    22d0:	0cce2097          	auipc	ra,0xcce2
    22d4:	83618113          	addi	sp,gp,-1994 # 0x205fcac2
    22d8:	7eaef197          	auipc	gp,0x7eaef
    22dc:	0030f0b3          	and	ra,ra,gp
    22e0:	00130133          	add	sp,t1,ra
    22e4:	45104b97          	auipc	s7,0x45104
    22e8:	37007097          	auipc	ra,0x37007
    22ec:	2c7275b7          	lui	a1,0x2c727
    22f0:	beee7137          	lui	sp,0xbeee7
    22f4:	5d714113          	xori	sp,sp,1495
    22f8:	3720a137          	lui	sp,0x3720a
    22fc:	847c91b7          	lui	gp,0x847c9
    2300:	4b30c493          	xori	s1,ra,1203
    2304:	00200133          	add	sp,zero,sp
    2308:	de418193          	addi	gp,gp,-540 # 0xffffffff847c8de4
    230c:	11a17113          	andi	sp,sp,282
    2310:	24d0c0b7          	lui	ra,0x24d0c
    2314:	c1817113          	andi	sp,sp,-1000
    2318:	2fd1c113          	xori	sp,gp,765
    231c:	0600e013          	ori	zero,ra,96
    2320:	b4f4a2b7          	lui	t0,0xb4f4a
    2324:	4b839017          	auipc	zero,0x4b839
    2328:	00017133          	and	sp,sp,zero
    232c:	b7ad40b7          	lui	ra,0xb7ad4
    2330:	882e9197          	auipc	gp,0x882e9
    2334:	06d1f313          	andi	t1,gp,109
    2338:	00018263          	beqz	gp,0x233c
    233c:	0e50016f          	jal	sp,0x2c20
    2340:	0070c133          	xor	sp,ra,t2
    2344:	00310433          	add	s0,sp,gp
    2348:	65f5e117          	auipc	sp,0x65f5e
    234c:	0c616193          	ori	gp,sp,198
    2350:	407103b3          	sub	t2,sp,t2
    2354:	363311b7          	lui	gp,0x36331
    2358:	5198b137          	lui	sp,0x5198b
    235c:	002183b3          	add	t2,gp,sp
    2360:	682091b7          	lui	gp,0x68209
    2364:	e8244117          	auipc	sp,0xe8244
    2368:	7e808093          	addi	ra,ra,2024 # 0xffffffffb7ad47e8
    236c:	c04391b7          	lui	gp,0xc0439
    2370:	8f77e113          	ori	sp,a5,-1801
    2374:	007270b3          	and	ra,tp,t2
    2378:	1f317093          	andi	ra,sp,499
    237c:	a5682117          	auipc	sp,0xa5682
    2380:	70a17093          	andi	ra,sp,1802
    2384:	01c1e213          	ori	tp,gp,28
    2388:	86d143b7          	lui	t2,0x86d14
    238c:	9df04093          	xori	ra,zero,-1569
    2390:	8660f293          	andi	t0,ra,-1946
    2394:	003141b3          	xor	gp,sp,gp
    2398:	6fb1a117          	auipc	sp,0x6fb1a
    239c:	00208133          	add	sp,ra,sp
    23a0:	e2356397          	auipc	t2,0xe2356
    23a4:	def1e393          	ori	t2,gp,-529
    23a8:	42caa097          	auipc	ra,0x42caa
    23ac:	4421c1b7          	lui	gp,0x4421c
    23b0:	e24ce037          	lui	zero,0xe24ce
    23b4:	405000b3          	neg	ra,t0
    23b8:	b691c193          	xori	gp,gp,-1175
    23bc:	00098263          	beqz	s3,0x23c0
    23c0:	1010016f          	jal	sp,0x2cc0
    23c4:	8a5a3117          	auipc	sp,0x8a5a3
    23c8:	f060c113          	xori	sp,ra,-250
    23cc:	0062e333          	or	t1,t0,t1
    23d0:	00c0c0b3          	xor	ra,ra,a2
    23d4:	287a60b7          	lui	ra,0x287a6
    23d8:	dd57c3b7          	lui	t2,0xdd57c
    23dc:	9f307113          	andi	sp,zero,-1549
    23e0:	c8115197          	auipc	gp,0xc8115
    23e4:	d0920093          	addi	ra,tp,-759 # 0xffffffffd610ad09
    23e8:	943562b7          	lui	t0,0x94356
    23ec:	a6710193          	addi	gp,sp,-1433 # 0xffffffff8a5a4e2b
    23f0:	309dca17          	auipc	s4,0x309dc
    23f4:	a06ca117          	auipc	sp,0xa06ca
    23f8:	1f6bf137          	lui	sp,0x1f6bf
    23fc:	7ef2e093          	ori	ra,t0,2031
    2400:	63030093          	addi	ra,t1,1584 # 0x4111383c
    2404:	001081b3          	add	gp,ra,ra
    2408:	69d14393          	xori	t2,sp,1693
    240c:	0011c033          	xor	zero,gp,ra
    2410:	0020c0b3          	xor	ra,ra,sp
    2414:	8507b197          	auipc	gp,0x8507b
    2418:	31c38113          	addi	sp,t2,796 # 0xffffffffdd57c31c
    241c:	611500b7          	lui	ra,0x61150
    2420:	914f9117          	auipc	sp,0x914f9
    2424:	c82d9137          	lui	sp,0xc82d9
    2428:	0071e233          	or	tp,gp,t2
    242c:	1a343097          	auipc	ra,0x1a343
    2430:	be30e213          	ori	tp,ra,-1053
    2434:	d5c590b7          	lui	ra,0xd5c59
    2438:	c11e2197          	auipc	gp,0xc11e2
    243c:	b681c313          	xori	t1,gp,-1176
    2440:	ef5fb5b7          	lui	a1,0xef5fb
    2444:	a38e6237          	lui	tp,0xa38e6
    2448:	f6def193          	andi	gp,t4,-147
    244c:	08b506b7          	lui	a3,0x8b50
    2450:	aad08093          	addi	ra,ra,-1363 # 0xffffffffd5c58aad
    2454:	c36ab1b7          	lui	gp,0xc36ab
    2458:	001bf133          	and	sp,s7,ra
    245c:	3b707017          	auipc	zero,0x3b707
    2460:	00018193          	mv	gp,gp
    2464:	24318863          	beq	gp,gp,0x26b4
    2468:	22e17093          	andi	ra,sp,558
    246c:	9a0c4113          	xori	sp,s8,-1632
    2470:	0010e0b3          	or	ra,ra,ra
    2474:	b8996137          	lui	sp,0xb8996
    2478:	b0c4d097          	auipc	ra,0xb0c4d
    247c:	f6ab8197          	auipc	gp,0xf6ab8
    2480:	69b08113          	addi	sp,ra,1691 # 0xffffffffb0c4fb13
    2484:	3f4a2197          	auipc	gp,0x3f4a2
    2488:	889c0097          	auipc	ra,0x889c0
    248c:	912ff3b7          	lui	t2,0x912ff
    2490:	0020f0b3          	and	ra,ra,sp
    2494:	0021c0b3          	xor	ra,gp,sp
    2498:	28d0c193          	xori	gp,ra,653
    249c:	40118133          	sub	sp,gp,ra
    24a0:	f7536197          	auipc	gp,0xf7536
    24a4:	bd8b2117          	auipc	sp,0xbd8b2
    24a8:	ec632097          	auipc	ra,0xec632
    24ac:	bb305137          	lui	sp,0xbb305
    24b0:	c3f4a137          	lui	sp,0xc3f4a
    24b4:	1b50e137          	lui	sp,0x1b50e
    24b8:	cc76e493          	ori	s1,a3,-825
    24bc:	e1b08093          	addi	ra,ra,-485 # 0xffffffffec6342c3
    24c0:	f9b56197          	auipc	gp,0xf9b56
    24c4:	00118333          	add	t1,gp,ra
    24c8:	8e838013          	addi	zero,t2,-1816 # 0xffffffff912fe8e8
    24cc:	535f6137          	lui	sp,0x535f6
    24d0:	a5fad097          	auipc	ra,0xa5fad
    24d4:	1d6c90b7          	lui	ra,0x1d6c9
    24d8:	3b5c6337          	lui	t1,0x3b5c6
    24dc:	3990e193          	ori	gp,ra,921
    24e0:	0031e333          	or	t1,gp,gp
    24e4:	0861f313          	andi	t1,gp,134
    24e8:	001240b3          	xor	ra,tp,ra
    24ec:	9fb4e197          	auipc	gp,0x9fb4e
    24f0:	00508463          	beq	ra,t0,0x24f8
    24f4:	0040036f          	jal	t1,0x24f8
    24f8:	c6d81197          	auipc	gp,0xc6d81
    24fc:	005200b3          	add	ra,tp,t0
    2500:	f3d0e293          	ori	t0,ra,-195
    2504:	4b2f31b7          	lui	gp,0x4b2f3
    2508:	5c5b8397          	auipc	t2,0x5c5b8
    250c:	4ff14193          	xori	gp,sp,1279
    2510:	12253337          	lui	t1,0x12253
    2514:	21708193          	addi	gp,ra,535 # 0x1d6c9217
    2518:	3802f093          	andi	ra,t0,896
    251c:	e16bd2b7          	lui	t0,0xe16bd
    2520:	7cade013          	ori	zero,s11,1994
    2524:	00700233          	add	tp,zero,t2
    2528:	001303b3          	add	t2,t1,ra
    252c:	e7833497          	auipc	s1,0xe7833
    2530:	5b47f197          	auipc	gp,0x5b47f
    2534:	00f9f0b3          	and	ra,s3,a5
    2538:	00216013          	ori	zero,sp,2
    253c:	5291f117          	auipc	sp,0x5291f
    2540:	fafe0117          	auipc	sp,0xfafe0
    2544:	63038193          	addi	gp,t2,1584 # 0x5c5bab38
    2548:	8ef9d137          	lui	sp,0x8ef9d
    254c:	7b6c6137          	lui	sp,0x7b6c6
    2550:	df2bffb7          	lui	t6,0xdf2bf
    2554:	2c517113          	andi	sp,sp,709
    2558:	0010f333          	and	t1,ra,ra
    255c:	7641e093          	ori	ra,gp,1892
    2560:	0032f133          	and	sp,t0,gp
    2564:	ff70f193          	andi	gp,ra,-9
    2568:	c1773137          	lui	sp,0xc1773
    256c:	a1d58093          	addi	ra,a1,-1507 # 0xffffffffef5faa1d
    2570:	e1a01117          	auipc	sp,0xe1a01
    2574:	00018133          	add	sp,gp,zero
    2578:	83f6d097          	auipc	ra,0x83f6d
    257c:	00000317          	auipc	t1,0x0
    2580:	1d8300e7          	jalr	472(t1) # 0x2754
    2584:	49ac2117          	auipc	sp,0x49ac2
    2588:	6e1a7217          	auipc	tp,0x6e1a7
    258c:	003170b3          	and	ra,sp,gp
    2590:	e119a2b7          	lui	t0,0xe119a
    2594:	1fc0e093          	ori	ra,ra,508
    2598:	0070e133          	or	sp,ra,t2
    259c:	db39b1b7          	lui	gp,0xdb39b
    25a0:	977cc137          	lui	sp,0x977cc
    25a4:	86318193          	addi	gp,gp,-1949 # 0xffffffffdb39a863
    25a8:	796da137          	lui	sp,0x796da
    25ac:	00510133          	add	sp,sp,t0
    25b0:	b2429137          	lui	sp,0xb2429
    25b4:	0020e3b3          	or	t2,ra,sp
    25b8:	b80d60b7          	lui	ra,0xb80d6
    25bc:	289f7137          	lui	sp,0x289f7
    25c0:	fea5c113          	xori	sp,a1,-22
    25c4:	fb114093          	xori	ra,sp,-79
    25c8:	0d408317          	auipc	t1,0xd408
    25cc:	eef0c193          	xori	gp,ra,-273
    25d0:	b794b137          	lui	sp,0xb794b
    25d4:	884f6197          	auipc	gp,0x884f6
    25d8:	bb450117          	auipc	sp,0xbb450
    25dc:	5ed18113          	addi	sp,gp,1517 # 0xffffffff884f8bc1
    25e0:	e4314213          	xori	tp,sp,-445
    25e4:	c1d42037          	lui	zero,0xc1d42
    25e8:	0a323217          	auipc	tp,0xa323
    25ec:	d48c5497          	auipc	s1,0xd48c5
    25f0:	0012c133          	xor	sp,t0,ra
    25f4:	8fd7f097          	auipc	ra,0x8fd7f
    25f8:	003241b3          	xor	gp,tp,gp
    25fc:	b6758193          	addi	gp,a1,-1177
    2600:	63f8f137          	lui	sp,0x63f8f
    2604:	00310133          	add	sp,sp,gp
    2608:	b300c113          	xori	sp,ra,-1232
    260c:	7816f137          	lui	sp,0x7816f
    2610:	d23108e3          	beq	sp,gp,0x2340
    2614:	d2dff16f          	jal	sp,0x2340
    2618:	14e47837          	lui	a6,0x14e47
    261c:	6b8af097          	auipc	ra,0x6b8af
    2620:	a1d26113          	ori	sp,tp,-1507
    2624:	24d4d137          	lui	sp,0x24d4d
    2628:	9920f393          	andi	t2,ra,-1646
    262c:	f771d217          	auipc	tp,0xf771d
    2630:	4af3f113          	andi	sp,t2,1199
    2634:	b6738113          	addi	sp,t2,-1177
    2638:	400680b3          	sub	ra,a3,zero
    263c:	404081b3          	sub	gp,ra,tp
    2640:	0fb02117          	auipc	sp,0xfb02
    2644:	fb110193          	addi	gp,sp,-79 # 0xfb045f1
    2648:	037f3117          	auipc	sp,0x37f3
    264c:	401301b3          	sub	gp,t1,ra
    2650:	0a856197          	auipc	gp,0xa856
    2654:	80337197          	auipc	gp,0x80337
    2658:	cf438093          	addi	ra,t2,-780
    265c:	4150f093          	andi	ra,ra,1045
    2660:	00116eb3          	or	t4,sp,ra
    2664:	6288d0b7          	lui	ra,0x6288d
    2668:	1ef1f193          	andi	gp,gp,495
    266c:	5556e137          	lui	sp,0x5556e
    2670:	dc71e113          	ori	sp,gp,-569
    2674:	e1b0f193          	andi	gp,ra,-485
    2678:	6ddde5b7          	lui	a1,0x6ddde
    267c:	6be921b7          	lui	gp,0x6be92
    2680:	40100333          	neg	t1,ra
    2684:	002080b3          	add	ra,ra,sp
    2688:	7224c1b7          	lui	gp,0x7224c
    268c:	04d01197          	auipc	gp,0x4d01
    2690:	002276b3          	and	a3,tp,sp
    2694:	efa97337          	lui	t1,0xefa97
    2698:	15a49017          	auipc	zero,0x15a49
    269c:	d4cd8097          	auipc	ra,0xd4cd8
    26a0:	0022e1b3          	or	gp,t0,sp
    26a4:	40210bb3          	sub	s7,sp,sp
    26a8:	000260b3          	or	ra,tp,zero
    26ac:	2c110063          	beq	sp,ra,0x296c
    26b0:	2bc0026f          	jal	tp,0x296c
    26b4:	24e45197          	auipc	gp,0x24e45
    26b8:	661c70b7          	lui	ra,0x661c7
    26bc:	00334133          	xor	sp,t1,gp
    26c0:	b1cac0b7          	lui	ra,0xb1cac
    26c4:	23d38197          	auipc	gp,0x23d38
    26c8:	0052c233          	xor	tp,t0,t0
    26cc:	406081b3          	sub	gp,ra,t1
    26d0:	d7a840b7          	lui	ra,0xd7a84
    26d4:	455ae017          	auipc	zero,0x455ae
    26d8:	406080b3          	sub	ra,ra,t1
    26dc:	bcc32137          	lui	sp,0xbcc32
    26e0:	a7985117          	auipc	sp,0xa7985
    26e4:	68937213          	andi	tp,t1,1673
    26e8:	dc5e7317          	auipc	t1,0xdc5e7
    26ec:	0c2d9097          	auipc	ra,0xc2d9
    26f0:	0d118193          	addi	gp,gp,209 # 0x23d3a795
    26f4:	d3808113          	addi	sp,ra,-712 # 0xc2db424
    26f8:	a6fd60b7          	lui	ra,0xa6fd6
    26fc:	832aa1b7          	lui	gp,0x832aa
    2700:	952f00b7          	lui	ra,0x952f0
    2704:	98a93117          	auipc	sp,0x98a93
    2708:	8de66037          	lui	zero,0x8de66
    270c:	61394097          	auipc	ra,0x61394
    2710:	2db6e1b7          	lui	gp,0x2db6e
    2714:	e4395137          	lui	sp,0xe4395
    2718:	a2fd1197          	auipc	gp,0xa2fd1
    271c:	00308133          	add	sp,ra,gp
    2720:	4c728397          	auipc	t2,0x4c728
    2724:	57d42097          	auipc	ra,0x57d42
    2728:	00108133          	add	sp,ra,ra
    272c:	0029c1b3          	xor	gp,s3,sp
    2730:	0030f1b3          	and	gp,ra,gp
    2734:	f62f6197          	auipc	gp,0xf62f6
    2738:	f8f110b7          	lui	ra,0xf8f11
    273c:	10a57237          	lui	tp,0x10a57
    2740:	d41271b7          	lui	gp,0xd4127
    2744:	784ab1b7          	lui	gp,0x784ab
    2748:	08f0f113          	andi	sp,ra,143
    274c:	b63082e3          	beq	ra,gp,0x22b0
    2750:	b61ff26f          	jal	tp,0x22b0
    2754:	8c2fb117          	auipc	sp,0x8c2fb
    2758:	61f0c313          	xori	t1,ra,1567
    275c:	a9e3cb93          	xori	s7,t2,-1378
    2760:	9fb49037          	lui	zero,0x9fb49
    2764:	98cdb197          	auipc	gp,0x98cdb
    2768:	7ea1e093          	ori	ra,gp,2026
    276c:	60ce50b7          	lui	ra,0x60ce5
    2770:	713eb097          	auipc	ra,0x713eb
    2774:	8e418093          	addi	ra,gp,-1820 # 0xffffffff98cdd048
    2778:	59181217          	auipc	tp,0x59181
    277c:	404100b3          	sub	ra,sp,tp
    2780:	0010e233          	or	tp,ra,ra
    2784:	3b2f1117          	auipc	sp,0x3b2f1
    2788:	d6a27313          	andi	t1,tp,-662
    278c:	2595f137          	lui	sp,0x2595f
    2790:	d0217393          	andi	t2,sp,-766
    2794:	00717c33          	and	s8,sp,t2
    2798:	adf3a117          	auipc	sp,0xadf3a
    279c:	40108233          	sub	tp,ra,ra
    27a0:	34910193          	addi	gp,sp,841 # 0xffffffffadf3cae1
    27a4:	aebdf137          	lui	sp,0xaebdf
    27a8:	00507033          	and	zero,zero,t0
    27ac:	f88e8137          	lui	sp,0xf88e8
    27b0:	00218333          	add	t1,gp,sp
    27b4:	89bde2b7          	lui	t0,0x89bde
    27b8:	6f080097          	auipc	ra,0x6f080
    27bc:	4cc18193          	addi	gp,gp,1228
    27c0:	2f4651b7          	lui	gp,0x2f465
    27c4:	8e287093          	andi	ra,a6,-1822
    27c8:	118b4097          	auipc	ra,0x118b4
    27cc:	27a94137          	lui	sp,0x27a94
    27d0:	be710ae3          	beq	sp,t2,0x23c4
    27d4:	bf1ff16f          	jal	sp,0x23c4
    27d8:	14401197          	auipc	gp,0x14401
    27dc:	3964b2b7          	lui	t0,0x3964b
    27e0:	ac20f297          	auipc	t0,0xac20f
    27e4:	05d17f13          	andi	t5,sp,93
    27e8:	51f99237          	lui	tp,0x51f99
    27ec:	8b5e0137          	lui	sp,0x8b5e0
    27f0:	00236233          	or	tp,t1,sp
    27f4:	002171b3          	and	gp,sp,sp
    27f8:	002041b3          	xor	gp,zero,sp
    27fc:	002272b3          	and	t0,tp,sp
    2800:	a213a797          	auipc	a5,0xa213a
    2804:	002dc1b3          	xor	gp,s11,sp
    2808:	59324193          	xori	gp,tp,1427
    280c:	28818093          	addi	ra,gp,648 # 0x14403a60
    2810:	55cca197          	auipc	gp,0x55cca
    2814:	badfa117          	auipc	sp,0xbadfa
    2818:	53810097          	auipc	ra,0x53810
    281c:	81434113          	xori	sp,t1,-2028
    2820:	8b310193          	addi	gp,sp,-1869 # 0xffffffffbadfc0c7
    2824:	d752e0b7          	lui	ra,0xd752e
    2828:	edda0137          	lui	sp,0xedda0
    282c:	3720f193          	andi	gp,ra,882
    2830:	35b82117          	auipc	sp,0x35b82
    2834:	a0c7d197          	auipc	gp,0xa0c7d
    2838:	cbd0e193          	ori	gp,ra,-835
    283c:	00210133          	add	sp,sp,sp
    2840:	407fc117          	auipc	sp,0x407fc
    2844:	001140b3          	xor	ra,sp,ra
    2848:	29ab16b7          	lui	a3,0x29ab1
    284c:	46e36d13          	ori	s10,t1,1134
    2850:	3cfa8093          	addi	ra,s5,975
    2854:	2c236113          	ori	sp,t1,706
    2858:	74a1c113          	xori	sp,gp,1866
    285c:	0013e733          	or	a4,t2,ra
    2860:	96d91197          	auipc	gp,0x96d91
    2864:	5d527113          	andi	sp,tp,1493
    2868:	543780b7          	lui	ra,0x54378
    286c:	08300063          	beq	zero,gp,0x28ec
    2870:	07c001ef          	jal	gp,0x28ec
    2874:	a4fff117          	auipc	sp,0xa4fff
    2878:	ed7e6117          	auipc	sp,0xed7e6
    287c:	c751f913          	andi	s2,gp,-907
    2880:	53fa6113          	ori	sp,s4,1343
    2884:	004170b3          	and	ra,sp,tp
    2888:	ef16b117          	auipc	sp,0xef16b
    288c:	41208133          	sub	sp,ra,s2
    2890:	0bf061b7          	lui	gp,0xbf06
    2894:	0061c1b3          	xor	gp,gp,t1
    2898:	c0cbf137          	lui	sp,0xc0cbf
    289c:	1be3a137          	lui	sp,0x1be3a
    28a0:	001400b3          	add	ra,s0,ra
    28a4:	9f80c113          	xori	sp,ra,-1544
    28a8:	7a5493b7          	lui	t2,0x7a549
    28ac:	18028113          	addi	sp,t0,384 # 0xffffffffac211960
    28b0:	ebc631b7          	lui	gp,0xebc63
    28b4:	488d22b7          	lui	t0,0x488d2
    28b8:	c31c60b7          	lui	ra,0xc31c6
    28bc:	a8416193          	ori	gp,sp,-1404
    28c0:	84f17113          	andi	sp,sp,-1969
    28c4:	d409f137          	lui	sp,0xd409f
    28c8:	ebf36c13          	ori	s8,t1,-321
    28cc:	7e01f193          	andi	gp,gp,2016
    28d0:	d5da7017          	auipc	zero,0xd5da7
    28d4:	413fe1b7          	lui	gp,0x413fe
    28d8:	96536313          	ori	t1,t1,-1691
    28dc:	ea414093          	xori	ra,sp,-348
    28e0:	53024117          	auipc	sp,0x53024
    28e4:	00068193          	mv	gp,a3
    28e8:	72d18863          	beq	gp,a3,0x3018
    28ec:	5833f0b7          	lui	ra,0x5833f
    28f0:	d9f2b237          	lui	tp,0xd9f2b
    28f4:	3cf06393          	ori	t2,zero,975
    28f8:	63de5017          	auipc	zero,0x63de5
    28fc:	cf4230b7          	lui	ra,0xcf423
    2900:	aa21e093          	ori	ra,gp,-1374
    2904:	b9a38197          	auipc	gp,0xb9a38
    2908:	ea01c193          	xori	gp,gp,-352
    290c:	0190f1b3          	and	gp,ra,s9
    2910:	ee8461b7          	lui	gp,0xee846
    2914:	1c40c113          	xori	sp,ra,452
    2918:	7520e093          	ori	ra,ra,1874
    291c:	002186b3          	add	a3,gp,sp
    2920:	0011e133          	or	sp,gp,ra
    2924:	ec11c197          	auipc	gp,0xec11c
    2928:	ad829197          	auipc	gp,0xad829
    292c:	5ca99097          	auipc	ra,0x5ca99
    2930:	0021c0b3          	xor	ra,gp,sp
    2934:	cfe10097          	auipc	ra,0xcfe10
    2938:	df542197          	auipc	gp,0xdf542
    293c:	9cad74b7          	lui	s1,0x9cad7
    2940:	6d9a7117          	auipc	sp,0x6d9a7
    2944:	85906337          	lui	t1,0x85906
    2948:	8b3b2197          	auipc	gp,0x8b3b2
    294c:	809a70b7          	lui	ra,0x809a7
    2950:	19458217          	auipc	tp,0x19458
    2954:	985f3117          	auipc	sp,0x985f3
    2958:	96643137          	lui	sp,0x96643
    295c:	dc987137          	lui	sp,0xdc987
    2960:	de217713          	andi	a4,sp,-542
    2964:	f03108e3          	beq	sp,gp,0x2874
    2968:	f0dff16f          	jal	sp,0x2874
    296c:	1fbaa097          	auipc	ra,0x1fbaa
    2970:	40238233          	sub	tp,t2,sp
    2974:	0a61f293          	andi	t0,gp,166
    2978:	86a16013          	ori	zero,sp,-1942
    297c:	39218113          	addi	sp,gp,914 # 0xffffffff8b3b4cda
    2980:	91c08193          	addi	gp,ra,-1764 # 0x1fbac288
    2984:	f8cc6117          	auipc	sp,0xf8cc6
    2988:	32016097          	auipc	ra,0x32016
    298c:	cc16e0b7          	lui	ra,0xcc16e
    2990:	0011e133          	or	sp,gp,ra
    2994:	0031c133          	xor	sp,gp,gp
    2998:	2a602197          	auipc	gp,0x2a602
    299c:	6e5d9237          	lui	tp,0x6e5d9
    29a0:	0033c0b3          	xor	ra,t2,gp
    29a4:	2d417093          	andi	ra,sp,724
    29a8:	0021f133          	and	sp,gp,sp
    29ac:	0010e133          	or	sp,ra,ra
    29b0:	004180b3          	add	ra,gp,tp
    29b4:	0013f1b3          	and	gp,t2,ra
    29b8:	cf9e81b7          	lui	gp,0xcf9e8
    29bc:	9b2e4197          	auipc	gp,0x9b2e4
    29c0:	6e0de117          	auipc	sp,0x6e0de
    29c4:	cdd69137          	lui	sp,0xcdd69
    29c8:	176fd0b7          	lui	ra,0x176fd
    29cc:	8bc17193          	andi	gp,sp,-1860
    29d0:	9f637197          	auipc	gp,0x9f637
    29d4:	00276033          	or	zero,a4,sp
    29d8:	2af7cd37          	lui	s10,0x2af7c
    29dc:	4765e1b7          	lui	gp,0x4765e
    29e0:	00010093          	mv	ra,sp
    29e4:	ba2080e3          	beq	ra,sp,0x2584
    29e8:	3a01e197          	auipc	gp,0x3a01e
    29ec:	94c24193          	xori	gp,tp,-1716
    29f0:	003081b3          	add	gp,ra,gp
    29f4:	b5cb6097          	auipc	ra,0xb5cb6
    29f8:	0caca0b7          	lui	ra,0xcaca
    29fc:	0020f0b3          	and	ra,ra,sp
    2a00:	0011c1b3          	xor	gp,gp,ra
    2a04:	1c91e093          	ori	ra,gp,457
    2a08:	00304033          	xor	zero,zero,gp
    2a0c:	0046c1b3          	xor	gp,a3,tp
    2a10:	3a17c093          	xori	ra,a5,929
    2a14:	ce50c113          	xori	sp,ra,-795
    2a18:	402102b3          	sub	t0,sp,sp
    2a1c:	401100b3          	sub	ra,sp,ra
    2a20:	1371d117          	auipc	sp,0x1371d
    2a24:	85a451b7          	lui	gp,0x85a45
    2a28:	0010c133          	xor	sp,ra,ra
    2a2c:	40318133          	sub	sp,gp,gp
    2a30:	82607193          	andi	gp,zero,-2010
    2a34:	f4192197          	auipc	gp,0xf4192
    2a38:	001101b3          	add	gp,sp,ra
    2a3c:	40ddd0b7          	lui	ra,0x40ddd
    2a40:	00f4c2b3          	xor	t0,s1,a5
    2a44:	ba317393          	andi	t2,sp,-1117
    2a48:	2fa10013          	addi	zero,sp,762 # 0x1371fd1a
    2a4c:	60eca2b7          	lui	t0,0x60eca
    2a50:	0c80e193          	ori	gp,ra,200
    2a54:	001103b3          	add	t2,sp,ra
    2a58:	e0f84197          	auipc	gp,0xe0f84
    2a5c:	0051c1b3          	xor	gp,gp,t0
    2a60:	3f471097          	auipc	ra,0x3f471
    2a64:	00227033          	and	zero,tp,sp
    2a68:	3c37e097          	auipc	ra,0x3c37e
    2a6c:	11b911b7          	lui	gp,0x11b91
    2a70:	d3e0c093          	xori	ra,ra,-706
    2a74:	ec656097          	auipc	ra,0xec656
    2a78:	0000f333          	and	t1,ra,zero
    2a7c:	0030e0b3          	or	ra,ra,gp
    2a80:	d3a9a017          	auipc	zero,0xd3a9a
    2a84:	b81b8ae3          	beq	s7,ra,0x2618
    2a88:	b91ff16f          	jal	sp,0x2618
    2a8c:	0021c6b3          	xor	a3,gp,sp
    2a90:	feabe1b7          	lui	gp,0xfeabe
    2a94:	8278d097          	auipc	ra,0x8278d
    2a98:	8110c113          	xori	sp,ra,-2031
    2a9c:	77108113          	addi	sp,ra,1905 # 0xffffffff82790205
    2aa0:	ec23d117          	auipc	sp,0xec23d
    2aa4:	542b2137          	lui	sp,0x542b2
    2aa8:	64516093          	ori	ra,sp,1605
    2aac:	ae504117          	auipc	sp,0xae504
    2ab0:	0036c133          	xor	sp,a3,gp
    2ab4:	a3226213          	ori	tp,tp,-1486
    2ab8:	329a3097          	auipc	ra,0x329a3
    2abc:	f81f93b7          	lui	t2,0xf81f9
    2ac0:	6891e113          	ori	sp,gp,1673
    2ac4:	00717233          	and	tp,sp,t2
    2ac8:	b94df1b7          	lui	gp,0xb94df
    2acc:	403181b3          	sub	gp,gp,gp
    2ad0:	72a7e137          	lui	sp,0x72a7e
    2ad4:	0020f393          	andi	t2,ra,2
    2ad8:	631330b7          	lui	ra,0x63133
    2adc:	365ab117          	auipc	sp,0x365ab
    2ae0:	84c1f093          	andi	ra,gp,-1972
    2ae4:	d012b2b7          	lui	t0,0xd012b
    2ae8:	001380b3          	add	ra,t2,ra
    2aec:	3ee34137          	lui	sp,0x3ee34
    2af0:	00ae8133          	add	sp,t4,a0
    2af4:	0b38a6b7          	lui	a3,0xb38a
    2af8:	18f13117          	auipc	sp,0x18f13
    2afc:	dd818193          	addi	gp,gp,-552 # 0xffffffffb94dedd8
    2b00:	00d08133          	add	sp,ra,a3
    2b04:	8810e213          	ori	tp,ra,-1919
    2b08:	f98121b7          	lui	gp,0xf9812
    2b0c:	00010393          	mv	t2,sp
    2b10:	08238463          	beq	t2,sp,0x2b98
    2b14:	d92d91b7          	lui	gp,0xd92d9
    2b18:	27c92117          	auipc	sp,0x27c92
    2b1c:	77041137          	lui	sp,0x77041
    2b20:	002170b3          	and	ra,sp,sp
    2b24:	5bdc10b7          	lui	ra,0x5bdc1
    2b28:	69c391b7          	lui	gp,0x69c39
    2b2c:	dc91c193          	xori	gp,gp,-567
    2b30:	af4a2197          	auipc	gp,0xaf4a2
    2b34:	00234333          	xor	t1,t1,sp
    2b38:	c011f193          	andi	gp,gp,-1023
    2b3c:	00b0e0b3          	or	ra,ra,a1
    2b40:	9d9d10b7          	lui	ra,0x9d9d1
    2b44:	00218133          	add	sp,gp,sp
    2b48:	6780e113          	ori	sp,ra,1656
    2b4c:	cf314d93          	xori	s11,sp,-781
    2b50:	208d4097          	auipc	ra,0x208d4
    2b54:	47c16193          	ori	gp,sp,1148
    2b58:	1444b217          	auipc	tp,0x1444b
    2b5c:	01551117          	auipc	sp,0x1551
    2b60:	f6003097          	auipc	ra,0xf6003
    2b64:	4f718113          	addi	sp,gp,1271 # 0xffffffffaf4a5027
    2b68:	bf71c193          	xori	gp,gp,-1033
    2b6c:	301b4317          	auipc	t1,0x301b4
    2b70:	0455f197          	auipc	gp,0x455f
    2b74:	00110333          	add	t1,sp,ra
    2b78:	b95781b7          	lui	gp,0xb9578
    2b7c:	d6106113          	ori	sp,zero,-671
    2b80:	5c0d60b7          	lui	ra,0x5c0d6
    2b84:	a8214193          	xori	gp,sp,-1406
    2b88:	bc05d337          	lui	t1,0xbc05d
    2b8c:	41768193          	addi	gp,a3,1047 # 0xb38a417
    2b90:	00018093          	mv	ra,gp
    2b94:	8c308ae3          	beq	ra,gp,0x2468
    2b98:	77084197          	auipc	gp,0x77084
    2b9c:	abec4117          	auipc	sp,0xabec4
    2ba0:	e6eff197          	auipc	gp,0xe6eff
    2ba4:	55e0f113          	andi	sp,ra,1374
    2ba8:	dd214193          	xori	gp,sp,-558
    2bac:	72b14093          	xori	ra,sp,1835
    2bb0:	fdb5e137          	lui	sp,0xfdb5e
    2bb4:	e5961137          	lui	sp,0xe5961
    2bb8:	7c008093          	addi	ra,ra,1984 # 0x5c0d67c0
    2bbc:	9cd3c093          	xori	ra,t2,-1587
    2bc0:	f9f1c213          	xori	tp,gp,-97
    2bc4:	0023f333          	and	t1,t2,sp
    2bc8:	0a417313          	andi	t1,sp,164
    2bcc:	40618133          	sub	sp,gp,t1
    2bd0:	df3493b7          	lui	t2,0xdf349
    2bd4:	45a91137          	lui	sp,0x45a91
    2bd8:	18944117          	auipc	sp,0x18944
    2bdc:	ff718293          	addi	t0,gp,-9 # 0xffffffffe6f01b97
    2be0:	db906137          	lui	sp,0xdb906
    2be4:	8940e093          	ori	ra,ra,-1900
    2be8:	002180b3          	add	ra,gp,sp
    2bec:	e7e41917          	auipc	s2,0xe7e41
    2bf0:	72e1f313          	andi	t1,gp,1838
    2bf4:	402082b3          	sub	t0,ra,sp
    2bf8:	001170b3          	and	ra,sp,ra
    2bfc:	401681b3          	sub	gp,a3,ra
    2c00:	001142b3          	xor	t0,sp,ra
    2c04:	76a17293          	andi	t0,sp,1898
    2c08:	ca810913          	addi	s2,sp,-856 # 0xffffffffdb905ca8
    2c0c:	e055e113          	ori	sp,a1,-507
    2c10:	bab18113          	addi	sp,gp,-1109
    2c14:	3a493197          	auipc	gp,0x3a493
    2c18:	bc3280e3          	beq	t0,gp,0x27d8
    2c1c:	bbdff0ef          	jal	ra,0x27d8
    2c20:	2ac14193          	xori	gp,sp,684
    2c24:	948250b7          	lui	ra,0x94825
    2c28:	335ef117          	auipc	sp,0x335ef
    2c2c:	3a5cccb7          	lui	s9,0x3a5cc
    2c30:	a52a8317          	auipc	t1,0xa52a8
    2c34:	ded10113          	addi	sp,sp,-531 # 0x335f1a15
    2c38:	92c76197          	auipc	gp,0x92c76
    2c3c:	f891c093          	xori	ra,gp,-119
    2c40:	92c10e13          	addi	t3,sp,-1748
    2c44:	d8fca017          	auipc	zero,0xd8fca
    2c48:	9d3c4237          	lui	tp,0x9d3c4
    2c4c:	e4e13497          	auipc	s1,0xe4e13
    2c50:	d9db61b7          	lui	gp,0xd9db6
    2c54:	8b05fa17          	auipc	s4,0x8b05f
    2c58:	0011f333          	and	t1,gp,ra
    2c5c:	cce0e113          	ori	sp,ra,-818
    2c60:	d1a280b7          	lui	ra,0xd1a28
    2c64:	8aea0237          	lui	tp,0x8aea0
    2c68:	58a31017          	auipc	zero,0x58a31
    2c6c:	73545197          	auipc	gp,0x73545
    2c70:	20e1e093          	ori	ra,gp,526
    2c74:	17bf8117          	auipc	sp,0x17bf8
    2c78:	32f17093          	andi	ra,sp,815
    2c7c:	0020e2b3          	or	t0,ra,sp
    2c80:	dd63e093          	ori	ra,t2,-554
    2c84:	627a4297          	auipc	t0,0x627a4
    2c88:	001183b3          	add	t2,gp,ra
    2c8c:	0a196197          	auipc	gp,0xa196
    2c90:	bdf101b7          	lui	gp,0xbdf10
    2c94:	34d13197          	auipc	gp,0x34d13
    2c98:	00114133          	xor	sp,sp,ra
    2c9c:	0a610093          	addi	ra,sp,166 # 0x17bfad1a
    2ca0:	df23a097          	auipc	ra,0xdf23a
    2ca4:	33b0c493          	xori	s1,ra,827
    2ca8:	003081b3          	add	gp,ra,gp
    2cac:	93b1a117          	auipc	sp,0x93b1a
    2cb0:	22017093          	andi	ra,sp,544
    2cb4:	37822097          	auipc	ra,0x37822
    2cb8:	00000197          	auipc	gp,0x0
    2cbc:	d30182e7          	jalr	t0,-720(gp) # 0x29e8
    2cc0:	41d130b7          	lui	ra,0x41d13
    2cc4:	d6d09197          	auipc	gp,0xd6d09
    2cc8:	012b0097          	auipc	ra,0x12b0
    2ccc:	1ec84217          	auipc	tp,0x1ec84
    2cd0:	2450f193          	andi	gp,ra,581
    2cd4:	6881f093          	andi	ra,gp,1672
    2cd8:	003140b3          	xor	ra,sp,gp
    2cdc:	efbd0113          	addi	sp,s10,-261 # 0x2af7befb
    2ce0:	00b160b3          	or	ra,sp,a1
    2ce4:	661ac093          	xori	ra,s5,1633
    2ce8:	0021c1b3          	xor	gp,gp,sp
    2cec:	89614113          	xori	sp,sp,-1898
    2cf0:	0bbc7097          	auipc	ra,0xbbc7
    2cf4:	9bc96137          	lui	sp,0x9bc96
    2cf8:	eb956037          	lui	zero,0xeb956
    2cfc:	4b61e193          	ori	gp,gp,1206
    2d00:	0011c033          	xor	zero,gp,ra
    2d04:	c5518193          	addi	gp,gp,-939 # 0xffffffffd6d0b919
    2d08:	11938117          	auipc	sp,0x11938
    2d0c:	02e17393          	andi	t2,sp,46
    2d10:	ed5840b7          	lui	ra,0xed584
    2d14:	0bb08093          	addi	ra,ra,187 # 0xffffffffed5840bb
    2d18:	9a9d4113          	xori	sp,s10,-1623
    2d1c:	677fa117          	auipc	sp,0x677fa
    2d20:	eaba6197          	auipc	gp,0xeaba6
    2d24:	005241b3          	xor	gp,tp,t0
    2d28:	15f180b7          	lui	ra,0x15f18
    2d2c:	43d3e193          	ori	gp,t2,1085
    2d30:	40678133          	sub	sp,a5,t1
    2d34:	2d3a5217          	auipc	tp,0x2d3a5
    2d38:	8b0593b7          	lui	t2,0x8b059
    2d3c:	1277b137          	lui	sp,0x1277b
    2d40:	f2c2b117          	auipc	sp,0xf2c2b
    2d44:	d10730b7          	lui	ra,0xd1073
    2d48:	00000697          	auipc	a3,0x0
    2d4c:	d4468167          	jalr	sp,-700(a3) # 0x2a8c
    2d50:	00336333          	or	t1,t1,gp
    2d54:	27c86337          	lui	t1,0x27c86
    2d58:	276f5297          	auipc	t0,0x276f5
    2d5c:	003b81b3          	add	gp,s7,gp
    2d60:	01ba60b7          	lui	ra,0x1ba6
    2d64:	31610193          	addi	gp,sp,790 # 0xfffffffff2c2e056
    2d68:	400082b3          	sub	t0,ra,zero
    2d6c:	ca947197          	auipc	gp,0xca947
    2d70:	04f5c117          	auipc	sp,0x4f5c
    2d74:	401182b3          	sub	t0,gp,ra
    2d78:	7470f093          	andi	ra,ra,1863
    2d7c:	802cd117          	auipc	sp,0x802cd
    2d80:	01e1f0b3          	and	ra,gp,t5
    2d84:	7f61c113          	xori	sp,gp,2038
    2d88:	40273097          	auipc	ra,0x40273
    2d8c:	73d6c397          	auipc	t2,0x73d6c
    2d90:	00916033          	or	zero,sp,s1
    2d94:	b7643097          	auipc	ra,0xb7643
    2d98:	44213137          	lui	sp,0x44213
    2d9c:	80da20b7          	lui	ra,0x80da2
    2da0:	402381b3          	sub	gp,t2,sp
    2da4:	00337133          	and	sp,t1,gp
    2da8:	bf62f697          	auipc	a3,0xbf62f
    2dac:	0051c1b3          	xor	gp,gp,t0
    2db0:	0060e2b3          	or	t0,ra,t1
    2db4:	00208133          	add	sp,ra,sp
    2db8:	0071c133          	xor	sp,gp,t2
    2dbc:	91d61137          	lui	sp,0x91d61
    2dc0:	b93c4137          	lui	sp,0xb93c4
    2dc4:	400100b3          	sub	ra,sp,zero
    2dc8:	403e80b3          	sub	ra,t4,gp
    2dcc:	85910593          	addi	a1,sp,-1959 # 0xffffffffb93c3859
    2dd0:	3fa08863          	beq	ra,s10,0x31c0
    2dd4:	3ec000ef          	jal	ra,0x31c0
    2dd8:	a4d17113          	andi	sp,sp,-1459
    2ddc:	45e11197          	auipc	gp,0x45e11
    2de0:	0b4be197          	auipc	gp,0xb4be
    2de4:	63e18093          	addi	ra,gp,1598 # 0xb4c141e
    2de8:	a2b10113          	addi	sp,sp,-1493
    2dec:	188dd317          	auipc	t1,0x188dd
    2df0:	61a2e313          	ori	t1,t0,1562
    2df4:	df3bd137          	lui	sp,0xdf3bd
    2df8:	535bb3b7          	lui	t2,0x535bb
    2dfc:	003171b3          	and	gp,sp,gp
    2e00:	002280b3          	add	ra,t0,sp
    2e04:	77987117          	auipc	sp,0x77987
    2e08:	b99be337          	lui	t1,0xb99be
    2e0c:	af399337          	lui	t1,0xaf399
    2e10:	40218333          	sub	t1,gp,sp
    2e14:	6581c113          	xori	sp,gp,1624
    2e18:	b5b741b7          	lui	gp,0xb5b74
    2e1c:	34e8b0b7          	lui	ra,0x34e8b
    2e20:	e2534113          	xori	sp,t1,-475
    2e24:	0001c133          	xor	sp,gp,zero
    2e28:	b80720b7          	lui	ra,0xb8072
    2e2c:	a441f813          	andi	a6,gp,-1468
    2e30:	845b85b7          	lui	a1,0x845b8
    2e34:	0023e0b3          	or	ra,t2,sp
    2e38:	f55d4137          	lui	sp,0xf55d4
    2e3c:	fe8c00b7          	lui	ra,0xfe8c0
    2e40:	403100b3          	sub	ra,sp,gp
    2e44:	0030e3b3          	or	t2,ra,gp
    2e48:	58673137          	lui	sp,0x58673
    2e4c:	21497117          	auipc	sp,0x21497
    2e50:	3e60f313          	andi	t1,ra,998
    2e54:	403080b3          	sub	ra,ra,gp
    2e58:	b003e313          	ori	t1,t2,-1280
    2e5c:	b19d72b7          	lui	t0,0xb19d7
    2e60:	44342097          	auipc	ra,0x44342
    2e64:	88333097          	auipc	ra,0x88333
    2e68:	23fc5117          	auipc	sp,0x23fc5
    2e6c:	22918663          	beq	gp,s1,0x3098
    2e70:	228003ef          	jal	t2,0x3098
    2e74:	8270f113          	andi	sp,ra,-2009
    2e78:	695e7217          	auipc	tp,0x695e7
    2e7c:	4704c193          	xori	gp,s1,1136
    2e80:	fec14793          	xori	a5,sp,-20
    2e84:	0010c133          	xor	sp,ra,ra
    2e88:	2ee1f093          	andi	ra,gp,750
    2e8c:	0022fe33          	and	t3,t0,sp
    2e90:	30b65097          	auipc	ra,0x30b65
    2e94:	0021c0b3          	xor	ra,gp,sp
    2e98:	45917193          	andi	gp,sp,1113
    2e9c:	b2010393          	addi	t2,sp,-1248 # 0x23fc7988
    2ea0:	afa5b0b7          	lui	ra,0xafa5b
    2ea4:	005100b3          	add	ra,sp,t0
    2ea8:	a5a0f193          	andi	gp,ra,-1446
    2eac:	51327093          	andi	ra,tp,1299
    2eb0:	c9980097          	auipc	ra,0xc9980
    2eb4:	cd616113          	ori	sp,sp,-810
    2eb8:	eb850197          	auipc	gp,0xeb850
    2ebc:	a05151b7          	lui	gp,0xa0515
    2ec0:	3a4901b7          	lui	gp,0x3a490
    2ec4:	403180b3          	sub	ra,gp,gp
    2ec8:	8ec5c193          	xori	gp,a1,-1812
    2ecc:	002183b3          	add	t2,gp,sp
    2ed0:	650ff3b7          	lui	t2,0x650ff
    2ed4:	2b56c297          	auipc	t0,0x2b56c
    2ed8:	fb6bd097          	auipc	ra,0xfb6bd
    2edc:	e9bb1097          	auipc	ra,0xe9bb1
    2ee0:	4a816037          	lui	zero,0x4a816
    2ee4:	0020c133          	xor	sp,ra,sp
    2ee8:	019070b3          	and	ra,zero,s9
    2eec:	2b0e2117          	auipc	sp,0x2b0e2
    2ef0:	0067c033          	xor	zero,a5,t1
    2ef4:	1f410793          	addi	a5,sp,500 # 0x2b0e50e0
    2ef8:	70320e63          	beq	tp,gp,0x3614
    2efc:	718000ef          	jal	ra,0x3614
    2f00:	22340097          	auipc	ra,0x22340
    2f04:	1404c1b7          	lui	gp,0x1404c
    2f08:	b7c0e117          	auipc	sp,0xb7c0e
    2f0c:	006342b3          	xor	t0,t1,t1
    2f10:	7cc951b7          	lui	gp,0x7cc95
    2f14:	0d7f1197          	auipc	gp,0xd7f1
    2f18:	2db8c137          	lui	sp,0x2db8c
    2f1c:	002181b3          	add	gp,gp,sp
    2f20:	f030c113          	xori	sp,ra,-253
    2f24:	41d23317          	auipc	t1,0x41d23
    2f28:	001370b3          	and	ra,t1,ra
    2f2c:	00210133          	add	sp,sp,sp
    2f30:	002180b3          	add	ra,gp,sp
    2f34:	6b991197          	auipc	gp,0x6b991
    2f38:	406100b3          	sub	ra,sp,t1
    2f3c:	006081b3          	add	gp,ra,t1
    2f40:	61912217          	auipc	tp,0x61912
    2f44:	c941a2b7          	lui	t0,0xc941a
    2f48:	f8f641b7          	lui	gp,0xf8f64
    2f4c:	c160f013          	andi	zero,ra,-1002
    2f50:	2fdcb037          	lui	zero,0x2fdcb
    2f54:	cdc00137          	lui	sp,0xcdc00
    2f58:	63375137          	lui	sp,0x63375
    2f5c:	3ed6c197          	auipc	gp,0x3ed6c
    2f60:	246810b7          	lui	ra,0x24681
    2f64:	419080b3          	sub	ra,ra,s9
    2f68:	05473017          	auipc	zero,0x5473
    2f6c:	f3617193          	andi	gp,sp,-202
    2f70:	de11f093          	andi	ra,gp,-543
    2f74:	1323a197          	auipc	gp,0x1323a
    2f78:	e9951097          	auipc	ra,0xe9951
    2f7c:	007180b3          	add	ra,gp,t2
    2f80:	2a118193          	addi	gp,gp,673 # 0x1323d215
    2f84:	e4110ae3          	beq	sp,ra,0x2dd8
    2f88:	e51ff1ef          	jal	gp,0x2dd8
    2f8c:	a1526293          	ori	t0,tp,-1515
    2f90:	7a817113          	andi	sp,sp,1960
    2f94:	cf3de0b7          	lui	ra,0xcf3de
    2f98:	546aa117          	auipc	sp,0x546aa
    2f9c:	4d928117          	auipc	sp,0x4d928
    2fa0:	5f7ba097          	auipc	ra,0x5f7ba
    2fa4:	0021c333          	xor	t1,gp,sp
    2fa8:	fd316393          	ori	t2,sp,-45
    2fac:	fd416093          	ori	ra,sp,-44
    2fb0:	29182117          	auipc	sp,0x29182
    2fb4:	0033c1b3          	xor	gp,t2,gp
    2fb8:	0021c133          	xor	sp,gp,sp
    2fbc:	79b48e37          	lui	t3,0x79b48
    2fc0:	eac1e093          	ori	ra,gp,-340
    2fc4:	001173b3          	and	t2,sp,ra
    2fc8:	debd7097          	auipc	ra,0xdebd7
    2fcc:	405080b3          	sub	ra,ra,t0
    2fd0:	fa127093          	andi	ra,tp,-95
    2fd4:	00326133          	or	sp,tp,gp
    2fd8:	b6495097          	auipc	ra,0xb6495
    2fdc:	d8317113          	andi	sp,sp,-637
    2fe0:	778fd197          	auipc	gp,0x778fd
    2fe4:	7e4db0b7          	lui	ra,0x7e4db
    2fe8:	5b71f613          	andi	a2,gp,1463
    2fec:	5b9581b7          	lui	gp,0x5b958
    2ff0:	0031f133          	and	sp,gp,gp
    2ff4:	b51e4297          	auipc	t0,0xb51e4
    2ff8:	73e10013          	addi	zero,sp,1854 # 0x291856ee
    2ffc:	90438217          	auipc	tp,0x90438
    3000:	3535b917          	auipc	s2,0x3535b
    3004:	403102b3          	sub	t0,sp,gp
    3008:	38385097          	auipc	ra,0x38385
    300c:	0021f133          	and	sp,gp,sp
    3010:	00010313          	mv	t1,sp
    3014:	e62300e3          	beq	t1,sp,0x2e74
    3018:	e1bdc237          	lui	tp,0xe1bdc
    301c:	5b014113          	xori	sp,sp,1456
    3020:	b7ab6137          	lui	sp,0xb7ab6
    3024:	0017e5b3          	or	a1,a5,ra
    3028:	3942f1b7          	lui	gp,0x3942f
    302c:	0f810193          	addi	gp,sp,248 # 0xffffffffb7ab60f8
    3030:	001141b3          	xor	gp,sp,ra
    3034:	3d7d7137          	lui	sp,0x3d7d7
    3038:	c86f4097          	auipc	ra,0xc86f4
    303c:	6aa82117          	auipc	sp,0x6aa82
    3040:	c141cc93          	xori	s9,gp,-1004
    3044:	ed7a00b7          	lui	ra,0xed7a0
    3048:	40d381b3          	sub	gp,t2,a3
    304c:	006180b3          	add	ra,gp,t1
    3050:	001184b3          	add	s1,gp,ra
    3054:	1e3473b7          	lui	t2,0x1e347
    3058:	67b722b7          	lui	t0,0x67b72
    305c:	bdc88097          	auipc	ra,0xbdc88
    3060:	0015f0b3          	and	ra,a1,ra
    3064:	414080b3          	sub	ra,ra,s4
    3068:	9b017013          	andi	zero,sp,-1616
    306c:	3eaf83b7          	lui	t2,0x3eaf8
    3070:	8ff381b7          	lui	gp,0x8ff38
    3074:	aa8e0237          	lui	tp,0xaa8e0
    3078:	c0a0e113          	ori	sp,ra,-1014
    307c:	ef67e197          	auipc	gp,0xef67e
    3080:	efab9137          	lui	sp,0xefab9
    3084:	90d7f0b7          	lui	ra,0x90d7f
    3088:	4a438197          	auipc	gp,0x4a438
    308c:	a170e093          	ori	ra,ra,-1513
    3090:	00030213          	mv	tp,t1
    3094:	50620063          	beq	tp,t1,0x3594
    3098:	0021f1b3          	and	gp,gp,sp
    309c:	d424b317          	auipc	t1,0xd424b
    30a0:	b4e18013          	addi	zero,gp,-1202 # 0x4a43abd6
    30a4:	c3b86097          	auipc	ra,0xc3b86
    30a8:	4c753117          	auipc	sp,0x4c753
    30ac:	0011e1b3          	or	gp,gp,ra
    30b0:	0020f233          	and	tp,ra,sp
    30b4:	8d314113          	xori	sp,sp,-1837
    30b8:	1c21e393          	ori	t2,gp,450
    30bc:	95317193          	andi	gp,sp,-1709
    30c0:	ad018093          	addi	ra,gp,-1328
    30c4:	00316133          	or	sp,sp,gp
    30c8:	ab0831b7          	lui	gp,0xab083
    30cc:	24695c37          	lui	s8,0x24695
    30d0:	02a54117          	auipc	sp,0x2a54
    30d4:	402100b3          	sub	ra,sp,sp
    30d8:	0072e1b3          	or	gp,t0,t2
    30dc:	a02e1097          	auipc	ra,0xa02e1
    30e0:	2fd0c193          	xori	gp,ra,765
    30e4:	c1780197          	auipc	gp,0xc1780
    30e8:	045fd097          	auipc	ra,0x45fd
    30ec:	0021e1b3          	or	gp,gp,sp
    30f0:	002171b3          	and	gp,sp,sp
    30f4:	489dd1b7          	lui	gp,0x489dd
    30f8:	cab10b13          	addi	s6,sp,-853 # 0x2a56d7b
    30fc:	a1504137          	lui	sp,0xa1504
    3100:	fe500193          	li	gp,-27
    3104:	40518133          	sub	sp,gp,t0
    3108:	d1c0f113          	andi	sp,ra,-740
    310c:	cf6fa1b7          	lui	gp,0xcf6fa
    3110:	d6142117          	auipc	sp,0xd6142
    3114:	16051317          	auipc	t1,0x16051
    3118:	443fe0b7          	lui	ra,0x443fe
    311c:	00357133          	and	sp,a0,gp
    3120:	00010213          	mv	tp,sp
    3124:	68220e63          	beq	tp,sp,0x37c0
    3128:	a9ad7093          	andi	ra,s10,-1382
    312c:	4b91f193          	andi	gp,gp,1209
    3130:	fdc0e013          	ori	zero,ra,-36
    3134:	001060b3          	or	ra,zero,ra
    3138:	5c947093          	andi	ra,s0,1481
    313c:	7344c337          	lui	t1,0x7344c
    3140:	001262b3          	or	t0,tp,ra
    3144:	0030e1b3          	or	gp,ra,gp
    3148:	0050f1b3          	and	gp,ra,t0
    314c:	002171b3          	and	gp,sp,sp
    3150:	d5a26317          	auipc	t1,0xd5a26
    3154:	0031c0b3          	xor	ra,gp,gp
    3158:	402080b3          	sub	ra,ra,sp
    315c:	ec516193          	ori	gp,sp,-315
    3160:	40d080b3          	sub	ra,ra,a3
    3164:	004170b3          	and	ra,sp,tp
    3168:	bd058113          	addi	sp,a1,-1072 # 0xffffffff845b7bd0
    316c:	407381b3          	sub	gp,t2,t2
    3170:	0032c1b3          	xor	gp,t0,gp
    3174:	59017393          	andi	t2,sp,1424
    3178:	00708233          	add	tp,ra,t2
    317c:	0000c233          	xor	tp,ra,zero
    3180:	40100133          	neg	sp,ra
    3184:	0021e133          	or	sp,gp,sp
    3188:	335be0b7          	lui	ra,0x335be
    318c:	acd10313          	addi	t1,sp,-1331 # 0xffffffffd6144bdd
    3190:	001040b3          	xor	ra,zero,ra
    3194:	0011e133          	or	sp,gp,ra
    3198:	0031e2b3          	or	t0,gp,gp
    319c:	d347f1b7          	lui	gp,0xd347f
    31a0:	00208233          	add	tp,ra,sp
    31a4:	c688e317          	auipc	t1,0xc688e
    31a8:	187740b7          	lui	ra,0x18774
    31ac:	0031c333          	xor	t1,gp,gp
    31b0:	401481b3          	sub	gp,s1,ra
    31b4:	01f17133          	and	sp,sp,t6
    31b8:	00000397          	auipc	t2,0x0
    31bc:	23038167          	jalr	sp,560(t2) # 0x33e8
    31c0:	09bd9737          	lui	a4,0x9bd9
    31c4:	0014f133          	and	sp,s1,ra
    31c8:	00b1e4b3          	or	s1,gp,a1
    31cc:	00304133          	xor	sp,zero,gp
    31d0:	3e4400b7          	lui	ra,0x3e440
    31d4:	0c2e40b7          	lui	ra,0xc2e4
    31d8:	00324133          	xor	sp,tp,gp
    31dc:	cc53c117          	auipc	sp,0xcc53c
    31e0:	406101b3          	sub	gp,sp,t1
    31e4:	1d938293          	addi	t0,t2,473
    31e8:	d02ab1b7          	lui	gp,0xd02ab
    31ec:	01307133          	and	sp,zero,s3
    31f0:	40248333          	sub	t1,s1,sp
    31f4:	cde5f0b7          	lui	ra,0xcde5f
    31f8:	f7454197          	auipc	gp,0xf7454
    31fc:	b10151b7          	lui	gp,0xb1015
    3200:	00317133          	and	sp,sp,gp
    3204:	2dd45137          	lui	sp,0x2dd45
    3208:	e121f193          	andi	gp,gp,-494
    320c:	14e61317          	auipc	t1,0x14e61
    3210:	d03d6317          	auipc	t1,0xd03d6
    3214:	403181b3          	sub	gp,gp,gp
    3218:	0000c3b3          	xor	t2,ra,zero
    321c:	6fad3397          	auipc	t2,0x6fad3
    3220:	4a418113          	addi	sp,gp,1188 # 0xffffffffb10154a4
    3224:	003164b3          	or	s1,sp,gp
    3228:	2f910493          	addi	s1,sp,761 # 0x2dd452f9
    322c:	0011c333          	xor	t1,gp,ra
    3230:	ac417037          	lui	zero,0xac417
    3234:	d54a4137          	lui	sp,0xd54a4
    3238:	3da0c093          	xori	ra,ra,986
    323c:	0a737193          	andi	gp,t1,167
    3240:	cc1180e3          	beq	gp,ra,0x2f00
    3244:	cbdff3ef          	jal	t2,0x2f00
    3248:	00257033          	and	zero,a0,sp
    324c:	d420f097          	auipc	ra,0xd420f
    3250:	0031e133          	or	sp,gp,gp
    3254:	8cd29197          	auipc	gp,0x8cd29
    3258:	c5a861b7          	lui	gp,0xc5a86
    325c:	e041e113          	ori	sp,gp,-508
    3260:	b101c493          	xori	s1,gp,-1264
    3264:	5c118093          	addi	ra,gp,1473 # 0xffffffffc5a865c1
    3268:	c841a197          	auipc	gp,0xc841a
    326c:	c5dc2217          	auipc	tp,0xc5dc2
    3270:	82358217          	auipc	tp,0x82358
    3274:	a5e8b137          	lui	sp,0xa5e8b
    3278:	002170b3          	and	ra,sp,sp
    327c:	402108b3          	sub	a7,sp,sp
    3280:	45b08113          	addi	sp,ra,1115 # 0xffffffffd42126a7
    3284:	f877b317          	auipc	t1,0xf877b
    3288:	d348f137          	lui	sp,0xd348f
    328c:	02738193          	addi	gp,t2,39 # 0x6fad6243
    3290:	2936d0b7          	lui	ra,0x2936d
    3294:	7d70f013          	andi	zero,ra,2007
    3298:	403201b3          	sub	gp,tp,gp
    329c:	a1d18693          	addi	a3,gp,-1507 # 0xffffffffc841cc85
    32a0:	0b6ac3b7          	lui	t2,0xb6ac
    32a4:	4f6980b7          	lui	ra,0x4f698
    32a8:	e2c0c093          	xori	ra,ra,-468
    32ac:	1ef4e237          	lui	tp,0x1ef4e
    32b0:	4d418197          	auipc	gp,0x4d418
    32b4:	07b0e213          	ori	tp,ra,123
    32b8:	000170b3          	and	ra,sp,zero
    32bc:	1a05b037          	lui	zero,0x1a05b
    32c0:	1721ce13          	xori	t3,gp,370
    32c4:	401180b3          	sub	ra,gp,ra
    32c8:	95a3c113          	xori	sp,t2,-1702
    32cc:	70edcf37          	lui	t5,0x70edc
    32d0:	3635f137          	lui	sp,0x3635f
    32d4:	ca328ce3          	beq	t0,gp,0x2f8c
    32d8:	cb5ff0ef          	jal	ra,0x2f8c
    32dc:	8d396097          	auipc	ra,0x8d396
    32e0:	007170b3          	and	ra,sp,t2
    32e4:	003180b3          	add	ra,gp,gp
    32e8:	3996f1b7          	lui	gp,0x3996f
    32ec:	53c23237          	lui	tp,0x53c23
    32f0:	54318193          	addi	gp,gp,1347 # 0x3996f543
    32f4:	974fe1b7          	lui	gp,0x974fe
    32f8:	005140b3          	xor	ra,sp,t0
    32fc:	405082b3          	sub	t0,ra,t0
    3300:	d824d3b7          	lui	t2,0xd824d
    3304:	ef241017          	auipc	zero,0xef241
    3308:	0010e1b3          	or	gp,ra,ra
    330c:	0031e133          	or	sp,gp,gp
    3310:	317532b7          	lui	t0,0x31753
    3314:	00510233          	add	tp,sp,t0
    3318:	0010f033          	and	zero,ra,ra
    331c:	f4961117          	auipc	sp,0xf4961
    3320:	f1a7d1b7          	lui	gp,0xf1a7d
    3324:	40310133          	sub	sp,sp,gp
    3328:	92492297          	auipc	t0,0x92492
    332c:	27408093          	addi	ra,ra,628 # 0xffffffff8d399550
    3330:	00318433          	add	s0,gp,gp
    3334:	05495097          	auipc	ra,0x5495
    3338:	00117133          	and	sp,sp,ra
    333c:	8ebde197          	auipc	gp,0x8ebde
    3340:	eaedd097          	auipc	ra,0xeaedd
    3344:	49f9a137          	lui	sp,0x49f9a
    3348:	007170b3          	and	ra,sp,t2
    334c:	40d082b3          	sub	t0,ra,a3
    3350:	0070c133          	xor	sp,ra,t2
    3354:	0c20c313          	xori	t1,ra,194
    3358:	6fe08093          	addi	ra,ra,1790 # 0xffffffffeaee0a3e
    335c:	e0908093          	addi	ra,ra,-503
    3360:	e2d17113          	andi	sp,sp,-467
    3364:	00000797          	auipc	a5,0x0
    3368:	114781e7          	jalr	gp,276(a5) # 0x3478
    336c:	22a1c113          	xori	sp,gp,554
    3370:	4d181217          	auipc	tp,0x4d181
    3374:	2f9a0037          	lui	zero,0x2f9a0
    3378:	7da14193          	xori	gp,sp,2010
    337c:	2afc3217          	auipc	tp,0x2afc3
    3380:	0031e133          	or	sp,gp,gp
    3384:	0012c1b3          	xor	gp,t0,ra
    3388:	654b2937          	lui	s2,0x654b2
    338c:	aa7d67b7          	lui	a5,0xaa7d6
    3390:	13e1e193          	ori	gp,gp,318
    3394:	ce118137          	lui	sp,0xce118
    3398:	370eb117          	auipc	sp,0x370eb
    339c:	401380b3          	sub	ra,t2,ra
    33a0:	0010e133          	or	sp,ra,ra
    33a4:	2f165197          	auipc	gp,0x2f165
    33a8:	4a80e193          	ori	gp,ra,1192
    33ac:	f8048193          	addi	gp,s1,-128 # 0xffffffffe4e15bcc
    33b0:	20b63117          	auipc	sp,0x20b63
    33b4:	96d0c093          	xori	ra,ra,-1683
    33b8:	1dd7e1b7          	lui	gp,0x1dd7e
    33bc:	2d2f71b7          	lui	gp,0x2d2f7
    33c0:	eccc8397          	auipc	t2,0xeccc8
    33c4:	0021f1b3          	and	gp,gp,sp
    33c8:	c38920b7          	lui	ra,0xc3892
    33cc:	e46ac197          	auipc	gp,0xe46ac
    33d0:	0050c133          	xor	sp,ra,t0
    33d4:	b631f113          	andi	sp,gp,-1181
    33d8:	00214133          	xor	sp,sp,sp
    33dc:	22b27093          	andi	ra,tp,555
    33e0:	00000117          	auipc	sp,0x0
    33e4:	d48101e7          	jalr	gp,-696(sp) # 0x3128
    33e8:	77b58313          	addi	t1,a1,1915
    33ec:	879a3197          	auipc	gp,0x879a3
    33f0:	64b38193          	addi	gp,t2,1611 # 0xffffffffecccba0b
    33f4:	f5848313          	addi	t1,s1,-168
    33f8:	1450e213          	ori	tp,ra,325
    33fc:	2c672e37          	lui	t3,0x2c672
    3400:	72949317          	auipc	t1,0x72949
    3404:	0031f133          	and	sp,gp,gp
    3408:	e7dc2097          	auipc	ra,0xe7dc2
    340c:	43f073b7          	lui	t2,0x43f07
    3410:	69d54197          	auipc	gp,0x69d54
    3414:	1bb46117          	auipc	sp,0x1bb46
    3418:	030fb097          	auipc	ra,0x30fb
    341c:	000fc0b3          	xor	ra,t6,zero
    3420:	de7ad137          	lui	sp,0xde7ad
    3424:	c63e1337          	lui	t1,0xc63e1
    3428:	092de497          	auipc	s1,0x92de
    342c:	2191c117          	auipc	sp,0x2191c
    3430:	09a26093          	ori	ra,tp,154
    3434:	d550f193          	andi	gp,ra,-683
    3438:	0022e133          	or	sp,t0,sp
    343c:	4341c113          	xori	sp,gp,1076
    3440:	000172b3          	and	t0,sp,zero
    3444:	bb40e393          	ori	t2,ra,-1100
    3448:	4e2f20b7          	lui	ra,0x4e2f2
    344c:	95e0b0b7          	lui	ra,0x95e0b
    3450:	00c1e133          	or	sp,gp,a2
    3454:	60a761b7          	lui	gp,0x60a76
    3458:	7bd1e197          	auipc	gp,0x7bd1e
    345c:	001075b3          	and	a1,zero,ra
    3460:	2310c093          	xori	ra,ra,561
    3464:	443d62b7          	lui	t0,0x443d6
    3468:	786fe117          	auipc	sp,0x786fe
    346c:	74c48117          	auipc	sp,0x74c48
    3470:	2c308663          	beq	ra,gp,0x373c
    3474:	2c8000ef          	jal	ra,0x373c
    3478:	42218113          	addi	sp,gp,1058 # 0x7bd2187a
    347c:	0228c217          	auipc	tp,0x228c
    3480:	61e4c093          	xori	ra,s1,1566
    3484:	03397193          	andi	gp,s2,51
    3488:	d5c1f113          	andi	sp,gp,-676
    348c:	1940d217          	auipc	tp,0x1940d
    3490:	3ff750b7          	lui	ra,0x3ff75
    3494:	9912a0b7          	lui	ra,0x9912a
    3498:	b9057117          	auipc	sp,0xb9057
    349c:	27910113          	addi	sp,sp,633 # 0xffffffffb905a711
    34a0:	dfa10193          	addi	gp,sp,-518
    34a4:	b226a237          	lui	tp,0xb226a
    34a8:	ae6a0317          	auipc	t1,0xae6a0
    34ac:	6a493197          	auipc	gp,0x6a493
    34b0:	c3bd2097          	auipc	ra,0xc3bd2
    34b4:	2dd16093          	ori	ra,sp,733
    34b8:	dc120113          	addi	sp,tp,-575 # 0xffffffffb2269dc1
    34bc:	f5ee3137          	lui	sp,0xf5ee3
    34c0:	581c80b7          	lui	ra,0x581c8
    34c4:	3f810113          	addi	sp,sp,1016 # 0xfffffffff5ee33f8
    34c8:	2c54f1b7          	lui	gp,0x2c54f
    34cc:	bf8c6117          	auipc	sp,0xbf8c6
    34d0:	90c1e093          	ori	ra,gp,-1780
    34d4:	7c60e693          	ori	a3,ra,1990
    34d8:	2d651817          	auipc	a6,0x2d651
    34dc:	001170b3          	and	ra,sp,ra
    34e0:	002182b3          	add	t0,gp,sp
    34e4:	002080b3          	add	ra,ra,sp
    34e8:	070b2137          	lui	sp,0x70b2
    34ec:	6fb57137          	lui	sp,0x6fb57
    34f0:	4a5951b7          	lui	gp,0x4a595
    34f4:	f9866197          	auipc	gp,0xf9866
    34f8:	402104b3          	sub	s1,sp,sp
    34fc:	b0559137          	lui	sp,0xb0559
    3500:	00018293          	mv	t0,gp
    3504:	e63284e3          	beq	t0,gp,0x336c
    3508:	07934097          	auipc	ra,0x7934
    350c:	0011c133          	xor	sp,gp,ra
    3510:	1c30f193          	andi	gp,ra,451
    3514:	4151c113          	xori	sp,gp,1045
    3518:	7ed1f113          	andi	sp,gp,2029
    351c:	4ded6bb7          	lui	s7,0x4ded6
    3520:	68918093          	addi	ra,gp,1673 # 0xfffffffff9869b7d
    3524:	401181b3          	sub	gp,gp,ra
    3528:	003171b3          	and	gp,sp,gp
    352c:	3122f293          	andi	t0,t0,786
    3530:	70318137          	lui	sp,0x70318
    3534:	fdf2f2b7          	lui	t0,0xfdf2f
    3538:	815440b7          	lui	ra,0x81544
    353c:	f3333797          	auipc	a5,0xf3333
    3540:	0021c1b3          	xor	gp,gp,sp
    3544:	fb616113          	ori	sp,sp,-74
    3548:	1abea117          	auipc	sp,0x1abea
    354c:	002061b3          	or	gp,zero,sp
    3550:	00327133          	and	sp,tp,gp
    3554:	b9892237          	lui	tp,0xb9892
    3558:	02ac4137          	lui	sp,0x2ac4
    355c:	14428437          	lui	s0,0x14428
    3560:	f78a3117          	auipc	sp,0xf78a3
    3564:	2001c113          	xori	sp,gp,512
    3568:	c31ac1b7          	lui	gp,0xc31ac
    356c:	df308093          	addi	ra,ra,-525 # 0xffffffff81543df3
    3570:	36a85297          	auipc	t0,0x36a85
    3574:	0070c1b3          	xor	gp,ra,t2
    3578:	83914093          	xori	ra,sp,-1991
    357c:	003171b3          	and	gp,sp,gp
    3580:	bda470b7          	lui	ra,0xbda47
    3584:	6e920e97          	auipc	t4,0x6e920
    3588:	c53c3197          	auipc	gp,0xc53c3
    358c:	cad08ee3          	beq	ra,a3,0x3248
    3590:	cb9ff4ef          	jal	s1,0x3248
    3594:	9f10e193          	ori	gp,ra,-1551
    3598:	2ce2a037          	lui	zero,0x2ce2a
    359c:	77216093          	ori	ra,sp,1906
    35a0:	29c18293          	addi	t0,gp,668 # 0xffffffffc53c6824
    35a4:	00706233          	or	tp,zero,t2
    35a8:	5240c113          	xori	sp,ra,1316
    35ac:	0031f3b3          	and	t2,gp,gp
    35b0:	06f8b1b7          	lui	gp,0x6f8b
    35b4:	73718313          	addi	t1,gp,1847 # 0x6f8b737
    35b8:	3211c193          	xori	gp,gp,801
    35bc:	0031f1b3          	and	gp,gp,gp
    35c0:	403080b3          	sub	ra,ra,gp
    35c4:	0151e013          	ori	zero,gp,21
    35c8:	e2ba01b7          	lui	gp,0xe2ba0
    35cc:	01ede117          	auipc	sp,0x1ede
    35d0:	855a0197          	auipc	gp,0x855a0
    35d4:	0011c1b3          	xor	gp,gp,ra
    35d8:	40f183b3          	sub	t2,gp,a5
    35dc:	0021f1b3          	and	gp,gp,sp
    35e0:	400181b3          	sub	gp,gp,zero
    35e4:	350cb0b7          	lui	ra,0x350cb
    35e8:	66598137          	lui	sp,0x66598
    35ec:	6531f393          	andi	t2,gp,1619
    35f0:	db417093          	andi	ra,sp,-588
    35f4:	59e49217          	auipc	tp,0x59e49
    35f8:	434c6117          	auipc	sp,0x434c6
    35fc:	b5e4d117          	auipc	sp,0xb5e4d
    3600:	2d40e093          	ori	ra,ra,724
    3604:	f6c9b197          	auipc	gp,0xf6c9b
    3608:	000a0233          	add	tp,s4,zero
    360c:	08320a63          	beq	tp,gp,0x36a0
    3610:	090000ef          	jal	ra,0x36a0
    3614:	001081b3          	add	gp,ra,ra
    3618:	7eb3b117          	auipc	sp,0x7eb3b
    361c:	975f8117          	auipc	sp,0x975f8
    3620:	4b008093          	addi	ra,ra,1200 # 0x350cb4b0
    3624:	d4408f93          	addi	t6,ra,-700
    3628:	6930fb93          	andi	s7,ra,1683
    362c:	0c68e137          	lui	sp,0xc68e
    3630:	e5881117          	auipc	sp,0xe5881
    3634:	5621f313          	andi	t1,gp,1378
    3638:	71693217          	auipc	tp,0x71693
    363c:	8fd47097          	auipc	ra,0x8fd47
    3640:	401681b3          	sub	gp,a3,ra
    3644:	006240b3          	xor	ra,tp,t1
    3648:	a330e093          	ori	ra,ra,-1485
    364c:	0bc120b7          	lui	ra,0xbc12
    3650:	97918193          	addi	gp,gp,-1671 # 0xfffffffff6c9df7d
    3654:	001380b3          	add	ra,t2,ra
    3658:	402201b3          	sub	gp,tp,sp
    365c:	140c26b7          	lui	a3,0x140c2
    3660:	5edc9097          	auipc	ra,0x5edc9
    3664:	bd3371b7          	lui	gp,0xbd337
    3668:	d2b22097          	auipc	ra,0xd2b22
    366c:	401101b3          	sub	gp,sp,ra
    3670:	64e1c093          	xori	ra,gp,1614
    3674:	a51dc117          	auipc	sp,0xa51dc
    3678:	0010e0b3          	or	ra,ra,ra
    367c:	8e5f0037          	lui	zero,0x8e5f0
    3680:	001101b3          	add	gp,sp,ra
    3684:	2f5c0397          	auipc	t2,0x2f5c0
    3688:	9b69a2b7          	lui	t0,0x9b69a
    368c:	cfc79937          	lui	s2,0xcfc79
    3690:	c36fc137          	lui	sp,0xc36fc
    3694:	b13c7197          	auipc	gp,0xb13c7
    3698:	00000217          	auipc	tp,0x0
    369c:	c44201e7          	jalr	gp,-956(tp) # 0x0
    36a0:	45e4e097          	auipc	ra,0x45e4e
    36a4:	3367c197          	auipc	gp,0x3367c
    36a8:	04bd00b7          	lui	ra,0x4bd0
    36ac:	a8ac31b7          	lui	gp,0xa8ac3
    36b0:	6268d097          	auipc	ra,0x6268d
    36b4:	6597a197          	auipc	gp,0x6597a
    36b8:	172b6137          	lui	sp,0x172b6
    36bc:	22e50197          	auipc	gp,0x22e50
    36c0:	278a5137          	lui	sp,0x278a5
    36c4:	c86a8117          	auipc	sp,0xc86a8
    36c8:	9e1d9097          	auipc	ra,0x9e1d9
    36cc:	271b9137          	lui	sp,0x271b9
    36d0:	11b9d137          	lui	sp,0x11b9d
    36d4:	fee00093          	li	ra,-18
    36d8:	a8c791b7          	lui	gp,0xa8c79
    36dc:	af300093          	li	ra,-1293
    36e0:	82149017          	auipc	zero,0x82149
    36e4:	af19b0b7          	lui	ra,0xaf19b
    36e8:	9e1e53b7          	lui	t2,0x9e1e5
    36ec:	9d40e113          	ori	sp,ra,-1580
    36f0:	7d210193          	addi	gp,sp,2002 # 0x11b9d7d2
    36f4:	00e181b3          	add	gp,gp,a4
    36f8:	7504a137          	lui	sp,0x7504a
    36fc:	f891f113          	andi	sp,gp,-119
    3700:	7fbff1b7          	lui	gp,0x7fbff
    3704:	2ee00117          	auipc	sp,0x2ee00
    3708:	4d9c6093          	ori	ra,s8,1241
    370c:	00f0f133          	and	sp,ra,a5
    3710:	3a510113          	addi	sp,sp,933 # 0x2ee03aa9
    3714:	00310133          	add	sp,sp,gp
    3718:	227001b7          	lui	gp,0x22700
    371c:	0052f1b3          	and	gp,t0,t0
    3720:	5700f193          	andi	gp,ra,1392
    3724:	12e831b7          	lui	gp,0x12e83
    3728:	18a97197          	auipc	gp,0x18a97
    372c:	5be1c093          	xori	ra,gp,1470
    3730:	148d4197          	auipc	gp,0x148d4
    3734:	00b10263          	beq	sp,a1,0x3738
    3738:	e18ff16f          	jal	sp,0x2d50
    373c:	11b51037          	lui	zero,0x11b51
    3740:	6d9583b7          	lui	t2,0x6d958
    3744:	fb116113          	ori	sp,sp,-79
    3748:	7dc1f193          	andi	gp,gp,2012
    374c:	9b82f137          	lui	sp,0x9b82f
    3750:	7ee20597          	auipc	a1,0x7ee20
    3754:	4371f093          	andi	ra,gp,1079
    3758:	6f81f137          	lui	sp,0x6f81f
    375c:	d537e193          	ori	gp,a5,-685
    3760:	acd91297          	auipc	t0,0xacd91
    3764:	ae918093          	addi	ra,gp,-1303 # 0x148d7219
    3768:	99b18237          	lui	tp,0x99b18
    376c:	2d7a2297          	auipc	t0,0x2d7a2
    3770:	14d0f137          	lui	sp,0x14d0f
    3774:	b38fd0b7          	lui	ra,0xb38fd
    3778:	9d50c097          	auipc	ra,0x9d50c
    377c:	cc48e193          	ori	gp,a7,-828
    3780:	19ea91b7          	lui	gp,0x19ea9
    3784:	00d488b3          	add	a7,s1,a3
    3788:	defc50b7          	lui	ra,0xdefc5
    378c:	0020f133          	and	sp,ra,sp
    3790:	6b647037          	lui	zero,0x6b647
    3794:	9e027213          	andi	tp,tp,-1568
    3798:	60647337          	lui	t1,0x60647
    379c:	e1eab197          	auipc	gp,0xe1eab
    37a0:	6fb7b117          	auipc	sp,0x6fb7b
    37a4:	52ec9197          	auipc	gp,0x52ec9
    37a8:	04eda5b7          	lui	a1,0x4eda
    37ac:	16dc8137          	lui	sp,0x16dc8
    37b0:	e7687237          	lui	tp,0xe7687
    37b4:	42bc51b7          	lui	gp,0x42bc5
    37b8:	00500263          	beq	zero,t0,0x37bc
    37bc:	7fc0016f          	jal	sp,0x3fb8
    37c0:	35e71117          	auipc	sp,0x35e71
    37c4:	4ea45137          	lui	sp,0x4ea45
    37c8:	1ed17093          	andi	ra,sp,493
    37cc:	19360397          	auipc	t2,0x19360
    37d0:	002142b3          	xor	t0,sp,sp
    37d4:	403184b3          	sub	s1,gp,gp
    37d8:	9655c137          	lui	sp,0x9655c
    37dc:	de117313          	andi	t1,sp,-543
    37e0:	402801b3          	sub	gp,a6,sp
    37e4:	6ccba717          	auipc	a4,0x6ccba
    37e8:	c5fcc397          	auipc	t2,0xc5fcc
    37ec:	d6d0cf93          	xori	t6,ra,-659
    37f0:	e3ab51b7          	lui	gp,0xe3ab5
    37f4:	002160b3          	or	ra,sp,sp
    37f8:	00110233          	add	tp,sp,ra
    37fc:	89816193          	ori	gp,sp,-1896
    3800:	b08957b7          	lui	a5,0xb0895
    3804:	002241b3          	xor	gp,tp,sp
    3808:	a9000217          	auipc	tp,0xa9000
    380c:	55d1c193          	xori	gp,gp,1373
    3810:	648960b7          	lui	ra,0x64896
    3814:	bbb16113          	ori	sp,sp,-1093
    3818:	e0cc1437          	lui	s0,0xe0cc1
    381c:	006180b3          	add	ra,gp,t1
    3820:	d5b14093          	xori	ra,sp,-677
    3824:	56e74117          	auipc	sp,0x56e74
    3828:	7e5ac1b7          	lui	gp,0x7e5ac
    382c:	00216133          	or	sp,sp,sp
    3830:	2a30e113          	ori	sp,ra,675
    3834:	513882b7          	lui	t0,0x51388
    3838:	00018193          	mv	gp,gp
    383c:	cc3186e3          	beq	gp,gp,0x3508
    3840:	cf5551b7          	lui	gp,0xcf555
    3844:	f500e113          	ori	sp,ra,-176
    3848:	001160b3          	or	ra,sp,ra
    384c:	00d6a1b7          	lui	gp,0xd6a
    3850:	51128013          	addi	zero,t0,1297 # 0x51388511
    3854:	003100b3          	add	ra,sp,gp
    3858:	25cde097          	auipc	ra,0x25cde
    385c:	003170b3          	and	ra,sp,gp
    3860:	58508b93          	addi	s7,ra,1413 # 0x25ce1ddd
    3864:	006100b3          	add	ra,sp,t1
    3868:	405080b3          	sub	ra,ra,t0
    386c:	300a4197          	auipc	gp,0x300a4
    3870:	f2410193          	addi	gp,sp,-220 # 0x56e77748
    3874:	0020c4b3          	xor	s1,ra,sp
    3878:	99b1e193          	ori	gp,gp,-1637
    387c:	0076c033          	xor	zero,a3,t2
    3880:	ae600213          	li	tp,-1306
    3884:	b51ff5b7          	lui	a1,0xb51ff
    3888:	798240b7          	lui	ra,0x79824
    388c:	015f1137          	lui	sp,0x15f1
    3890:	b3d10093          	addi	ra,sp,-1219 # 0x15f0b3d
    3894:	ded0c093          	xori	ra,ra,-531
    3898:	402100b3          	sub	ra,sp,sp
    389c:	dd60f113          	andi	sp,ra,-554
    38a0:	96aae0b7          	lui	ra,0x96aae
    38a4:	17417313          	andi	t1,sp,372
    38a8:	49353097          	auipc	ra,0x49353
    38ac:	53b4f213          	andi	tp,s1,1339
    38b0:	e1d15117          	auipc	sp,0xe1d15
    38b4:	00310cb3          	add	s9,sp,gp
    38b8:	a1018093          	addi	ra,gp,-1520 # 0x300a727c
    38bc:	904e2017          	auipc	zero,0x904e2
    38c0:	fd86f137          	lui	sp,0xfd86f
    38c4:	00110263          	beq	sp,ra,0x38c8
    38c8:	1150096f          	jal	s2,0x41dc
    38cc:	c2338113          	addi	sp,t2,-989 # 0xffffffffc5fcf40b
    38d0:	a95fb097          	auipc	ra,0xa95fb
    38d4:	e1c3e117          	auipc	sp,0xe1c3e
    38d8:	5dc16793          	ori	a5,sp,1500
    38dc:	12996bb7          	lui	s7,0x12996
    38e0:	9d0b9137          	lui	sp,0x9d0b9
    38e4:	0041f133          	and	sp,gp,tp
    38e8:	d47ce1b7          	lui	gp,0xd47ce
    38ec:	2b918193          	addi	gp,gp,697 # 0xffffffffd47ce2b9
    38f0:	0060f0b3          	and	ra,ra,t1
    38f4:	a4f25097          	auipc	ra,0xa4f25
    38f8:	4d236313          	ori	t1,t1,1234
    38fc:	b1c578b7          	lui	a7,0xb1c57
    3900:	2b662fb7          	lui	t6,0x2b662
    3904:	08308193          	addi	gp,ra,131 # 0xffffffffa4f28977
    3908:	d292f113          	andi	sp,t0,-727
    390c:	54900193          	li	gp,1353
    3910:	cfa392b7          	lui	t0,0xcfa39
    3914:	b7d26193          	ori	gp,tp,-1155
    3918:	0030c3b3          	xor	t2,ra,gp
    391c:	00d162b3          	or	t0,sp,a3
    3920:	401100b3          	sub	ra,sp,ra
    3924:	319b9117          	auipc	sp,0x319b9
    3928:	c0a911b7          	lui	gp,0xc0a91
    392c:	3973a097          	auipc	ra,0x3973a
    3930:	ea608117          	auipc	sp,0xea608
    3934:	401003b3          	neg	t2,ra
    3938:	0010e1b3          	or	gp,ra,ra
    393c:	32011117          	auipc	sp,0x32011
    3940:	72931197          	auipc	gp,0x72931
    3944:	001082b3          	add	t0,ra,ra
    3948:	00130263          	beq	t1,ra,0x394c
    394c:	00d0016f          	jal	sp,0x4158
    3950:	90ff1117          	auipc	sp,0x90ff1
    3954:	403101b3          	sub	gp,sp,gp
    3958:	002141b3          	xor	gp,sp,sp
    395c:	9050e593          	ori	a1,ra,-1787
    3960:	00108333          	add	t1,ra,ra
    3964:	6fa21317          	auipc	t1,0x6fa21
    3968:	0021e1b3          	or	gp,gp,sp
    396c:	b2027213          	andi	tp,tp,-1248
    3970:	a268d117          	auipc	sp,0xa268d
    3974:	78d1c293          	xori	t0,gp,1933
    3978:	002343b3          	xor	t2,t1,sp
    397c:	14010397          	auipc	t2,0x14010
    3980:	401180b3          	sub	ra,gp,ra
    3984:	1bcae117          	auipc	sp,0x1bcae
    3988:	f38a0037          	lui	zero,0xf38a0
    398c:	75188097          	auipc	ra,0x75188
    3990:	455c80b7          	lui	ra,0x455c8
    3994:	81816113          	ori	sp,sp,-2024
    3998:	0012e333          	or	t1,t0,ra
    399c:	8c578137          	lui	sp,0x8c578
    39a0:	0010c2b3          	xor	t0,ra,ra
    39a4:	002280b3          	add	ra,t0,sp
    39a8:	0030c133          	xor	sp,ra,gp
    39ac:	4cb34093          	xori	ra,t1,1227
    39b0:	3c0f3037          	lui	zero,0x3c0f3
    39b4:	f65b1097          	auipc	ra,0xf65b1
    39b8:	14765197          	auipc	gp,0x14765
    39bc:	002100b3          	add	ra,sp,sp
    39c0:	ddb82337          	lui	t1,0xddb82
    39c4:	40028133          	sub	sp,t0,zero
    39c8:	fde1c793          	xori	a5,gp,-34
    39cc:	00010113          	mv	sp,sp
    39d0:	68210063          	beq	sp,sp,0x4050
    39d4:	402381b3          	sub	gp,t2,sp
    39d8:	0030f133          	and	sp,ra,gp
    39dc:	e0c1f113          	andi	sp,gp,-500
    39e0:	002d07b3          	add	a5,s10,sp
    39e4:	fd3db137          	lui	sp,0xfd3db
    39e8:	ee5d50b7          	lui	ra,0xee5d5
    39ec:	89272117          	auipc	sp,0x89272
    39f0:	2388dd17          	auipc	s10,0x2388d
    39f4:	8c0db0b7          	lui	ra,0x8c0db
    39f8:	e1808013          	addi	zero,ra,-488 # 0xffffffff8c0dae18
    39fc:	00b384b3          	add	s1,t2,a1
    3a00:	732a3217          	auipc	tp,0x732a3
    3a04:	403302b3          	sub	t0,t1,gp
    3a08:	eaa02197          	auipc	gp,0xeaa02
    3a0c:	ec0bc0b7          	lui	ra,0xec0bc
    3a10:	8e7ca137          	lui	sp,0x8e7ca
    3a14:	caa16193          	ori	gp,sp,-854
    3a18:	7ab72137          	lui	sp,0x7ab72
    3a1c:	8545b237          	lui	tp,0x8545b
    3a20:	42c17293          	andi	t0,sp,1068
    3a24:	226b82b7          	lui	t0,0x226b8
    3a28:	dad28113          	addi	sp,t0,-595 # 0x226b7dad
    3a2c:	40308733          	sub	a4,ra,gp
    3a30:	e6420093          	addi	ra,tp,-412 # 0xffffffff8545ae64
    3a34:	87437193          	andi	gp,t1,-1932
    3a38:	be908093          	addi	ra,ra,-1047 # 0xffffffffec0bbbe9
    3a3c:	066a2597          	auipc	a1,0x66a2
    3a40:	858fe117          	auipc	sp,0x858fe
    3a44:	00310133          	add	sp,sp,gp
    3a48:	00308333          	add	t1,ra,gp
    3a4c:	002101b3          	add	gp,sp,sp
    3a50:	00378263          	beq	a5,gp,0x3a54
    3a54:	76500aef          	jal	s5,0x49b8
    3a58:	dfcfa2b7          	lui	t0,0xdfcfa
    3a5c:	535ab097          	auipc	ra,0x535ab
    3a60:	403081b3          	sub	gp,ra,gp
    3a64:	00d26393          	ori	t2,tp,13
    3a68:	fc45d397          	auipc	t2,0xfc45d
    3a6c:	00208333          	add	t1,ra,sp
    3a70:	dfe92eb7          	lui	t4,0xdfe92
    3a74:	00334133          	xor	sp,t1,gp
    3a78:	8cfc02b7          	lui	t0,0x8cfc0
    3a7c:	db414093          	xori	ra,sp,-588
    3a80:	b45a6d17          	auipc	s10,0xb45a6
    3a84:	e8d1c113          	xori	sp,gp,-371
    3a88:	c69a08b7          	lui	a7,0xc69a0
    3a8c:	2f40c713          	xori	a4,ra,756
    3a90:	9b2e4137          	lui	sp,0x9b2e4
    3a94:	45d890b7          	lui	ra,0x45d89
    3a98:	0030e3b3          	or	t2,ra,gp
    3a9c:	adec2497          	auipc	s1,0xadec2
    3aa0:	00217133          	and	sp,sp,sp
    3aa4:	d85d7317          	auipc	t1,0xd85d7
    3aa8:	6ba88097          	auipc	ra,0x6ba88
    3aac:	5b27f0b7          	lui	ra,0x5b27f
    3ab0:	020e3297          	auipc	t0,0x20e3
    3ab4:	923fa317          	auipc	t1,0x923fa
    3ab8:	e8114093          	xori	ra,sp,-383
    3abc:	002140b3          	xor	ra,sp,sp
    3ac0:	09737337          	lui	t1,0x9737
    3ac4:	741ee097          	auipc	ra,0x741ee
    3ac8:	a8dae117          	auipc	sp,0xa8dae
    3acc:	70bc6137          	lui	sp,0x70bc6
    3ad0:	0030c133          	xor	sp,ra,gp
    3ad4:	887ba3b7          	lui	t2,0x887ba
    3ad8:	917c1017          	auipc	zero,0x917c1
    3adc:	00018093          	mv	ra,gp
    3ae0:	e63088e3          	beq	ra,gp,0x3950
    3ae4:	ea2281b7          	lui	gp,0xea228
    3ae8:	f5a38117          	auipc	sp,0xf5a38
    3aec:	6501cd13          	xori	s10,gp,1616
    3af0:	f0df02b7          	lui	t0,0xf0df0
    3af4:	45320093          	addi	ra,tp,1107 # 0x453
    3af8:	1eefb197          	auipc	gp,0x1eefb
    3afc:	84f0e093          	ori	ra,ra,-1969
    3b00:	6b514193          	xori	gp,sp,1717
    3b04:	40310333          	sub	t1,sp,gp
    3b08:	d9b66097          	auipc	ra,0xd9b66
    3b0c:	022b84b7          	lui	s1,0x22b8
    3b10:	4b41b137          	lui	sp,0x4b41b
    3b14:	003182b3          	add	t0,gp,gp
    3b18:	2f71e093          	ori	ra,gp,759
    3b1c:	40118233          	sub	tp,gp,ra
    3b20:	408300b3          	sub	ra,t1,s0
    3b24:	8e90c097          	auipc	ra,0x8e90c
    3b28:	54a68337          	lui	t1,0x54a68
    3b2c:	7092f113          	andi	sp,t0,1801
    3b30:	00108133          	add	sp,ra,ra
    3b34:	0ba3e1b7          	lui	gp,0xba3e
    3b38:	402180b3          	sub	ra,gp,sp
    3b3c:	32bc1097          	auipc	ra,0x32bc1
    3b40:	3f33b2b7          	lui	t0,0x3f33b
    3b44:	68d5e093          	ori	ra,a1,1677
    3b48:	ba596017          	auipc	zero,0xba596
    3b4c:	2e8f7097          	auipc	ra,0x2e8f7
    3b50:	3e50e213          	ori	tp,ra,997
    3b54:	3de28093          	addi	ra,t0,990 # 0x3f33b3de
    3b58:	403280b3          	sub	ra,t0,gp
    3b5c:	1a200463          	beq	zero,sp,0x3d04
    3b60:	1a40016f          	jal	sp,0x3d04
    3b64:	e96df0b7          	lui	ra,0xe96df
    3b68:	1e708193          	addi	gp,ra,487 # 0xffffffffe96df1e7
    3b6c:	7840f193          	andi	gp,ra,1924
    3b70:	97298197          	auipc	gp,0x97298
    3b74:	003140b3          	xor	ra,sp,gp
    3b78:	002200b3          	add	ra,tp,sp
    3b7c:	b01df097          	auipc	ra,0xb01df
    3b80:	fe761137          	lui	sp,0xfe761
    3b84:	9b24f593          	andi	a1,s1,-1614
    3b88:	b0e02d17          	auipc	s10,0xb0e02
    3b8c:	dd6ec117          	auipc	sp,0xdd6ec
    3b90:	0061e333          	or	t1,gp,t1
    3b94:	a630c093          	xori	ra,ra,-1437
    3b98:	cd1be113          	ori	sp,s7,-815
    3b9c:	a821a317          	auipc	t1,0xa821a
    3ba0:	0020f1b3          	and	gp,ra,sp
    3ba4:	50fdbeb7          	lui	t4,0x50fdb
    3ba8:	00210133          	add	sp,sp,sp
    3bac:	0023c1b3          	xor	gp,t2,sp
    3bb0:	7d16b297          	auipc	t0,0x7d16b
    3bb4:	8f75b0b7          	lui	ra,0x8f75b
    3bb8:	d9e0a097          	auipc	ra,0xd9e0a
    3bbc:	ab5f20b7          	lui	ra,0xab5f2
    3bc0:	cd580197          	auipc	gp,0xcd580
    3bc4:	d370e113          	ori	sp,ra,-713
    3bc8:	402001b3          	neg	gp,sp
    3bcc:	0f6e8197          	auipc	gp,0xf6e8
    3bd0:	403103b3          	sub	t2,sp,gp
    3bd4:	aa93fd13          	andi	s10,t2,-1367
    3bd8:	e7355137          	lui	sp,0xe7355
    3bdc:	067ef313          	andi	t1,t4,103
    3be0:	4ac5a337          	lui	t1,0x4ac5a
    3be4:	00314133          	xor	sp,sp,gp
    3be8:	22310e63          	beq	sp,gp,0x3e24
    3bec:	23800b6f          	jal	s6,0x3e24
    3bf0:	26542117          	auipc	sp,0x26542
    3bf4:	1a107113          	andi	sp,zero,417
    3bf8:	2631e313          	ori	t1,gp,611
    3bfc:	16907197          	auipc	gp,0x16907
    3c00:	0033c333          	xor	t1,t2,gp
    3c04:	cba961b7          	lui	gp,0xcba96
    3c08:	34580217          	auipc	tp,0x34580
    3c0c:	e83320b7          	lui	ra,0xe8332
    3c10:	35336117          	auipc	sp,0x35336
    3c14:	88b08a13          	addi	s4,ra,-1909 # 0xffffffffe833188b
    3c18:	0011c0b3          	xor	ra,gp,ra
    3c1c:	d9916313          	ori	t1,sp,-615
    3c20:	ee66a197          	auipc	gp,0xee66a
    3c24:	421351b7          	lui	gp,0x42135
    3c28:	0f869017          	auipc	zero,0xf869
    3c2c:	0011e1b3          	or	gp,gp,ra
    3c30:	eb374137          	lui	sp,0xeb374
    3c34:	69766197          	auipc	gp,0x69766
    3c38:	0031fc13          	andi	s8,gp,3
    3c3c:	8526e197          	auipc	gp,0x8526e
    3c40:	dd8343b7          	lui	t2,0xdd834
    3c44:	be618093          	addi	ra,gp,-1050 # 0xffffffff85271822
    3c48:	5d91e693          	ori	a3,gp,1497
    3c4c:	5794db37          	lui	s6,0x5794d
    3c50:	bccc6137          	lui	sp,0xbccc6
    3c54:	001162b3          	or	t0,sp,ra
    3c58:	f2da2117          	auipc	sp,0xf2da2
    3c5c:	0051e113          	ori	sp,gp,5
    3c60:	62beb1b7          	lui	gp,0x62beb
    3c64:	aefbe097          	auipc	ra,0xaefbe
    3c68:	d61006e3          	beq	zero,ra,0x39d4
    3c6c:	d69ff16f          	jal	sp,0x39d4
    3c70:	eb314137          	lui	sp,0xeb314
    3c74:	920b0097          	auipc	ra,0x920b0
    3c78:	039cf137          	lui	sp,0x39cf
    3c7c:	0010e133          	or	sp,ra,ra
    3c80:	d9e0c113          	xori	sp,ra,-610
    3c84:	02afc2b7          	lui	t0,0x2afc
    3c88:	6f91f193          	andi	gp,gp,1785
    3c8c:	00338333          	add	t1,t2,gp
    3c90:	2835a117          	auipc	sp,0x2835a
    3c94:	e7b36193          	ori	gp,t1,-389
    3c98:	002172b3          	and	t0,sp,sp
    3c9c:	00f0f1b3          	and	gp,ra,a5
    3ca0:	403180b3          	sub	ra,gp,gp
    3ca4:	d1a8d197          	auipc	gp,0xd1a8d
    3ca8:	4371f193          	andi	gp,gp,1079
    3cac:	75408113          	addi	sp,ra,1876 # 0xffffffff920b43c8
    3cb0:	2b4a9137          	lui	sp,0x2b4a9
    3cb4:	3b387137          	lui	sp,0x3b387
    3cb8:	81c0f093          	andi	ra,ra,-2020
    3cbc:	677051b7          	lui	gp,0x67705
    3cc0:	003fc3b3          	xor	t2,t6,gp
    3cc4:	43f1c493          	xori	s1,gp,1087
    3cc8:	19173137          	lui	sp,0x19173
    3ccc:	88074337          	lui	t1,0x88074
    3cd0:	000100b3          	add	ra,sp,zero
    3cd4:	aee6e113          	ori	sp,a3,-1298
    3cd8:	13816093          	ori	ra,sp,312
    3cdc:	5cc29037          	lui	zero,0x5cc29
    3ce0:	40770133          	sub	sp,a4,t2
    3ce4:	ff0542b7          	lui	t0,0xff054
    3ce8:	6d0d5197          	auipc	gp,0x6d0d5
    3cec:	28775237          	lui	tp,0x28775
    3cf0:	99778197          	auipc	gp,0x99778
    3cf4:	00400133          	add	sp,zero,tp
    3cf8:	e08ba197          	auipc	gp,0xe08ba
    3cfc:	22118463          	beq	gp,ra,0x3f24
    3d00:	2240026f          	jal	tp,0x3f24
    3d04:	a880b137          	lui	sp,0xa880b
    3d08:	403080b3          	sub	ra,ra,gp
    3d0c:	00308033          	add	zero,ra,gp
    3d10:	0061f133          	and	sp,gp,t1
    3d14:	f1f8d0b7          	lui	ra,0xf1f8d
    3d18:	40210133          	sub	sp,sp,sp
    3d1c:	fc0d0037          	lui	zero,0xfc0d0
    3d20:	401101b3          	sub	gp,sp,ra
    3d24:	d8463297          	auipc	t0,0xd8463
    3d28:	a151c113          	xori	sp,gp,-1515
    3d2c:	dfd0f093          	andi	ra,ra,-515
    3d30:	00216333          	or	t1,sp,sp
    3d34:	003041b3          	xor	gp,zero,gp
    3d38:	00616133          	or	sp,sp,t1
    3d3c:	39bbe037          	lui	zero,0x39bbe
    3d40:	e8b46117          	auipc	sp,0xe8b46
    3d44:	3a510013          	addi	zero,sp,933 # 0xffffffffe8b4a0e5
    3d48:	460fa097          	auipc	ra,0x460fa
    3d4c:	0030f0b3          	and	ra,ra,gp
    3d50:	4050f193          	andi	gp,ra,1029
    3d54:	827c4197          	auipc	gp,0x827c4
    3d58:	aaeaf2b7          	lui	t0,0xaaeaf
    3d5c:	d1b1e313          	ori	t1,gp,-741
    3d60:	8b8c0197          	auipc	gp,0x8b8c0
    3d64:	6ea3e117          	auipc	sp,0x6ea3e
    3d68:	00238133          	add	sp,t2,sp
    3d6c:	002140b3          	xor	ra,sp,sp
    3d70:	342040b7          	lui	ra,0x34204
    3d74:	a607f117          	auipc	sp,0xa607f
    3d78:	8f4b40b7          	lui	ra,0x8f4b4
    3d7c:	001080b3          	add	ra,ra,ra
    3d80:	00008193          	mv	gp,ra
    3d84:	e61186e3          	beq	gp,ra,0x3bf0
    3d88:	1291c793          	xori	a5,gp,297
    3d8c:	4d5df137          	lui	sp,0x4d5df
    3d90:	e7b18193          	addi	gp,gp,-389 # 0xffffffff8b8c3bdb
    3d94:	03e15f37          	lui	t5,0x3e15
    3d98:	4db16113          	ori	sp,sp,1243
    3d9c:	00310e33          	add	t3,sp,gp
    3da0:	a86ed137          	lui	sp,0xa86ed
    3da4:	f9410793          	addi	a5,sp,-108 # 0xffffffffa86ecf94
    3da8:	40230333          	sub	t1,t1,sp
    3dac:	cb3441b7          	lui	gp,0xcb344
    3db0:	ef817093          	andi	ra,sp,-264
    3db4:	6e34f037          	lui	zero,0x6e34f
    3db8:	0c408193          	addi	gp,ra,196 # 0xffffffff8f4b40c4
    3dbc:	420ac393          	xori	t2,s5,1056
    3dc0:	b0f1c293          	xori	t0,gp,-1265
    3dc4:	9ee3b117          	auipc	sp,0x9ee3b
    3dc8:	7e70e293          	ori	t0,ra,2023
    3dcc:	00200133          	add	sp,zero,sp
    3dd0:	8e737117          	auipc	sp,0x8e737
    3dd4:	8553c093          	xori	ra,t2,-1963
    3dd8:	007170b3          	and	ra,sp,t2
    3ddc:	a7eae237          	lui	tp,0xa7eae
    3de0:	401080b3          	sub	ra,ra,ra
    3de4:	337b40b7          	lui	ra,0x337b4
    3de8:	b0f04097          	auipc	ra,0xb0f04
    3dec:	403180b3          	sub	ra,gp,gp
    3df0:	cd306193          	ori	gp,zero,-813
    3df4:	5ba10093          	addi	ra,sp,1466 # 0xffffffff8e73b38a
    3df8:	5d3010b7          	lui	ra,0x5d301
    3dfc:	0bf1f837          	lui	a6,0xbf1f
    3e00:	d4b2b097          	auipc	ra,0xd4b2b
    3e04:	d3ba2337          	lui	t1,0xd3ba2
    3e08:	0036e2b3          	or	t0,a3,gp
    3e0c:	25037113          	andi	sp,t1,592
    3e10:	80c0a0b7          	lui	ra,0x80c0a
    3e14:	c2ec9097          	auipc	ra,0xc2ec9
    3e18:	7a0aa237          	lui	tp,0x7a0aa
    3e1c:	00000117          	auipc	sp,0x0
    3e20:	c3c100e7          	jalr	-964(sp) # 0x3a58
    3e24:	084eb137          	lui	sp,0x84eb
    3e28:	cca3d097          	auipc	ra,0xcca3d
    3e2c:	0011c2b3          	xor	t0,gp,ra
    3e30:	a1ebe1b7          	lui	gp,0xa1ebe
    3e34:	72bc3097          	auipc	ra,0x72bc3
    3e38:	001101b3          	add	gp,sp,ra
    3e3c:	0031e133          	or	sp,gp,gp
    3e40:	8dc4e1b7          	lui	gp,0x8dc4e
    3e44:	e01bc0b7          	lui	ra,0xe01bc
    3e48:	8d414093          	xori	ra,sp,-1836
    3e4c:	55d5f313          	andi	t1,a1,1373
    3e50:	a0261317          	auipc	t1,0xa0261
    3e54:	9c2fc197          	auipc	gp,0x9c2fc
    3e58:	27f48293          	addi	t0,s1,639 # 0x22b827f
    3e5c:	bed89037          	lui	zero,0xbed89
    3e60:	fa1a8593          	addi	a1,s5,-95
    3e64:	b5110a13          	addi	s4,sp,-1199 # 0x84eab51
    3e68:	28a1e113          	ori	sp,gp,650
    3e6c:	5df27093          	andi	ra,tp,1503
    3e70:	45736693          	ori	a3,t1,1111
    3e74:	be70c213          	xori	tp,ra,-1049
    3e78:	05b94337          	lui	t1,0x5b94
    3e7c:	403f00b3          	sub	ra,t5,gp
    3e80:	9c0bd137          	lui	sp,0x9c0bd
    3e84:	6dff8137          	lui	sp,0x6dff8
    3e88:	7877c197          	auipc	gp,0x7877c
    3e8c:	25817093          	andi	ra,sp,600
    3e90:	c4218ae3          	beq	gp,sp,0x3ae4
    3e94:	c51ff3ef          	jal	t2,0x3ae4
    3e98:	001160b3          	or	ra,sp,ra
    3e9c:	06bee7b7          	lui	a5,0x6bee
    3ea0:	2b1473b7          	lui	t2,0x2b147
    3ea4:	4fc59197          	auipc	gp,0x4fc59
    3ea8:	0031c2b3          	xor	t0,gp,gp
    3eac:	69338137          	lui	sp,0x69338
    3eb0:	001380b3          	add	ra,t2,ra
    3eb4:	8774c097          	auipc	ra,0x8774c
    3eb8:	d9fad197          	auipc	gp,0xd9fad
    3ebc:	2d310213          	addi	tp,sp,723 # 0x693382d3
    3ec0:	2ddf3017          	auipc	zero,0x2ddf3
    3ec4:	c0a24213          	xori	tp,tp,-1014
    3ec8:	ce3861b7          	lui	gp,0xce386
    3ecc:	009061b3          	or	gp,zero,s1
    3ed0:	3d73e217          	auipc	tp,0x3d73e
    3ed4:	0c21e013          	ori	zero,gp,194
    3ed8:	0031c1b3          	xor	gp,gp,gp
    3edc:	0015c233          	xor	tp,a1,ra
    3ee0:	618e40b7          	lui	ra,0x618e4
    3ee4:	402181b3          	sub	gp,gp,sp
    3ee8:	538aa1b7          	lui	gp,0x538aa
    3eec:	d2038193          	addi	gp,t2,-736 # 0x2b146d20
    3ef0:	3d01c393          	xori	t2,gp,976
    3ef4:	38717093          	andi	ra,sp,903
    3ef8:	e8cf1237          	lui	tp,0xe8cf1
    3efc:	14210093          	addi	ra,sp,322
    3f00:	6f2b9197          	auipc	gp,0x6f2b9
    3f04:	ac07f197          	auipc	gp,0xac07f
    3f08:	c9d03297          	auipc	t0,0xc9d03
    3f0c:	f693c093          	xori	ra,t2,-151
    3f10:	403305b3          	sub	a1,t1,gp
    3f14:	002140b3          	xor	ra,sp,sp
    3f18:	e2036293          	ori	t0,t1,-480
    3f1c:	c43004e3          	beq	zero,gp,0x3b64
    3f20:	c45ff0ef          	jal	ra,0x3b64
    3f24:	01616e33          	or	t3,sp,s6
    3f28:	b25bc2b7          	lui	t0,0xb25bc
    3f2c:	4fcc0037          	lui	zero,0x4fcc0
    3f30:	8761c193          	xori	gp,gp,-1930
    3f34:	405200b3          	sub	ra,tp,t0
    3f38:	0030e1b3          	or	gp,ra,gp
    3f3c:	fc008097          	auipc	ra,0xfc008
    3f40:	00214133          	xor	sp,sp,sp
    3f44:	00f340b3          	xor	ra,t1,a5
    3f48:	50e1f113          	andi	sp,gp,1294
    3f4c:	1bbfd037          	lui	zero,0x1bbfd
    3f50:	b0cd4113          	xori	sp,s10,-1268
    3f54:	79b14137          	lui	sp,0x79b14
    3f58:	3761bab7          	lui	s5,0x3761b
    3f5c:	9d9410b7          	lui	ra,0x9d941
    3f60:	ee39f0b7          	lui	ra,0xee39f
    3f64:	3ef00193          	li	gp,1007
    3f68:	c868a197          	auipc	gp,0xc868a
    3f6c:	0ab320b7          	lui	ra,0xab32
    3f70:	384a5137          	lui	sp,0x384a5
    3f74:	0022e1b3          	or	gp,t0,sp
    3f78:	b1a6d5b7          	lui	a1,0xb1a6d
    3f7c:	006101b3          	add	gp,sp,t1
    3f80:	26189017          	auipc	zero,0x26189
    3f84:	e414f2b7          	lui	t0,0xe414f
    3f88:	208337b7          	lui	a5,0x20833
    3f8c:	3653b117          	auipc	sp,0x3653b
    3f90:	f9fe1197          	auipc	gp,0xf9fe1
    3f94:	4ed14113          	xori	sp,sp,1261
    3f98:	cb352097          	auipc	ra,0xcb352
    3f9c:	98514593          	xori	a1,sp,-1659
    3fa0:	0031c1b3          	xor	gp,gp,gp
    3fa4:	4261e193          	ori	gp,gp,1062
    3fa8:	87708013          	addi	zero,ra,-1929 # 0xffffffffcb35580f
    3fac:	e0318213          	addi	tp,gp,-509 # 0xfffffffff9fe4d93
    3fb0:	00010a93          	mv	s5,sp
    3fb4:	902a8ce3          	beq	s5,sp,0x38cc
    3fb8:	6fb34093          	xori	ra,t1,1787
    3fbc:	0021e0b3          	or	ra,gp,sp
    3fc0:	78f4d297          	auipc	t0,0x78f4d
    3fc4:	f5c340b7          	lui	ra,0xf5c34
    3fc8:	104260b7          	lui	ra,0x10426
    3fcc:	61b67197          	auipc	gp,0x61b67
    3fd0:	2f049197          	auipc	gp,0x2f049
    3fd4:	08a10093          	addi	ra,sp,138 # 0x3653f016
    3fd8:	002100b3          	add	ra,sp,sp
    3fdc:	0012e233          	or	tp,t0,ra
    3fe0:	0021e433          	or	s0,gp,sp
    3fe4:	30dd3237          	lui	tp,0x30dd3
    3fe8:	0041c2b3          	xor	t0,gp,tp
    3fec:	1da78197          	auipc	gp,0x1da78
    3ff0:	f30af5b7          	lui	a1,0xf30af
    3ff4:	fd53c193          	xori	gp,t2,-43
    3ff8:	0011c0b3          	xor	ra,gp,ra
    3ffc:	88208113          	addi	sp,ra,-1918 # 0x10425882
    4000:	ccb4e017          	auipc	zero,0xccb4e
    4004:	002184b3          	add	s1,gp,sp
    4008:	003183b3          	add	t2,gp,gp
    400c:	4b6f8197          	auipc	gp,0x4b6f8
    4010:	b37ed337          	lui	t1,0xb37ed
    4014:	6c7f8117          	auipc	sp,0x6c7f8
    4018:	c014c117          	auipc	sp,0xc014c
    401c:	26ad5137          	lui	sp,0x26ad5
    4020:	3be37137          	lui	sp,0x3be37
    4024:	2726e197          	auipc	gp,0x2726e
    4028:	00338133          	add	sp,t2,gp
    402c:	8433e213          	ori	tp,t2,-1981
    4030:	7ac3b1b7          	lui	gp,0x7ac3b
    4034:	cf1181b7          	lui	gp,0xcf118
    4038:	6ca010b7          	lui	ra,0x6ca01
    403c:	e6f7e193          	ori	gp,a5,-401
    4040:	caaf4113          	xori	sp,t5,-854
    4044:	e8c17193          	andi	gp,sp,-372
    4048:	00000097          	auipc	ra,0x0
    404c:	d40080e7          	jalr	-704(ra) # 0x3d88
    4050:	2c77a197          	auipc	gp,0x2c77a
    4054:	ada17097          	auipc	ra,0xada17
    4058:	c7b16393          	ori	t2,sp,-901
    405c:	85c10193          	addi	gp,sp,-1956 # 0x3be3685c
    4060:	fc5b67b7          	lui	a5,0xfc5b6
    4064:	c26e5117          	auipc	sp,0xc26e5
    4068:	4f308113          	addi	sp,ra,1267 # 0xffffffffada1b547
    406c:	00218233          	add	tp,gp,sp
    4070:	f51932b7          	lui	t0,0xf5193
    4074:	70124397          	auipc	t2,0x70124
    4078:	00120133          	add	sp,tp,ra
    407c:	00216133          	or	sp,sp,sp
    4080:	1031c113          	xori	sp,gp,259
    4084:	0022e0b3          	or	ra,t0,sp
    4088:	28842137          	lui	sp,0x28842
    408c:	10f2d137          	lui	sp,0x10f2d
    4090:	ce2ad197          	auipc	gp,0xce2ad
    4094:	cfb3a097          	auipc	ra,0xcfb3a
    4098:	ad500093          	li	ra,-1323
    409c:	ad71c593          	xori	a1,gp,-1321
    40a0:	dc924193          	xori	gp,tp,-567
    40a4:	4cbcb137          	lui	sp,0x4cbcb
    40a8:	8a91d317          	auipc	t1,0x8a91d
    40ac:	54815117          	auipc	sp,0x54815
    40b0:	cae1c313          	xori	t1,gp,-850
    40b4:	98f0f093          	andi	ra,ra,-1649
    40b8:	401383b3          	sub	t2,t2,ra
    40bc:	5b245117          	auipc	sp,0x5b245
    40c0:	844231b7          	lui	gp,0x84423
    40c4:	00330463          	beq	t1,gp,0x40cc
    40c8:	00400a6f          	jal	s4,0x40cc
    40cc:	002100b3          	add	ra,sp,sp
    40d0:	4c908193          	addi	gp,ra,1225 # 0xffffffffcfb3e55d
    40d4:	0040f0b3          	and	ra,ra,tp
    40d8:	7ce27117          	auipc	sp,0x7ce27
    40dc:	c2114113          	xori	sp,sp,-991
    40e0:	78379097          	auipc	ra,0x78379
    40e4:	92a08393          	addi	t2,ra,-1750 # 0x7837ca0a
    40e8:	3b5d4137          	lui	sp,0x3b5d4
    40ec:	f3c37013          	andi	zero,t1,-196
    40f0:	0001e2b3          	or	t0,gp,zero
    40f4:	495ea797          	auipc	a5,0x495ea
    40f8:	10859617          	auipc	a2,0x10859
    40fc:	d061c193          	xori	gp,gp,-762
    4100:	01e1e133          	or	sp,gp,t5
    4104:	002100b3          	add	ra,sp,sp
    4108:	c8b18093          	addi	ra,gp,-885 # 0xffffffff84422c8b
    410c:	4161f093          	andi	ra,gp,1046
    4110:	39858097          	auipc	ra,0x39858
    4114:	b646a237          	lui	tp,0xb646a
    4118:	403182b3          	sub	t0,gp,gp
    411c:	3ac17193          	andi	gp,sp,940
    4120:	001100b3          	add	ra,sp,ra
    4124:	a0114193          	xori	gp,sp,-1535
    4128:	24eb0097          	auipc	ra,0x24eb0
    412c:	002100b3          	add	ra,sp,sp
    4130:	ef1921b7          	lui	gp,0xef192
    4134:	3d4e6137          	lui	sp,0x3d4e6
    4138:	40d080b3          	sub	ra,ra,a3
    413c:	00218233          	add	tp,gp,sp
    4140:	80caf137          	lui	sp,0x80caf
    4144:	d7e06337          	lui	t1,0xd7e06
    4148:	30448093          	addi	ra,s1,772
    414c:	eb9aee17          	auipc	t3,0xeb9ae
    4150:	00000197          	auipc	gp,0x0
    4154:	124180e7          	jalr	292(gp) # 0x4274
    4158:	00200233          	add	tp,zero,sp
    415c:	001163b3          	or	t2,sp,ra
    4160:	0020c333          	xor	t1,ra,sp
    4164:	005300b3          	add	ra,t1,t0
    4168:	c21c2017          	auipc	zero,0xc21c2
    416c:	c841c093          	xori	ra,gp,-892
    4170:	0060c133          	xor	sp,ra,t1
    4174:	084fd217          	auipc	tp,0x84fd
    4178:	0015c1b3          	xor	gp,a1,ra
    417c:	309ad337          	lui	t1,0x309ad
    4180:	0010f333          	and	t1,ra,ra
    4184:	c4b1c0b7          	lui	ra,0xc4b1c
    4188:	51cd1097          	auipc	ra,0x51cd1
    418c:	258110b7          	lui	ra,0x25811
    4190:	40308233          	sub	tp,ra,gp
    4194:	00228233          	add	tp,t0,sp
    4198:	f5f541b7          	lui	gp,0xf5f54
    419c:	b8bb2117          	auipc	sp,0xb8bb2
    41a0:	0033f133          	and	sp,t2,gp
    41a4:	6bc5e593          	ori	a1,a1,1724
    41a8:	407181b3          	sub	gp,gp,t2
    41ac:	0021c233          	xor	tp,gp,sp
    41b0:	337d90b7          	lui	ra,0x337d9
    41b4:	003c80b3          	add	ra,s9,gp
    41b8:	40108133          	sub	sp,ra,ra
    41bc:	0a537097          	auipc	ra,0xa537
    41c0:	fcd27117          	auipc	sp,0xfcd27
    41c4:	ba0f4093          	xori	ra,t5,-1120
    41c8:	1e52b1b7          	lui	gp,0x1e52b
    41cc:	7e171117          	auipc	sp,0x7e171
    41d0:	0443c2b7          	lui	t0,0x443c
    41d4:	00408263          	beq	ra,tp,0x41d8
    41d8:	e68ff26f          	jal	tp,0x3840
    41dc:	55421017          	auipc	zero,0x55421
    41e0:	dbe5c017          	auipc	zero,0xdbe5c
    41e4:	34418113          	addi	sp,gp,836 # 0x1e52b344
    41e8:	0040e233          	or	tp,ra,tp
    41ec:	2ae3c0b7          	lui	ra,0x2ae3c
    41f0:	39817093          	andi	ra,sp,920
    41f4:	543b9097          	auipc	ra,0x543b9
    41f8:	401080b3          	sub	ra,ra,ra
    41fc:	0985e0b7          	lui	ra,0x985e
    4200:	e8a401b7          	lui	gp,0xe8a40
    4204:	003173b3          	and	t2,sp,gp
    4208:	26db8017          	auipc	zero,0x26db8
    420c:	a4736093          	ori	ra,t1,-1465
    4210:	bc214197          	auipc	gp,0xbc214
    4214:	0f72e3b7          	lui	t2,0xf72e
    4218:	e3127097          	auipc	ra,0xe3127
    421c:	d9c21117          	auipc	sp,0xd9c21
    4220:	ddbb91b7          	lui	gp,0xddbb9
    4224:	7fe1e193          	ori	gp,gp,2046
    4228:	0020f133          	and	sp,ra,sp
    422c:	0fe61197          	auipc	gp,0xfe61
    4230:	b3904113          	xori	sp,zero,-1223
    4234:	0076c133          	xor	sp,a3,t2
    4238:	465c6197          	auipc	gp,0x465c6
    423c:	8a177137          	lui	sp,0x8a177
    4240:	46516093          	ori	ra,sp,1125
    4244:	35c68097          	auipc	ra,0x35c68
    4248:	00027133          	and	sp,tp,zero
    424c:	00104133          	xor	sp,zero,ra
    4250:	10823017          	auipc	zero,0x10823
    4254:	c0357697          	auipc	a3,0xc0357
    4258:	b911e313          	ori	t1,gp,-1135
    425c:	99acb117          	auipc	sp,0x99acb
    4260:	fdbe1097          	auipc	ra,0xfdbe1
    4264:	9e20f393          	andi	t2,ra,-1566
    4268:	78e08313          	addi	t1,ra,1934 # 0xfffffffffdbe59ee
    426c:	c23106e3          	beq	sp,gp,0x3e98
    4270:	c29ff0ef          	jal	ra,0x3e98
    4274:	faca2097          	auipc	ra,0xfaca2
    4278:	3290e313          	ori	t1,ra,809
    427c:	bed14213          	xori	tp,sp,-1043
    4280:	40444317          	auipc	t1,0x40444
    4284:	78a24113          	xori	sp,tp,1930
    4288:	4c1dc337          	lui	t1,0x4c1dc
    428c:	e9366d97          	auipc	s11,0xe9366
    4290:	1c000117          	auipc	sp,0x1c000
    4294:	e752b0b7          	lui	ra,0xe752b
    4298:	ec2a6117          	auipc	sp,0xec2a6
    429c:	baf54137          	lui	sp,0xbaf54
    42a0:	001180b3          	add	ra,gp,ra
    42a4:	9af1e393          	ori	t2,gp,-1617
    42a8:	00316133          	or	sp,sp,gp
    42ac:	d4ec6117          	auipc	sp,0xd4ec6
    42b0:	4b1a6197          	auipc	gp,0x4b1a6
    42b4:	73817093          	andi	ra,sp,1848
    42b8:	00338133          	add	sp,t2,gp
    42bc:	a2041197          	auipc	gp,0xa2041
    42c0:	0070f0b3          	and	ra,ra,t2
    42c4:	c7f6a0b7          	lui	ra,0xc7f6a
    42c8:	8c3ae137          	lui	sp,0x8c3ae
    42cc:	36b05317          	auipc	t1,0x36b05
    42d0:	75b46237          	lui	tp,0x75b46
    42d4:	e9e6e1b7          	lui	gp,0xe9e6e
    42d8:	3d93f1b7          	lui	gp,0x3d93f
    42dc:	b39281b7          	lui	gp,0xb3928
    42e0:	ea912137          	lui	sp,0xea912
    42e4:	e110d317          	auipc	t1,0xe110d
    42e8:	d9716693          	ori	a3,sp,-617
    42ec:	620dd117          	auipc	sp,0x620dd
    42f0:	4316c197          	auipc	gp,0x4316c
    42f4:	799db137          	lui	sp,0x799db
    42f8:	00100233          	add	tp,zero,ra
    42fc:	96200ae3          	beq	zero,sp,0x3c70
    4300:	971ff1ef          	jal	gp,0x3c70
    4304:	e841f193          	andi	gp,gp,-380
    4308:	6c72e193          	ori	gp,t0,1735
    430c:	54fac7b7          	lui	a5,0x54fac
    4310:	c2110013          	addi	zero,sp,-991 # 0x799dac21
    4314:	5c81f113          	andi	sp,gp,1480
    4318:	40338133          	sub	sp,t2,gp
    431c:	55c58093          	addi	ra,a1,1372 # 0xfffffffff30af55c
    4320:	5a0be0b7          	lui	ra,0x5a0be
    4324:	4b08c117          	auipc	sp,0x4b08c
    4328:	0031c133          	xor	sp,gp,gp
    432c:	4f500197          	auipc	gp,0x4f500
    4330:	f524b197          	auipc	gp,0xf524b
    4334:	002082b3          	add	t0,ra,sp
    4338:	45b0c117          	auipc	sp,0x45b0c
    433c:	cba18213          	addi	tp,gp,-838 # 0xfffffffff524efea
    4340:	2005f1b7          	lui	gp,0x2005f
    4344:	710d2137          	lui	sp,0x710d2
    4348:	74d750b7          	lui	ra,0x74d75
    434c:	f0608117          	auipc	sp,0xf0608
    4350:	6acf20b7          	lui	ra,0x6acf2
    4354:	99656097          	auipc	ra,0x99656
    4358:	6610f913          	andi	s2,ra,1633
    435c:	68218113          	addi	sp,gp,1666 # 0x2005f682
    4360:	e8755317          	auipc	t1,0xe8755
    4364:	402080b3          	sub	ra,ra,sp
    4368:	00237233          	and	tp,t1,sp
    436c:	905b3197          	auipc	gp,0x905b3
    4370:	9d9cb0b7          	lui	ra,0x9d9cb
    4374:	41d18133          	sub	sp,gp,t4
    4378:	5c632197          	auipc	gp,0x5c632
    437c:	00106133          	or	sp,zero,ra
    4380:	000080b3          	add	ra,ra,zero
    4384:	39a1f193          	andi	gp,gp,922
    4388:	00400263          	beq	zero,tp,0x438c
    438c:	1010016f          	jal	sp,0x4c8c
    4390:	00317133          	and	sp,sp,gp
    4394:	8272f113          	andi	sp,t0,-2009
    4398:	40b18133          	sub	sp,gp,a1
    439c:	bd2c02b7          	lui	t0,0xbd2c0
    43a0:	c4108193          	addi	gp,ra,-959 # 0xffffffff9d9cac41
    43a4:	2691c113          	xori	sp,gp,617
    43a8:	f6ed1097          	auipc	ra,0xf6ed1
    43ac:	b35740b7          	lui	ra,0xb3574
    43b0:	89a17013          	andi	zero,sp,-1894
    43b4:	fd03f193          	andi	gp,t2,-48
    43b8:	5e518193          	addi	gp,gp,1509 # 0x5c63695d
    43bc:	66b2e1b7          	lui	gp,0x66b2e
    43c0:	0011c1b3          	xor	gp,gp,ra
    43c4:	1c59c137          	lui	sp,0x1c59c
    43c8:	b90b4197          	auipc	gp,0xb90b4
    43cc:	0031c2b3          	xor	t0,gp,gp
    43d0:	0ad16093          	ori	ra,sp,173
    43d4:	dc01c313          	xori	t1,gp,-576
    43d8:	3f554497          	auipc	s1,0x3f554
    43dc:	e5f16193          	ori	gp,sp,-417
    43e0:	e5eae1b7          	lui	gp,0xe5eae
    43e4:	00110133          	add	sp,sp,ra
    43e8:	0071e333          	or	t1,gp,t2
    43ec:	67e17093          	andi	ra,sp,1662
    43f0:	00d14133          	xor	sp,sp,a3
    43f4:	0038c6b3          	xor	a3,a7,gp
    43f8:	005100b3          	add	ra,sp,t0
    43fc:	9e03d137          	lui	sp,0x9e03d
    4400:	00310133          	add	sp,sp,gp
    4404:	d9e1e113          	ori	sp,gp,-610
    4408:	912be237          	lui	tp,0x912be
    440c:	7d2ab137          	lui	sp,0x7d2ab
    4410:	4a1a0263          	beq	s4,ra,0x48b4
    4414:	4a0001ef          	jal	gp,0x48b4
    4418:	6b01c193          	xori	gp,gp,1712
    441c:	4b50f193          	andi	gp,ra,1205
    4420:	4b096217          	auipc	tp,0x4b096
    4424:	71e0f093          	andi	ra,ra,1822
    4428:	01837793          	andi	a5,t1,24
    442c:	273c5117          	auipc	sp,0x273c5
    4430:	77f1f113          	andi	sp,gp,1919
    4434:	434a8b37          	lui	s6,0x434a8
    4438:	003070b3          	and	ra,zero,gp
    443c:	0a0a9037          	lui	zero,0xa0a9
    4440:	74db6117          	auipc	sp,0x74db6
    4444:	774f2197          	auipc	gp,0x774f2
    4448:	91d0e093          	ori	ra,ra,-1763
    444c:	403380b3          	sub	ra,t2,gp
    4450:	401101b3          	sub	gp,sp,ra
    4454:	25512117          	auipc	sp,0x25512
    4458:	a3dd9217          	auipc	tp,0xa3dd9
    445c:	9762d197          	auipc	gp,0x9762d
    4460:	643e6217          	auipc	tp,0x643e6
    4464:	00316133          	or	sp,sp,gp
    4468:	01f240b3          	xor	ra,tp,t6
    446c:	aae3c097          	auipc	ra,0xaae3c
    4470:	8d318693          	addi	a3,gp,-1837 # 0xffffffff97630d2f
    4474:	e9862137          	lui	sp,0xe9862
    4478:	73e97197          	auipc	gp,0x73e97
    447c:	67b16193          	ori	gp,sp,1659
    4480:	00310133          	add	sp,sp,gp
    4484:	8c18c037          	lui	zero,0x8c18c
    4488:	47e0c193          	xori	gp,ra,1150
    448c:	0060f7b3          	and	a5,ra,t1
    4490:	5a95b037          	lui	zero,0x5a95b
    4494:	86c28113          	addi	sp,t0,-1940 # 0xffffffffbd2bf86c
    4498:	26110863          	beq	sp,ra,0x4708
    449c:	26c001ef          	jal	gp,0x4708
    44a0:	001101b3          	add	gp,sp,ra
    44a4:	fc3d9097          	auipc	ra,0xfc3d9
    44a8:	04631037          	lui	zero,0x4631
    44ac:	003300b3          	add	ra,t1,gp
    44b0:	9bd4a117          	auipc	sp,0x9bd4a
    44b4:	003006b3          	add	a3,zero,gp
    44b8:	ef23fb93          	andi	s7,t2,-270
    44bc:	72ee2397          	auipc	t2,0x72ee2
    44c0:	001161b3          	or	gp,sp,ra
    44c4:	e966e037          	lui	zero,0xe966e
    44c8:	a1010193          	addi	gp,sp,-1520 # 0xffffffff9bd4dec0
    44cc:	0e3c7137          	lui	sp,0xe3c7
    44d0:	0034c0b3          	xor	ra,s1,gp
    44d4:	001360b3          	or	ra,t1,ra
    44d8:	0012e033          	or	zero,t0,ra
    44dc:	00210133          	add	sp,sp,sp
    44e0:	401500b3          	sub	ra,a0,ra
    44e4:	00116133          	or	sp,sp,ra
    44e8:	4ce0d097          	auipc	ra,0x4ce0d
    44ec:	c050c113          	xori	sp,ra,-1019
    44f0:	6de0f113          	andi	sp,ra,1758
    44f4:	0020e1b3          	or	gp,ra,sp
    44f8:	3401f193          	andi	gp,gp,832
    44fc:	7d81e013          	ori	zero,gp,2008
    4500:	2be5c297          	auipc	t0,0x2be5c
    4504:	0021c1b3          	xor	gp,gp,sp
    4508:	2010e937          	lui	s2,0x2010e
    450c:	0021e333          	or	t1,gp,sp
    4510:	0bb3b0b7          	lui	ra,0xbb3b
    4514:	08c1e293          	ori	t0,gp,140
    4518:	40308033          	sub	zero,ra,gp
    451c:	f922a617          	auipc	a2,0xf922a
    4520:	e9b37093          	andi	ra,t1,-357
    4524:	a4da7137          	lui	sp,0xa4da7
    4528:	0021c0b3          	xor	ra,gp,sp
    452c:	00720263          	beq	tp,t2,0x4530
    4530:	071001ef          	jal	gp,0x4da0
    4534:	3ee1c913          	xori	s2,gp,1006
    4538:	20d1f113          	andi	sp,gp,525
    453c:	e9388117          	auipc	sp,0xe9388
    4540:	88e53117          	auipc	sp,0x88e53
    4544:	e698e0b7          	lui	ra,0xe698e
    4548:	9b7fa397          	auipc	t2,0x9b7fa
    454c:	0aad1637          	lui	a2,0xaad1
    4550:	b2aa3317          	auipc	t1,0xb2aa3
    4554:	3f36f093          	andi	ra,a3,1011
    4558:	5e218113          	addi	sp,gp,1506 # 0x73e9ba5a
    455c:	00466133          	or	sp,a2,tp
    4560:	d06bceb7          	lui	t4,0xd06bc
    4564:	3b71e193          	ori	gp,gp,951
    4568:	2565a1b7          	lui	gp,0x2565a
    456c:	00d17133          	and	sp,sp,a3
    4570:	30006113          	ori	sp,zero,768
    4574:	bcb14817          	auipc	a6,0xbcb14
    4578:	00217333          	and	t1,sp,sp
    457c:	3f502097          	auipc	ra,0x3f502
    4580:	2e708397          	auipc	t2,0x2e708
    4584:	fcab5197          	auipc	gp,0xfcab5
    4588:	0061e1b3          	or	gp,gp,t1
    458c:	b378d0b7          	lui	ra,0xb378d
    4590:	0010e1b3          	or	gp,ra,ra
    4594:	46327413          	andi	s0,tp,1123
    4598:	bc72b0b7          	lui	ra,0xbc72b
    459c:	a1d4e1b7          	lui	gp,0xa1d4e
    45a0:	0025f1b3          	and	gp,a1,sp
    45a4:	9ca18093          	addi	ra,gp,-1590 # 0xffffffffa1d4d9ca
    45a8:	91b8a137          	lui	sp,0x91b8a
    45ac:	0030e1b3          	or	gp,ra,gp
    45b0:	0080f0b3          	and	ra,ra,s0
    45b4:	eac1f097          	auipc	ra,0xeac1f
    45b8:	5ba111b7          	lui	gp,0x5ba11
    45bc:	b06c9137          	lui	sp,0xb06c9
    45c0:	71878037          	lui	zero,0x71878
    45c4:	5831b1b7          	lui	gp,0x5831b
    45c8:	001085b3          	add	a1,ra,ra
    45cc:	c3e92117          	auipc	sp,0xc3e92
    45d0:	2f57a217          	auipc	tp,0x2f57a
    45d4:	00008393          	mv	t2,ra
    45d8:	46138863          	beq	t2,ra,0x4a48
    45dc:	00124133          	xor	sp,tp,ra
    45e0:	8c329117          	auipc	sp,0x8c329
    45e4:	ca318a13          	addi	s4,gp,-861 # 0x5831aca3
    45e8:	eff0f093          	andi	ra,ra,-257
    45ec:	8ca68193          	addi	gp,a3,-1846 # 0xffffffffc035ab1e
    45f0:	0e3bd137          	lui	sp,0xe3bd
    45f4:	5c527317          	auipc	t1,0x5c527
    45f8:	c1de8337          	lui	t1,0xc1de8
    45fc:	993e40b7          	lui	ra,0x993e4
    4600:	8f40e093          	ori	ra,ra,-1804
    4604:	da7f3137          	lui	sp,0xda7f3
    4608:	405305b3          	sub	a1,t1,t0
    460c:	d691c113          	xori	sp,gp,-663
    4610:	0023c133          	xor	sp,t2,sp
    4614:	403101b3          	sub	gp,sp,gp
    4618:	54716097          	auipc	ra,0x54716
    461c:	6df28013          	addi	zero,t0,1759 # 0x2be60bdf
    4620:	001180b3          	add	ra,gp,ra
    4624:	c358f237          	lui	tp,0xc358f
    4628:	40d102b3          	sub	t0,sp,a3
    462c:	44137197          	auipc	gp,0x44137
    4630:	fb90ef13          	ori	t5,ra,-71
    4634:	06b0f093          	andi	ra,ra,107
    4638:	64718113          	addi	sp,gp,1607 # 0x4413bc73
    463c:	00228133          	add	sp,t0,sp
    4640:	77337797          	auipc	a5,0x77337
    4644:	e9d1f013          	andi	zero,gp,-355
    4648:	b1e8b097          	auipc	ra,0xb1e8b
    464c:	0021e0b3          	or	ra,gp,sp
    4650:	34439f97          	auipc	t6,0x34439
    4654:	bd447793          	andi	a5,s0,-1068
    4658:	402081b3          	sub	gp,ra,sp
    465c:	d8b58797          	auipc	a5,0xd8b58
    4660:	8fc95137          	lui	sp,0x8fc95
    4664:	c8419117          	auipc	sp,0xc8419
    4668:	a2e33217          	auipc	tp,0xa2e33
    466c:	00226133          	or	sp,tp,sp
    4670:	00030493          	mv	s1,t1
    4674:	10648c63          	beq	s1,t1,0x478c
    4678:	2c917113          	andi	sp,sp,713
    467c:	717d0597          	auipc	a1,0x717d0
    4680:	e8e8f1b7          	lui	gp,0xe8e8f
    4684:	e620b137          	lui	sp,0xe620b
    4688:	e761d3b7          	lui	t2,0xe761d
    468c:	0010f1b3          	and	gp,ra,ra
    4690:	cb3af1b7          	lui	gp,0xcb3af
    4694:	952b50b7          	lui	ra,0x952b5
    4698:	0040f1b3          	and	gp,ra,tp
    469c:	3cbf6117          	auipc	sp,0x3cbf6
    46a0:	0013c1b3          	xor	gp,t2,ra
    46a4:	70105337          	lui	t1,0x70105
    46a8:	003260b3          	or	ra,tp,gp
    46ac:	65e0b2b7          	lui	t0,0x65e0b
    46b0:	93c921b7          	lui	gp,0x93c92
    46b4:	00410133          	add	sp,sp,tp
    46b8:	13f34313          	xori	t1,t1,319
    46bc:	f011e193          	ori	gp,gp,-255
    46c0:	c193e0b7          	lui	ra,0xc193e
    46c4:	43e0f113          	andi	sp,ra,1086
    46c8:	405380b3          	sub	ra,t2,t0
    46cc:	9f218113          	addi	sp,gp,-1550 # 0xffffffff93c919f2
    46d0:	f778d1b7          	lui	gp,0xf778d
    46d4:	33347097          	auipc	ra,0x33347
    46d8:	003283b3          	add	t2,t0,gp
    46dc:	42155137          	lui	sp,0x42155
    46e0:	7d310113          	addi	sp,sp,2003 # 0x421557d3
    46e4:	35845137          	lui	sp,0x35845
    46e8:	34de7db7          	lui	s11,0x34de7
    46ec:	40308133          	sub	sp,ra,gp
    46f0:	cba0d1b7          	lui	gp,0xcba0d
    46f4:	1d2a92b7          	lui	t0,0x1d2a9
    46f8:	0021c1b3          	xor	gp,gp,sp
    46fc:	00408133          	add	sp,ra,tp
    4700:	00000097          	auipc	ra,0x0
    4704:	3d8081e7          	jalr	gp,984(ra) # 0x4ad8
    4708:	4dc9f297          	auipc	t0,0x4dc9f
    470c:	0030f0b3          	and	ra,ra,gp
    4710:	f6f1f113          	andi	sp,gp,-145
    4714:	21cec7b7          	lui	a5,0x21cec
    4718:	0070e1b3          	or	gp,ra,t2
    471c:	002181b3          	add	gp,gp,sp
    4720:	002060b3          	or	ra,zero,sp
    4724:	403080b3          	sub	ra,ra,gp
    4728:	400b0133          	sub	sp,s6,zero
    472c:	e01bb897          	auipc	a7,0xe01bb
    4730:	001281b3          	add	gp,t0,ra
    4734:	0021fdb3          	and	s11,gp,sp
    4738:	e7e0f593          	andi	a1,ra,-386
    473c:	40230133          	sub	sp,t1,sp
    4740:	40278033          	sub	zero,a5,sp
    4744:	a4614193          	xori	gp,sp,-1466
    4748:	00d0f1b3          	and	gp,ra,a3
    474c:	f6517193          	andi	gp,sp,-155
    4750:	3a40c093          	xori	ra,ra,932
    4754:	2167a0b7          	lui	ra,0x2167a
    4758:	bb55e093          	ori	ra,a1,-1099
    475c:	a5e76137          	lui	sp,0xa5e76
    4760:	cf70f113          	andi	sp,ra,-777
    4764:	55cb04b7          	lui	s1,0x55cb0
    4768:	002170b3          	and	ra,sp,sp
    476c:	74a10113          	addi	sp,sp,1866 # 0xffffffffa5e7674a
    4770:	006081b3          	add	gp,ra,t1
    4774:	136851b7          	lui	gp,0x13685
    4778:	baae9197          	auipc	gp,0xbaae9
    477c:	f83b70b7          	lui	ra,0xf83b7
    4780:	b76c0313          	addi	t1,s8,-1162 # 0x24694b76
    4784:	3c010e63          	beqz	sp,0x4b60
    4788:	3d8000ef          	jal	ra,0x4b60
    478c:	6da14113          	xori	sp,sp,1754
    4790:	eb80e493          	ori	s1,ra,-328
    4794:	00108133          	add	sp,ra,ra
    4798:	c2737313          	andi	t1,t1,-985
    479c:	3ef9d137          	lui	sp,0x3ef9d
    47a0:	53916293          	ori	t0,sp,1337
    47a4:	043071b7          	lui	gp,0x4307
    47a8:	db2a21b7          	lui	gp,0xdb2a2
    47ac:	56a361b7          	lui	gp,0x56a36
    47b0:	d633e593          	ori	a1,t2,-669
    47b4:	3e17a097          	auipc	ra,0x3e17a
    47b8:	0f521097          	auipc	ra,0xf521
    47bc:	33b92137          	lui	sp,0x33b92
    47c0:	401301b3          	sub	gp,t1,ra
    47c4:	95679117          	auipc	sp,0x95679
    47c8:	001141b3          	xor	gp,sp,ra
    47cc:	463ef0b7          	lui	ra,0x463ef
    47d0:	413100b3          	sub	ra,sp,s3
    47d4:	0011f1b3          	and	gp,gp,ra
    47d8:	4fc4b017          	auipc	zero,0x4fc4b
    47dc:	0fc53137          	lui	sp,0xfc53
    47e0:	401083b3          	sub	t2,ra,ra
    47e4:	20a1f093          	andi	ra,gp,522
    47e8:	0901ab17          	auipc	s6,0x901a
    47ec:	d2907117          	auipc	sp,0xd2907
    47f0:	4cf15097          	auipc	ra,0x4cf15
    47f4:	15702137          	lui	sp,0x15702
    47f8:	fd916193          	ori	gp,sp,-39
    47fc:	7100e113          	ori	sp,ra,1808
    4800:	5340c013          	xori	zero,ra,1332
    4804:	62b28193          	addi	gp,t0,1579 # 0x4dca3d33
    4808:	f7d411b7          	lui	gp,0xf7d41
    480c:	65970b37          	lui	s6,0x65970
    4810:	246a5397          	auipc	t2,0x246a5
    4814:	9f806117          	auipc	sp,0x9f806
    4818:	40200133          	neg	sp,sp
    481c:	b6330ae3          	beq	t1,gp,0x4390
    4820:	b71ff0ef          	jal	ra,0x4390
    4824:	08a30337          	lui	t1,0x8a30
    4828:	5a2f9037          	lui	zero,0x5a2f9
    482c:	beb16193          	ori	gp,sp,-1045
    4830:	7dc88117          	auipc	sp,0x7dc88
    4834:	0d260097          	auipc	ra,0xd260
    4838:	cf66a197          	auipc	gp,0xcf66a
    483c:	003be0b3          	or	ra,s7,gp
    4840:	401180b3          	sub	ra,gp,ra
    4844:	4eb1e193          	ori	gp,gp,1259
    4848:	e0d24313          	xori	t1,tp,-499
    484c:	242410b7          	lui	ra,0x24241
    4850:	0011c0b3          	xor	ra,gp,ra
    4854:	883a2017          	auipc	zero,0x883a2
    4858:	8688c317          	auipc	t1,0x8688c
    485c:	ab917093          	andi	ra,sp,-1351
    4860:	de534113          	xori	sp,t1,-539
    4864:	3ce75197          	auipc	gp,0x3ce75
    4868:	78914113          	xori	sp,sp,1929
    486c:	f11a9097          	auipc	ra,0xf11a9
    4870:	13b6d1b7          	lui	gp,0x13b6d
    4874:	bbb7c137          	lui	sp,0xbbb7c
    4878:	003101b3          	add	gp,sp,gp
    487c:	0040e133          	or	sp,ra,tp
    4880:	003262b3          	or	t0,tp,gp
    4884:	80b78117          	auipc	sp,0x80b78
    4888:	0001c4b3          	xor	s1,gp,zero
    488c:	00300133          	add	sp,zero,gp
    4890:	1a2420b7          	lui	ra,0x1a242
    4894:	520321b7          	lui	gp,0x52032
    4898:	04410113          	addi	sp,sp,68 # 0xffffffff80b7c8c8
    489c:	f8d2f093          	andi	ra,t0,-115
    48a0:	40268033          	sub	zero,a3,sp
    48a4:	a7714097          	auipc	ra,0xa7714
    48a8:	c3c803b7          	lui	t2,0xc3c80
    48ac:	b62206e3          	beq	tp,sp,0x4418
    48b0:	b69ff16f          	jal	sp,0x4418
    48b4:	52fa92b7          	lui	t0,0x52fa9
    48b8:	01c180b3          	add	ra,gp,t3
    48bc:	001046b3          	xor	a3,zero,ra
    48c0:	1d563137          	lui	sp,0x1d563
    48c4:	a1016113          	ori	sp,sp,-1520
    48c8:	ff926117          	auipc	sp,0xff926
    48cc:	3c968313          	addi	t1,a3,969
    48d0:	6d716213          	ori	tp,sp,1751
    48d4:	00d183b3          	add	t2,gp,a3
    48d8:	12c5c037          	lui	zero,0x12c5c
    48dc:	9b50f113          	andi	sp,ra,-1611
    48e0:	9cb1f113          	andi	sp,gp,-1589
    48e4:	00417133          	and	sp,sp,tp
    48e8:	e78de117          	auipc	sp,0xe78de
    48ec:	00314133          	xor	sp,sp,gp
    48f0:	98e44337          	lui	t1,0x98e44
    48f4:	5745c297          	auipc	t0,0x5745c
    48f8:	f60a9117          	auipc	sp,0xf60a9
    48fc:	e1340037          	lui	zero,0xe1340
    4900:	006101b3          	add	gp,sp,t1
    4904:	0b917093          	andi	ra,sp,185
    4908:	1c71c097          	auipc	ra,0x1c71c
    490c:	76d0a3b7          	lui	t2,0x76d0a
    4910:	00106333          	or	t1,zero,ra
    4914:	0b3a01b7          	lui	gp,0xb3a0
    4918:	0031e333          	or	t1,gp,gp
    491c:	0031e133          	or	sp,gp,gp
    4920:	40308133          	sub	sp,ra,gp
    4924:	00000197          	auipc	gp,0x0
    4928:	2d8181e7          	jalr	gp,728(gp) # 0x4bfc
    492c:	0021f1b3          	and	gp,gp,sp
    4930:	015165b3          	or	a1,sp,s5
    4934:	f16c50b7          	lui	ra,0xf16c5
    4938:	d4bad1b7          	lui	gp,0xd4bad
    493c:	9e45e097          	auipc	ra,0x9e45e
    4940:	64e24193          	xori	gp,tp,1614
    4944:	01acd317          	auipc	t1,0x1acd
    4948:	5bad81b7          	lui	gp,0x5bad8
    494c:	aadbf1b7          	lui	gp,0xaadbf
    4950:	6460f093          	andi	ra,ra,1606
    4954:	9822d1b7          	lui	gp,0x9822d
    4958:	a3097137          	lui	sp,0xa3097
    495c:	dca32797          	auipc	a5,0xdca32
    4960:	0001f1b3          	and	gp,gp,zero
    4964:	01d3d117          	auipc	sp,0x1d3d
    4968:	f896e013          	ori	zero,a3,-119
    496c:	004141b3          	xor	gp,sp,tp
    4970:	2a42f013          	andi	zero,t0,676
    4974:	1589d137          	lui	sp,0x1589d
    4978:	a6c54397          	auipc	t2,0xa6c54
    497c:	4721e193          	ori	gp,gp,1138
    4980:	0021e033          	or	zero,gp,sp
    4984:	0a008113          	addi	sp,ra,160 # 0xffffffff9e4629dc
    4988:	00228133          	add	sp,t0,sp
    498c:	00337333          	and	t1,t1,gp
    4990:	9330c393          	xori	t2,ra,-1741
    4994:	40218133          	sub	sp,gp,sp
    4998:	29b911b7          	lui	gp,0x29b91
    499c:	0031e0b3          	or	ra,gp,gp
    49a0:	67c1c313          	xori	t1,gp,1660
    49a4:	40130133          	sub	sp,t1,ra
    49a8:	b8979197          	auipc	gp,0xb8979
    49ac:	3ae91717          	auipc	a4,0x3ae91
    49b0:	00308263          	beq	ra,gp,0x49b4
    49b4:	3cd000ef          	jal	ra,0x5580
    49b8:	c5111097          	auipc	ra,0xc5111
    49bc:	ebf16113          	ori	sp,sp,-321
    49c0:	40208133          	sub	sp,ra,sp
    49c4:	a679d097          	auipc	ra,0xa679d
    49c8:	c56c5197          	auipc	gp,0xc56c5
    49cc:	69783137          	lui	sp,0x69783
    49d0:	ab57c197          	auipc	gp,0xab57c
    49d4:	002060b3          	or	ra,zero,sp
    49d8:	a546f137          	lui	sp,0xa546f
    49dc:	6cf283b7          	lui	t2,0x6cf28
    49e0:	70b55097          	auipc	ra,0x70b55
    49e4:	5a71c313          	xori	t1,gp,1447
    49e8:	768ce0b7          	lui	ra,0x768ce
    49ec:	56a281b7          	lui	gp,0x56a28
    49f0:	00638133          	add	sp,t2,t1
    49f4:	cbf1f093          	andi	ra,gp,-833
    49f8:	0aec6017          	auipc	zero,0xaec6
    49fc:	389eb117          	auipc	sp,0x389eb
    4a00:	0021f1b3          	and	gp,gp,sp
    4a04:	00710133          	add	sp,sp,t2
    4a08:	71918193          	addi	gp,gp,1817 # 0x56a28719
    4a0c:	0033e2b3          	or	t0,t2,gp
    4a10:	8387a297          	auipc	t0,0x8387a
    4a14:	1fa761b7          	lui	gp,0x1fa76
    4a18:	8ad75197          	auipc	gp,0x8ad75
    4a1c:	52caa117          	auipc	sp,0x52caa
    4a20:	002401b3          	add	gp,s0,sp
    4a24:	4d152197          	auipc	gp,0x4d152
    4a28:	0040f2b3          	and	t0,ra,tp
    4a2c:	0f31f493          	andi	s1,gp,243
    4a30:	e75761b7          	lui	gp,0xe7576
    4a34:	e9aa1137          	lui	sp,0xe9aa1
    4a38:	66868113          	addi	sp,a3,1640
    4a3c:	f2424093          	xori	ra,tp,-220
    4a40:	b8710ee3          	beq	sp,t2,0x45dc
    4a44:	b99ff1ef          	jal	gp,0x45dc
    4a48:	33517113          	andi	sp,sp,821
    4a4c:	7e426113          	ori	sp,tp,2020
    4a50:	46e420b7          	lui	ra,0x46e42
    4a54:	003000b3          	add	ra,zero,gp
    4a58:	cce7a1b7          	lui	gp,0xcce7a
    4a5c:	2ec38113          	addi	sp,t2,748 # 0x6cf282ec
    4a60:	cfdfe1b7          	lui	gp,0xcfdfe
    4a64:	4cdd90b7          	lui	ra,0x4cdd9
    4a68:	eb93e113          	ori	sp,t2,-327
    4a6c:	00108133          	add	sp,ra,ra
    4a70:	5f108193          	addi	gp,ra,1521 # 0x4cdd95f1
    4a74:	01617233          	and	tp,sp,s6
    4a78:	4d517113          	andi	sp,sp,1237
    4a7c:	dfaae197          	auipc	gp,0xdfaae
    4a80:	32d94197          	auipc	gp,0x32d94
    4a84:	a0a17193          	andi	gp,sp,-1526
    4a88:	4d637093          	andi	ra,t1,1238
    4a8c:	637c6197          	auipc	gp,0x637c6
    4a90:	49cfd117          	auipc	sp,0x49cfd
    4a94:	007371b3          	and	gp,t1,t2
    4a98:	f1610193          	addi	gp,sp,-234 # 0x49d019a6
    4a9c:	fc51e193          	ori	gp,gp,-59
    4aa0:	f50a2137          	lui	sp,0xf50a2
    4aa4:	00118133          	add	sp,gp,ra
    4aa8:	424a6317          	auipc	t1,0x424a6
    4aac:	00114133          	xor	sp,sp,ra
    4ab0:	4598e0b7          	lui	ra,0x4598e
    4ab4:	003101b3          	add	gp,sp,gp
    4ab8:	1223f097          	auipc	ra,0x1223f
    4abc:	0010e033          	or	zero,ra,ra
    4ac0:	00208133          	add	sp,ra,sp
    4ac4:	001170b3          	and	ra,sp,ra
    4ac8:	00110133          	add	sp,sp,ra
    4acc:	6451f313          	andi	t1,gp,1605
    4ad0:	00028093          	mv	ra,t0
    4ad4:	24508463          	beq	ra,t0,0x4d1c
    4ad8:	b50c70b7          	lui	ra,0xb50c7
    4adc:	40318a33          	sub	s4,gp,gp
    4ae0:	00014033          	xor	zero,sp,zero
    4ae4:	02558193          	addi	gp,a1,37 # 0x717d46a1
    4ae8:	d5970317          	auipc	t1,0xd5970
    4aec:	f628d097          	auipc	ra,0xf628d
    4af0:	001360b3          	or	ra,t1,ra
    4af4:	007c8133          	add	sp,s9,t2
    4af8:	82d5d137          	lui	sp,0x82d5d
    4afc:	875c01b7          	lui	gp,0x875c0
    4b00:	a1313097          	auipc	ra,0xa1313
    4b04:	212381b7          	lui	gp,0x21238
    4b08:	84603097          	auipc	ra,0x84603
    4b0c:	fe416113          	ori	sp,sp,-28
    4b10:	5311c193          	xori	gp,gp,1329
    4b14:	c528e217          	auipc	tp,0xc528e
    4b18:	b3f98117          	auipc	sp,0xb3f98
    4b1c:	ab26d097          	auipc	ra,0xab26d
    4b20:	401080b3          	sub	ra,ra,ra
    4b24:	bca480b7          	lui	ra,0xbca48
    4b28:	08677197          	auipc	gp,0x8677
    4b2c:	b6e0d1b7          	lui	gp,0xb6e0d
    4b30:	403200b3          	sub	ra,tp,gp
    4b34:	6890f113          	andi	sp,ra,1673
    4b38:	be1b70b7          	lui	ra,0xbe1b7
    4b3c:	16ee62b7          	lui	t0,0x16ee6
    4b40:	c8b5f393          	andi	t2,a1,-885
    4b44:	2850f093          	andi	ra,ra,645
    4b48:	001140b3          	xor	ra,sp,ra
    4b4c:	00138133          	add	sp,t2,ra
    4b50:	005161b3          	or	gp,sp,t0
    4b54:	e4ac2117          	auipc	sp,0xe4ac2
    4b58:	00008213          	mv	tp,ra
    4b5c:	9c120ce3          	beq	tp,ra,0x4534
    4b60:	f2608313          	addi	t1,ra,-218 # 0xffffffffbe1b6f26
    4b64:	30a07113          	andi	sp,zero,778
    4b68:	4502f993          	andi	s3,t0,1104
    4b6c:	15044117          	auipc	sp,0x15044
    4b70:	401080b3          	sub	ra,ra,ra
    4b74:	002148b3          	xor	a7,sp,sp
    4b78:	18f701b7          	lui	gp,0x18f70
    4b7c:	c050e137          	lui	sp,0xc050e
    4b80:	18c25097          	auipc	ra,0x18c25
    4b84:	00114133          	xor	sp,sp,ra
    4b88:	3e588313          	addi	t1,a7,997 # 0xffffffffe01bfb11
    4b8c:	0150c1b3          	xor	gp,ra,s5
    4b90:	0033c1b3          	xor	gp,t2,gp
    4b94:	7e816813          	ori	a6,sp,2024
    4b98:	3a84b1b7          	lui	gp,0x3a84b
    4b9c:	9dde1197          	auipc	gp,0x9dde1
    4ba0:	6a99a137          	lui	sp,0x6a99a
    4ba4:	00010a33          	add	s4,sp,zero
    4ba8:	7bd30093          	addi	ra,t1,1981 # 0xffffffffd59752a5
    4bac:	003275b3          	and	a1,tp,gp
    4bb0:	ad142337          	lui	t1,0xad142
    4bb4:	042fc0b7          	lui	ra,0x42fc
    4bb8:	29e51337          	lui	t1,0x29e51
    4bbc:	c7ffd837          	lui	a6,0xc7ffd
    4bc0:	cf7e9297          	auipc	t0,0xcf7e9
    4bc4:	797511b7          	lui	gp,0x79751
    4bc8:	f6c54117          	auipc	sp,0xf6c54
    4bcc:	6887d197          	auipc	gp,0x6887d
    4bd0:	667c8117          	auipc	sp,0x667c8
    4bd4:	21318013          	addi	zero,gp,531 # 0x68881ddf
    4bd8:	0040f1b3          	and	gp,ra,tp
    4bdc:	481fa0b7          	lui	ra,0x481fa
    4be0:	12614093          	xori	ra,sp,294
    4be4:	00016133          	or	sp,sp,zero
    4be8:	0f6970b7          	lui	ra,0xf697
    4bec:	c5933237          	lui	tp,0xc5933
    4bf0:	6ac1d1b7          	lui	gp,0x6ac1d
    4bf4:	00010313          	mv	t1,sp
    4bf8:	a82300e3          	beq	t1,sp,0x4678
    4bfc:	5e624197          	auipc	gp,0x5e624
    4c00:	d2bf73b7          	lui	t2,0xd2bf7
    4c04:	056a0197          	auipc	gp,0x56a0
    4c08:	b760a017          	auipc	zero,0xb760a
    4c0c:	68f4f093          	andi	ra,s1,1679
    4c10:	c93080b7          	lui	ra,0xc9308
    4c14:	0034c633          	xor	a2,s1,gp
    4c18:	0040c0b3          	xor	ra,ra,tp
    4c1c:	8dcd10b7          	lui	ra,0x8dcd1
    4c20:	11113097          	auipc	ra,0x11113
    4c24:	ca365b97          	auipc	s7,0xca365
    4c28:	0031e033          	or	zero,gp,gp
    4c2c:	4f214197          	auipc	gp,0x4f214
    4c30:	0020e0b3          	or	ra,ra,sp
    4c34:	edf9ee37          	lui	t3,0xedf9e
    4c38:	6d614113          	xori	sp,sp,1750
    4c3c:	0010f133          	and	sp,ra,ra
    4c40:	2942c193          	xori	gp,t0,660
    4c44:	88a0c113          	xori	sp,ra,-1910
    4c48:	d203e393          	ori	t2,t2,-736
    4c4c:	244bf317          	auipc	t1,0x244bf
    4c50:	002642b3          	xor	t0,a2,sp
    4c54:	003070b3          	and	ra,zero,gp
    4c58:	40138133          	sub	sp,t2,ra
    4c5c:	73d0e213          	ori	tp,ra,1853
    4c60:	198171b7          	lui	gp,0x19817
    4c64:	67f2c093          	xori	ra,t0,1663
    4c68:	b6b3f2b7          	lui	t0,0xb6b3f
    4c6c:	fef376b7          	lui	a3,0xfef37
    4c70:	28b97a97          	auipc	s5,0x28b97
    4c74:	94d58117          	auipc	sp,0x94d58
    4c78:	402100b3          	sub	ra,sp,sp
    4c7c:	6e391337          	lui	t1,0x6e391
    4c80:	518751b7          	lui	gp,0x51875
    4c84:	00000013          	nop
    4c88:	80000ce3          	beqz	zero,0x44a0
    4c8c:	407080b3          	sub	ra,ra,t2
    4c90:	0b32d197          	auipc	gp,0xb32d
    4c94:	000081b3          	add	gp,ra,zero
    4c98:	70f45397          	auipc	t2,0x70f45
    4c9c:	001181b3          	add	gp,gp,ra
    4ca0:	db33a5b7          	lui	a1,0xdb33a
    4ca4:	71114193          	xori	gp,sp,1809
    4ca8:	48c14093          	xori	ra,sp,1164
    4cac:	7f87f197          	auipc	gp,0x7f87f
    4cb0:	6eff2097          	auipc	ra,0x6eff2
    4cb4:	cdc67137          	lui	sp,0xcdc67
    4cb8:	401201b3          	sub	gp,tp,ra
    4cbc:	0031c0b3          	xor	ra,gp,gp
    4cc0:	001161b3          	or	gp,sp,ra
    4cc4:	002070b3          	and	ra,zero,sp
    4cc8:	0022e133          	or	sp,t0,sp
    4ccc:	0060c2b3          	xor	t0,ra,t1
    4cd0:	fd399137          	lui	sp,0xfd399
    4cd4:	01d1c233          	xor	tp,gp,t4
    4cd8:	e0330193          	addi	gp,t1,-509 # 0x6e390e03
    4cdc:	8f30c093          	xori	ra,ra,-1805
    4ce0:	c2944093          	xori	ra,s0,-983
    4ce4:	b9a14313          	xori	t1,sp,-1126
    4ce8:	a6614113          	xori	sp,sp,-1434
    4cec:	de406193          	ori	gp,zero,-540
    4cf0:	9540a097          	auipc	ra,0x9540a
    4cf4:	51ca82b7          	lui	t0,0x51ca8
    4cf8:	37d39197          	auipc	gp,0x37d39
    4cfc:	401081b3          	sub	gp,ra,ra
    4d00:	74f1c097          	auipc	ra,0x74f1c
    4d04:	126826b7          	lui	a3,0x12682
    4d08:	836281b7          	lui	gp,0x83628
    4d0c:	0011f233          	and	tp,gp,ra
    4d10:	001160b3          	or	ra,sp,ra
    4d14:	c0238ce3          	beq	t2,sp,0x492c
    4d18:	c15ff36f          	jal	t1,0x492c
    4d1c:	51e98197          	auipc	gp,0x51e98
    4d20:	737e8197          	auipc	gp,0x737e8
    4d24:	ae6bf397          	auipc	t2,0xae6bf
    4d28:	4312e393          	ori	t2,t0,1073
    4d2c:	417e40b7          	lui	ra,0x417e4
    4d30:	003240b3          	xor	ra,tp,gp
    4d34:	6961ec13          	ori	s8,gp,1686
    4d38:	dea14097          	auipc	ra,0xdea14
    4d3c:	7f7d6217          	auipc	tp,0x7f7d6
    4d40:	e861f213          	andi	tp,gp,-378
    4d44:	8878b117          	auipc	sp,0x8878b
    4d48:	7bf1e117          	auipc	sp,0x7bf1e
    4d4c:	afc00213          	li	tp,-1284
    4d50:	0011e133          	or	sp,gp,ra
    4d54:	4e00f293          	andi	t0,ra,1248
    4d58:	9f517193          	andi	gp,sp,-1547
    4d5c:	27824213          	xori	tp,tp,632
    4d60:	c0e08193          	addi	gp,ra,-1010 # 0xffffffffdea18946
    4d64:	406180b3          	sub	ra,gp,t1
    4d68:	5b38c097          	auipc	ra,0x5b38c
    4d6c:	902901b7          	lui	gp,0x90290
    4d70:	1cb14193          	xori	gp,sp,459
    4d74:	ab1e1297          	auipc	t0,0xab1e1
    4d78:	8e8ed0b7          	lui	ra,0x8e8ed
    4d7c:	0031c1b3          	xor	gp,gp,gp
    4d80:	f99f4097          	auipc	ra,0xf99f4
    4d84:	001070b3          	and	ra,zero,ra
    4d88:	0031f1b3          	and	gp,gp,gp
    4d8c:	61ce3337          	lui	t1,0x61ce3
    4d90:	5671f113          	andi	sp,gp,1383
    4d94:	ac73c113          	xori	sp,t2,-1337
    4d98:	00308263          	beq	ra,gp,0x4d9c
    4d9c:	d68ff2ef          	jal	t0,0x4304
    4da0:	9bb17193          	andi	gp,sp,-1605
    4da4:	230e71b7          	lui	gp,0x230e7
    4da8:	0010f233          	and	tp,ra,ra
    4dac:	8e7c0293          	addi	t0,s8,-1817
    4db0:	aef2e093          	ori	ra,t0,-1297
    4db4:	a799c017          	auipc	zero,0xa799c
    4db8:	87d8a237          	lui	tp,0x87d8a
    4dbc:	d16021b7          	lui	gp,0xd1602
    4dc0:	003160b3          	or	ra,sp,gp
    4dc4:	12770297          	auipc	t0,0x12770
    4dc8:	5c93c213          	xori	tp,t2,1481
    4dcc:	0012c1b3          	xor	gp,t0,ra
    4dd0:	23c08113          	addi	sp,ra,572 # 0xfffffffff99f8fbc
    4dd4:	4d981017          	auipc	zero,0x4d981
    4dd8:	023a6113          	ori	sp,s4,35
    4ddc:	c386c137          	lui	sp,0xc386c
    4de0:	ba417137          	lui	sp,0xba417
    4de4:	ff126017          	auipc	zero,0xff126
    4de8:	f37411b7          	lui	gp,0xf3741
    4dec:	240c7397          	auipc	t2,0x240c7
    4df0:	7f43d097          	auipc	ra,0x7f43d
    4df4:	7aef11b7          	lui	gp,0x7aef1
    4df8:	7802f393          	andi	t2,t0,1920
    4dfc:	a5669137          	lui	sp,0xa5669
    4e00:	1e149317          	auipc	t1,0x1e149
    4e04:	9a3e4137          	lui	sp,0x9a3e4
    4e08:	193ec097          	auipc	ra,0x193ec
    4e0c:	0022e3b3          	or	t2,t0,sp
    4e10:	522ae0b7          	lui	ra,0x522ae
    4e14:	708201b7          	lui	gp,0x70820
    4e18:	55877197          	auipc	gp,0x55877
    4e1c:	00308033          	add	zero,ra,gp
    4e20:	fac21197          	auipc	gp,0xfac21
    4e24:	2174f197          	auipc	gp,0x2174f
    4e28:	9e330ee3          	beq	t1,gp,0x4824
    4e2c:	9f9ff16f          	jal	sp,0x4824
    4e30:	f1639117          	auipc	sp,0xf1639
    4e34:	9643a117          	auipc	sp,0x9643a
    4e38:	2c677117          	auipc	sp,0x2c677
    4e3c:	a7241017          	auipc	zero,0xa7241
    4e40:	0011f133          	and	sp,gp,ra
    4e44:	3e9530b7          	lui	ra,0x3e953
    4e48:	beb18093          	addi	ra,gp,-1045 # 0x21753a0f
    4e4c:	cb80e093          	ori	ra,ra,-840
    4e50:	dfa0e013          	ori	zero,ra,-518
    4e54:	017171b3          	and	gp,sp,s7
    4e58:	bd41c693          	xori	a3,gp,-1068
    4e5c:	6bd28037          	lui	zero,0x6bd28
    4e60:	cc370137          	lui	sp,0xcc370
    4e64:	4aa0e193          	ori	gp,ra,1194
    4e68:	b74d6097          	auipc	ra,0xb74d6
    4e6c:	d59f7197          	auipc	gp,0xd59f7
    4e70:	d9cdb097          	auipc	ra,0xd9cdb
    4e74:	d0fd60b7          	lui	ra,0xd0fd6
    4e78:	6165f2b7          	lui	t0,0x6165f
    4e7c:	1f5641b7          	lui	gp,0x1f564
    4e80:	c179c0b7          	lui	ra,0xc179c
    4e84:	00216133          	or	sp,sp,sp
    4e88:	816aa017          	auipc	zero,0x816aa
    4e8c:	e8763197          	auipc	gp,0xe8763
    4e90:	318361b7          	lui	gp,0x31836
    4e94:	da8b0013          	addi	zero,s6,-600 # 0x6596fda8
    4e98:	bfd7f093          	andi	ra,a5,-1027
    4e9c:	8496d2b7          	lui	t0,0x8496d
    4ea0:	93307097          	auipc	ra,0x93307
    4ea4:	1c80c193          	xori	gp,ra,456
    4ea8:	ec6bbcb7          	lui	s9,0xec6bb
    4eac:	bc629297          	auipc	t0,0xbc629
    4eb0:	7ef14693          	xori	a3,sp,2031
    4eb4:	cd016013          	ori	zero,sp,-816
    4eb8:	91e04337          	lui	t1,0x91e04
    4ebc:	0011f5b3          	and	a1,gp,ra
    4ec0:	21a261b7          	lui	gp,0x21a26
    4ec4:	36208863          	beq	ra,sp,0x5234
    4ec8:	36c000ef          	jal	ra,0x5234
    4ecc:	a0e26037          	lui	zero,0xa0e26
    4ed0:	54f17113          	andi	sp,sp,1359
    4ed4:	5de69197          	auipc	gp,0x5de69
    4ed8:	3caf9217          	auipc	tp,0x3caf9
    4edc:	d1676337          	lui	t1,0xd1676
    4ee0:	40218133          	sub	sp,gp,sp
    4ee4:	8cb1d137          	lui	sp,0x8cb1d
    4ee8:	0030f233          	and	tp,ra,gp
    4eec:	ff310013          	addi	zero,sp,-13 # 0xffffffff8cb1cff3
    4ef0:	2beec117          	auipc	sp,0x2beec
    4ef4:	f5043397          	auipc	t2,0xf5043
    4ef8:	37dd0097          	auipc	ra,0x37dd0
    4efc:	baa14193          	xori	gp,sp,-1110
    4f00:	001163b3          	or	t2,sp,ra
    4f04:	bcb0e113          	ori	sp,ra,-1077
    4f08:	001140b3          	xor	ra,sp,ra
    4f0c:	5cb0c793          	xori	a5,ra,1483
    4f10:	001081b3          	add	gp,ra,ra
    4f14:	51268097          	auipc	ra,0x51268
    4f18:	92534193          	xori	gp,t1,-1755
    4f1c:	c9864117          	auipc	sp,0xc9864
    4f20:	00116133          	or	sp,sp,ra
    4f24:	18d15117          	auipc	sp,0x18d15
    4f28:	0039e133          	or	sp,s3,gp
    4f2c:	00114333          	xor	t1,sp,ra
    4f30:	402101b3          	sub	gp,sp,sp
    4f34:	4a5d3697          	auipc	a3,0x4a5d3
    4f38:	40110c33          	sub	s8,sp,ra
    4f3c:	402380b3          	sub	ra,t2,sp
    4f40:	0030f0b3          	and	ra,ra,gp
    4f44:	66b1c213          	xori	tp,gp,1643
    4f48:	cadb80b7          	lui	ra,0xcadb8
    4f4c:	48130a63          	beq	t1,ra,0x53e0
    4f50:	490000ef          	jal	ra,0x53e0
    4f54:	0031e0b3          	or	ra,gp,gp
    4f58:	caf8d037          	lui	zero,0xcaf8d
    4f5c:	98016093          	ori	ra,sp,-1664
    4f60:	6ee1e013          	ori	zero,gp,1774
    4f64:	8d4a61b7          	lui	gp,0x8d4a6
    4f68:	b6517093          	andi	ra,sp,-1179
    4f6c:	09d16117          	auipc	sp,0x9d16
    4f70:	9210b0b7          	lui	ra,0x9210b
    4f74:	39220193          	addi	gp,tp,914 # 0x3cafe26a
    4f78:	bf01e293          	ori	t0,gp,-1040
    4f7c:	00214133          	xor	sp,sp,sp
    4f80:	00310033          	add	zero,sp,gp
    4f84:	2a8d3137          	lui	sp,0x2a8d3
    4f88:	a49eb797          	auipc	a5,0xa49eb
    4f8c:	a081e113          	ori	sp,gp,-1528
    4f90:	d5006093          	ori	ra,zero,-688
    4f94:	0010f133          	and	sp,ra,ra
    4f98:	0e8b1097          	auipc	ra,0xe8b1
    4f9c:	94018b93          	addi	s7,gp,-1728 # 0xffffffff8d4a5940
    4fa0:	c745b017          	auipc	zero,0xc745b
    4fa4:	0011f133          	and	sp,gp,ra
    4fa8:	11c2c113          	xori	sp,t0,284
    4fac:	647ac0b7          	lui	ra,0x647ac
    4fb0:	404180b3          	sub	ra,gp,tp
    4fb4:	e5c17113          	andi	sp,sp,-420
    4fb8:	0010e333          	or	t1,ra,ra
    4fbc:	9b1de097          	auipc	ra,0x9b1de
    4fc0:	7a51c093          	xori	ra,gp,1957
    4fc4:	38d36197          	auipc	gp,0x38d36
    4fc8:	3a9c7137          	lui	sp,0x3a9c7
    4fcc:	e4c0c093          	xori	ra,ra,-436
    4fd0:	3b0a8117          	auipc	sp,0x3b0a8
    4fd4:	0030f0b3          	and	ra,ra,gp
    4fd8:	a4b7b197          	auipc	gp,0xa4b7b
    4fdc:	6418c1b7          	lui	gp,0x6418c
    4fe0:	b0be1197          	auipc	gp,0xb0be1
    4fe4:	00208263          	beq	ra,sp,0x4fe8
    4fe8:	065000ef          	jal	ra,0x584c
    4fec:	f2408193          	addi	gp,ra,-220 # 0xffffffff9b1e2ee0
    4ff0:	1a169137          	lui	sp,0x1a169
    4ff4:	99676037          	lui	zero,0x99676
    4ff8:	c051c093          	xori	ra,gp,-1019
    4ffc:	7d2c7117          	auipc	sp,0x7d2c7
    5000:	40018033          	sub	zero,gp,zero
    5004:	411e00b3          	sub	ra,t3,a7
    5008:	0032c133          	xor	sp,t0,gp
    500c:	00617133          	and	sp,sp,t1
    5010:	58e3f117          	auipc	sp,0x58e3f
    5014:	404101b3          	sub	gp,sp,tp
    5018:	2b6de0b7          	lui	ra,0x2b6de
    501c:	53f27193          	andi	gp,tp,1343
    5020:	ca5c7397          	auipc	t2,0xca5c7
    5024:	a7376113          	ori	sp,a4,-1421
    5028:	06924393          	xori	t2,tp,105
    502c:	0030f1b3          	and	gp,ra,gp
    5030:	8e4c5317          	auipc	t1,0x8e4c5
    5034:	296b61b7          	lui	gp,0x296b6
    5038:	0002e133          	or	sp,t0,zero
    503c:	2779f1b7          	lui	gp,0x2779f
    5040:	00218133          	add	sp,gp,sp
    5044:	002160b3          	or	ra,sp,sp
    5048:	7a21d0b7          	lui	ra,0x7a21d
    504c:	832ae237          	lui	tp,0x832ae
    5050:	000b8297          	auipc	t0,0xb8
    5054:	ea42c013          	xori	zero,t0,-348
    5058:	33c0fa93          	andi	s5,ra,828
    505c:	51c17613          	andi	a2,sp,1308
    5060:	2ae10113          	addi	sp,sp,686 # 0x58e442be
    5064:	0033f0b3          	and	ra,t2,gp
    5068:	7ad6b097          	auipc	ra,0x7ad6b
    506c:	2f114293          	xori	t0,sp,753
    5070:	00116133          	or	sp,sp,ra
    5074:	0310e1b7          	lui	gp,0x310e
    5078:	00000097          	auipc	ra,0x0
    507c:	3fc080e7          	jalr	1020(ra) # 0x5474
    5080:	14810113          	addi	sp,sp,328
    5084:	3a928093          	addi	ra,t0,937 # 0xbd3f9
    5088:	c5756137          	lui	sp,0xc5756
    508c:	001160b3          	or	ra,sp,ra
    5090:	fcf26237          	lui	tp,0xfcf26
    5094:	2ba7b017          	auipc	zero,0x2ba7b
    5098:	0000e1b3          	or	gp,ra,zero
    509c:	4e436113          	ori	sp,t1,1252
    50a0:	00c16133          	or	sp,sp,a2
    50a4:	40618333          	sub	t1,gp,t1
    50a8:	487a2137          	lui	sp,0x487a2
    50ac:	48569137          	lui	sp,0x48569
    50b0:	1c9b7137          	lui	sp,0x1c9b7
    50b4:	3491c197          	auipc	gp,0x3491c
    50b8:	0010e133          	or	sp,ra,ra
    50bc:	0251f093          	andi	ra,gp,37
    50c0:	188c4137          	lui	sp,0x188c4
    50c4:	6b1e6237          	lui	tp,0x6b1e6
    50c8:	bb129197          	auipc	gp,0xbb129
    50cc:	b8032217          	auipc	tp,0xb8032
    50d0:	a0233137          	lui	sp,0xa0233
    50d4:	35e1f513          	andi	a0,gp,862
    50d8:	04800293          	li	t0,72
    50dc:	f162e137          	lui	sp,0xf162e
    50e0:	ec439097          	auipc	ra,0xec439
    50e4:	589981b7          	lui	gp,0x58998
    50e8:	72bff2b7          	lui	t0,0x72bff
    50ec:	ead1f093          	andi	ra,gp,-339
    50f0:	0034f1b3          	and	gp,s1,gp
    50f4:	3be09137          	lui	sp,0x3be09
    50f8:	2ec9c197          	auipc	gp,0x2ec9c
    50fc:	5b516213          	ori	tp,sp,1461
    5100:	403083b3          	sub	t2,ra,gp
    5104:	bad750b7          	lui	ra,0xbad75
    5108:	f74de037          	lui	zero,0xf74de
    510c:	22a450b7          	lui	ra,0x22a45
    5110:	50910113          	addi	sp,sp,1289 # 0x3be09509
    5114:	85a23097          	auipc	ra,0x85a23
    5118:	ec118ae3          	beq	gp,ra,0x4fec
    511c:	ed1ff1ef          	jal	gp,0x4fec
    5120:	a59200b7          	lui	ra,0xa5920
    5124:	0033e133          	or	sp,t2,gp
    5128:	00314133          	xor	sp,sp,gp
    512c:	60e40197          	auipc	gp,0x60e40
    5130:	3c37b137          	lui	sp,0x3c37b
    5134:	67b93097          	auipc	ra,0x67b93
    5138:	0011f233          	and	tp,gp,ra
    513c:	cf7f61b7          	lui	gp,0xcf7f6
    5140:	1c188137          	lui	sp,0x1c188
    5144:	402081b3          	sub	gp,ra,sp
    5148:	72717193          	andi	gp,sp,1831
    514c:	0023f1b3          	and	gp,t2,sp
    5150:	0071c333          	xor	t1,gp,t2
    5154:	6ff91db7          	lui	s11,0x6ff91
    5158:	fec0a0b7          	lui	ra,0xfec0a
    515c:	577ee497          	auipc	s1,0x577ee
    5160:	cd1d4097          	auipc	ra,0xcd1d4
    5164:	a83ab0b7          	lui	ra,0xa83ab
    5168:	bce18093          	addi	ra,gp,-1074 # 0xffffffffcf7f5bce
    516c:	867c3237          	lui	tp,0x867c3
    5170:	003e90b7          	lui	ra,0x3e9
    5174:	00224033          	xor	zero,tp,sp
    5178:	d3da7697          	auipc	a3,0xd3da7
    517c:	0011c0b3          	xor	ra,gp,ra
    5180:	08423097          	auipc	ra,0x8423
    5184:	fc8df137          	lui	sp,0xfc8df
    5188:	56e1e013          	ori	zero,gp,1390
    518c:	40230133          	sub	sp,t1,sp
    5190:	3c687037          	lui	zero,0x3c687
    5194:	0ca23117          	auipc	sp,0xca23
    5198:	566601b7          	lui	gp,0x56660
    519c:	003141b3          	xor	gp,sp,gp
    51a0:	000e8093          	mv	ra,t4
    51a4:	11d08a63          	beq	ra,t4,0x52b8
    51a8:	6b62f093          	andi	ra,t0,1718
    51ac:	9018a197          	auipc	gp,0x9018a
    51b0:	bba00113          	li	sp,-1094
    51b4:	002df0b3          	and	ra,s11,sp
    51b8:	001141b3          	xor	gp,sp,ra
    51bc:	41110293          	addi	t0,sp,1041 # 0xca285a5
    51c0:	0050c3b3          	xor	t2,ra,t0
    51c4:	00318133          	add	sp,gp,gp
    51c8:	02ee67b7          	lui	a5,0x2ee6
    51cc:	a83e4b17          	auipc	s6,0xa83e4
    51d0:	40310133          	sub	sp,sp,gp
    51d4:	0708a117          	auipc	sp,0x708a
    51d8:	492951b7          	lui	gp,0x49295
    51dc:	2f9a8137          	lui	sp,0x2f9a8
    51e0:	29749837          	lui	a6,0x29749
    51e4:	d55e6117          	auipc	sp,0xd55e6
    51e8:	00258133          	add	sp,a1,sp
    51ec:	f5cef137          	lui	sp,0xf5cef
    51f0:	401180b3          	sub	ra,gp,ra
    51f4:	d4662197          	auipc	gp,0xd4662
    51f8:	e9014093          	xori	ra,sp,-368
    51fc:	d2e14113          	xori	sp,sp,-722
    5200:	0a60f097          	auipc	ra,0xa60f
    5204:	d7b2f313          	andi	t1,t0,-645
    5208:	71217093          	andi	ra,sp,1810
    520c:	0020c1b3          	xor	gp,ra,sp
    5210:	f1030313          	addi	t1,t1,-240 # 0xffffffff8e4c9f40
    5214:	d0017193          	andi	gp,sp,-768
    5218:	0bab51b7          	lui	gp,0xbab5
    521c:	d02220b7          	lui	ra,0xd0222
    5220:	26cfd197          	auipc	gp,0x26cfd
    5224:	03d45097          	auipc	ra,0x3d45
    5228:	a323e297          	auipc	t0,0xa323e
    522c:	58408263          	beq	ra,tp,0x57b0
    5230:	580001ef          	jal	gp,0x57b0
    5234:	0011f133          	and	sp,gp,ra
    5238:	5aa8b037          	lui	zero,0x5aa8b
    523c:	d008e017          	auipc	zero,0xd008e
    5240:	3a2d3217          	auipc	tp,0x3a2d3
    5244:	7cd26093          	ori	ra,tp,1997
    5248:	0017e1b3          	or	gp,a5,ra
    524c:	005181b3          	add	gp,gp,t0
    5250:	eea701b7          	lui	gp,0xeea70
    5254:	0ee8c1b7          	lui	gp,0xee8c
    5258:	9a1bb0b7          	lui	ra,0x9a1bb
    525c:	d59d9297          	auipc	t0,0xd59d9
    5260:	0001e333          	or	t1,gp,zero
    5264:	5e75c093          	xori	ra,a1,1511
    5268:	ef5cc5b7          	lui	a1,0xef5cc
    526c:	0f0a4017          	auipc	zero,0xf0a4
    5270:	50614093          	xori	ra,sp,1286
    5274:	98916393          	ori	t2,sp,-1655
    5278:	0021c0b3          	xor	ra,gp,sp
    527c:	401107b3          	sub	a5,sp,ra
    5280:	0010f3b3          	and	t2,ra,ra
    5284:	ad517393          	andi	t2,sp,-1323
    5288:	8f500093          	li	ra,-1803
    528c:	00028233          	add	tp,t0,zero
    5290:	add0f0b7          	lui	ra,0xadd0f
    5294:	df0390b7          	lui	ra,0xdf039
    5298:	0031c133          	xor	sp,gp,gp
    529c:	13fad1b7          	lui	gp,0x13fad
    52a0:	405781b3          	sub	gp,a5,t0
    52a4:	00114133          	xor	sp,sp,ra
    52a8:	ee0e3117          	auipc	sp,0xee0e3
    52ac:	e6f6d0b7          	lui	ra,0xe6f6d
    52b0:	00118263          	beq	gp,ra,0x52b4
    52b4:	5b5001ef          	jal	gp,0x6068
    52b8:	4fa30113          	addi	sp,t1,1274
    52bc:	006300b3          	add	ra,t1,t1
    52c0:	df403337          	lui	t1,0xdf403
    52c4:	d483e0b7          	lui	ra,0xd483e
    52c8:	001080b3          	add	ra,ra,ra
    52cc:	8b0cf2b7          	lui	t0,0x8b0cf
    52d0:	30110193          	addi	gp,sp,769 # 0xffffffffee0e85a9
    52d4:	4151f313          	andi	t1,gp,1045
    52d8:	e022b1b7          	lui	gp,0xe022b
    52dc:	71742197          	auipc	gp,0x71742
    52e0:	e05ae217          	auipc	tp,0xe05ae
    52e4:	15f91197          	auipc	gp,0x15f91
    52e8:	1854e397          	auipc	t2,0x1854e
    52ec:	d35480b7          	lui	ra,0xd3548
    52f0:	7814a137          	lui	sp,0x7814a
    52f4:	57dc8097          	auipc	ra,0x57dc8
    52f8:	6bdbe137          	lui	sp,0x6bdbe
    52fc:	ca2661b7          	lui	gp,0xca266
    5300:	407cd0b7          	lui	ra,0x407cd
    5304:	0020fe33          	and	t3,ra,sp
    5308:	3dc2e193          	ori	gp,t0,988
    530c:	26e8f093          	andi	ra,a7,622
    5310:	0050e6b3          	or	a3,ra,t0
    5314:	79a1f093          	andi	ra,gp,1946
    5318:	71816393          	ori	t2,sp,1816
    531c:	5de77137          	lui	sp,0x5de77
    5320:	8dc531b7          	lui	gp,0x8dc53
    5324:	d8036193          	ori	gp,t1,-640
    5328:	2d23f793          	andi	a5,t2,722
    532c:	0040e133          	or	sp,ra,tp
    5330:	b652a117          	auipc	sp,0xb652a
    5334:	0016c1b3          	xor	gp,a3,ra
    5338:	3e0cde97          	auipc	t4,0x3e0cd
    533c:	b80088e3          	beqz	ra,0x4ecc
    5340:	b8dff4ef          	jal	s1,0x4ecc
    5344:	20914093          	xori	ra,sp,521
    5348:	a8e28193          	addi	gp,t0,-1394 # 0xffffffff8b0cea8e
    534c:	34bb80b7          	lui	ra,0x34bb8
    5350:	e209c197          	auipc	gp,0xe209c
    5354:	39c34093          	xori	ra,t1,924
    5358:	418101b3          	sub	gp,sp,s8
    535c:	180fb1b7          	lui	gp,0x180fb
    5360:	6c0d61b7          	lui	gp,0x6c0d6
    5364:	4ac17293          	andi	t0,sp,1196
    5368:	72db4337          	lui	t1,0x72db4
    536c:	005c7233          	and	tp,s8,t0
    5370:	5f826313          	ori	t1,tp,1528
    5374:	fd416193          	ori	gp,sp,-44
    5378:	00128133          	add	sp,t0,ra
    537c:	0061f0b3          	and	ra,gp,t1
    5380:	56972117          	auipc	sp,0x56972
    5384:	5184a337          	lui	t1,0x5184a
    5388:	58c71117          	auipc	sp,0x58c71
    538c:	9aab40b7          	lui	ra,0x9aab4
    5390:	7de14113          	xori	sp,sp,2014
    5394:	e0d0e113          	ori	sp,ra,-499
    5398:	1b52e317          	auipc	t1,0x1b52e
    539c:	403080b3          	sub	ra,ra,gp
    53a0:	d4608317          	auipc	t1,0xd4608
    53a4:	9322d117          	auipc	sp,0x9322d
    53a8:	3c7321b7          	lui	gp,0x3c732
    53ac:	f7fb6197          	auipc	gp,0xf7fb6
    53b0:	0021c233          	xor	tp,gp,sp
    53b4:	ef414113          	xori	sp,sp,-268
    53b8:	89d17213          	andi	tp,sp,-1891
    53bc:	3cd0e193          	ori	gp,ra,973
    53c0:	ff4be197          	auipc	gp,0xff4be
    53c4:	02007093          	andi	ra,zero,32
    53c8:	0031f0b3          	and	ra,gp,gp
    53cc:	0031e0b3          	or	ra,gp,gp
    53d0:	0060e1b3          	or	gp,ra,t1
    53d4:	002160b3          	or	ra,sp,sp
    53d8:	2c218463          	beq	gp,sp,0x56a0
    53dc:	2c4002ef          	jal	t0,0x56a0
    53e0:	76b10393          	addi	t2,sp,1899 # 0xffffffff93232b0f
    53e4:	18818113          	addi	sp,gp,392 # 0xffffffffff4c3548
    53e8:	467f4097          	auipc	ra,0x467f4
    53ec:	640d8337          	lui	t1,0x640d8
    53f0:	5ac14597          	auipc	a1,0x5ac14
    53f4:	bad82117          	auipc	sp,0xbad82
    53f8:	3a93d397          	auipc	t2,0x3a93d
    53fc:	223b8e97          	auipc	t4,0x223b8
    5400:	0020f033          	and	zero,ra,sp
    5404:	4f00e293          	ori	t0,ra,1264
    5408:	0051f133          	and	sp,gp,t0
    540c:	423a2337          	lui	t1,0x423a2
    5410:	41b17093          	andi	ra,sp,1051
    5414:	fbca4337          	lui	t1,0xfbca4
    5418:	40318133          	sub	sp,gp,gp
    541c:	322741b7          	lui	gp,0x32274
    5420:	d90af1b7          	lui	gp,0xd90af
    5424:	68e56117          	auipc	sp,0x68e56
    5428:	7e7e2217          	auipc	tp,0x7e7e2
    542c:	0070e033          	or	zero,ra,t2
    5430:	003173b3          	and	t2,sp,gp
    5434:	3eba60b7          	lui	ra,0x3eba6
    5438:	869f3437          	lui	s0,0x869f3
    543c:	a880d137          	lui	sp,0xa880d
    5440:	05c18093          	addi	ra,gp,92 # 0xffffffffd90af05c
    5444:	40218133          	sub	sp,gp,sp
    5448:	0013e0b3          	or	ra,t2,ra
    544c:	0030e1b3          	or	gp,ra,gp
    5450:	c8dfa197          	auipc	gp,0xc8dfa
    5454:	e8f1f193          	andi	gp,gp,-369
    5458:	466d4197          	auipc	gp,0x466d4
    545c:	71343a17          	auipc	s4,0x71343
    5460:	afa059b7          	lui	s3,0xafa05
    5464:	69b2c0b7          	lui	ra,0x69b2c
    5468:	335ca217          	auipc	tp,0x335ca
    546c:	00000097          	auipc	ra,0x0
    5470:	1a4080e7          	jalr	420(ra) # 0x5610
    5474:	76508093          	addi	ra,ra,1893
    5478:	00118233          	add	tp,gp,ra
    547c:	40c17193          	andi	gp,sp,1036
    5480:	34372097          	auipc	ra,0x34372
    5484:	0021e1b3          	or	gp,gp,sp
    5488:	0000c133          	xor	sp,ra,zero
    548c:	4900c193          	xori	gp,ra,1168
    5490:	6310e097          	auipc	ra,0x6310e
    5494:	32288197          	auipc	gp,0x32288
    5498:	8a0f1137          	lui	sp,0x8a0f1
    549c:	0051e1b3          	or	gp,gp,t0
    54a0:	efb660b7          	lui	ra,0xefb66
    54a4:	1a720113          	addi	sp,tp,423 # 0x335cf60f
    54a8:	0030f033          	and	zero,ra,gp
    54ac:	74933197          	auipc	gp,0x74933
    54b0:	862a6137          	lui	sp,0x862a6
    54b4:	5eb6c117          	auipc	sp,0x5eb6c
    54b8:	1b3a0097          	auipc	ra,0x1b3a0
    54bc:	f7cfe3b7          	lui	t2,0xf7cfe
    54c0:	ccd28113          	addi	sp,t0,-819
    54c4:	001108b3          	add	a7,sp,ra
    54c8:	00b0e1b3          	or	gp,ra,a1
    54cc:	0031e1b3          	or	gp,gp,gp
    54d0:	0020f0b3          	and	ra,ra,sp
    54d4:	003371b3          	and	gp,t1,gp
    54d8:	405083b3          	sub	t2,ra,t0
    54dc:	f22f6017          	auipc	zero,0xf22f6
    54e0:	e6f1c137          	lui	sp,0xe6f1c
    54e4:	de7401b7          	lui	gp,0xde740
    54e8:	89951097          	auipc	ra,0x89951
    54ec:	f250c793          	xori	a5,ra,-219
    54f0:	23518e63          	beq	gp,s5,0x572c
    54f4:	2380036f          	jal	t1,0x572c
    54f8:	275a4497          	auipc	s1,0x275a4
    54fc:	002273b3          	and	t2,tp,sp
    5500:	cda1f093          	andi	ra,gp,-806
    5504:	023b9117          	auipc	sp,0x23b9
    5508:	5cd7d117          	auipc	sp,0x5cd7d
    550c:	0043f133          	and	sp,t2,tp
    5510:	9ca0e193          	ori	gp,ra,-1590
    5514:	d8950117          	auipc	sp,0xd8950
    5518:	f036e317          	auipc	t1,0xf036e
    551c:	f8f67137          	lui	sp,0xf8f67
    5520:	003086b3          	add	a3,ra,gp
    5524:	c500b097          	auipc	ra,0xc500b
    5528:	ef117213          	andi	tp,sp,-271
    552c:	401480b3          	sub	ra,s1,ra
    5530:	59be61b7          	lui	gp,0x59be6
    5534:	76416117          	auipc	sp,0x76416
    5538:	002fe033          	or	zero,t6,sp
    553c:	40910233          	sub	tp,sp,s1
    5540:	ee458093          	addi	ra,a1,-284 # 0x5ac192d4
    5544:	0020f133          	and	sp,ra,sp
    5548:	3edc6117          	auipc	sp,0x3edc6
    554c:	8d79e017          	auipc	zero,0x8d79e
    5550:	51a78917          	auipc	s2,0x51a78
    5554:	dc1d4137          	lui	sp,0xdc1d4
    5558:	677dd197          	auipc	gp,0x677dd
    555c:	6d4090b7          	lui	ra,0x6d409
    5560:	cbe36113          	ori	sp,t1,-834
    5564:	bd6841b7          	lui	gp,0xbd684
    5568:	2740e313          	ori	t1,ra,628
    556c:	12b0f293          	andi	t0,ra,299
    5570:	28030213          	addi	tp,t1,640 # 0xfffffffff0373798
    5574:	0010e233          	or	tp,ra,ra
    5578:	dc3106e3          	beq	sp,gp,0x5344
    557c:	dc9ff1ef          	jal	gp,0x5344
    5580:	b4f0f393          	andi	t2,ra,-1201
    5584:	775c3197          	auipc	gp,0x775c3
    5588:	0012e133          	or	sp,t0,ra
    558c:	c9708113          	addi	sp,ra,-873 # 0x6d408c97
    5590:	7337d117          	auipc	sp,0x7337d
    5594:	000173b3          	and	t2,sp,zero
    5598:	05ae01b7          	lui	gp,0x5ae0
    559c:	15818113          	addi	sp,gp,344 # 0x5ae0158
    55a0:	a0080097          	auipc	ra,0xa0080
    55a4:	fe108193          	addi	gp,ra,-31 # 0xffffffffa0085581
    55a8:	1d6ae093          	ori	ra,s5,470
    55ac:	21afb117          	auipc	sp,0x21afb
    55b0:	00508133          	add	sp,ra,t0
    55b4:	d56db297          	auipc	t0,0xd56db
    55b8:	003162b3          	or	t0,sp,gp
    55bc:	3521f113          	andi	sp,gp,850
    55c0:	ce137113          	andi	sp,t1,-799
    55c4:	d3d10193          	addi	gp,sp,-707 # 0x21b002e9
    55c8:	5e01e093          	ori	ra,gp,1504
    55cc:	16935197          	auipc	gp,0x16935
    55d0:	fdb27137          	lui	sp,0xfdb27
    55d4:	d40a50b7          	lui	ra,0xd40a5
    55d8:	ae3f9317          	auipc	t1,0xae3f9
    55dc:	0020c133          	xor	sp,ra,sp
    55e0:	5250f113          	andi	sp,ra,1317
    55e4:	c397f0b7          	lui	ra,0xc397f
    55e8:	002371b3          	and	gp,t1,sp
    55ec:	de853097          	auipc	ra,0xde853
    55f0:	130a8037          	lui	zero,0x130a8
    55f4:	002160b3          	or	ra,sp,sp
    55f8:	20fba797          	auipc	a5,0x20fba
    55fc:	37f6a0b7          	lui	ra,0x37f6a
    5600:	c4888137          	lui	sp,0xc4888
    5604:	0c034117          	auipc	sp,0xc034
    5608:	000f0113          	mv	sp,t5
    560c:	2de10863          	beq	sp,t5,0x58dc
    5610:	5dbe61b7          	lui	gp,0x5dbe6
    5614:	8a9f93b7          	lui	t2,0x8a9f9
    5618:	0030e133          	or	sp,ra,gp
    561c:	1bbbd217          	auipc	tp,0x1bbbd
    5620:	060ff197          	auipc	gp,0x60ff
    5624:	4bfaf097          	auipc	ra,0x4bfaf
    5628:	d7bd10b7          	lui	ra,0xd7bd1
    562c:	b329b0b7          	lui	ra,0xb329b
    5630:	65b4f397          	auipc	t2,0x65b4f
    5634:	8fe5c1b7          	lui	gp,0x8fe5c
    5638:	4ec10137          	lui	sp,0x4ec10
    563c:	00107333          	and	t1,zero,ra
    5640:	3163e337          	lui	t1,0x3163e
    5644:	002260b3          	or	ra,tp,sp
    5648:	00318133          	add	sp,gp,gp
    564c:	b400c213          	xori	tp,ra,-1216
    5650:	be014b13          	xori	s6,sp,-1056
    5654:	f450e017          	auipc	zero,0xf450e
    5658:	003160b3          	or	ra,sp,gp
    565c:	004202b3          	add	t0,tp,tp
    5660:	014181b3          	add	gp,gp,s4
    5664:	7e532197          	auipc	gp,0x7e532
    5668:	a4aee097          	auipc	ra,0xa4aee
    566c:	afdb1037          	lui	zero,0xafdb1
    5670:	9a9bf137          	lui	sp,0x9a9bf
    5674:	00210133          	add	sp,sp,sp
    5678:	93b0d317          	auipc	t1,0x93b0d
    567c:	1f49b137          	lui	sp,0x1f49b
    5680:	b2d0a117          	auipc	sp,0xb2d0a
    5684:	35f0c193          	xori	gp,ra,863
    5688:	66615117          	auipc	sp,0x66615
    568c:	0020e0b3          	or	ra,ra,sp
    5690:	00110033          	add	zero,sp,ra
    5694:	459db1b7          	lui	gp,0x459db
    5698:	e63100e3          	beq	sp,gp,0x54f8
    569c:	e5dff1ef          	jal	gp,0x54f8
    56a0:	7741c193          	xori	gp,gp,1908
    56a4:	cd10d197          	auipc	gp,0xcd10d
    56a8:	197740b7          	lui	ra,0x19774
    56ac:	404108b3          	sub	a7,sp,tp
    56b0:	d08db3b7          	lui	t2,0xd08db
    56b4:	3cd4f2b7          	lui	t0,0x3cd4f
    56b8:	248d6097          	auipc	ra,0x248d6
    56bc:	f49d6697          	auipc	a3,0xf49d6
    56c0:	1359d2b7          	lui	t0,0x1359d
    56c4:	c7116113          	ori	sp,sp,-911
    56c8:	8688d3b7          	lui	t2,0x8688d
    56cc:	ccd5f337          	lui	t1,0xccd5f
    56d0:	44c1c093          	xori	ra,gp,1100
    56d4:	0e06e013          	ori	zero,a3,224
    56d8:	a0610193          	addi	gp,sp,-1530 # 0x6661a08e
    56dc:	8da07113          	andi	sp,zero,-1830
    56e0:	f3f18193          	addi	gp,gp,-193 # 0xffffffffcd1125e3
    56e4:	66d26113          	ori	sp,tp,1645
    56e8:	0030c1b3          	xor	gp,ra,gp
    56ec:	a1b4e1b7          	lui	gp,0xa1b4e
    56f0:	1ec65137          	lui	sp,0x1ec65
    56f4:	5c9e9137          	lui	sp,0x5c9e9
    56f8:	5a1b00b7          	lui	ra,0x5a1b0
    56fc:	0fc08113          	addi	sp,ra,252 # 0x5a1b00fc
    5700:	1501f113          	andi	sp,gp,336
    5704:	7888e1b7          	lui	gp,0x7888e
    5708:	40008133          	sub	sp,ra,zero
    570c:	7711f013          	andi	zero,gp,1905
    5710:	6dd211b7          	lui	gp,0x6dd21
    5714:	003100b3          	add	ra,sp,gp
    5718:	b12920b7          	lui	ra,0xb1292
    571c:	0012f133          	and	sp,t0,ra
    5720:	40448133          	sub	sp,s1,tp
    5724:	823088e3          	beq	ra,gp,0x4f54
    5728:	82dff2ef          	jal	t0,0x4f54
    572c:	0011f133          	and	sp,gp,ra
    5730:	7b392297          	auipc	t0,0x7b392
    5734:	8e814113          	xori	sp,sp,-1816
    5738:	0020c133          	xor	sp,ra,sp
    573c:	0200e113          	ori	sp,ra,32
    5740:	0022e5b3          	or	a1,t0,sp
    5744:	00327133          	and	sp,tp,gp
    5748:	9457e113          	ori	sp,a5,-1723
    574c:	841d6017          	auipc	zero,0x841d6
    5750:	327bc117          	auipc	sp,0x327bc
    5754:	302601b7          	lui	gp,0x30260
    5758:	a007f6b7          	lui	a3,0xa007f
    575c:	010e0133          	add	sp,t3,a6
    5760:	a778c0b7          	lui	ra,0xa778c
    5764:	3a571137          	lui	sp,0x3a571
    5768:	0070c133          	xor	sp,ra,t2
    576c:	19b17b93          	andi	s7,sp,411
    5770:	005180b3          	add	ra,gp,t0
    5774:	410f1037          	lui	zero,0x410f1
    5778:	f33b2037          	lui	zero,0xf33b2
    577c:	a110f113          	andi	sp,ra,-1519
    5780:	b8743337          	lui	t1,0xb8743
    5784:	00610133          	add	sp,sp,t1
    5788:	0c1005b7          	lui	a1,0xc100
    578c:	0010c033          	xor	zero,ra,ra
    5790:	0017ca33          	xor	s4,a5,ra
    5794:	a872f193          	andi	gp,t0,-1401
    5798:	bc568137          	lui	sp,0xbc568
    579c:	0040f233          	and	tp,ra,tp
    57a0:	0111c133          	xor	sp,gp,a7
    57a4:	0016c133          	xor	sp,a3,ra
    57a8:	00028313          	mv	t1,t0
    57ac:	96530ae3          	beq	t1,t0,0x5120
    57b0:	452bb117          	auipc	sp,0x452bb
    57b4:	6b0aa097          	auipc	ra,0x6b0aa
    57b8:	002040b3          	xor	ra,zero,sp
    57bc:	42c043b7          	lui	t2,0x42c04
    57c0:	53d58117          	auipc	sp,0x53d58
    57c4:	a5c2c797          	auipc	a5,0xa5c2c
    57c8:	c0e0b337          	lui	t1,0xc0e0b
    57cc:	aa6660b7          	lui	ra,0xaa666
    57d0:	0010c133          	xor	sp,ra,ra
    57d4:	b1e9b017          	auipc	zero,0xb1e9b
    57d8:	83e0c093          	xori	ra,ra,-1986
    57dc:	006341b3          	xor	gp,t1,t1
    57e0:	ce9f6297          	auipc	t0,0xce9f6
    57e4:	6c43f093          	andi	ra,t2,1732
    57e8:	579760b7          	lui	ra,0x57976
    57ec:	35108193          	addi	gp,ra,849 # 0x57976351
    57f0:	48573197          	auipc	gp,0x48573
    57f4:	6c7cb1b7          	lui	gp,0x6c7cb
    57f8:	b2a08093          	addi	ra,ra,-1238
    57fc:	0090e2b3          	or	t0,ra,s1
    5800:	abe00093          	li	ra,-1346
    5804:	0021f0b3          	and	ra,gp,sp
    5808:	e8c18097          	auipc	ra,0xe8c18
    580c:	242fe497          	auipc	s1,0x242fe
    5810:	eac85017          	auipc	zero,0xeac85
    5814:	b14950b7          	lui	ra,0xb1495
    5818:	377bd137          	lui	sp,0x377bd
    581c:	47665197          	auipc	gp,0x47665
    5820:	1fb9e097          	auipc	ra,0x1fb9e
    5824:	005183b3          	add	t2,gp,t0
    5828:	64807093          	andi	ra,zero,1608
    582c:	365e2097          	auipc	ra,0x365e2
    5830:	29dc4397          	auipc	t2,0x29dc4
    5834:	9850c093          	xori	ra,ra,-1659
    5838:	2dbf1097          	auipc	ra,0x2dbf1
    583c:	0061c133          	xor	sp,gp,t1
    5840:	c1c18793          	addi	a5,gp,-996 # 0x4766a438
    5844:	83318ee3          	beq	gp,s3,0x5080
    5848:	839ff16f          	jal	sp,0x5080
    584c:	c6883197          	auipc	gp,0xc6883
    5850:	dfd7c117          	auipc	sp,0xdfd7c
    5854:	1b806313          	ori	t1,zero,440
    5858:	0cfbd117          	auipc	sp,0xcfbd
    585c:	8db8a1b7          	lui	gp,0x8db8a
    5860:	e9d1a337          	lui	t1,0xe9d1a
    5864:	c4517113          	andi	sp,sp,-955
    5868:	27f1c113          	xori	sp,gp,639
    586c:	22b86137          	lui	sp,0x22b86
    5870:	e04e8113          	addi	sp,t4,-508 # 0x223bd200
    5874:	97d0a3b7          	lui	t2,0x97d0a
    5878:	f2208193          	addi	gp,ra,-222 # 0x2dbf675a
    587c:	0020f1b3          	and	gp,ra,sp
    5880:	62d2f137          	lui	sp,0x62d2f
    5884:	0020f1b3          	and	gp,ra,sp
    5888:	d73844b7          	lui	s1,0xd7384
    588c:	4cc14193          	xori	gp,sp,1228
    5890:	0ed84317          	auipc	t1,0xed84
    5894:	29565197          	auipc	gp,0x29565
    5898:	bd218113          	addi	sp,gp,-1070 # 0x2956a466
    589c:	003143b3          	xor	t2,sp,gp
    58a0:	f0a26497          	auipc	s1,0xf0a26
    58a4:	fb9f5cb7          	lui	s9,0xfb9f5
    58a8:	49a5c197          	auipc	gp,0x49a5c
    58ac:	857f0193          	addi	gp,t5,-1961 # 0x3e14857
    58b0:	59324193          	xori	gp,tp,1427
    58b4:	19e601b7          	lui	gp,0x19e60
    58b8:	1f6be117          	auipc	sp,0x1f6be
    58bc:	402003b3          	neg	t2,sp
    58c0:	5b317093          	andi	ra,sp,1459
    58c4:	9eb18113          	addi	sp,gp,-1557 # 0x19e5f9eb
    58c8:	f643dcb7          	lui	s9,0xf643d
    58cc:	745a3137          	lui	sp,0x745a3
    58d0:	4b017093          	andi	ra,sp,1200
    58d4:	00310263          	beq	sp,gp,0x58d8
    58d8:	d58ff16f          	jal	sp,0x4e30
    58dc:	fde18393          	addi	t2,gp,-34
    58e0:	0011e0b3          	or	ra,gp,ra
    58e4:	4b104093          	xori	ra,zero,1201
    58e8:	403182b3          	sub	t0,gp,gp
    58ec:	0015f0b3          	and	ra,a1,ra
    58f0:	75a1f093          	andi	ra,gp,1882
    58f4:	002041b3          	xor	gp,zero,sp
    58f8:	002180b3          	add	ra,gp,sp
    58fc:	40108133          	sub	sp,ra,ra
    5900:	222b10b7          	lui	ra,0x222b1
    5904:	403302b3          	sub	t0,t1,gp
    5908:	c2448093          	addi	ra,s1,-988 # 0xfffffffff0a2b4c4
    590c:	868dc1b7          	lui	gp,0x868dc
    5910:	e6014193          	xori	gp,sp,-416
    5914:	3e1540b7          	lui	ra,0x3e154
    5918:	3ea78097          	auipc	ra,0x3ea78
    591c:	4a76c337          	lui	t1,0x4a76c
    5920:	76bfc317          	auipc	t1,0x76bfc
    5924:	018070b3          	and	ra,zero,s8
    5928:	7d91e093          	ori	ra,gp,2009
    592c:	d8f0c193          	xori	gp,ra,-625
    5930:	00206233          	or	tp,zero,sp
    5934:	e9659097          	auipc	ra,0xe9659
    5938:	95649217          	auipc	tp,0x95649
    593c:	e5b92017          	auipc	zero,0xe5b92
    5940:	880fc197          	auipc	gp,0x880fc
    5944:	ee618293          	addi	t0,gp,-282 # 0xffffffff88101826
    5948:	28286197          	auipc	gp,0x28286
    594c:	000143b3          	xor	t2,sp,zero
    5950:	00008093          	mv	ra,ra
    5954:	84108ae3          	beq	ra,ra,0x51a8
    5958:	a6d42117          	auipc	sp,0xa6d42
    595c:	c5614113          	xori	sp,sp,-938
    5960:	9bbcb1b7          	lui	gp,0x9bbcb
    5964:	ac63d337          	lui	t1,0xac63d
    5968:	bd110193          	addi	gp,sp,-1071 # 0xffffffffa6d47529
    596c:	0010e133          	or	sp,ra,ra
    5970:	155dc337          	lui	t1,0x155dc
    5974:	7030f193          	andi	gp,ra,1795
    5978:	a954a137          	lui	sp,0xa954a
    597c:	0010f233          	and	tp,ra,ra
    5980:	1d610193          	addi	gp,sp,470 # 0xffffffffa954a1d6
    5984:	5250b5b7          	lui	a1,0x5250b
    5988:	7e62e1b7          	lui	gp,0x7e62e
    598c:	f16730b7          	lui	ra,0xf1673
    5990:	30e3c037          	lui	zero,0x30e3c
    5994:	b99d9137          	lui	sp,0xb99d9
    5998:	1531f113          	andi	sp,gp,339
    599c:	401100b3          	sub	ra,sp,ra
    59a0:	a37c2117          	auipc	sp,0xa37c2
    59a4:	6f07d097          	auipc	ra,0x6f07d
    59a8:	10e211b7          	lui	gp,0x10e21
    59ac:	a4c0e293          	ori	t0,ra,-1460
    59b0:	bc025237          	lui	tp,0xbc025
    59b4:	0031e0b3          	or	ra,gp,gp
    59b8:	6e2ef337          	lui	t1,0x6e2ef
    59bc:	27f10193          	addi	gp,sp,639 # 0xffffffffa37c7c1f
    59c0:	001081b3          	add	gp,ra,ra
    59c4:	53f0c113          	xori	sp,ra,1343
    59c8:	49030117          	auipc	sp,0x49030
    59cc:	42708193          	addi	gp,ra,1063 # 0x6f082dcb
    59d0:	0041f1b3          	and	gp,gp,tp
    59d4:	000a0113          	mv	sp,s4
    59d8:	0b410063          	beq	sp,s4,0x5a78
    59dc:	a154f313          	andi	t1,s1,-1515
    59e0:	d7c3e293          	ori	t0,t2,-644
    59e4:	ad9acf97          	auipc	t6,0xad9ac
    59e8:	0071c233          	xor	tp,gp,t2
    59ec:	c0c63117          	auipc	sp,0xc0c63
    59f0:	ab6ab197          	auipc	gp,0xab6ab
    59f4:	9d41f113          	andi	sp,gp,-1580
    59f8:	2727d037          	lui	zero,0x2727d
    59fc:	002080b3          	add	ra,ra,sp
    5a00:	00414133          	xor	sp,sp,tp
    5a04:	4230f093          	andi	ra,ra,1059
    5a08:	f32ce137          	lui	sp,0xf32ce
    5a0c:	60408193          	addi	gp,ra,1540
    5a10:	b70811b7          	lui	gp,0xb7081
    5a14:	00018333          	add	t1,gp,zero
    5a18:	ad03d337          	lui	t1,0xad03d
    5a1c:	0011c0b3          	xor	ra,gp,ra
    5a20:	a2671197          	auipc	gp,0xa2671
    5a24:	8aa2d1b7          	lui	gp,0x8aa2d
    5a28:	0c7d8137          	lui	sp,0xc7d8
    5a2c:	b0b32097          	auipc	ra,0xb0b32
    5a30:	5389c137          	lui	sp,0x5389c
    5a34:	65d20113          	addi	sp,tp,1629 # 0xffffffffbc02565d
    5a38:	0896a197          	auipc	gp,0x896a
    5a3c:	002100b3          	add	ra,sp,sp
    5a40:	8af16113          	ori	sp,sp,-1873
    5a44:	2ee0f193          	andi	gp,ra,750
    5a48:	402206b3          	sub	a3,tp,sp
    5a4c:	d6410113          	addi	sp,sp,-668 # 0x5389bd64
    5a50:	0021e0b3          	or	ra,gp,sp
    5a54:	2e51e113          	ori	sp,gp,741
    5a58:	00217033          	and	zero,sp,sp
    5a5c:	019270b3          	and	ra,tp,s9
    5a60:	001100b3          	add	ra,sp,ra
    5a64:	fb81c193          	xori	gp,gp,-72
    5a68:	06f19097          	auipc	ra,0x6f19
    5a6c:	00700533          	add	a0,zero,t2
    5a70:	00220263          	beq	tp,sp,0x5a74
    5a74:	009000ef          	jal	ra,0x627c
    5a78:	402107b3          	sub	a5,sp,sp
    5a7c:	37f1e237          	lui	tp,0x37f1e
    5a80:	41308117          	auipc	sp,0x41308
    5a84:	d5c00113          	li	sp,-676
    5a88:	93ed91b7          	lui	gp,0x93ed9
    5a8c:	00a94017          	auipc	zero,0xa94
    5a90:	98fc81b7          	lui	gp,0x98fc8
    5a94:	00218033          	add	zero,gp,sp
    5a98:	0f031117          	auipc	sp,0xf031
    5a9c:	ef9110b7          	lui	ra,0xef911
    5aa0:	9bbda117          	auipc	sp,0x9bbda
    5aa4:	d3242117          	auipc	sp,0xd3242
    5aa8:	0021e0b3          	or	ra,gp,sp
    5aac:	b24fb1b7          	lui	gp,0xb24fb
    5ab0:	002170b3          	and	ra,sp,sp
    5ab4:	007bf0b3          	and	ra,s7,t2
    5ab8:	4eabc0b7          	lui	ra,0x4eabc
    5abc:	27108193          	addi	gp,ra,625 # 0x4eabc271
    5ac0:	caa16093          	ori	ra,sp,-854
    5ac4:	83d2f193          	andi	gp,t0,-1987
    5ac8:	0031c6b3          	xor	a3,gp,gp
    5acc:	0c9c50b7          	lui	ra,0xc9c5
    5ad0:	d060f337          	lui	t1,0xd060f
    5ad4:	c8ab9197          	auipc	gp,0xc8ab9
    5ad8:	12467197          	auipc	gp,0x12467
    5adc:	08893117          	auipc	sp,0x8893
    5ae0:	81caa117          	auipc	sp,0x81caa
    5ae4:	908c21b7          	lui	gp,0x908c2
    5ae8:	054af797          	auipc	a5,0x54af
    5aec:	25110093          	addi	ra,sp,593 # 0xffffffff81cafd31
    5af0:	40328133          	sub	sp,t0,gp
    5af4:	eb9b1397          	auipc	t2,0xeb9b1
    5af8:	69717213          	andi	tp,sp,1687
    5afc:	24710663          	beq	sp,t2,0x5d48
    5b00:	248000ef          	jal	ra,0x5d48
    5b04:	d00270b7          	lui	ra,0xd0027
    5b08:	0021c4b3          	xor	s1,gp,sp
    5b0c:	40118233          	sub	tp,gp,ra
    5b10:	8d616313          	ori	t1,sp,-1834
    5b14:	586f10b7          	lui	ra,0x586f1
    5b18:	b380f013          	andi	zero,ra,-1224
    5b1c:	3e614193          	xori	gp,sp,998
    5b20:	003081b3          	add	gp,ra,gp
    5b24:	0036c0b3          	xor	ra,a3,gp
    5b28:	61c28217          	auipc	tp,0x61c28
    5b2c:	b03bb1b7          	lui	gp,0xb03bb
    5b30:	9519a137          	lui	sp,0x9519a
    5b34:	13c4e337          	lui	t1,0x13c4e
    5b38:	bdc53097          	auipc	ra,0xbdc53
    5b3c:	07f0b137          	lui	sp,0x7f0b
    5b40:	00410ab3          	add	s5,sp,tp
    5b44:	043aa137          	lui	sp,0x43aa
    5b48:	1ba1f193          	andi	gp,gp,442
    5b4c:	d996b217          	auipc	tp,0xd996b
    5b50:	54414293          	xori	t0,sp,1348
    5b54:	18638193          	addi	gp,t2,390 # 0xffffffffeb9b6c7a
    5b58:	6f14f197          	auipc	gp,0x6f14f
    5b5c:	a83b4137          	lui	sp,0xa83b4
    5b60:	7d414db7          	lui	s11,0x7d414
    5b64:	dc918193          	addi	gp,gp,-567 # 0x6f154921
    5b68:	b1b1e193          	ori	gp,gp,-1253
    5b6c:	0050c133          	xor	sp,ra,t0
    5b70:	e6f1f293          	andi	t0,gp,-401
    5b74:	0061c133          	xor	sp,gp,t1
    5b78:	75017113          	andi	sp,sp,1872
    5b7c:	a811a397          	auipc	t2,0xa811a
    5b80:	8cc26093          	ori	ra,tp,-1844
    5b84:	2f82c137          	lui	sp,0x2f82c
    5b88:	3534a137          	lui	sp,0x3534a
    5b8c:	00038113          	mv	sp,t2
    5b90:	00710263          	beq	sp,t2,0x5b94
    5b94:	006261b3          	or	gp,tp,t1
    5b98:	b0d95837          	lui	a6,0xb0d95
    5b9c:	0cf99017          	auipc	zero,0xcf99
    5ba0:	158d6197          	auipc	gp,0x158d6
    5ba4:	cb738137          	lui	sp,0xcb738
    5ba8:	df88e117          	auipc	sp,0xdf88e
    5bac:	4131c193          	xori	gp,gp,1043
    5bb0:	e6a8f017          	auipc	zero,0xe6a8f
    5bb4:	cc8800b7          	lui	ra,0xcc880
    5bb8:	d1234113          	xori	sp,t1,-750
    5bbc:	87d94297          	auipc	t0,0x87d94
    5bc0:	0021c1b3          	xor	gp,gp,sp
    5bc4:	fdd3e113          	ori	sp,t2,-35
    5bc8:	96a85197          	auipc	gp,0x96a85
    5bcc:	3540f193          	andi	gp,ra,852
    5bd0:	db2ba017          	auipc	zero,0xdb2ba
    5bd4:	9393a097          	auipc	ra,0x9393a
    5bd8:	b3b87137          	lui	sp,0xb3b87
    5bdc:	f2417393          	andi	t2,sp,-220
    5be0:	003181b3          	add	gp,gp,gp
    5be4:	e9d1e113          	ori	sp,gp,-355
    5be8:	e5518193          	addi	gp,gp,-427 # 0xffffffff96a8aa1d
    5bec:	d667d097          	auipc	ra,0xd667d
    5bf0:	0041e1b3          	or	gp,gp,tp
    5bf4:	00f161b3          	or	gp,sp,a5
    5bf8:	76107293          	andi	t0,zero,1889
    5bfc:	f0d07113          	andi	sp,zero,-243
    5c00:	000160b3          	or	ra,sp,zero
    5c04:	bcdd7097          	auipc	ra,0xbcdd7
    5c08:	bc91e113          	ori	sp,gp,-1079
    5c0c:	003171b3          	and	gp,sp,gp
    5c10:	fbd51117          	auipc	sp,0xfbd51
    5c14:	0033c0b3          	xor	ra,t2,gp
    5c18:	467e3317          	auipc	t1,0x467e3
    5c1c:	00118263          	beq	gp,ra,0x5c20
    5c20:	6f50016f          	jal	sp,0x6b14
    5c24:	29c970b7          	lui	ra,0x29c97
    5c28:	003081b3          	add	gp,ra,gp
    5c2c:	371f6117          	auipc	sp,0x371f6
    5c30:	d221c317          	auipc	t1,0xd221c
    5c34:	40318a33          	sub	s4,gp,gp
    5c38:	0019e133          	or	sp,s3,ra
    5c3c:	c7a81117          	auipc	sp,0xc7a81
    5c40:	bfe1e093          	ori	ra,gp,-1026
    5c44:	e5ef8117          	auipc	sp,0xe5ef8
    5c48:	3bb89097          	auipc	ra,0x3bb89
    5c4c:	695591b7          	lui	gp,0x69559
    5c50:	e03cf037          	lui	zero,0xe03cf
    5c54:	a43f0117          	auipc	sp,0xa43f0
    5c58:	cfc67597          	auipc	a1,0xcfc67
    5c5c:	d5a1ef93          	ori	t6,gp,-678
    5c60:	214f1197          	auipc	gp,0x214f1
    5c64:	002170b3          	and	ra,sp,sp
    5c68:	0031e1b3          	or	gp,gp,gp
    5c6c:	b112a397          	auipc	t2,0xb112a
    5c70:	00118033          	add	zero,gp,ra
    5c74:	40718133          	sub	sp,gp,t2
    5c78:	a4ec9097          	auipc	ra,0xa4ec9
    5c7c:	00318233          	add	tp,gp,gp
    5c80:	646c0317          	auipc	t1,0x646c0
    5c84:	23d37213          	andi	tp,t1,573
    5c88:	d304f117          	auipc	sp,0xd304f
    5c8c:	004481b3          	add	gp,s1,tp
    5c90:	0051e133          	or	sp,gp,t0
    5c94:	fa430213          	addi	tp,t1,-92 # 0x646c5c24
    5c98:	ee014093          	xori	ra,sp,-288
    5c9c:	96c3c013          	xori	zero,t2,-1684
    5ca0:	f04a5197          	auipc	gp,0xf04a5
    5ca4:	adf561b7          	lui	gp,0xadf56
    5ca8:	f8d1f017          	auipc	zero,0xf8d1f
    5cac:	40208133          	sub	sp,ra,sp
    5cb0:	00018bb3          	add	s7,gp,zero
    5cb4:	ef61c213          	xori	tp,gp,-266
    5cb8:	00018293          	mv	t0,gp
    5cbc:	18328863          	beq	t0,gp,0x5e4c
    5cc0:	12fb9c37          	lui	s8,0x12fb9
    5cc4:	e729f1b7          	lui	gp,0xe729f
    5cc8:	61d2c193          	xori	gp,t0,1565
    5ccc:	b278f1b7          	lui	gp,0xb278f
    5cd0:	e9d6a0b7          	lui	ra,0xe9d6a
    5cd4:	0030c1b3          	xor	gp,ra,gp
    5cd8:	0070f4b3          	and	s1,ra,t2
    5cdc:	c1281097          	auipc	ra,0xc1281
    5ce0:	87acf137          	lui	sp,0x87acf
    5ce4:	c7d0c397          	auipc	t2,0xc7d0c
    5ce8:	00136133          	or	sp,t1,ra
    5cec:	1bf06237          	lui	tp,0x1bf06
    5cf0:	c1d54317          	auipc	t1,0xc1d54
    5cf4:	005182b3          	add	t0,gp,t0
    5cf8:	403102b3          	sub	t0,sp,gp
    5cfc:	77a6f137          	lui	sp,0x77a6f
    5d00:	eae021b7          	lui	gp,0xeae02
    5d04:	0001f6b3          	and	a3,gp,zero
    5d08:	e5e10113          	addi	sp,sp,-418 # 0x77a6ee5e
    5d0c:	293ca397          	auipc	t2,0x293ca
    5d10:	eb51c093          	xori	ra,gp,-331
    5d14:	b6389117          	auipc	sp,0xb6389
    5d18:	7e207097          	auipc	ra,0x7e207
    5d1c:	02796117          	auipc	sp,0x2796
    5d20:	a4356017          	auipc	zero,0xa4356
    5d24:	5b6c7097          	auipc	ra,0x5b6c7
    5d28:	3a948217          	auipc	tp,0x3a948
    5d2c:	76626113          	ori	sp,tp,1894
    5d30:	74ca8197          	auipc	gp,0x74ca8
    5d34:	abe0f197          	auipc	gp,0xabe0f
    5d38:	03608113          	addi	sp,ra,54 # 0x5b6ccd5a
    5d3c:	e9e2e197          	auipc	gp,0xe9e2e
    5d40:	000f0713          	mv	a4,t5
    5d44:	19e70663          	beq	a4,t5,0x5ed0
    5d48:	40b1e193          	ori	gp,gp,1035
    5d4c:	5fc17113          	andi	sp,sp,1532
    5d50:	0031f1b3          	and	gp,gp,gp
    5d54:	8221f293          	andi	t0,gp,-2014
    5d58:	0020c0b3          	xor	ra,ra,sp
    5d5c:	1cf7a497          	auipc	s1,0x1cf7a
    5d60:	5682a117          	auipc	sp,0x5682a
    5d64:	5d5cf293          	andi	t0,s9,1493
    5d68:	c3b16113          	ori	sp,sp,-965
    5d6c:	0010f1b3          	and	gp,ra,ra
    5d70:	000200b3          	add	ra,tp,zero
    5d74:	3ad28797          	auipc	a5,0x3ad28
    5d78:	a08a2097          	auipc	ra,0xa08a2
    5d7c:	001100b3          	add	ra,sp,ra
    5d80:	b07d95b7          	lui	a1,0xb07d9
    5d84:	0569c097          	auipc	ra,0x569c
    5d88:	10b25137          	lui	sp,0x10b25
    5d8c:	3220a0b7          	lui	ra,0x3220a
    5d90:	ae5a2137          	lui	sp,0xae5a2
    5d94:	ee50c113          	xori	sp,ra,-283
    5d98:	71a9c137          	lui	sp,0x71a9c
    5d9c:	1fc1c093          	xori	ra,gp,508
    5da0:	8d30f113          	andi	sp,ra,-1837
    5da4:	1c817093          	andi	ra,sp,456
    5da8:	00218333          	add	t1,gp,sp
    5dac:	b5734497          	auipc	s1,0xb5734
    5db0:	00048193          	mv	gp,s1
    5db4:	f09186e3          	beq	gp,s1,0x5cc0
    5db8:	346ed0b7          	lui	ra,0x346ed
    5dbc:	4b208593          	addi	a1,ra,1202 # 0x346ed4b2
    5dc0:	7e7bf097          	auipc	ra,0x7e7bf
    5dc4:	35b85137          	lui	sp,0x35b85
    5dc8:	bbc0d2b7          	lui	t0,0xbbc0d
    5dcc:	dc27e1b7          	lui	gp,0xdc27e
    5dd0:	a4314193          	xori	gp,sp,-1469
    5dd4:	b0a16293          	ori	t0,sp,-1270
    5dd8:	e7f14193          	xori	gp,sp,-385
    5ddc:	dba3e137          	lui	sp,0xdba3e
    5de0:	bba2f693          	andi	a3,t0,-1094
    5de4:	db363197          	auipc	gp,0xdb363
    5de8:	93a1e693          	ori	a3,gp,-1734
    5dec:	4130f193          	andi	gp,ra,1043
    5df0:	6000e313          	ori	t1,ra,1536
    5df4:	00130133          	add	sp,t1,ra
    5df8:	0020e1b3          	or	gp,ra,sp
    5dfc:	2e3dd0b7          	lui	ra,0x2e3dd
    5e00:	ef80f193          	andi	gp,ra,-264
    5e04:	f7110193          	addi	gp,sp,-143 # 0xffffffffdba3df71
    5e08:	b0a8f197          	auipc	gp,0xb0a8f
    5e0c:	0041c0b3          	xor	ra,gp,tp
    5e10:	4a41c093          	xori	ra,gp,1188
    5e14:	d7220093          	addi	ra,tp,-654 # 0x3a94da9a
    5e18:	e7a3e1b7          	lui	gp,0xe7a3e
    5e1c:	373c81b7          	lui	gp,0x373c8
    5e20:	401284b3          	sub	s1,t0,ra
    5e24:	bbe581b7          	lui	gp,0xbbe58
    5e28:	96f1e093          	ori	ra,gp,-1681
    5e2c:	e2216313          	ori	t1,sp,-478
    5e30:	0012ff33          	and	t5,t0,ra
    5e34:	e5277097          	auipc	ra,0xe5277
    5e38:	006081b3          	add	gp,ra,t1
    5e3c:	499590b7          	lui	ra,0x49959
    5e40:	d9b2d117          	auipc	sp,0xd9b2d
    5e44:	00000397          	auipc	t2,0x0
    5e48:	2a4383e7          	jalr	t2,676(t2) # 0x60e8
    5e4c:	002180b3          	add	ra,gp,sp
    5e50:	6391c193          	xori	gp,gp,1593
    5e54:	e60e8b17          	auipc	s6,0xe60e8
    5e58:	0011c1b3          	xor	gp,gp,ra
    5e5c:	402100b3          	sub	ra,sp,sp
    5e60:	005184b3          	add	s1,gp,t0
    5e64:	a5608113          	addi	sp,ra,-1450 # 0x49958a56
    5e68:	002081b3          	add	gp,ra,sp
    5e6c:	f5b0f137          	lui	sp,0xf5b0f
    5e70:	8adf31b7          	lui	gp,0x8adf3
    5e74:	1c5813b7          	lui	t2,0x1c581
    5e78:	0000e133          	or	sp,ra,zero
    5e7c:	660252b7          	lui	t0,0x66025
    5e80:	3a917293          	andi	t0,sp,937
    5e84:	5271f393          	andi	t2,gp,1319
    5e88:	c0b06117          	auipc	sp,0xc0b06
    5e8c:	1370e193          	ori	gp,ra,311
    5e90:	403100b3          	sub	ra,sp,gp
    5e94:	f2a35317          	auipc	t1,0xf2a35
    5e98:	2b03c093          	xori	ra,t2,688
    5e9c:	7bae0137          	lui	sp,0x7bae0
    5ea0:	01eae0b7          	lui	ra,0x1eae
    5ea4:	61e0c213          	xori	tp,ra,1566
    5ea8:	401181b3          	sub	gp,gp,ra
    5eac:	1646e317          	auipc	t1,0x1646e
    5eb0:	821d8137          	lui	sp,0x821d8
    5eb4:	d3810193          	addi	gp,sp,-712 # 0xffffffff821d7d38
    5eb8:	ddf1a197          	auipc	gp,0xddf1a
    5ebc:	a1118393          	addi	t2,gp,-1519 # 0xffffffffddf1f8c9
    5ec0:	1282f1b7          	lui	gp,0x1282f
    5ec4:	c4509137          	lui	sp,0xc4509
    5ec8:	4c218e63          	beq	gp,sp,0x63a4
    5ecc:	4d8001ef          	jal	gp,0x63a4
    5ed0:	f9710313          	addi	t1,sp,-105 # 0xffffffffc4508f97
    5ed4:	934f2117          	auipc	sp,0x934f2
    5ed8:	95777197          	auipc	gp,0x95777
    5edc:	f1d17193          	andi	gp,sp,-227
    5ee0:	4898c0b7          	lui	ra,0x4898c
    5ee4:	00137cb3          	and	s9,t1,ra
    5ee8:	4d11e313          	ori	t1,gp,1233
    5eec:	0011cd33          	xor	s10,gp,ra
    5ef0:	853f51b7          	lui	gp,0x853f5
    5ef4:	aea48197          	auipc	gp,0xaea48
    5ef8:	d501e013          	ori	zero,gp,-688
    5efc:	402681b3          	sub	gp,a3,sp
    5f00:	40618333          	sub	t1,gp,t1
    5f04:	cdd87197          	auipc	gp,0xcdd87
    5f08:	616c1197          	auipc	gp,0x616c1
    5f0c:	8f386137          	lui	sp,0x8f386
    5f10:	5eca9137          	lui	sp,0x5eca9
    5f14:	e6d18117          	auipc	sp,0xe6d18
    5f18:	a02aa197          	auipc	gp,0xa02aa
    5f1c:	004101b3          	add	gp,sp,tp
    5f20:	2771d1b7          	lui	gp,0x2771d
    5f24:	fd36b037          	lui	zero,0xfd36b
    5f28:	91c460b7          	lui	ra,0x91c46
    5f2c:	65514113          	xori	sp,sp,1621
    5f30:	6d510093          	addi	ra,sp,1749 # 0xffffffffe6d1e5e9
    5f34:	9164d117          	auipc	sp,0x9164d
    5f38:	f4274337          	lui	t1,0xf4274
    5f3c:	9800f313          	andi	t1,ra,-1664
    5f40:	d6de60b7          	lui	ra,0xd6de6
    5f44:	00000317          	auipc	t1,0x0
    5f48:	008301e7          	jalr	gp,8(t1) # 0x5f4c
    5f4c:	001171b3          	and	gp,sp,ra
    5f50:	22abe3b7          	lui	t2,0x22abe
    5f54:	25212297          	auipc	t0,0x25212
    5f58:	404101b3          	sub	gp,sp,tp
    5f5c:	63817193          	andi	gp,sp,1592
    5f60:	625da197          	auipc	gp,0x625da
    5f64:	403087b3          	sub	a5,ra,gp
    5f68:	b06de0b7          	lui	ra,0xb06de
    5f6c:	6702d097          	auipc	ra,0x6702d
    5f70:	00717133          	and	sp,sp,t2
    5f74:	efa17113          	andi	sp,sp,-262
    5f78:	28932137          	lui	sp,0x28932
    5f7c:	c352f117          	auipc	sp,0xc352f
    5f80:	3cee3117          	auipc	sp,0x3cee3
    5f84:	69022137          	lui	sp,0x69022
    5f88:	6f870317          	auipc	t1,0x6f870
    5f8c:	f7127217          	auipc	tp,0xf7127
    5f90:	7050c013          	xori	zero,ra,1797
    5f94:	b5252117          	auipc	sp,0xb5252
    5f98:	b982c1b7          	lui	gp,0xb982c
    5f9c:	592be193          	ori	gp,s7,1426
    5fa0:	177500b7          	lui	ra,0x17750
    5fa4:	cfe5e197          	auipc	gp,0xcfe5e
    5fa8:	3a2ca717          	auipc	a4,0x3a2ca
    5fac:	0010c133          	xor	sp,ra,ra
    5fb0:	004080b3          	add	ra,ra,tp
    5fb4:	40208033          	sub	zero,ra,sp
    5fb8:	00214133          	xor	sp,sp,sp
    5fbc:	d5418113          	addi	sp,gp,-684 # 0xffffffffcfe63cf8
    5fc0:	3b0e4697          	auipc	a3,0x3b0e4
    5fc4:	d2434313          	xori	t1,t1,-732
    5fc8:	9c5d0393          	addi	t2,s10,-1595 # 0xffffffffb0e0554d
    5fcc:	65ce6037          	lui	zero,0x65ce6
    5fd0:	ab73c213          	xori	tp,t2,-1353
    5fd4:	b8ac3137          	lui	sp,0xb8ac3
    5fd8:	00010093          	mv	ra,sp
    5fdc:	20208863          	beq	ra,sp,0x61ec
    5fe0:	09b921b7          	lui	gp,0x9b92
    5fe4:	00f071b3          	and	gp,zero,a5
    5fe8:	0083f0b3          	and	ra,t2,s0
    5fec:	0011f133          	and	sp,gp,ra
    5ff0:	04f0c117          	auipc	sp,0x4f0c
    5ff4:	0030f1b3          	and	gp,ra,gp
    5ff8:	61847197          	auipc	gp,0x61847
    5ffc:	00236133          	or	sp,t1,sp
    6000:	8d9a6097          	auipc	ra,0x8d9a6
    6004:	09844137          	lui	sp,0x9844
    6008:	2ed0e193          	ori	gp,ra,749
    600c:	43c32337          	lui	t1,0x43c32
    6010:	bf2440b7          	lui	ra,0xbf244
    6014:	a2c22137          	lui	sp,0xa2c22
    6018:	00127133          	and	sp,tp,ra
    601c:	00218233          	add	tp,gp,sp
    6020:	d1f3d017          	auipc	zero,0xd1f3d
    6024:	0031c1b3          	xor	gp,gp,gp
    6028:	4e116193          	ori	gp,sp,1249
    602c:	2b27c017          	auipc	zero,0x2b27c
    6030:	63dee037          	lui	zero,0x63dee
    6034:	7554c1b7          	lui	gp,0x7554c
    6038:	63984097          	auipc	ra,0x63984
    603c:	259df317          	auipc	t1,0x259df
    6040:	1e8a3037          	lui	zero,0x1e8a3
    6044:	295b9117          	auipc	sp,0x295b9
    6048:	f9f0f093          	andi	ra,ra,-97
    604c:	002281b3          	add	gp,t0,sp
    6050:	002173b3          	and	t2,sp,sp
    6054:	00a34093          	xori	ra,t1,10
    6058:	6acae137          	lui	sp,0x6acae
    605c:	e06ea097          	auipc	ra,0xe06ea
    6060:	bc3902e3          	beq	s2,gp,0x5c24
    6064:	bc1ff0ef          	jal	ra,0x5c24
    6068:	301961b7          	lui	gp,0x30196
    606c:	0050c233          	xor	tp,ra,t0
    6070:	93583137          	lui	sp,0x93583
    6074:	0011e333          	or	t1,gp,ra
    6078:	6c016093          	ori	ra,sp,1728
    607c:	0033e133          	or	sp,t2,gp
    6080:	403103b3          	sub	t2,sp,gp
    6084:	d351f193          	andi	gp,gp,-715
    6088:	31f91117          	auipc	sp,0x31f91
    608c:	c7606e37          	lui	t3,0xc7606
    6090:	c5716013          	ori	zero,sp,-937
    6094:	403109b3          	sub	s3,sp,gp
    6098:	0013c0b3          	xor	ra,t2,ra
    609c:	e824d197          	auipc	gp,0xe824d
    60a0:	64024137          	lui	sp,0x64024
    60a4:	ed724317          	auipc	t1,0xed724
    60a8:	11b28017          	auipc	zero,0x11b28
    60ac:	0140e1b3          	or	gp,ra,s4
    60b0:	ec81a137          	lui	sp,0xec81a
    60b4:	c2b34093          	xori	ra,t1,-981
    60b8:	400391b7          	lui	gp,0x40039
    60bc:	4dc27113          	andi	sp,tp,1244
    60c0:	4dc14093          	xori	ra,sp,1244
    60c4:	834a1097          	auipc	ra,0x834a1
    60c8:	c8010813          	addi	a6,sp,-896 # 0xffffffffec819c80
    60cc:	53608313          	addi	t1,ra,1334 # 0xffffffff834a75fa
    60d0:	7f118b93          	addi	s7,gp,2033 # 0x400397f1
    60d4:	5fccc337          	lui	t1,0x5fccc
    60d8:	2c81f193          	andi	gp,gp,712
    60dc:	6aa3f193          	andi	gp,t2,1706
    60e0:	00068193          	mv	gp,a3
    60e4:	22d18863          	beq	gp,a3,0x6314
    60e8:	94bf3197          	auipc	gp,0x94bf3
    60ec:	4a8281b7          	lui	gp,0x4a828
    60f0:	d42dc1b7          	lui	gp,0xd42dc
    60f4:	ea1a6097          	auipc	ra,0xea1a6
    60f8:	e46a91b7          	lui	gp,0xe46a9
    60fc:	4d50e113          	ori	sp,ra,1237
    6100:	2db3e097          	auipc	ra,0x2db3e
    6104:	89b65d37          	lui	s10,0x89b65
    6108:	18dbf0b7          	lui	ra,0x18dbf
    610c:	2a9de397          	auipc	t2,0x2a9de
    6110:	3a8ab0b7          	lui	ra,0x3a8ab
    6114:	001101b3          	add	gp,sp,ra
    6118:	1efa5237          	lui	tp,0x1efa5
    611c:	c1ef4097          	auipc	ra,0xc1ef4
    6120:	004161b3          	or	gp,sp,tp
    6124:	64b08093          	addi	ra,ra,1611 # 0xffffffffc1efa767
    6128:	961d2017          	auipc	zero,0x961d2
    612c:	95a20113          	addi	sp,tp,-1702 # 0x1efa495a
    6130:	0011f1b3          	and	gp,gp,ra
    6134:	6a8660b7          	lui	ra,0x6a866
    6138:	aa313b17          	auipc	s6,0xaa313
    613c:	c33511b7          	lui	gp,0xc3351
    6140:	73a771b7          	lui	gp,0x73a77
    6144:	1256b0b7          	lui	ra,0x1256b
    6148:	80a053b7          	lui	t2,0x80a05
    614c:	d7cb01b7          	lui	gp,0xd7cb0
    6150:	d5160137          	lui	sp,0xd5160
    6154:	71b0c137          	lui	sp,0x71b0c
    6158:	87e321b7          	lui	gp,0x87e32
    615c:	40308133          	sub	sp,ra,gp
    6160:	0037e133          	or	sp,a5,gp
    6164:	cc2490b7          	lui	ra,0xcc249
    6168:	06526193          	ori	gp,tp,101
    616c:	00000117          	auipc	sp,0x0
    6170:	00810ee7          	jalr	t4,8(sp) # 0x6174
    6174:	36a17093          	andi	ra,sp,874
    6178:	60096117          	auipc	sp,0x60096
    617c:	6e71e293          	ori	t0,gp,1767
    6180:	0020e5b3          	or	a1,ra,sp
    6184:	1a825197          	auipc	gp,0x1a825
    6188:	a740e193          	ori	gp,ra,-1420
    618c:	c5044597          	auipc	a1,0xc5044
    6190:	b98604b7          	lui	s1,0xb9860
    6194:	a86f0113          	addi	sp,t5,-1402
    6198:	ee4c8137          	lui	sp,0xee4c8
    619c:	84878413          	addi	s0,a5,-1976 # 0x3ad2d5bc
    61a0:	003187b3          	add	a5,gp,gp
    61a4:	b9ff4113          	xori	sp,t5,-1121
    61a8:	32978e37          	lui	t3,0x32978
    61ac:	007171b3          	and	gp,sp,t2
    61b0:	8fa520b7          	lui	ra,0x8fa52
    61b4:	6920c1b7          	lui	gp,0x6920c
    61b8:	00708db3          	add	s11,ra,t2
    61bc:	37607093          	andi	ra,zero,886
    61c0:	03cd8317          	auipc	t1,0x3cd8
    61c4:	001100b3          	add	ra,sp,ra
    61c8:	824a1117          	auipc	sp,0x824a1
    61cc:	7505c197          	auipc	gp,0x7505c
    61d0:	0040e233          	or	tp,ra,tp
    61d4:	3fd0c113          	xori	sp,ra,1021
    61d8:	b5f40117          	auipc	sp,0xb5f40
    61dc:	d38d5497          	auipc	s1,0xd38d5
    61e0:	0d269097          	auipc	ra,0xd269
    61e4:	00010093          	mv	ra,sp
    61e8:	de208ce3          	beq	ra,sp,0x5fe0
    61ec:	3facc097          	auipc	ra,0x3facc
    61f0:	d4b78313          	addi	t1,a5,-693
    61f4:	7fcac237          	lui	tp,0x7fcac
    61f8:	401180b3          	sub	ra,gp,ra
    61fc:	be51c093          	xori	ra,gp,-1051
    6200:	38457097          	auipc	ra,0x38457
    6204:	49666437          	lui	s0,0x49666
    6208:	a001c113          	xori	sp,gp,-1536
    620c:	00216333          	or	t1,sp,sp
    6210:	fdc14193          	xori	gp,sp,-36
    6214:	0093d097          	auipc	ra,0x93d
    6218:	b4c0f097          	auipc	ra,0xb4c0f
    621c:	0011f1b3          	and	gp,gp,ra
    6220:	001180b3          	add	ra,gp,ra
    6224:	2ed3d397          	auipc	t2,0x2ed3d
    6228:	84c811b7          	lui	gp,0x84c81
    622c:	bad16193          	ori	gp,sp,-1107
    6230:	0021e3b3          	or	t2,gp,sp
    6234:	6c91c113          	xori	sp,gp,1737
    6238:	c5f2c113          	xori	sp,t0,-929
    623c:	2c3e70b7          	lui	ra,0x2c3e7
    6240:	492a2197          	auipc	gp,0x492a2
    6244:	002182b3          	add	t0,gp,sp
    6248:	0110f1b3          	and	gp,ra,a7
    624c:	00116133          	or	sp,sp,ra
    6250:	a3607197          	auipc	gp,0xa3607
    6254:	ff7c20b7          	lui	ra,0xff7c2
    6258:	8ce0c193          	xori	gp,ra,-1842
    625c:	40300133          	neg	sp,gp
    6260:	0021e1b3          	or	gp,gp,sp
    6264:	31714293          	xori	t0,sp,791
    6268:	001171b3          	and	gp,sp,ra
    626c:	43d0f093          	andi	ra,ra,1085
    6270:	d6f0e093          	ori	ra,ra,-657
    6274:	881588e3          	beq	a1,ra,0x5b04
    6278:	88dff0ef          	jal	ra,0x5b04
    627c:	0018f0b3          	and	ra,a7,ra
    6280:	02010113          	addi	sp,sp,32 # 0xffffffffb5f461f8
    6284:	9a1f32b7          	lui	t0,0x9a1f3
    6288:	ca09c097          	auipc	ra,0xca09c
    628c:	0020e1b3          	or	gp,ra,sp
    6290:	8c2aa097          	auipc	ra,0x8c2aa
    6294:	5e220193          	addi	gp,tp,1506 # 0x7fcac5e2
    6298:	0dde4017          	auipc	zero,0xdde4
    629c:	f5307093          	andi	ra,zero,-173
    62a0:	f2a7c597          	auipc	a1,0xf2a7c
    62a4:	b5d3c093          	xori	ra,t2,-1187
    62a8:	005270b3          	and	ra,tp,t0
    62ac:	f960c113          	xori	sp,ra,-106
    62b0:	005170b3          	and	ra,sp,t0
    62b4:	ec54e097          	auipc	ra,0xec54e
    62b8:	0187c1b3          	xor	gp,a5,s8
    62bc:	7793f293          	andi	t0,t2,1913
    62c0:	007273b3          	and	t2,tp,t2
    62c4:	002161b3          	or	gp,sp,sp
    62c8:	bb61e113          	ori	sp,gp,-1098
    62cc:	d640f193          	andi	gp,ra,-668
    62d0:	003380b3          	add	ra,t2,gp
    62d4:	027cf237          	lui	tp,0x27cf
    62d8:	bc089097          	auipc	ra,0xbc089
    62dc:	0020f033          	and	zero,ra,sp
    62e0:	1a756bb7          	lui	s7,0x1a756
    62e4:	0040f333          	and	t1,ra,tp
    62e8:	001f43b3          	xor	t2,t5,ra
    62ec:	43216193          	ori	gp,sp,1074
    62f0:	001171b3          	and	gp,sp,ra
    62f4:	50f021b7          	lui	gp,0x50f02
    62f8:	38b1e213          	ori	tp,gp,907
    62fc:	32313097          	auipc	ra,0x32313
    6300:	41a3d3b7          	lui	t2,0x41a3d
    6304:	be571137          	lui	sp,0xbe571
    6308:	0010c0b3          	xor	ra,ra,ra
    630c:	00118263          	beq	gp,ra,0x6310
    6310:	e48ff1ef          	jal	gp,0x5958
    6314:	40220133          	sub	sp,tp,sp
    6318:	0011c1b3          	xor	gp,gp,ra
    631c:	45904197          	auipc	gp,0x45904
    6320:	fa9e60b7          	lui	ra,0xfa9e6
    6324:	5a8f21b7          	lui	gp,0x5a8f2
    6328:	0030e233          	or	tp,ra,gp
    632c:	76510093          	addi	ra,sp,1893 # 0xffffffffbe571765
    6330:	001270b3          	and	ra,tp,ra
    6334:	1312b1b7          	lui	gp,0x1312b
    6338:	8bdcf0b7          	lui	ra,0x8bdcf
    633c:	ed4702b7          	lui	t0,0xed470
    6340:	589c9097          	auipc	ra,0x589c9
    6344:	0f71e093          	ori	ra,gp,247
    6348:	0040e0b3          	or	ra,ra,tp
    634c:	0030c1b3          	xor	gp,ra,gp
    6350:	277d7197          	auipc	gp,0x277d7
    6354:	48f0f313          	andi	t1,ra,1167
    6358:	9e9f2097          	auipc	ra,0x9e9f2
    635c:	cae71137          	lui	sp,0xcae71
    6360:	2931e193          	ori	gp,gp,659
    6364:	58810093          	addi	ra,sp,1416 # 0xffffffffcae71588
    6368:	35614117          	auipc	sp,0x35614
    636c:	ff524113          	xori	sp,tp,-11
    6370:	2c3b0097          	auipc	ra,0x2c3b0
    6374:	4d0cf137          	lui	sp,0x4d0cf
    6378:	58dd6113          	ori	sp,s10,1421
    637c:	eeb0e193          	ori	gp,ra,-277
    6380:	0151e3b3          	or	t2,gp,s5
    6384:	e4465317          	auipc	t1,0xe4465
    6388:	0032e133          	or	sp,t0,gp
    638c:	00f1fb33          	and	s6,gp,a5
    6390:	c7701017          	auipc	zero,0xc7701
    6394:	befcd237          	lui	tp,0xbefcd
    6398:	00377033          	and	zero,a4,gp
    639c:	a0308ee3          	beq	ra,gp,0x5db8
    63a0:	a19ff16f          	jal	sp,0x5db8
    63a4:	87642237          	lui	tp,0x87642
    63a8:	001308b3          	add	a7,t1,ra
    63ac:	7a814013          	xori	zero,sp,1960
    63b0:	5575e1b7          	lui	gp,0x5575e
    63b4:	0910f113          	andi	sp,ra,145
    63b8:	8c447137          	lui	sp,0x8c447
    63bc:	9939c317          	auipc	t1,0x9939c
    63c0:	0030f0b3          	and	ra,ra,gp
    63c4:	42102eb7          	lui	t4,0x42102
    63c8:	401782b3          	sub	t0,a5,ra
    63cc:	8e9760b7          	lui	ra,0x8e976
    63d0:	a1d0e093          	ori	ra,ra,-1507
    63d4:	a97761b7          	lui	gp,0xa9776
    63d8:	c4a6a237          	lui	tp,0xc4a6a
    63dc:	37108113          	addi	sp,ra,881 # 0xffffffff8e976371
    63e0:	ecd0e113          	ori	sp,ra,-307
    63e4:	107c1cb7          	lui	s9,0x107c1
    63e8:	4decb497          	auipc	s1,0x4decb
    63ec:	402a71b7          	lui	gp,0x402a7
    63f0:	53276497          	auipc	s1,0x53276
    63f4:	622331b7          	lui	gp,0x62233
    63f8:	8b3b2197          	auipc	gp,0x8b3b2
    63fc:	002081b3          	add	gp,ra,sp
    6400:	47c6d317          	auipc	t1,0x47c6d
    6404:	0131f0b3          	and	ra,gp,s3
    6408:	75f2e197          	auipc	gp,0x75f2e
    640c:	0030c0b3          	xor	ra,ra,gp
    6410:	9a01e093          	ori	ra,gp,-1632
    6414:	0020f0b3          	and	ra,ra,sp
    6418:	8f0480b7          	lui	ra,0x8f048
    641c:	ccc1e213          	ori	tp,gp,-820
    6420:	ecf1f093          	andi	ra,gp,-305
    6424:	28279117          	auipc	sp,0x28279
    6428:	c6114993          	xori	s3,sp,-927
    642c:	005173b3          	and	t2,sp,t0
    6430:	00317233          	and	tp,sp,gp
    6434:	7f7115b7          	lui	a1,0x7f711
    6438:	f76a5397          	auipc	t2,0xf76a5
    643c:	e4108093          	addi	ra,ra,-447 # 0xffffffff8f047e41
    6440:	00308263          	beq	ra,gp,0x6444
    6444:	d98ff26f          	jal	tp,0x59dc
    6448:	002f6033          	or	zero,t5,sp
    644c:	00317033          	and	zero,sp,gp
    6450:	e99c8117          	auipc	sp,0xe99c8
    6454:	0060e133          	or	sp,ra,t1
    6458:	25e28193          	addi	gp,t0,606 # 0xffffffffed47025e
    645c:	bbd14113          	xori	sp,sp,-1091
    6460:	4f41a0b7          	lui	ra,0x4f41a
    6464:	ce4743b7          	lui	t2,0xce474
    6468:	d92dc2b7          	lui	t0,0xd92dc
    646c:	402781b3          	sub	gp,a5,sp
    6470:	7240c113          	xori	sp,ra,1828
    6474:	95f9a097          	auipc	ra,0x95f9a
    6478:	00317133          	and	sp,sp,gp
    647c:	00138133          	add	sp,t2,ra
    6480:	006070b3          	and	ra,zero,t1
    6484:	07dc6093          	ori	ra,s8,125
    6488:	4d11e493          	ori	s1,gp,1233
    648c:	2d86b097          	auipc	ra,0x2d86b
    6490:	f5e743b7          	lui	t2,0xf5e74
    6494:	3ae0c693          	xori	a3,ra,942
    6498:	bd618293          	addi	t0,gp,-1066 # 0x75f33fde
    649c:	720f7097          	auipc	ra,0x720f7
    64a0:	003160b3          	or	ra,sp,gp
    64a4:	1da831b7          	lui	gp,0x1da83
    64a8:	00234333          	xor	t1,t1,sp
    64ac:	c4bdc1b7          	lui	gp,0xc4bdc
    64b0:	404080b3          	sub	ra,ra,tp
    64b4:	0173e133          	or	sp,t2,s7
    64b8:	dda1f117          	auipc	sp,0xdda1f
    64bc:	0030f0b3          	and	ra,ra,gp
    64c0:	a6941037          	lui	zero,0xa6941
    64c4:	003142b3          	xor	t0,sp,gp
    64c8:	28e5a2b7          	lui	t0,0x28e5a
    64cc:	001170b3          	and	ra,sp,ra
    64d0:	00030093          	mv	ra,t1
    64d4:	2c608463          	beq	ra,t1,0x679c
    64d8:	2c8dd097          	auipc	ra,0x2c8dd
    64dc:	c13f21b7          	lui	gp,0xc13f2
    64e0:	be81c113          	xori	sp,gp,-1048
    64e4:	3e238117          	auipc	sp,0x3e238
    64e8:	24a2e117          	auipc	sp,0x24a2e
    64ec:	41f771b7          	lui	gp,0x41f77
    64f0:	00638033          	add	zero,t2,t1
    64f4:	f1c09297          	auipc	t0,0xf1c09
    64f8:	c3526237          	lui	tp,0xc3526
    64fc:	de268337          	lui	t1,0xde268
    6500:	002362b3          	or	t0,t1,sp
    6504:	60ebb137          	lui	sp,0x60ebb
    6508:	403687b3          	sub	a5,a3,gp
    650c:	da118093          	addi	ra,gp,-607 # 0x41f76da1
    6510:	0030c1b3          	xor	gp,ra,gp
    6514:	31a1c193          	xori	gp,gp,794
    6518:	6c416113          	ori	sp,sp,1732
    651c:	33a920b7          	lui	ra,0x33a92
    6520:	75f150b7          	lui	ra,0x75f15
    6524:	6091a197          	auipc	gp,0x6091a
    6528:	2f8383b7          	lui	t2,0x2f838
    652c:	82d6a037          	lui	zero,0x82d6a
    6530:	0b766297          	auipc	t0,0xb766
    6534:	002170b3          	and	ra,sp,sp
    6538:	40308133          	sub	sp,ra,gp
    653c:	a41713b7          	lui	t2,0xa4171
    6540:	ff6961b7          	lui	gp,0xff696
    6544:	d49ff137          	lui	sp,0xd49ff
    6548:	dc228093          	addi	ra,t0,-574 # 0xb76c2f2
    654c:	7f50a217          	auipc	tp,0x7f50a
    6550:	6d3fc197          	auipc	gp,0x6d3fc
    6554:	004160b3          	or	ra,sp,tp
    6558:	4acc0a37          	lui	s4,0x4acc0
    655c:	aa917093          	andi	ra,sp,-1367
    6560:	8ddd4193          	xori	gp,s10,-1827
    6564:	bfd81197          	auipc	gp,0xbfd81
    6568:	32227193          	andi	gp,tp,802
    656c:	dae121b7          	lui	gp,0xdae12
    6570:	ef71f093          	andi	ra,gp,-265
    6574:	62308e63          	beq	ra,gp,0x6bb0
    6578:	638004ef          	jal	s1,0x6bb0
    657c:	f9a9a117          	auipc	sp,0xf9a9a
    6580:	0023c1b3          	xor	gp,t2,sp
    6584:	002260b3          	or	ra,tp,sp
    6588:	00416233          	or	tp,sp,tp
    658c:	58f04313          	xori	t1,zero,1423
    6590:	ee029137          	lui	sp,0xee029
    6594:	1c134193          	xori	gp,t1,449
    6598:	ccb0f113          	andi	sp,ra,-821
    659c:	a2073197          	auipc	gp,0xa2073
    65a0:	ff1fa117          	auipc	sp,0xff1fa
    65a4:	d3f61097          	auipc	ra,0xd3f61
    65a8:	6c90e013          	ori	zero,ra,1737
    65ac:	6b72f113          	andi	sp,t0,1719
    65b0:	a0078797          	auipc	a5,0xa0078
    65b4:	b5dcf237          	lui	tp,0xb5dcf
    65b8:	001161b3          	or	gp,sp,ra
    65bc:	00714133          	xor	sp,sp,t2
    65c0:	0031f133          	and	sp,gp,gp
    65c4:	eaa8a0b7          	lui	ra,0xeaa8a
    65c8:	dba14093          	xori	ra,sp,-582
    65cc:	82c91197          	auipc	gp,0x82c91
    65d0:	28a0e113          	ori	sp,ra,650
    65d4:	7fdd67b7          	lui	a5,0x7fdd6
    65d8:	018161b3          	or	gp,sp,s8
    65dc:	7c500137          	lui	sp,0x7c500
    65e0:	2af5d097          	auipc	ra,0x2af5d
    65e4:	00218133          	add	sp,gp,sp
    65e8:	6ea17193          	andi	gp,sp,1770
    65ec:	d681f293          	andi	t0,gp,-664
    65f0:	005b62b3          	or	t0,s6,t0
    65f4:	c51f0197          	auipc	gp,0xc51f0
    65f8:	39b78493          	addi	s1,a5,923 # 0x7fdd639b
    65fc:	18f98137          	lui	sp,0x18f98
    6600:	7081f213          	andi	tp,gp,1800
    6604:	3e218863          	beq	gp,sp,0x69f4
    6608:	3ec000ef          	jal	ra,0x69f4
    660c:	44a57097          	auipc	ra,0x44a57
    6610:	d2eea0b7          	lui	ra,0xd2eea
    6614:	f7ebf197          	auipc	gp,0xf7ebf
    6618:	00210133          	add	sp,sp,sp
    661c:	24e9f117          	auipc	sp,0x24e9f
    6620:	62f17093          	andi	ra,sp,1583
    6624:	9b9cd0b7          	lui	ra,0x9b9cd
    6628:	b830e1b7          	lui	gp,0xb830e
    662c:	96960137          	lui	sp,0x96960
    6630:	6f00f113          	andi	sp,ra,1776
    6634:	a4808113          	addi	sp,ra,-1464 # 0xffffffff9b9cca48
    6638:	ebaf91b7          	lui	gp,0xebaf9
    663c:	ac8ea197          	auipc	gp,0xac8ea
    6640:	91b10093          	addi	ra,sp,-1765 # 0xffffffff9695f91b
    6644:	56f90117          	auipc	sp,0x56f90
    6648:	00310133          	add	sp,sp,gp
    664c:	00216133          	or	sp,sp,sp
    6650:	1d31f093          	andi	ra,gp,467
    6654:	b06be637          	lui	a2,0xb06be
    6658:	85c700b7          	lui	ra,0x85c70
    665c:	3fffe137          	lui	sp,0x3fffe
    6660:	afd08093          	addi	ra,ra,-1283 # 0xffffffff85c6fafd
    6664:	f1209197          	auipc	gp,0xf1209
    6668:	279c7017          	auipc	zero,0x279c7
    666c:	e2634193          	xori	gp,t1,-474
    6670:	55626093          	ori	ra,tp,1366
    6674:	f7256097          	auipc	ra,0xf7256
    6678:	5ac58137          	lui	sp,0x5ac58
    667c:	0072c133          	xor	sp,t0,t2
    6680:	e9dfd197          	auipc	gp,0xe9dfd
    6684:	2bf34093          	xori	ra,t1,703
    6688:	61c6d097          	auipc	ra,0x61c6d
    668c:	f1818a93          	addi	s5,gp,-232 # 0xffffffffe9e03598
    6690:	0020c133          	xor	sp,ra,sp
    6694:	002181b3          	add	gp,gp,sp
    6698:	676c7093          	andi	ra,s8,1654
    669c:	da2386e3          	beq	t2,sp,0x6448
    66a0:	da9ff76f          	jal	a4,0x6448
    66a4:	7d69e493          	ori	s1,s3,2006
    66a8:	f9d271b7          	lui	gp,0xf9d27
    66ac:	94c14397          	auipc	t2,0x94c14
    66b0:	e66d10b7          	lui	ra,0xe66d1
    66b4:	8f28cf97          	auipc	t6,0x8f28c
    66b8:	16f1e013          	ori	zero,gp,367
    66bc:	9d61e193          	ori	gp,gp,-1578
    66c0:	0021c2b3          	xor	t0,gp,sp
    66c4:	efb1c093          	xori	ra,gp,-261
    66c8:	0022c1b3          	xor	gp,t0,sp
    66cc:	7f5f2397          	auipc	t2,0x7f5f2
    66d0:	7fa0d117          	auipc	sp,0x7fa0d
    66d4:	e091c393          	xori	t2,gp,-503
    66d8:	c8fc5097          	auipc	ra,0xc8fc5
    66dc:	00407133          	and	sp,zero,tp
    66e0:	fc4c7137          	lui	sp,0xfc4c7
    66e4:	98d06213          	ori	tp,zero,-1651
    66e8:	7170e113          	ori	sp,ra,1815
    66ec:	09318913          	addi	s2,gp,147 # 0xfffffffff9d27093
    66f0:	ca71c113          	xori	sp,gp,-857
    66f4:	19c7e1b7          	lui	gp,0x19c7e
    66f8:	0020e133          	or	sp,ra,sp
    66fc:	67c18113          	addi	sp,gp,1660 # 0x19c7e67c
    6700:	2a616397          	auipc	t2,0x2a616
    6704:	4b80d097          	auipc	ra,0x4b80d
    6708:	13acd2b7          	lui	t0,0x13acd
    670c:	0011e1b3          	or	gp,gp,ra
    6710:	626f6097          	auipc	ra,0x626f6
    6714:	00000397          	auipc	t2,0x0
    6718:	ef838667          	jalr	a2,-264(t2) # 0x660c
    671c:	919af317          	auipc	t1,0x919af
    6720:	0ae3f1b7          	lui	gp,0xae3f
    6724:	8851f113          	andi	sp,gp,-1915
    6728:	002141b3          	xor	gp,sp,sp
    672c:	e6a63097          	auipc	ra,0xe6a63
    6730:	8892f0b7          	lui	ra,0x8892f
    6734:	34f04093          	xori	ra,zero,847
    6738:	601af117          	auipc	sp,0x601af
    673c:	fbdb8197          	auipc	gp,0xfbdb8
    6740:	9eb5c1b7          	lui	gp,0x9eb5c
    6744:	469be117          	auipc	sp,0x469be
    6748:	403101b3          	sub	gp,sp,gp
    674c:	82726193          	ori	gp,tp,-2009
    6750:	97807093          	andi	ra,zero,-1672
    6754:	0010c1b3          	xor	gp,ra,ra
    6758:	0031e1b3          	or	gp,gp,gp
    675c:	e1b370b7          	lui	ra,0xe1b37
    6760:	de407137          	lui	sp,0xde407
    6764:	003183b3          	add	t2,gp,gp
    6768:	88c7b017          	auipc	zero,0x88c7b
    676c:	840e40b7          	lui	ra,0x840e4
    6770:	42d34117          	auipc	sp,0x42d34
    6774:	0040c0b3          	xor	ra,ra,tp
    6778:	8c40e113          	ori	sp,ra,-1852
    677c:	40208333          	sub	t1,ra,sp
    6780:	8eac6137          	lui	sp,0x8eac6
    6784:	4561c213          	xori	tp,gp,1110
    6788:	85561097          	auipc	ra,0x85561
    678c:	00114133          	xor	sp,sp,ra
    6790:	a172c093          	xori	ra,t0,-1513
    6794:	00000117          	auipc	sp,0x0
    6798:	d44100e7          	jalr	-700(sp) # 0x64d8
    679c:	00314133          	xor	sp,sp,gp
    67a0:	00210133          	add	sp,sp,sp
    67a4:	0013e9b3          	or	s3,t2,ra
    67a8:	fec380b7          	lui	ra,0xfec38
    67ac:	003270b3          	and	ra,tp,gp
    67b0:	6704c193          	xori	gp,s1,1648
    67b4:	36e70193          	addi	gp,a4,878 # 0x3a2d0316
    67b8:	0a56e297          	auipc	t0,0xa56e
    67bc:	0020f3b3          	and	t2,ra,sp
    67c0:	0010f0b3          	and	ra,ra,ra
    67c4:	0030e333          	or	t1,ra,gp
    67c8:	02c63117          	auipc	sp,0x2c63
    67cc:	30e05097          	auipc	ra,0x30e05
    67d0:	001171b3          	and	gp,sp,ra
    67d4:	9e50c093          	xori	ra,ra,-1563
    67d8:	668d8137          	lui	sp,0x668d8
    67dc:	aa50c093          	xori	ra,ra,-1371
    67e0:	b8fc0197          	auipc	gp,0xb8fc0
    67e4:	093ec337          	lui	t1,0x93ec
    67e8:	007081b3          	add	gp,ra,t2
    67ec:	bc66e1b7          	lui	gp,0xbc66e
    67f0:	450d1797          	auipc	a5,0x450d1
    67f4:	9afd0037          	lui	zero,0x9afd0
    67f8:	0031e1b3          	or	gp,gp,gp
    67fc:	0021e133          	or	sp,gp,sp
    6800:	179551b7          	lui	gp,0x17955
    6804:	e0cba097          	auipc	ra,0xe0cba
    6808:	0be0c193          	xori	gp,ra,190
    680c:	0dbb63b7          	lui	t2,0xdbb6
    6810:	30807113          	andi	sp,zero,776
    6814:	75508097          	auipc	ra,0x75508
    6818:	5a46e197          	auipc	gp,0x5a46e
    681c:	337c2097          	auipc	ra,0x337c2
    6820:	0091c133          	xor	sp,gp,s1
    6824:	000a0113          	mv	sp,s4
    6828:	6f410663          	beq	sp,s4,0x6f14
    682c:	e43fd337          	lui	t1,0xe43fd
    6830:	b172c193          	xori	gp,t0,-1257
    6834:	1473b117          	auipc	sp,0x1473b
    6838:	ea6c3197          	auipc	gp,0xea6c3
    683c:	a1a280b7          	lui	ra,0xa1a28
    6840:	65d03217          	auipc	tp,0x65d03
    6844:	2f88c1b7          	lui	gp,0x2f88c
    6848:	0011e0b3          	or	ra,gp,ra
    684c:	406081b3          	sub	gp,ra,t1
    6850:	31a43017          	auipc	zero,0x31a43
    6854:	c14e6117          	auipc	sp,0xc14e6
    6858:	8eb5c093          	xori	ra,a1,-1813
    685c:	18da9117          	auipc	sp,0x18da9
    6860:	07c5d1b7          	lui	gp,0x7c5d
    6864:	a64611b7          	lui	gp,0xa6461
    6868:	7b6e4197          	auipc	gp,0x7b6e4
    686c:	4a189097          	auipc	ra,0x4a189
    6870:	2380a397          	auipc	t2,0x2380a
    6874:	2af14417          	auipc	s0,0x2af14
    6878:	401180b3          	sub	ra,gp,ra
    687c:	45573237          	lui	tp,0x45573
    6880:	003260b3          	or	ra,tp,gp
    6884:	d1e22197          	auipc	gp,0xd1e22
    6888:	eaf86217          	auipc	tp,0xeaf86
    688c:	0011c1b3          	xor	gp,gp,ra
    6890:	13f18193          	addi	gp,gp,319 # 0xffffffffd1e289c3
    6894:	99a54317          	auipc	t1,0x99a54
    6898:	7a9ea137          	lui	sp,0x7a9ea
    689c:	402182b3          	sub	t0,gp,sp
    68a0:	efa03117          	auipc	sp,0xefa03
    68a4:	405081b3          	sub	gp,ra,t0
    68a8:	c3c691b7          	lui	gp,0xc3c69
    68ac:	f5cdc117          	auipc	sp,0xf5cdc
    68b0:	d092f7b7          	lui	a5,0xd092f
    68b4:	3d9631b7          	lui	gp,0x3d963
    68b8:	0021c1b3          	xor	gp,gp,sp
    68bc:	0ae08093          	addi	ra,ra,174 # 0x4a18f91a
    68c0:	5c310863          	beq	sp,gp,0x6e90
    68c4:	5cc000ef          	jal	ra,0x6e90
    68c8:	f6da8013          	addi	zero,s5,-147 # 0x28b9bbdd
    68cc:	0013c1b3          	xor	gp,t2,ra
    68d0:	0011f0b3          	and	ra,gp,ra
    68d4:	0030f0b3          	and	ra,ra,gp
    68d8:	002101b3          	add	gp,sp,sp
    68dc:	006081b3          	add	gp,ra,t1
    68e0:	a220c093          	xori	ra,ra,-1502
    68e4:	38318193          	addi	gp,gp,899 # 0x3d963383
    68e8:	ee56f217          	auipc	tp,0xee56f
    68ec:	004101b3          	add	gp,sp,tp
    68f0:	3dd070b7          	lui	ra,0x3dd07
    68f4:	b3210093          	addi	ra,sp,-1230 # 0xfffffffff5ce23de
    68f8:	8e00e093          	ori	ra,ra,-1824
    68fc:	d6f5e197          	auipc	gp,0xd6f5e
    6900:	6c4b0137          	lui	sp,0x6c4b0
    6904:	0001e133          	or	sp,gp,zero
    6908:	82aef137          	lui	sp,0x82aef
    690c:	73734113          	xori	sp,t1,1847
    6910:	b9d17193          	andi	gp,sp,-1123
    6914:	6f61f793          	andi	a5,gp,1782
    6918:	f97a70b7          	lui	ra,0xf97a7
    691c:	aa40e213          	ori	tp,ra,-1372
    6920:	884ae097          	auipc	ra,0x884ae
    6924:	efd45237          	lui	tp,0xefd45
    6928:	b369f137          	lui	sp,0xb369f
    692c:	18876137          	lui	sp,0x18876
    6930:	729580b7          	lui	ra,0x72958
    6934:	3ff67697          	auipc	a3,0x3ff67
    6938:	8a03f193          	andi	gp,t2,-1888
    693c:	ab14e1b7          	lui	gp,0xab14e
    6940:	434b2297          	auipc	t0,0x434b2
    6944:	af575117          	auipc	sp,0xaf575
    6948:	38218463          	beq	gp,sp,0x6cd0
    694c:	384000ef          	jal	ra,0x6cd0
    6950:	deb99137          	lui	sp,0xdeb99
    6954:	5225d0b7          	lui	ra,0x5225d
    6958:	2c226193          	ori	gp,tp,706
    695c:	538110b7          	lui	ra,0x53811
    6960:	47f27213          	andi	tp,tp,1151
    6964:	00108133          	add	sp,ra,ra
    6968:	40e5e113          	ori	sp,a1,1038
    696c:	5801f193          	andi	gp,gp,1408
    6970:	356980b7          	lui	ra,0x35698
    6974:	9b873297          	auipc	t0,0x9b873
    6978:	350c70b7          	lui	ra,0x350c7
    697c:	2245c137          	lui	sp,0x2245c
    6980:	39a0f313          	andi	t1,ra,922
    6984:	b2fb9197          	auipc	gp,0xb2fb9
    6988:	000180b3          	add	ra,gp,zero
    698c:	00f080b3          	add	ra,ra,a5
    6990:	08159297          	auipc	t0,0x8159
    6994:	c0a2eb97          	auipc	s7,0xc0a2e
    6998:	a32fe0b7          	lui	ra,0xa32fe
    699c:	21c08813          	addi	a6,ra,540 # 0xffffffffa32fe21c
    69a0:	3d511097          	auipc	ra,0x3d511
    69a4:	c571c093          	xori	ra,gp,-937
    69a8:	7b55f317          	auipc	t1,0x7b55f
    69ac:	2a2ec097          	auipc	ra,0x2a2ec
    69b0:	7bb59817          	auipc	a6,0x7bb59
    69b4:	f871c193          	xori	gp,gp,-121
    69b8:	944c3117          	auipc	sp,0x944c3
    69bc:	01430133          	add	sp,t1,s4
    69c0:	9bc82097          	auipc	ra,0x9bc82
    69c4:	9bc8a337          	lui	t1,0x9bc8a
    69c8:	d3d08193          	addi	gp,ra,-707 # 0xffffffff9bc886fd
    69cc:	fa43d0b7          	lui	ra,0xfa43d
    69d0:	8ed7c117          	auipc	sp,0x8ed7c
    69d4:	f3a1a0b7          	lui	ra,0xf3a1a
    69d8:	f4f1e0b7          	lui	ra,0xf4f1e
    69dc:	007361b3          	or	gp,t1,t2
    69e0:	69b1e337          	lui	t1,0x69b1e
    69e4:	003140b3          	xor	ra,sp,gp
    69e8:	23b54217          	auipc	tp,0x23b54
    69ec:	00000197          	auipc	gp,0x0
    69f0:	37418167          	jalr	sp,884(gp) # 0x6d60
    69f4:	70e981b7          	lui	gp,0x70e98
    69f8:	25c0f093          	andi	ra,ra,604
    69fc:	a7cee437          	lui	s0,0xa7cee
    6a00:	b260c113          	xori	sp,ra,-1242
    6a04:	db0aa137          	lui	sp,0xdb0aa
    6a08:	ffb5c0b7          	lui	ra,0xffb5c
    6a0c:	5fb17113          	andi	sp,sp,1531
    6a10:	0004c033          	xor	zero,s1,zero
    6a14:	0000cbb3          	xor	s7,ra,zero
    6a18:	1adf9197          	auipc	gp,0x1adf9
    6a1c:	3651f093          	andi	ra,gp,869
    6a20:	0eac1337          	lui	t1,0xeac1
    6a24:	57c52337          	lui	t1,0x57c52
    6a28:	f498d037          	lui	zero,0xf498d
    6a2c:	8c20c393          	xori	t2,ra,-1854
    6a30:	406101b3          	sub	gp,sp,t1
    6a34:	0021cdb3          	xor	s11,gp,sp
    6a38:	42672197          	auipc	gp,0x42672
    6a3c:	48a47113          	andi	sp,s0,1162
    6a40:	002382b3          	add	t0,t2,sp
    6a44:	00318ab3          	add	s5,gp,gp
    6a48:	0d40f213          	andi	tp,ra,212
    6a4c:	e6d1f297          	auipc	t0,0xe6d1f
    6a50:	3433f297          	auipc	t0,0x3433f
    6a54:	eb361137          	lui	sp,0xeb361
    6a58:	a3a0e113          	ori	sp,ra,-1478
    6a5c:	5d926113          	ori	sp,tp,1497
    6a60:	3ab06137          	lui	sp,0x3ab06
    6a64:	005141b3          	xor	gp,sp,t0
    6a68:	7d13f137          	lui	sp,0x7d13f
    6a6c:	006140b3          	xor	ra,sp,t1
    6a70:	40428333          	sub	t1,t0,tp
    6a74:	bf71d0b7          	lui	ra,0xbf71d
    6a78:	b9f0f137          	lui	sp,0xb9f0f
    6a7c:	c3fe1337          	lui	t1,0xc3fe1
    6a80:	edc18113          	addi	sp,gp,-292 # 0x42678914
    6a84:	00e08263          	beq	ra,a4,0x6a88
    6a88:	3b10016f          	jal	sp,0x7638
    6a8c:	16a341b7          	lui	gp,0x16a34
    6a90:	6c017093          	andi	ra,sp,1728
    6a94:	bcf96117          	auipc	sp,0xbcf96
    6a98:	dcff9137          	lui	sp,0xdcff9
    6a9c:	3d422037          	lui	zero,0x3d422
    6aa0:	987680b7          	lui	ra,0x98768
    6aa4:	8276f197          	auipc	gp,0x8276f
    6aa8:	f28a4197          	auipc	gp,0xf28a4
    6aac:	19e31117          	auipc	sp,0x19e31
    6ab0:	a37d1097          	auipc	ra,0xa37d1
    6ab4:	0020c1b3          	xor	gp,ra,sp
    6ab8:	d43da2b7          	lui	t0,0xd43da
    6abc:	e0f0f113          	andi	sp,ra,-497
    6ac0:	403180b3          	sub	ra,gp,gp
    6ac4:	403105b3          	sub	a1,sp,gp
    6ac8:	003080b3          	add	ra,ra,gp
    6acc:	00200133          	add	sp,zero,sp
    6ad0:	b8438093          	addi	ra,t2,-1148 # 0x238103f4
    6ad4:	00114133          	xor	sp,sp,ra
    6ad8:	7e5ea1b7          	lui	gp,0x7e5ea
    6adc:	9dbb3097          	auipc	ra,0x9dbb3
    6ae0:	0421e113          	ori	sp,gp,66
    6ae4:	002161b3          	or	gp,sp,sp
    6ae8:	cafc86b7          	lui	a3,0xcafc8
    6aec:	3bd84317          	auipc	t1,0x3bd84
    6af0:	f9a1f017          	auipc	zero,0xf9a1f
    6af4:	402081b3          	sub	gp,ra,sp
    6af8:	9436f1b7          	lui	gp,0x9436f
    6afc:	40704113          	xori	sp,zero,1031
    6b00:	bab2d117          	auipc	sp,0xbab2d
    6b04:	e57520b7          	lui	ra,0xe5752
    6b08:	fc310193          	addi	gp,sp,-61 # 0xffffffffbab33ac3
    6b0c:	da308ee3          	beq	ra,gp,0x68c8
    6b10:	db9ff1ef          	jal	gp,0x68c8
    6b14:	02df73b7          	lui	t2,0x2df7
    6b18:	599b6297          	auipc	t0,0x599b6
    6b1c:	403081b3          	sub	gp,ra,gp
    6b20:	b1117093          	andi	ra,sp,-1263
    6b24:	ad71e093          	ori	ra,gp,-1321
    6b28:	cde9a1b7          	lui	gp,0xcde9a
    6b2c:	401081b3          	sub	gp,ra,ra
    6b30:	28b0c093          	xori	ra,ra,651
    6b34:	002303b3          	add	t2,t1,sp
    6b38:	c4c08113          	addi	sp,ra,-948 # 0xffffffffe5751c4c
    6b3c:	400103b3          	sub	t2,sp,zero
    6b40:	0020f1b3          	and	gp,ra,sp
    6b44:	52e2e093          	ori	ra,t0,1326
    6b48:	68c38113          	addi	sp,t2,1676 # 0x2df768c
    6b4c:	0051f133          	and	sp,gp,t0
    6b50:	015080b3          	add	ra,ra,s5
    6b54:	448ca0b7          	lui	ra,0x448ca
    6b58:	b98211b7          	lui	gp,0xb9821
    6b5c:	c5c1f793          	andi	a5,gp,-932
    6b60:	dcd1c313          	xori	t1,gp,-563
    6b64:	83719097          	auipc	ra,0x83719
    6b68:	00307133          	and	sp,zero,gp
    6b6c:	3341f193          	andi	gp,gp,820
    6b70:	002173b3          	and	t2,sp,sp
    6b74:	012081b3          	add	gp,ra,s2
    6b78:	4770e193          	ori	gp,ra,1143
    6b7c:	2c3911b7          	lui	gp,0x2c391
    6b80:	403080b3          	sub	ra,ra,gp
    6b84:	9c334193          	xori	gp,t1,-1597
    6b88:	003143b3          	xor	t2,sp,gp
    6b8c:	4a9a2117          	auipc	sp,0x4a9a2
    6b90:	e38f31b7          	lui	gp,0xe38f3
    6b94:	0fd06293          	ori	t0,zero,253
    6b98:	5671c393          	xori	t2,gp,1383
    6b9c:	403180b3          	sub	ra,gp,gp
    6ba0:	2ccc33b7          	lui	t2,0x2ccc3
    6ba4:	25308193          	addi	gp,ra,595 # 0xffffffff8371fdb7
    6ba8:	00000197          	auipc	gp,0x0
    6bac:	da8181e7          	jalr	gp,-600(gp) # 0x6950
    6bb0:	0ec841b7          	lui	gp,0xec84
    6bb4:	32bfc797          	auipc	a5,0x32bfc
    6bb8:	b803c013          	xori	zero,t2,-1152
    6bbc:	e20bb4b7          	lui	s1,0xe20bb
    6bc0:	5ff85117          	auipc	sp,0x5ff85
    6bc4:	0031c5b3          	xor	a1,gp,gp
    6bc8:	0020f0b3          	and	ra,ra,sp
    6bcc:	d2e18093          	addi	ra,gp,-722 # 0xec83d2e
    6bd0:	4e26b137          	lui	sp,0x4e26b
    6bd4:	43ef8137          	lui	sp,0x43ef8
    6bd8:	80540213          	addi	tp,s0,-2043 # 0xffffffffa7ced805
    6bdc:	e26ad297          	auipc	t0,0xe26ad
    6be0:	ea36d1b7          	lui	gp,0xea36d
    6be4:	db120193          	addi	gp,tp,-591 # 0x23b5a799
    6be8:	4b2df3b7          	lui	t2,0x4b2df
    6bec:	00237233          	and	tp,t1,sp
    6bf0:	25100197          	auipc	gp,0x25100
    6bf4:	0021e0b3          	or	ra,gp,sp
    6bf8:	ac616393          	ori	t2,sp,-1338
    6bfc:	7691c293          	xori	t0,gp,1897
    6c00:	e7c950b7          	lui	ra,0xe7c95
    6c04:	be5f0197          	auipc	gp,0xbe5f0
    6c08:	00224333          	xor	t1,tp,sp
    6c0c:	5b829097          	auipc	ra,0x5b829
    6c10:	f7330017          	auipc	zero,0xf7330
    6c14:	197d5237          	lui	tp,0x197d5
    6c18:	212401b7          	lui	gp,0x21240
    6c1c:	cd51f113          	andi	sp,gp,-811
    6c20:	002261b3          	or	gp,tp,sp
    6c24:	c5f06193          	ori	gp,zero,-929
    6c28:	41b90117          	auipc	sp,0x41b90
    6c2c:	0bbb3297          	auipc	t0,0xbbb3
    6c30:	0b4f3137          	lui	sp,0xb4f3
    6c34:	00010113          	mv	sp,sp
    6c38:	e4210ae3          	beq	sp,sp,0x6a8c
    6c3c:	8a299097          	auipc	ra,0x8a299
    6c40:	401281b3          	sub	gp,t0,ra
    6c44:	6c41f293          	andi	t0,gp,1732
    6c48:	f1a54117          	auipc	sp,0xf1a54
    6c4c:	50c16113          	ori	sp,sp,1292
    6c50:	4827d317          	auipc	t1,0x4827d
    6c54:	df89bb37          	lui	s6,0xdf89b
    6c58:	f181c293          	xori	t0,gp,-232
    6c5c:	b1e14193          	xori	gp,sp,-1250
    6c60:	666e4237          	lui	tp,0x666e4
    6c64:	c0f36213          	ori	tp,t1,-1009
    6c68:	b0a8c137          	lui	sp,0xb0a8c
    6c6c:	a11d0097          	auipc	ra,0xa11d0
    6c70:	2c828213          	addi	tp,t0,712 # 0xbbb9ef4
    6c74:	28c10113          	addi	sp,sp,652 # 0xffffffffb0a8c28c
    6c78:	791221b7          	lui	gp,0x79122
    6c7c:	8f1d0137          	lui	sp,0x8f1d0
    6c80:	dcbe00b7          	lui	ra,0xdcbe0
    6c84:	0030ee33          	or	t3,ra,gp
    6c88:	4e8731b7          	lui	gp,0x4e873
    6c8c:	beb690b7          	lui	ra,0xbeb69
    6c90:	d2e04337          	lui	t1,0xd2e04
    6c94:	001081b3          	add	gp,ra,ra
    6c98:	7111e113          	ori	sp,gp,1809
    6c9c:	2bcb61b7          	lui	gp,0x2bcb6
    6ca0:	40758233          	sub	tp,a1,t2
    6ca4:	1d700117          	auipc	sp,0x1d700
    6ca8:	aea0b0b7          	lui	ra,0xaea0b
    6cac:	2a974117          	auipc	sp,0x2a974
    6cb0:	401301b3          	sub	gp,t1,ra
    6cb4:	dc203097          	auipc	ra,0xdc203
    6cb8:	ae427097          	auipc	ra,0xae427
    6cbc:	5661c313          	xori	t1,gp,1382
    6cc0:	0030f1b3          	and	gp,ra,gp
    6cc4:	0918b0b7          	lui	ra,0x918b
    6cc8:	00010393          	mv	t2,sp
    6ccc:	8a2388e3          	beq	t2,sp,0x657c
    6cd0:	00217133          	and	sp,sp,sp
    6cd4:	83c2e193          	ori	gp,t0,-1988
    6cd8:	0010e133          	or	sp,ra,ra
    6cdc:	bd40e193          	ori	gp,ra,-1068
    6ce0:	bf20c113          	xori	sp,ra,-1038
    6ce4:	9f4cc213          	xori	tp,s9,-1548
    6ce8:	002160b3          	or	ra,sp,sp
    6cec:	25da0317          	auipc	t1,0x25da0
    6cf0:	d6885297          	auipc	t0,0xd6885
    6cf4:	fb387117          	auipc	sp,0xfb387
    6cf8:	7670e193          	ori	gp,ra,1895
    6cfc:	bbcf7197          	auipc	gp,0xbbcf7
    6d00:	09f0c113          	xori	sp,ra,159
    6d04:	01fac237          	lui	tp,0x1fac
    6d08:	006370b3          	and	ra,t1,t1
    6d0c:	5baf00b7          	lui	ra,0x5baf0
    6d10:	40f0e193          	ori	gp,ra,1039
    6d14:	1daff137          	lui	sp,0x1daff
    6d18:	2ca48093          	addi	ra,s1,714 # 0xffffffffe20bb2ca
    6d1c:	00317033          	and	zero,sp,gp
    6d20:	54108193          	addi	gp,ra,1345 # 0x5baf0541
    6d24:	b350f793          	andi	a5,ra,-1227
    6d28:	e8227093          	andi	ra,tp,-382
    6d2c:	66581137          	lui	sp,0x66581
    6d30:	325780b7          	lui	ra,0x32578
    6d34:	127a9197          	auipc	gp,0x127a9
    6d38:	6ab31137          	lui	sp,0x6ab31
    6d3c:	b1e1f1b7          	lui	gp,0xb1e1f
    6d40:	25ca3217          	auipc	tp,0x25ca3
    6d44:	40308133          	sub	sp,ra,gp
    6d48:	9331e193          	ori	gp,gp,-1741
    6d4c:	5feab317          	auipc	t1,0x5feab
    6d50:	0017f1b3          	and	gp,a5,ra
    6d54:	a0817113          	andi	sp,sp,-1528
    6d58:	00010393          	mv	t2,sp
    6d5c:	ac2388e3          	beq	t2,sp,0x682c
    6d60:	404180b3          	sub	ra,gp,tp
    6d64:	00b271b3          	and	gp,tp,a1
    6d68:	81100037          	lui	zero,0x81100
    6d6c:	7f6b3297          	auipc	t0,0x7f6b3
    6d70:	7d16e1b7          	lui	gp,0x7d16e
    6d74:	4d02c813          	xori	a6,t0,1232
    6d78:	194992b7          	lui	t0,0x19499
    6d7c:	af914113          	xori	sp,sp,-1287
    6d80:	40210133          	sub	sp,sp,sp
    6d84:	e4d4e037          	lui	zero,0xe4d4e
    6d88:	2240c093          	xori	ra,ra,548
    6d8c:	7caf8197          	auipc	gp,0x7caf8
    6d90:	f21da197          	auipc	gp,0xf21da
    6d94:	20fd60b7          	lui	ra,0x20fd6
    6d98:	71b1c093          	xori	ra,gp,1819
    6d9c:	00208133          	add	sp,ra,sp
    6da0:	0036e0b3          	or	ra,a3,gp
    6da4:	40c26113          	ori	sp,tp,1036
    6da8:	e8c0e893          	ori	a7,ra,-372
    6dac:	d680c313          	xori	t1,ra,-664
    6db0:	321a61b7          	lui	gp,0x321a6
    6db4:	403106b3          	sub	a3,sp,gp
    6db8:	6122c393          	xori	t2,t0,1554
    6dbc:	1fe53097          	auipc	ra,0x1fe53
    6dc0:	0071f333          	and	t1,gp,t2
    6dc4:	eef18013          	addi	zero,gp,-273 # 0x321a5eef
    6dc8:	550953b7          	lui	t2,0x55095
    6dcc:	0011e2b3          	or	t0,gp,ra
    6dd0:	40748b33          	sub	s6,s1,t2
    6dd4:	2efe00b7          	lui	ra,0x2efe0
    6dd8:	0020c0b3          	xor	ra,ra,sp
    6ddc:	95e1d0b7          	lui	ra,0x95e1d
    6de0:	a07c9137          	lui	sp,0xa07c9
    6de4:	47b63e97          	auipc	t4,0x47b63
    6de8:	6a8002b7          	lui	t0,0x6a800
    6dec:	8a710ce3          	beq	sp,t2,0x66a4
    6df0:	8b5ff86f          	jal	a6,0x66a4
    6df4:	00b5c133          	xor	sp,a1,a1
    6df8:	001062b3          	or	t0,zero,ra
    6dfc:	d0491197          	auipc	gp,0xd0491
    6e00:	16dae1b7          	lui	gp,0x16dae
    6e04:	a4510093          	addi	ra,sp,-1467 # 0xffffffffa07c8a45
    6e08:	002161b3          	or	gp,sp,sp
    6e0c:	a8c3a217          	auipc	tp,0xa8c3a
    6e10:	ecffd0b7          	lui	ra,0xecffd
    6e14:	544b5197          	auipc	gp,0x544b5
    6e18:	e59da097          	auipc	ra,0xe59da
    6e1c:	6952e093          	ori	ra,t0,1685
    6e20:	448db137          	lui	sp,0x448db
    6e24:	002101b3          	add	gp,sp,sp
    6e28:	0020c3b3          	xor	t2,ra,sp
    6e2c:	b2b1e293          	ori	t0,gp,-1237
    6e30:	00110133          	add	sp,sp,ra
    6e34:	bdc8a137          	lui	sp,0xbdc8a
    6e38:	00318033          	add	zero,gp,gp
    6e3c:	002273b3          	and	t2,tp,sp
    6e40:	db160017          	auipc	zero,0xdb160
    6e44:	42a18393          	addi	t2,gp,1066 # 0x544bc23e
    6e48:	6f204b93          	xori	s7,zero,1778
    6e4c:	59d4f197          	auipc	gp,0x59d4f
    6e50:	001171b3          	and	gp,sp,ra
    6e54:	25706197          	auipc	gp,0x25706
    6e58:	401281b3          	sub	gp,t0,ra
    6e5c:	a37250b7          	lui	ra,0xa3725
    6e60:	35406113          	ori	sp,zero,852
    6e64:	5fe470b7          	lui	ra,0x5fe47
    6e68:	e591d117          	auipc	sp,0xe591d
    6e6c:	45b7c093          	xori	ra,a5,1115
    6e70:	ada14493          	xori	s1,sp,-1318
    6e74:	8e717093          	andi	ra,sp,-1817
    6e78:	de770397          	auipc	t2,0xde770
    6e7c:	b0d9e0b7          	lui	ra,0xb0d9e
    6e80:	51414093          	xori	ra,sp,1300
    6e84:	401183b3          	sub	t2,gp,ra
    6e88:	00010313          	mv	t1,sp
    6e8c:	882308e3          	beq	t1,sp,0x671c
    6e90:	00138133          	add	sp,t2,ra
    6e94:	a3599297          	auipc	t0,0xa3599
    6e98:	4b218093          	addi	ra,gp,1202 # 0x2570d306
    6e9c:	0030f133          	and	sp,ra,gp
    6ea0:	0dc13097          	auipc	ra,0xdc13
    6ea4:	20ce7017          	auipc	zero,0x20ce7
    6ea8:	40f36193          	ori	gp,t1,1039
    6eac:	00a20333          	add	t1,tp,a0
    6eb0:	ef94f117          	auipc	sp,0xef94f
    6eb4:	654fd1b7          	lui	gp,0x654fd
    6eb8:	00307333          	and	t1,zero,gp
    6ebc:	eb50e293          	ori	t0,ra,-331
    6ec0:	2d39c097          	auipc	ra,0x2d39c
    6ec4:	3420f093          	andi	ra,ra,834
    6ec8:	404100b3          	sub	ra,sp,tp
    6ecc:	a501f293          	andi	t0,gp,-1456
    6ed0:	01946093          	ori	ra,s0,25
    6ed4:	0accd197          	auipc	gp,0xaccd
    6ed8:	e0afe0b7          	lui	ra,0xe0afe
    6edc:	aa473137          	lui	sp,0xaa473
    6ee0:	f59030b7          	lui	ra,0xf5903
    6ee4:	a8d1f093          	andi	ra,gp,-1395
    6ee8:	aabb5237          	lui	tp,0xaabb5
    6eec:	03b3e1b7          	lui	gp,0x3b3e
    6ef0:	7eba0297          	auipc	t0,0x7eba0
    6ef4:	f9534393          	xori	t2,t1,-107
    6ef8:	2933f113          	andi	sp,t2,659
    6efc:	459f40b7          	lui	ra,0x459f4
    6f00:	40348133          	sub	sp,s1,gp
    6f04:	9f1d43b7          	lui	t2,0x9f1d4
    6f08:	44b910b7          	lui	ra,0x44b91
    6f0c:	00000097          	auipc	ra,0x0
    6f10:	d30081e7          	jalr	gp,-720(ra) # 0x6c3c
    6f14:	00417133          	and	sp,sp,tp
    6f18:	427361b7          	lui	gp,0x42736
    6f1c:	13559117          	auipc	sp,0x13559
    6f20:	0031c1b3          	xor	gp,gp,gp
    6f24:	8d681017          	auipc	zero,0x8d681
    6f28:	2de54117          	auipc	sp,0x2de54
    6f2c:	f2708213          	addi	tp,ra,-217
    6f30:	0011e233          	or	tp,gp,ra
    6f34:	0010e0b3          	or	ra,ra,ra
    6f38:	07be3517          	auipc	a0,0x7be3
    6f3c:	d7ed6097          	auipc	ra,0xd7ed6
    6f40:	003363b3          	or	t2,t1,gp
    6f44:	0031f0b3          	and	ra,gp,gp
    6f48:	7ec17013          	andi	zero,sp,2028
    6f4c:	a4210093          	addi	ra,sp,-1470 # 0x2de5a96a
    6f50:	70a25137          	lui	sp,0x70a25
    6f54:	403101b3          	sub	gp,sp,gp
    6f58:	37d0c193          	xori	gp,ra,893
    6f5c:	8ae6f137          	lui	sp,0x8ae6f
    6f60:	402281b3          	sub	gp,t0,sp
    6f64:	cead0097          	auipc	ra,0xcead0
    6f68:	2362f193          	andi	gp,t0,566
    6f6c:	e9a14193          	xori	gp,sp,-358
    6f70:	004161b3          	or	gp,sp,tp
    6f74:	00337133          	and	sp,t1,gp
    6f78:	6e11d1b7          	lui	gp,0x6e11d
    6f7c:	160c5117          	auipc	sp,0x160c5
    6f80:	f6f0c293          	xori	t0,ra,-145
    6f84:	9d10f193          	andi	gp,ra,-1583
    6f88:	0d6e22b7          	lui	t0,0xd6e2
    6f8c:	00078713          	mv	a4,a5
    6f90:	e6f702e3          	beq	a4,a5,0x6df4
    6f94:	f7608293          	addi	t0,ra,-138 # 0xffffffffcead6eda
    6f98:	40118033          	sub	zero,gp,ra
    6f9c:	0021e2b3          	or	t0,gp,sp
    6fa0:	0021e1b3          	or	gp,gp,sp
    6fa4:	4eb38313          	addi	t1,t2,1259 # 0xffffffff9f1d44eb
    6fa8:	40318133          	sub	sp,gp,gp
    6fac:	401101b3          	sub	gp,sp,ra
    6fb0:	845f0117          	auipc	sp,0x845f0
    6fb4:	0010e233          	or	tp,ra,ra
    6fb8:	0030f0b3          	and	ra,ra,gp
    6fbc:	00310fb3          	add	t6,sp,gp
    6fc0:	db52e393          	ori	t2,t0,-587
    6fc4:	00224333          	xor	t1,tp,sp
    6fc8:	491e4117          	auipc	sp,0x491e4
    6fcc:	945fa0b7          	lui	ra,0x945fa
    6fd0:	3191e293          	ori	t0,gp,793
    6fd4:	0061f5b3          	and	a1,gp,t1
    6fd8:	38fe60b7          	lui	ra,0x38fe6
    6fdc:	377b6197          	auipc	gp,0x377b6
    6fe0:	402081b3          	sub	gp,ra,sp
    6fe4:	0031c0b3          	xor	ra,gp,gp
    6fe8:	40918133          	sub	sp,gp,s1
    6fec:	984e2197          	auipc	gp,0x984e2
    6ff0:	00217833          	and	a6,sp,sp
    6ff4:	614cf397          	auipc	t2,0x614cf
    6ff8:	400380b3          	sub	ra,t2,zero
    6ffc:	0719e2b7          	lui	t0,0x719e
    7000:	776b01b7          	lui	gp,0x776b0
    7004:	7e0f20b7          	lui	ra,0x7e0f2
    7008:	7521f0b7          	lui	ra,0x7521f
    700c:	007261b3          	or	gp,tp,t2
    7010:	0050f0b3          	and	ra,ra,t0
    7014:	0021f133          	and	sp,gp,sp
    7018:	00000197          	auipc	gp,0x0
    701c:	23c180e7          	jalr	572(gp) # 0x7254
    7020:	cd529497          	auipc	s1,0xcd529
    7024:	949a2197          	auipc	gp,0x949a2
    7028:	4600c293          	xori	t0,ra,1120
    702c:	7a75b137          	lui	sp,0x7a75b
    7030:	0010f0b3          	and	ra,ra,ra
    7034:	e7a6a117          	auipc	sp,0xe7a6a
    7038:	00a16193          	ori	gp,sp,10
    703c:	6a21c093          	xori	ra,gp,1698
    7040:	c510f213          	andi	tp,ra,-943
    7044:	14d98197          	auipc	gp,0x14d98
    7048:	7da80137          	lui	sp,0x7da80
    704c:	c4d08193          	addi	gp,ra,-947 # 0x7521ec4d
    7050:	e2720013          	addi	zero,tp,-473 # 0xffffffffaabb4e27
    7054:	9d90e113          	ori	sp,ra,-1575
    7058:	0021e1b3          	or	gp,gp,sp
    705c:	0064e333          	or	t1,s1,t1
    7060:	21c38817          	auipc	a6,0x21c38
    7064:	67cb4097          	auipc	ra,0x67cb4
    7068:	8c00e193          	ori	gp,ra,-1856
    706c:	6d505197          	auipc	gp,0x6d505
    7070:	00348133          	add	sp,s1,gp
    7074:	b21ce097          	auipc	ra,0xb21ce
    7078:	45e68137          	lui	sp,0x45e68
    707c:	2fed1137          	lui	sp,0x2fed1
    7080:	021e5297          	auipc	t0,0x21e5
    7084:	0000c1b3          	xor	gp,ra,zero
    7088:	269f9097          	auipc	ra,0x269f9
    708c:	747f6237          	lui	tp,0x747f6
    7090:	01908263          	beq	ra,s9,0x7094
    7094:	0b1001ef          	jal	gp,0x7944
    7098:	bbf9e1b7          	lui	gp,0xbbf9e
    709c:	0090f133          	and	sp,ra,s1
    70a0:	3dc14913          	xori	s2,sp,988
    70a4:	00120133          	add	sp,tp,ra
    70a8:	67604093          	xori	ra,zero,1654
    70ac:	0032f0b3          	and	ra,t0,gp
    70b0:	f77dce37          	lui	t3,0xf77dc
    70b4:	f01e61b7          	lui	gp,0xf01e6
    70b8:	74c1c093          	xori	ra,gp,1868
    70bc:	00336133          	or	sp,t1,gp
    70c0:	48616093          	ori	ra,sp,1158
    70c4:	70934197          	auipc	gp,0x70934
    70c8:	00416333          	or	t1,sp,tp
    70cc:	1a392337          	lui	t1,0x1a392
    70d0:	bef14293          	xori	t0,sp,-1041
    70d4:	65834213          	xori	tp,t1,1624
    70d8:	92ede117          	auipc	sp,0x92ede
    70dc:	7b6bd0b7          	lui	ra,0x7b6bd
    70e0:	52ad29b7          	lui	s3,0x52ad2
    70e4:	f83980b7          	lui	ra,0xf8398
    70e8:	001162b3          	or	t0,sp,ra
    70ec:	ea3f5297          	auipc	t0,0xea3f5
    70f0:	ff16a297          	auipc	t0,0xff16a
    70f4:	ac30f193          	andi	gp,ra,-1341
    70f8:	00258133          	add	sp,a1,sp
    70fc:	8519d237          	lui	tp,0x8519d
    7100:	be70f113          	andi	sp,ra,-1049
    7104:	d6c22137          	lui	sp,0xd6c22
    7108:	0020cb33          	xor	s6,ra,sp
    710c:	6899d1b7          	lui	gp,0x6899d
    7110:	11037193          	andi	gp,t1,272
    7114:	00b1e233          	or	tp,gp,a1
    7118:	803252b7          	lui	t0,0x80325
    711c:	734db0b7          	lui	ra,0x734db
    7120:	0031e2b3          	or	t0,gp,gp
    7124:	16817113          	andi	sp,sp,360
    7128:	4443d137          	lui	sp,0x4443d
    712c:	00008e93          	mv	t4,ra
    7130:	081e8663          	beq	t4,ra,0x71bc
    7134:	aa3c26b7          	lui	a3,0xaa3c2
    7138:	709f61b7          	lui	gp,0x709f6
    713c:	002161b3          	or	gp,sp,sp
    7140:	96164197          	auipc	gp,0x96164
    7144:	29208093          	addi	ra,ra,658 # 0x734db292
    7148:	f0ad0197          	auipc	gp,0xf0ad0
    714c:	ca6ca037          	lui	zero,0xca6ca
    7150:	0030e2b3          	or	t0,ra,gp
    7154:	001100b3          	add	ra,sp,ra
    7158:	40811197          	auipc	gp,0x40811
    715c:	5dbcb1b7          	lui	gp,0x5dbcb
    7160:	00337133          	and	sp,t1,gp
    7164:	d9a27197          	auipc	gp,0xd9a27
    7168:	40328233          	sub	tp,t0,gp
    716c:	6a910093          	addi	ra,sp,1705 # 0x4443d6a9
    7170:	309d1117          	auipc	sp,0x309d1
    7174:	00208233          	add	tp,ra,sp
    7178:	e1c2a237          	lui	tp,0xe1c2a
    717c:	880ec097          	auipc	ra,0x880ec
    7180:	00e3c1b3          	xor	gp,t2,a4
    7184:	00208133          	add	sp,ra,sp
    7188:	60598217          	auipc	tp,0x60598
    718c:	55622337          	lui	t1,0x55622
    7190:	aa72e013          	ori	zero,t0,-1369
    7194:	754c80b7          	lui	ra,0x754c8
    7198:	003171b3          	and	gp,sp,gp
    719c:	001343b3          	xor	t2,t1,ra
    71a0:	b1775337          	lui	t1,0xb1775
    71a4:	5d439297          	auipc	t0,0x5d439
    71a8:	0043e1b3          	or	gp,t2,tp
    71ac:	c1544037          	lui	zero,0xc1544
    71b0:	000160b3          	or	ra,sp,zero
    71b4:	00018113          	mv	sp,gp
    71b8:	2e310063          	beq	sp,gp,0x7498
    71bc:	0020f133          	and	sp,ra,sp
    71c0:	26ca8193          	addi	gp,s5,620
    71c4:	002160b3          	or	ra,sp,sp
    71c8:	9906f197          	auipc	gp,0x9906f
    71cc:	ffc99317          	auipc	t1,0xffc99
    71d0:	52676097          	auipc	ra,0x52676
    71d4:	4270c113          	xori	sp,ra,1063
    71d8:	8a685097          	auipc	ra,0x8a685
    71dc:	f071c093          	xori	ra,gp,-249
    71e0:	f005e197          	auipc	gp,0xf005e
    71e4:	b0b56117          	auipc	sp,0xb0b56
    71e8:	0a010393          	addi	t2,sp,160 # 0xffffffffb0b5d284
    71ec:	cc716097          	auipc	ra,0xcc716
    71f0:	95689eb7          	lui	t4,0x95689
    71f4:	400181b3          	sub	gp,gp,zero
    71f8:	000101b3          	add	gp,sp,zero
    71fc:	32bf7937          	lui	s2,0x32bf7
    7200:	0031f233          	and	tp,gp,gp
    7204:	c8608313          	addi	t1,ra,-890 # 0xffffffffcc71ce72
    7208:	00314333          	xor	t1,sp,gp
    720c:	ce5c11b7          	lui	gp,0xce5c1
    7210:	c61f7137          	lui	sp,0xc61f7
    7214:	403000b3          	neg	ra,gp
    7218:	b7f2f1b7          	lui	gp,0xb7f2f
    721c:	e700c093          	xori	ra,ra,-400
    7220:	4eff0c17          	auipc	s8,0x4eff0
    7224:	6c618013          	addi	zero,gp,1734 # 0xffffffffb7f2f6c6
    7228:	ada1c093          	xori	ra,gp,-1318
    722c:	bab2f197          	auipc	gp,0xbab2f
    7230:	291d22b7          	lui	t0,0x291d2
    7234:	0011c133          	xor	sp,gp,ra
    7238:	0010c0b3          	xor	ra,ra,ra
    723c:	48f36037          	lui	zero,0x48f36
    7240:	dff770b7          	lui	ra,0xdff77
    7244:	ca3713b7          	lui	t2,0xca371
    7248:	96e6be17          	auipc	t3,0x96e6b
    724c:	66518063          	beq	gp,t0,0x78ac
    7250:	65c008ef          	jal	a7,0x78ac
    7254:	93c49597          	auipc	a1,0x93c49
    7258:	ad18e117          	auipc	sp,0xad18e
    725c:	002cc133          	xor	sp,s9,sp
    7260:	91c52137          	lui	sp,0x91c52
    7264:	d211e113          	ori	sp,gp,-735
    7268:	144e1137          	lui	sp,0x144e1
    726c:	7e1f5317          	auipc	t1,0x7e1f5
    7270:	f7fab197          	auipc	gp,0xf7fab
    7274:	adc0c193          	xori	gp,ra,-1316
    7278:	0060c133          	xor	sp,ra,t1
    727c:	eda04093          	xori	ra,zero,-294
    7280:	0031f1b3          	and	gp,gp,gp
    7284:	7261c813          	xori	a6,gp,1830
    7288:	d7019197          	auipc	gp,0xd7019
    728c:	d9bed1b7          	lui	gp,0xd9bed
    7290:	158a2137          	lui	sp,0x158a2
    7294:	82f0e093          	ori	ra,ra,-2001
    7298:	e74d49b7          	lui	s3,0xe74d4
    729c:	968a1137          	lui	sp,0x968a1
    72a0:	007100b3          	add	ra,sp,t2
    72a4:	404100b3          	sub	ra,sp,tp
    72a8:	841f00b7          	lui	ra,0x841f0
    72ac:	6d5ca137          	lui	sp,0x6d5ca
    72b0:	002271b3          	and	gp,tp,sp
    72b4:	3d2bb097          	auipc	ra,0x3d2bb
    72b8:	40330133          	sub	sp,t1,gp
    72bc:	43e34213          	xori	tp,t1,1086
    72c0:	fe420113          	addi	sp,tp,-28 # 0x6059f16c
    72c4:	2a840217          	auipc	tp,0x2a840
    72c8:	3ca06197          	auipc	gp,0x3ca06
    72cc:	60e1e293          	ori	t0,gp,1550
    72d0:	00110263          	beq	sp,ra,0x72d4
    72d4:	180011ef          	jal	gp,0x8454
    72d8:	58998097          	auipc	ra,0x58998
    72dc:	cbc0e113          	ori	sp,ra,-836
    72e0:	06b14093          	xori	ra,sp,107
    72e4:	654ab197          	auipc	gp,0x654ab
    72e8:	ac783117          	auipc	sp,0xac783
    72ec:	b5cb7097          	auipc	ra,0xb5cb7
    72f0:	a83e2097          	auipc	ra,0xa83e2
    72f4:	75916193          	ori	gp,sp,1881
    72f8:	2429c197          	auipc	gp,0x2429c
    72fc:	0050e1b3          	or	gp,ra,t0
    7300:	0021f1b3          	and	gp,gp,sp
    7304:	81075137          	lui	sp,0x81075
    7308:	d3192697          	auipc	a3,0xd3192
    730c:	0cf4a017          	auipc	zero,0xcf4a
    7310:	0031c133          	xor	sp,gp,gp
    7314:	655be137          	lui	sp,0x655be
    7318:	feca70b7          	lui	ra,0xfeca7
    731c:	ab9fb197          	auipc	gp,0xab9fb
    7320:	0021c0b3          	xor	ra,gp,sp
    7324:	a5c6f013          	andi	zero,a3,-1444
    7328:	c8dfc197          	auipc	gp,0xc8dfc
    732c:	3d63a537          	lui	a0,0x3d63a
    7330:	fe3f3097          	auipc	ra,0xfe3f3
    7334:	400080b3          	sub	ra,ra,zero
    7338:	ba4a70b7          	lui	ra,0xba4a7
    733c:	3f432337          	lui	t1,0x3f432
    7340:	99f10493          	addi	s1,sp,-1633 # 0x655bd99f
    7344:	00116333          	or	t1,sp,ra
    7348:	c7353137          	lui	sp,0xc7353
    734c:	5df17193          	andi	gp,sp,1503
    7350:	ea66d397          	auipc	t2,0xea66d
    7354:	001171b3          	and	gp,sp,ra
    7358:	9adc30b7          	lui	ra,0x9adc3
    735c:	9fd560b7          	lui	ra,0x9fd56
    7360:	403081b3          	sub	gp,ra,gp
    7364:	00010393          	mv	t2,sp
    7368:	1a238c63          	beq	t2,sp,0x7520
    736c:	002181b3          	add	gp,gp,sp
    7370:	fff07193          	andi	gp,zero,-1
    7374:	a466a117          	auipc	sp,0xa466a
    7378:	006161b3          	or	gp,sp,t1
    737c:	1a517193          	andi	gp,sp,421
    7380:	e0f18113          	addi	sp,gp,-497 # 0xffffffffc8e03137
    7384:	2b016f93          	ori	t6,sp,688
    7388:	d8b1e093          	ori	ra,gp,-629
    738c:	6641c197          	auipc	gp,0x6641c
    7390:	0021c1b3          	xor	gp,gp,sp
    7394:	cfa282b7          	lui	t0,0xcfa28
    7398:	0031e2b3          	or	t0,gp,gp
    739c:	728372b7          	lui	t0,0x72837
    73a0:	09e2e117          	auipc	sp,0x9e2e
    73a4:	6e517113          	andi	sp,sp,1765
    73a8:	ad302117          	auipc	sp,0xad302
    73ac:	7dd18593          	addi	a1,gp,2013 # 0x66423b69
    73b0:	2aa05237          	lui	tp,0x2aa05
    73b4:	0051f0b3          	and	ra,gp,t0
    73b8:	4b34d0b7          	lui	ra,0x4b34d
    73bc:	5f375697          	auipc	a3,0x5f375
    73c0:	114833b7          	lui	t2,0x11483
    73c4:	00308133          	add	sp,ra,gp
    73c8:	00317133          	and	sp,sp,gp
    73cc:	608cd117          	auipc	sp,0x608cd
    73d0:	5311a137          	lui	sp,0x5311a
    73d4:	2de5f193          	andi	gp,a1,734
    73d8:	53e540b7          	lui	ra,0x53e54
    73dc:	6e624193          	xori	gp,tp,1766
    73e0:	86ac3217          	auipc	tp,0x86ac3
    73e4:	031bd197          	auipc	gp,0x31bd
    73e8:	d0343117          	auipc	sp,0xd0343
    73ec:	23e67137          	lui	sp,0x23e67
    73f0:	003a41b3          	xor	gp,s4,gp
    73f4:	8d84a097          	auipc	ra,0x8d84a
    73f8:	0013c1b3          	xor	gp,t2,ra
    73fc:	b7432117          	auipc	sp,0xb7432
    7400:	00020113          	mv	sp,tp
    7404:	d24108e3          	beq	sp,tp,0x7134
    7408:	b7da90b7          	lui	ra,0xb7da9
    740c:	9eb3d137          	lui	sp,0x9eb3d
    7410:	09654097          	auipc	ra,0x9654
    7414:	a7aec097          	auipc	ra,0xa7aec
    7418:	d8b4c193          	xori	gp,s1,-629
    741c:	f2d121b7          	lui	gp,0xf2d12
    7420:	006170b3          	and	ra,sp,t1
    7424:	a0714113          	xori	sp,sp,-1529
    7428:	aefc2297          	auipc	t0,0xaefc2
    742c:	20384097          	auipc	ra,0x20384
    7430:	001089b3          	add	s3,ra,ra
    7434:	70102217          	auipc	tp,0x70102
    7438:	e410f193          	andi	gp,ra,-447
    743c:	e7dde117          	auipc	sp,0xe7dde
    7440:	0010c2b3          	xor	t0,ra,ra
    7444:	3d9d0197          	auipc	gp,0x3d9d0
    7448:	5509c1b7          	lui	gp,0x5509c
    744c:	00c18033          	add	zero,gp,a2
    7450:	c91ab297          	auipc	t0,0xc91ab
    7454:	48b6f097          	auipc	ra,0x48b6f
    7458:	6bb37213          	andi	tp,t1,1723
    745c:	f3e9a0b7          	lui	ra,0xf3e9a
    7460:	005160b3          	or	ra,sp,t0
    7464:	7450c193          	xori	gp,ra,1861
    7468:	c590c093          	xori	ra,ra,-935
    746c:	003180b3          	add	ra,gp,gp
    7470:	57508193          	addi	gp,ra,1397 # 0xfffffffff3e9a575
    7474:	27ce3097          	auipc	ra,0x27ce3
    7478:	72116113          	ori	sp,sp,1825
    747c:	b99df217          	auipc	tp,0xb99df
    7480:	e8d2e213          	ori	tp,t0,-371
    7484:	001160b3          	or	ra,sp,ra
    7488:	8e108093          	addi	ra,ra,-1823 # 0x27ce9d55
    748c:	0010c0b3          	xor	ra,ra,ra
    7490:	00000117          	auipc	sp,0x0
    7494:	118100e7          	jalr	280(sp) # 0x75a8
    7498:	5c3e2197          	auipc	gp,0x5c3e2
    749c:	08abf097          	auipc	ra,0x8abf
    74a0:	05966297          	auipc	t0,0x5966
    74a4:	8897e137          	lui	sp,0x8897e
    74a8:	722dd097          	auipc	ra,0x722dd
    74ac:	84d16493          	ori	s1,sp,-1971
    74b0:	00337033          	and	zero,t1,gp
    74b4:	003173b3          	and	t2,sp,gp
    74b8:	85852117          	auipc	sp,0x85852
    74bc:	5906c4b7          	lui	s1,0x5906c
    74c0:	316bc137          	lui	sp,0x316bc
    74c4:	97eec1b7          	lui	gp,0x97eec
    74c8:	40f08033          	sub	zero,ra,a5
    74cc:	00514133          	xor	sp,sp,t0
    74d0:	a1f35317          	auipc	t1,0xa1f35
    74d4:	585b5117          	auipc	sp,0x585b5
    74d8:	e1a16093          	ori	ra,sp,-486
    74dc:	a20791b7          	lui	gp,0xa2079
    74e0:	a863c097          	auipc	ra,0xa863c
    74e4:	934680b7          	lui	ra,0x93468
    74e8:	004141b3          	xor	gp,sp,tp
    74ec:	6844c217          	auipc	tp,0x6844c
    74f0:	3020e113          	ori	sp,ra,770
    74f4:	c211c0b7          	lui	ra,0xc211c
    74f8:	0101c0b3          	xor	ra,gp,a6
    74fc:	e91d1c17          	auipc	s8,0xe91d1
    7500:	bd704193          	xori	gp,zero,-1065
    7504:	2f89a1b7          	lui	gp,0x2f89a
    7508:	aa501197          	auipc	gp,0xaa501
    750c:	9ce4f093          	andi	ra,s1,-1586
    7510:	9ae57497          	auipc	s1,0x9ae57
    7514:	00148433          	add	s0,s1,ra
    7518:	1a218c63          	beq	gp,sp,0x76d0
    751c:	1b4000ef          	jal	ra,0x76d0
    7520:	8276f113          	andi	sp,a3,-2009
    7524:	28932097          	auipc	ra,0x28932
    7528:	0fbb1197          	auipc	gp,0xfbb1
    752c:	b6b84093          	xori	ra,a6,-1173
    7530:	0351e193          	ori	gp,gp,53
    7534:	97ea1097          	auipc	ra,0x97ea1
    7538:	00108b33          	add	s6,ra,ra
    753c:	b2a04117          	auipc	sp,0xb2a04
    7540:	04a0c793          	xori	a5,ra,74
    7544:	a68b5097          	auipc	ra,0xa68b5
    7548:	bbf49037          	lui	zero,0xbbf49
    754c:	9c35f1b7          	lui	gp,0x9c35f
    7550:	6fb8d097          	auipc	ra,0x6fb8d
    7554:	2a0f6137          	lui	sp,0x2a0f6
    7558:	40700333          	neg	t1,t2
    755c:	0021f0b3          	and	ra,gp,sp
    7560:	403083b3          	sub	t2,ra,gp
    7564:	0c3a9337          	lui	t1,0xc3a9
    7568:	0032c133          	xor	sp,t0,gp
    756c:	0020e233          	or	tp,ra,sp
    7570:	ab718113          	addi	sp,gp,-1353 # 0xffffffff9c35eab7
    7574:	003164b3          	or	s1,sp,gp
    7578:	e676a197          	auipc	gp,0xe676a
    757c:	e311c1b7          	lui	gp,0xe311c
    7580:	8e237137          	lui	sp,0x8e237
    7584:	001080b3          	add	ra,ra,ra
    7588:	00608333          	add	t1,ra,t1
    758c:	40290133          	sub	sp,s2,sp
    7590:	00d161b3          	or	gp,sp,a3
    7594:	003180b3          	add	ra,gp,gp
    7598:	00334133          	xor	sp,t1,gp
    759c:	2cad8097          	auipc	ra,0x2cad8
    75a0:	42d18263          	beq	gp,a3,0x79c4
    75a4:	420004ef          	jal	s1,0x79c4
    75a8:	6b2ed097          	auipc	ra,0x6b2ed
    75ac:	f4e00137          	lui	sp,0xf4e00
    75b0:	3a7431b7          	lui	gp,0x3a743
    75b4:	2c2e80b7          	lui	ra,0x2c2e8
    75b8:	40148333          	sub	t1,s1,ra
    75bc:	ed46f137          	lui	sp,0xed46f
    75c0:	0dd031b7          	lui	gp,0xdd03
    75c4:	1fa27197          	auipc	gp,0x1fa27
    75c8:	167c8317          	auipc	t1,0x167c8
    75cc:	db1ef1b7          	lui	gp,0xdb1ef
    75d0:	a7ed1337          	lui	t1,0xa7ed1
    75d4:	3c414013          	xori	zero,sp,964
    75d8:	99528313          	addi	t1,t0,-1643 # 0x596ce35
    75dc:	69630393          	addi	t2,t1,1686 # 0xffffffffa7ed1696
    75e0:	b411a0b7          	lui	ra,0xb411a
    75e4:	2192c097          	auipc	ra,0x2192c
    75e8:	ebe16193          	ori	gp,sp,-322
    75ec:	0d15c117          	auipc	sp,0xd15c
    75f0:	db30e093          	ori	ra,ra,-589
    75f4:	5eb48197          	auipc	gp,0x5eb48
    75f8:	3f216193          	ori	gp,sp,1010
    75fc:	9990c297          	auipc	t0,0x9990c
    7600:	2ac17113          	andi	sp,sp,684
    7604:	b696b097          	auipc	ra,0xb696b
    7608:	b1dfd2b7          	lui	t0,0xb1dfd
    760c:	00736cb3          	or	s9,t1,t2
    7610:	5221d097          	auipc	ra,0x5221d
    7614:	81a08093          	addi	ra,ra,-2022 # 0x52223e2a
    7618:	63a17093          	andi	ra,sp,1594
    761c:	61d10193          	addi	gp,sp,1565 # 0xd163c09
    7620:	7db14093          	xori	ra,sp,2011
    7624:	407dc197          	auipc	gp,0x407dc
    7628:	4c078193          	addi	gp,a5,1216 # 0x32c03074
    762c:	6ffee117          	auipc	sp,0x6ffee
    7630:	00000097          	auipc	ra,0x0
    7634:	ca808567          	jalr	a0,-856(ra) # 0x72d8
    7638:	c0c08093          	addi	ra,ra,-1012
    763c:	e8817113          	andi	sp,sp,-376
    7640:	6585c7b7          	lui	a5,0x6585c
    7644:	917151b7          	lui	gp,0x91715
    7648:	a55aa117          	auipc	sp,0xa55aa
    764c:	72b1c513          	xori	a0,gp,1835
    7650:	73c18113          	addi	sp,gp,1852 # 0xffffffff9171573c
    7654:	ac3480b7          	lui	ra,0xac348
    7658:	91c0c113          	xori	sp,ra,-1764
    765c:	403280b3          	sub	ra,t0,gp
    7660:	f7aee193          	ori	gp,t4,-134
    7664:	002060b3          	or	ra,zero,sp
    7668:	ebc1e293          	ori	t0,gp,-324
    766c:	00b1e1b3          	or	gp,gp,a1
    7670:	d9a1e113          	ori	sp,gp,-614
    7674:	83787093          	andi	ra,a6,-1993
    7678:	81f2d217          	auipc	tp,0x81f2d
    767c:	ad30e113          	ori	sp,ra,-1325
    7680:	73b27197          	auipc	gp,0x73b27
    7684:	ae0ca1b7          	lui	gp,0xae0ca
    7688:	006181b3          	add	gp,gp,t1
    768c:	002181b3          	add	gp,gp,sp
    7690:	40308133          	sub	sp,ra,gp
    7694:	1c016193          	ori	gp,sp,448
    7698:	c87173b7          	lui	t2,0xc8717
    769c:	2ce0c113          	xori	sp,ra,718
    76a0:	0011c533          	xor	a0,gp,ra
    76a4:	8a048097          	auipc	ra,0x8a048
    76a8:	c7c67137          	lui	sp,0xc7c67
    76ac:	0003f333          	and	t1,t2,zero
    76b0:	95ae9497          	auipc	s1,0x95ae9
    76b4:	1120f213          	andi	tp,ra,274
    76b8:	00b08133          	add	sp,ra,a1
    76bc:	0031e133          	or	sp,gp,gp
    76c0:	d780f093          	andi	ra,ra,-648
    76c4:	5030e213          	ori	tp,ra,1283
    76c8:	9c6208e3          	beq	tp,t1,0x7098
    76cc:	9cdff0ef          	jal	ra,0x7098
    76d0:	001160b3          	or	ra,sp,ra
    76d4:	47230093          	addi	ra,t1,1138
    76d8:	a0e131b7          	lui	gp,0xa0e13
    76dc:	c3cd9237          	lui	tp,0xc3cd9
    76e0:	29208293          	addi	t0,ra,658 # 0xffffffff8a04f936
    76e4:	2626f593          	andi	a1,a3,610
    76e8:	73ee0117          	auipc	sp,0x73ee0
    76ec:	e1506197          	auipc	gp,0xe1506
    76f0:	003181b3          	add	gp,gp,gp
    76f4:	00116033          	or	zero,sp,ra
    76f8:	762011b7          	lui	gp,0x76201
    76fc:	001100b3          	add	ra,sp,ra
    7700:	00f340b3          	xor	ra,t1,a5
    7704:	1f637217          	auipc	tp,0x1f637
    7708:	da2e9197          	auipc	gp,0xda2e9
    770c:	9b41c313          	xori	t1,gp,-1612
    7710:	8c114093          	xori	ra,sp,-1855
    7714:	65fe7117          	auipc	sp,0x65fe7
    7718:	b9716193          	ori	gp,sp,-1129
    771c:	82e6a137          	lui	sp,0x82e6a
    7720:	db759097          	auipc	ra,0xdb759
    7724:	908f60b7          	lui	ra,0x908f6
    7728:	a299a0b7          	lui	ra,0xa299a
    772c:	b02801b7          	lui	gp,0xb0280
    7730:	0df10013          	addi	zero,sp,223 # 0xffffffff82e6a0df
    7734:	b1a17313          	andi	t1,sp,-1254
    7738:	a0710193          	addi	gp,sp,-1529
    773c:	0031c2b3          	xor	t0,gp,gp
    7740:	00218133          	add	sp,gp,sp
    7744:	6e69b117          	auipc	sp,0x6e69b
    7748:	0011f3b3          	and	t2,gp,ra
    774c:	11b38113          	addi	sp,t2,283 # 0xffffffffc871711b
    7750:	d8a20113          	addi	sp,tp,-630 # 0x1f63e48e
    7754:	2d1b04b7          	lui	s1,0x2d1b0
    7758:	001af0b3          	and	ra,s5,ra
    775c:	bb0046b7          	lui	a3,0xbb004
    7760:	11518217          	auipc	tp,0x11518
    7764:	f2918597          	auipc	a1,0xf2918
    7768:	8a218ce3          	beq	gp,sp,0x7020
    776c:	8b5ff1ef          	jal	gp,0x7020
    7770:	aac36093          	ori	ra,t1,-1364
    7774:	0010f0b3          	and	ra,ra,ra
    7778:	4070c393          	xori	t2,ra,1031
    777c:	9f91f117          	auipc	sp,0x9f91f
    7780:	13f45017          	auipc	zero,0x13f45
    7784:	f4c17113          	andi	sp,sp,-180
    7788:	00114233          	xor	tp,sp,ra
    778c:	7d69e097          	auipc	ra,0x7d69e
    7790:	08c5a137          	lui	sp,0x8c5a
    7794:	a4f55217          	auipc	tp,0xa4f55
    7798:	40208b33          	sub	s6,ra,sp
    779c:	0030f0b3          	and	ra,ra,gp
    77a0:	16509e17          	auipc	t3,0x16509
    77a4:	542e4037          	lui	zero,0x542e4
    77a8:	95c0f693          	andi	a3,ra,-1700
    77ac:	8f5ef137          	lui	sp,0x8f5ef
    77b0:	1ea68337          	lui	t1,0x1ea68
    77b4:	f6aeb097          	auipc	ra,0xf6aeb
    77b8:	0031c133          	xor	sp,gp,gp
    77bc:	0f737613          	andi	a2,t1,247
    77c0:	85dd1337          	lui	t1,0x85dd1
    77c4:	00317133          	and	sp,sp,gp
    77c8:	01017033          	and	zero,sp,a6
    77cc:	9c0cf117          	auipc	sp,0x9c0cf
    77d0:	40110133          	sub	sp,sp,ra
    77d4:	401181b3          	sub	gp,gp,ra
    77d8:	00316233          	or	tp,sp,gp
    77dc:	86c28193          	addi	gp,t0,-1940 # 0xffffffffb1dfc86c
    77e0:	06b6c217          	auipc	tp,0x6b6c
    77e4:	006ce197          	auipc	gp,0x6ce
    77e8:	61f17113          	andi	sp,sp,1567
    77ec:	ff204317          	auipc	t1,0xff204
    77f0:	007243b3          	xor	t2,tp,t2
    77f4:	003381b3          	add	gp,t2,gp
    77f8:	0091c1b3          	xor	gp,gp,s1
    77fc:	96ff40b7          	lui	ra,0x96ff4
    7800:	0020eab3          	or	s5,ra,sp
    7804:	fc554117          	auipc	sp,0xfc554
    7808:	1dcc7193          	andi	gp,s8,476
    780c:	00008193          	mv	gp,ra
    7810:	be118ce3          	beq	gp,ra,0x7408
    7814:	401003b3          	neg	t2,ra
    7818:	1f8710b7          	lui	ra,0x1f871
    781c:	24c5c137          	lui	sp,0x24c5c
    7820:	40318333          	sub	t1,gp,gp
    7824:	4db63117          	auipc	sp,0x4db63
    7828:	95aa0193          	addi	gp,s4,-1702 # 0x4acbf95a
    782c:	001186b3          	add	a3,gp,ra
    7830:	f88e46b7          	lui	a3,0xf88e4
    7834:	00d20bb3          	add	s7,tp,a3
    7838:	9c71d197          	auipc	gp,0x9c71d
    783c:	0798f117          	auipc	sp,0x798f
    7840:	2321e093          	ori	ra,gp,562
    7844:	8fe06193          	ori	gp,zero,-1794
    7848:	00454233          	xor	tp,a0,tp
    784c:	007181b3          	add	gp,gp,t2
    7850:	38429017          	auipc	zero,0x38429
    7854:	404101b3          	sub	gp,sp,tp
    7858:	51ff2597          	auipc	a1,0x51ff2
    785c:	01e140b3          	xor	ra,sp,t5
    7860:	fbb59c17          	auipc	s8,0xfbb59
    7864:	40d38133          	sub	sp,t2,a3
    7868:	d6b2e093          	ori	ra,t0,-661
    786c:	a6812317          	auipc	t1,0xa6812
    7870:	36223197          	auipc	gp,0x36223
    7874:	405101b3          	sub	gp,sp,t0
    7878:	da308293          	addi	t0,ra,-605 # 0x1f870da3
    787c:	ae838213          	addi	tp,t2,-1304
    7880:	0023e2b3          	or	t0,t2,sp
    7884:	001171b3          	and	gp,sp,ra
    7888:	194c50b7          	lui	ra,0x194c5
    788c:	b963e097          	auipc	ra,0xb963e
    7890:	a411e113          	ori	sp,gp,-1471
    7894:	049ae217          	auipc	tp,0x49ae
    7898:	d210c193          	xori	gp,ra,-735
    789c:	dc055117          	auipc	sp,0xdc055
    78a0:	88d990b7          	lui	ra,0x88d99
    78a4:	00010113          	mv	sp,sp
    78a8:	ac2102e3          	beq	sp,sp,0x736c
    78ac:	a0136113          	ori	sp,t1,-1535
    78b0:	8f6130b7          	lui	ra,0x8f613
    78b4:	0010c333          	xor	t1,ra,ra
    78b8:	63516093          	ori	ra,sp,1589
    78bc:	5cc27293          	andi	t0,tp,1484
    78c0:	0030f0b3          	and	ra,ra,gp
    78c4:	28908693          	addi	a3,ra,649 # 0xffffffff8f613289
    78c8:	ae49c237          	lui	tp,0xae49c
    78cc:	7a708013          	addi	zero,ra,1959
    78d0:	2ed21197          	auipc	gp,0x2ed21
    78d4:	c850c093          	xori	ra,ra,-891
    78d8:	fe89f097          	auipc	ra,0xfe89f
    78dc:	d26d7197          	auipc	gp,0xd26d7
    78e0:	09c10013          	addi	zero,sp,156 # 0xffffffffdc05c938
    78e4:	2295d197          	auipc	gp,0x2295d
    78e8:	0011e1b3          	or	gp,gp,ra
    78ec:	c932e193          	ori	gp,t0,-877
    78f0:	001180b3          	add	ra,gp,ra
    78f4:	34525017          	auipc	zero,0x34525
    78f8:	0041e0b3          	or	ra,gp,tp
    78fc:	49f1f313          	andi	t1,gp,1183
    7900:	a751e113          	ori	sp,gp,-1419
    7904:	8acd3097          	auipc	ra,0x8acd3
    7908:	003140b3          	xor	ra,sp,gp
    790c:	0f669237          	lui	tp,0xf669
    7910:	cf6e10b7          	lui	ra,0xcf6e1
    7914:	0033f3b3          	and	t2,t2,gp
    7918:	b761b497          	auipc	s1,0xb761b
    791c:	7be18313          	addi	t1,gp,1982 # 0x229650a2
    7920:	13b06137          	lui	sp,0x13b06
    7924:	11bab0b7          	lui	ra,0x11bab
    7928:	cda95097          	auipc	ra,0xcda95
    792c:	5df58197          	auipc	gp,0x5df58
    7930:	0071e2b3          	or	t0,gp,t2
    7934:	3dcf1837          	lui	a6,0x3dcf1
    7938:	c1134193          	xori	gp,t1,-1007
    793c:	ec118ce3          	beq	gp,ra,0x7814
    7940:	ed5ff16f          	jal	sp,0x7814
    7944:	f4a28193          	addi	gp,t0,-182
    7948:	6f9bd1b7          	lui	gp,0x6f9bd
    794c:	0e7d6137          	lui	sp,0xe7d6
    7950:	ac8f4237          	lui	tp,0xac8f4
    7954:	d0830693          	addi	a3,t1,-760 # 0xffffffffa6819574
    7958:	4e4501b7          	lui	gp,0x4e450
    795c:	0010e133          	or	sp,ra,ra
    7960:	00324133          	xor	sp,tp,gp
    7964:	00224e33          	xor	t3,tp,sp
    7968:	001160b3          	or	ra,sp,ra
    796c:	7270f1b7          	lui	gp,0x7270f
    7970:	6e5340b7          	lui	ra,0x6e534
    7974:	603dc117          	auipc	sp,0x603dc
    7978:	2a76a2b7          	lui	t0,0x2a76a
    797c:	8043e213          	ori	tp,t2,-2044
    7980:	291624b7          	lui	s1,0x29162
    7984:	001160b3          	or	ra,sp,ra
    7988:	4fb84193          	xori	gp,a6,1275
    798c:	46d17093          	andi	ra,sp,1133
    7990:	31dc3117          	auipc	sp,0x31dc3
    7994:	baa0e093          	ori	ra,ra,-1110
    7998:	16c48093          	addi	ra,s1,364 # 0x2916216c
    799c:	a8f38e93          	addi	t4,t2,-1393
    79a0:	ec4881b7          	lui	gp,0xec488
    79a4:	003182b3          	add	t0,gp,gp
    79a8:	62410113          	addi	sp,sp,1572 # 0x31dcafb4
    79ac:	9c70f213          	andi	tp,ra,-1593
    79b0:	003341b3          	xor	gp,t1,gp
    79b4:	00a1e3b3          	or	t2,gp,a0
    79b8:	94741137          	lui	sp,0x94741
    79bc:	00008193          	mv	gp,ra
    79c0:	da1188e3          	beq	gp,ra,0x7770
    79c4:	0026c1b3          	xor	gp,a3,sp
    79c8:	e4a1e313          	ori	t1,gp,-438
    79cc:	00010133          	add	sp,sp,zero
    79d0:	c88a1117          	auipc	sp,0xc88a1
    79d4:	9af94137          	lui	sp,0x9af94
    79d8:	7bbf81b7          	lui	gp,0x7bbf8
    79dc:	407100b3          	sub	ra,sp,t2
    79e0:	5a71d097          	auipc	ra,0x5a71d
    79e4:	ef31c393          	xori	t2,gp,-269
    79e8:	e2f1e193          	ori	gp,gp,-465
    79ec:	53710193          	addi	gp,sp,1335 # 0xffffffff9af94537
    79f0:	00c6c137          	lui	sp,0xc6c
    79f4:	00214333          	xor	t1,sp,sp
    79f8:	4f51f093          	andi	ra,gp,1269
    79fc:	403180b3          	sub	ra,gp,gp
    7a00:	f5a2f0b7          	lui	ra,0xf5a2f
    7a04:	0030f0b3          	and	ra,ra,gp
    7a08:	b0214213          	xori	tp,sp,-1278
    7a0c:	4c917113          	andi	sp,sp,1225
    7a10:	69035117          	auipc	sp,0x69035
    7a14:	4aa47017          	auipc	zero,0x4aa47
    7a18:	a28aa137          	lui	sp,0xa28aa
    7a1c:	3b5b4117          	auipc	sp,0x3b5b4
    7a20:	b762f093          	andi	ra,t0,-1162
    7a24:	46b00893          	li	a7,1131
    7a28:	43e0f337          	lui	t1,0x43e0f
    7a2c:	ceaa61b7          	lui	gp,0xceaa6
    7a30:	b66f6237          	lui	tp,0xb66f6
    7a34:	001171b3          	and	gp,sp,ra
    7a38:	011081b3          	add	gp,ra,a7
    7a3c:	c6a14113          	xori	sp,sp,-918
    7a40:	00000197          	auipc	gp,0x0
    7a44:	008180e7          	jalr	8(gp) # 0x7a48
    7a48:	15290117          	auipc	sp,0x15290
    7a4c:	4dfad1b7          	lui	gp,0x4dfad
    7a50:	403182b3          	sub	t0,gp,gp
    7a54:	b07b8137          	lui	sp,0xb07b8
    7a58:	40906113          	ori	sp,zero,1033
    7a5c:	87eeb117          	auipc	sp,0x87eeb
    7a60:	98973217          	auipc	tp,0x98973
    7a64:	b5244097          	auipc	ra,0xb5244
    7a68:	0c54a0b7          	lui	ra,0xc54a
    7a6c:	0f37a0b7          	lui	ra,0xf37a
    7a70:	4330e113          	ori	sp,ra,1075
    7a74:	72157313          	andi	t1,a0,1825
    7a78:	9c6621b7          	lui	gp,0x9c662
    7a7c:	002c0133          	add	sp,s8,sp
    7a80:	44ed7217          	auipc	tp,0x44ed7
    7a84:	5980f313          	andi	t1,ra,1432
    7a88:	63e38113          	addi	sp,t2,1598
    7a8c:	f7b09137          	lui	sp,0xf7b09
    7a90:	aff43197          	auipc	gp,0xaff43
    7a94:	0010f0b3          	and	ra,ra,ra
    7a98:	40118133          	sub	sp,gp,ra
    7a9c:	34224013          	xori	zero,tp,834
    7aa0:	404081b3          	sub	gp,ra,tp
    7aa4:	8c51f313          	andi	t1,gp,-1851
    7aa8:	a45710b7          	lui	ra,0xa4571
    7aac:	00b76133          	or	sp,a4,a1
    7ab0:	b7d1e193          	ori	gp,gp,-1155
    7ab4:	96699397          	auipc	t2,0x96699
    7ab8:	402301b3          	sub	gp,t1,sp
    7abc:	00227133          	and	sp,tp,sp
    7ac0:	7e956297          	auipc	t0,0x7e956
    7ac4:	0030f1b3          	and	gp,ra,gp
    7ac8:	1a4f1117          	auipc	sp,0x1a4f1
    7acc:	00208263          	beq	ra,sp,0x7ad0
    7ad0:	cc4ff1ef          	jal	gp,0x6f94
    7ad4:	003162b3          	or	t0,sp,gp
    7ad8:	0020c0b3          	xor	ra,ra,sp
    7adc:	003281b3          	add	gp,t0,gp
    7ae0:	74208193          	addi	gp,ra,1858 # 0xffffffffa4571742
    7ae4:	c3c1e093          	ori	ra,gp,-964
    7ae8:	f57d9137          	lui	sp,0xf57d9
    7aec:	0011e133          	or	sp,gp,ra
    7af0:	d950e137          	lui	sp,0xd950e
    7af4:	25f2c193          	xori	gp,t0,607
    7af8:	001e7333          	and	t1,t3,ra
    7afc:	88a10293          	addi	t0,sp,-1910 # 0xffffffffd950d88a
    7b00:	004601b7          	lui	gp,0x460
    7b04:	aeecc1b7          	lui	gp,0xaeecc
    7b08:	ff4491b7          	lui	gp,0xff449
    7b0c:	55ef61b7          	lui	gp,0x55ef6
    7b10:	bc86d217          	auipc	tp,0xbc86d
    7b14:	0031c033          	xor	zero,gp,gp
    7b18:	8d808293          	addi	t0,ra,-1832
    7b1c:	9034f113          	andi	sp,s1,-1789
    7b20:	56e39c97          	auipc	s9,0x56e39
    7b24:	35c18193          	addi	gp,gp,860 # 0x55ef635c
    7b28:	2a24e137          	lui	sp,0x2a24e
    7b2c:	2422b1b7          	lui	gp,0x2422b
    7b30:	aa686117          	auipc	sp,0xaa686
    7b34:	d1070197          	auipc	gp,0xd1070
    7b38:	0030f1b3          	and	gp,ra,gp
    7b3c:	1ded0297          	auipc	t0,0x1ded0
    7b40:	1d7da197          	auipc	gp,0x1d7da
    7b44:	cddd8137          	lui	sp,0xcddd8
    7b48:	33216117          	auipc	sp,0x33216
    7b4c:	4fd08793          	addi	a5,ra,1277
    7b50:	4516d197          	auipc	gp,0x4516d
    7b54:	01630263          	beq	t1,s6,0x7b58
    7b58:	225001ef          	jal	gp,0x857c
    7b5c:	ae0d5137          	lui	sp,0xae0d5
    7b60:	6329f197          	auipc	gp,0x6329f
    7b64:	0041f133          	and	sp,gp,tp
    7b68:	28dcd017          	auipc	zero,0x28dcd
    7b6c:	00320c33          	add	s8,tp,gp
    7b70:	41418333          	sub	t1,gp,s4
    7b74:	dec17113          	andi	sp,sp,-532
    7b78:	c0ca6217          	auipc	tp,0xc0ca6
    7b7c:	403b00b3          	sub	ra,s6,gp
    7b80:	8eb16193          	ori	gp,sp,-1813
    7b84:	005180b3          	add	ra,gp,t0
    7b88:	754aa1b7          	lui	gp,0x754aa
    7b8c:	afb3f0b7          	lui	ra,0xafb3f
    7b90:	1d10c113          	xori	sp,ra,465
    7b94:	3adfd1b7          	lui	gp,0x3adfd
    7b98:	3e549197          	auipc	gp,0x3e549
    7b9c:	40318333          	sub	t1,gp,gp
    7ba0:	40138133          	sub	sp,t2,ra
    7ba4:	ea66f113          	andi	sp,a3,-346
    7ba8:	400301b3          	sub	gp,t1,zero
    7bac:	0011e333          	or	t1,gp,ra
    7bb0:	9ea2f013          	andi	zero,t0,-1558
    7bb4:	66b0e193          	ori	gp,ra,1643
    7bb8:	40138333          	sub	t1,t2,ra
    7bbc:	449a2137          	lui	sp,0x449a2
    7bc0:	a212e093          	ori	ra,t0,-1503
    7bc4:	ad625037          	lui	zero,0xad625
    7bc8:	4ca30197          	auipc	gp,0x4ca30
    7bcc:	76e00693          	li	a3,1902
    7bd0:	d50bf117          	auipc	sp,0xd50bf
    7bd4:	002141b3          	xor	gp,sp,sp
    7bd8:	0428e093          	ori	ra,a7,66
    7bdc:	8ccc4097          	auipc	ra,0x8ccc4
    7be0:	22110a63          	beq	sp,ra,0x7e14
    7be4:	230001ef          	jal	gp,0x7e14
    7be8:	b8d37093          	andi	ra,t1,-1139
    7bec:	268f8113          	addi	sp,t6,616 # 0xffffffff8f29291c
    7bf0:	47eab137          	lui	sp,0x47eab
    7bf4:	c8e1b197          	auipc	gp,0xc8e1b
    7bf8:	13ac1237          	lui	tp,0x13ac1
    7bfc:	b20720b7          	lui	ra,0xb2072
    7c00:	ab80f013          	andi	zero,ra,-1352
    7c04:	f46c1097          	auipc	ra,0xf46c1
    7c08:	26aa83b7          	lui	t2,0x26aa8
    7c0c:	b0e16093          	ori	ra,sp,-1266
    7c10:	7cc17013          	andi	zero,sp,1996
    7c14:	b4b6e097          	auipc	ra,0xb4b6e
    7c18:	00d680b3          	add	ra,a3,a3
    7c1c:	003301b3          	add	gp,t1,gp
    7c20:	0570f313          	andi	t1,ra,87
    7c24:	cf708313          	addi	t1,ra,-777 # 0xffffffffb4b7590b
    7c28:	90b08113          	addi	sp,ra,-1781
    7c2c:	048791b7          	lui	gp,0x4879
    7c30:	678e50b7          	lui	ra,0x678e5
    7c34:	5e834093          	xori	ra,t1,1512
    7c38:	e6183317          	auipc	t1,0xe6183
    7c3c:	fdc917b7          	lui	a5,0xfdc91
    7c40:	315e8097          	auipc	ra,0x315e8
    7c44:	0040e033          	or	zero,ra,tp
    7c48:	3b526197          	auipc	gp,0x3b526
    7c4c:	00218133          	add	sp,gp,sp
    7c50:	b63ef317          	auipc	t1,0xb63ef
    7c54:	d75521b7          	lui	gp,0xd7552
    7c58:	2b404093          	xori	ra,zero,692
    7c5c:	1e117113          	andi	sp,sp,481
    7c60:	003161b3          	or	gp,sp,gp
    7c64:	b78d2017          	auipc	zero,0xb78d2
    7c68:	c7307013          	andi	zero,zero,-909
    7c6c:	2c308263          	beq	ra,gp,0x7f30
    7c70:	2c0001ef          	jal	gp,0x7f30
    7c74:	fd1bd097          	auipc	ra,0xfd1bd
    7c78:	ed330093          	addi	ra,t1,-301 # 0xffffffffb63f6b23
    7c7c:	ad946117          	auipc	sp,0xad946
    7c80:	b1408393          	addi	t2,ra,-1260 # 0xfffffffffd1c4788
    7c84:	958dd137          	lui	sp,0x958dd
    7c88:	003523b7          	lui	t2,0x352
    7c8c:	ec79b1b7          	lui	gp,0xec79b
    7c90:	e0c36113          	ori	sp,t1,-500
    7c94:	a2600213          	li	tp,-1498
    7c98:	c0a4a097          	auipc	ra,0xc0a4a
    7c9c:	57c6d3b7          	lui	t2,0x57c6d
    7ca0:	004070b3          	and	ra,zero,tp
    7ca4:	0020e1b3          	or	gp,ra,sp
    7ca8:	e1a7e0b7          	lui	ra,0xe1a7e
    7cac:	66283097          	auipc	ra,0x66283
    7cb0:	403081b3          	sub	gp,ra,gp
    7cb4:	cc0520b7          	lui	ra,0xcc052
    7cb8:	402c8133          	sub	sp,s9,sp
    7cbc:	cd77e417          	auipc	s0,0xcd77e
    7cc0:	67f91617          	auipc	a2,0x67f91
    7cc4:	ca046197          	auipc	gp,0xca046
    7cc8:	4a501117          	auipc	sp,0x4a501
    7ccc:	ed418193          	addi	gp,gp,-300 # 0xffffffffca04db98
    7cd0:	54e040b7          	lui	ra,0x54e04
    7cd4:	145cb097          	auipc	ra,0x145cb
    7cd8:	002172b3          	and	t0,sp,sp
    7cdc:	633b3697          	auipc	a3,0x633b3
    7ce0:	0064f133          	and	sp,s1,t1
    7ce4:	0040e533          	or	a0,ra,tp
    7ce8:	1198b137          	lui	sp,0x1198b
    7cec:	32070337          	lui	t1,0x32070
    7cf0:	2fd2a197          	auipc	gp,0x2fd2a
    7cf4:	5a308663          	beq	ra,gp,0x82a0
    7cf8:	5a8000ef          	jal	ra,0x82a0
    7cfc:	7cb900b7          	lui	ra,0x7cb90
    7d00:	40a00133          	neg	sp,a0
    7d04:	84b64eb7          	lui	t4,0x84b64
    7d08:	0010c0b3          	xor	ra,ra,ra
    7d0c:	bfe08113          	addi	sp,ra,-1026 # 0x7cb8fbfe
    7d10:	401303b3          	sub	t2,t1,ra
    7d14:	03324093          	xori	ra,tp,51
    7d18:	62e1e193          	ori	gp,gp,1582
    7d1c:	681c4113          	xori	sp,s8,1665
    7d20:	1f038137          	lui	sp,0x1f038
    7d24:	20f003b7          	lui	t2,0x20f00
    7d28:	a7dcf097          	auipc	ra,0xa7dcf
    7d2c:	e324f217          	auipc	tp,0xe324f
    7d30:	0521e193          	ori	gp,gp,82
    7d34:	541e6413          	ori	s0,t3,1345
    7d38:	cb11a297          	auipc	t0,0xcb11a
    7d3c:	65acd0b7          	lui	ra,0x65acd
    7d40:	0060e133          	or	sp,ra,t1
    7d44:	0012e133          	or	sp,t0,ra
    7d48:	67fc6137          	lui	sp,0x67fc6
    7d4c:	0030e133          	or	sp,ra,gp
    7d50:	007372b3          	and	t0,t1,t2
    7d54:	c6bca197          	auipc	gp,0xc6bca
    7d58:	0036f0b3          	and	ra,a3,gp
    7d5c:	0013c0b3          	xor	ra,t2,ra
    7d60:	7e01e013          	ori	zero,gp,2016
    7d64:	007270b3          	and	ra,tp,t2
    7d68:	6df5e0b7          	lui	ra,0x6df5e
    7d6c:	aa858097          	auipc	ra,0xaa858
    7d70:	894d10b7          	lui	ra,0x894d1
    7d74:	00018193          	mv	gp,gp
    7d78:	12318e63          	beq	gp,gp,0x7eb4
    7d7c:	05224313          	xori	t1,tp,82
    7d80:	a165f137          	lui	sp,0xa165f
    7d84:	1df10193          	addi	gp,sp,479 # 0xffffffffa165f1df
    7d88:	37514193          	xori	gp,sp,885
    7d8c:	7ed9a237          	lui	tp,0x7ed9a
    7d90:	e21010b7          	lui	ra,0xe2101
    7d94:	1f9481b7          	lui	gp,0x1f948
    7d98:	fb71f197          	auipc	gp,0xfb71f
    7d9c:	5fbb7397          	auipc	t2,0x5fbb7
    7da0:	8862c097          	auipc	ra,0x8862c
    7da4:	2efd3137          	lui	sp,0x2efd3
    7da8:	003040b3          	xor	ra,zero,gp
    7dac:	0862d1b7          	lui	gp,0x862d
    7db0:	69d96337          	lui	t1,0x69d96
    7db4:	51026113          	ori	sp,tp,1296
    7db8:	ddbe70b7          	lui	ra,0xddbe7
    7dbc:	27479117          	auipc	sp,0x27479
    7dc0:	001165b3          	or	a1,sp,ra
    7dc4:	2737d117          	auipc	sp,0x2737d
    7dc8:	3510f193          	andi	gp,ra,849
    7dcc:	0030cdb3          	xor	s11,ra,gp
    7dd0:	7722b197          	auipc	gp,0x7722b
    7dd4:	6844f0b7          	lui	ra,0x6844f
    7dd8:	00108133          	add	sp,ra,ra
    7ddc:	7d916137          	lui	sp,0x7d916
    7de0:	e6f0e093          	ori	ra,ra,-401
    7de4:	30c0e193          	ori	gp,ra,780
    7de8:	1fc89117          	auipc	sp,0x1fc89
    7dec:	99b820b7          	lui	ra,0x99b82
    7df0:	000181b3          	add	gp,gp,zero
    7df4:	002101b3          	add	gp,sp,sp
    7df8:	00d0c013          	xori	zero,ra,13
    7dfc:	3440b2b7          	lui	t0,0x3440b
    7e00:	5090e093          	ori	ra,ra,1289
    7e04:	3251f193          	andi	gp,gp,805
    7e08:	0030c1b3          	xor	gp,ra,gp
    7e0c:	2e110063          	beq	sp,ra,0x80ec
    7e10:	2dc000ef          	jal	ra,0x80ec
    7e14:	8ae601b7          	lui	gp,0x8ae60
    7e18:	cb5b9097          	auipc	ra,0xcb5b9
    7e1c:	7136a137          	lui	sp,0x7136a
    7e20:	a7441437          	lui	s0,0xa7441
    7e24:	c3b0c197          	auipc	gp,0xc3b0c
    7e28:	2f0c1117          	auipc	sp,0x2f0c1
    7e2c:	00f0f1b3          	and	gp,ra,a5
    7e30:	c7a3f097          	auipc	ra,0xc7a3f
    7e34:	face60b7          	lui	ra,0xface6
    7e38:	48414193          	xori	gp,sp,1156
    7e3c:	01614133          	xor	sp,sp,s6
    7e40:	9b238017          	auipc	zero,0x9b238
    7e44:	a86f7393          	andi	t2,t5,-1402
    7e48:	4b03f313          	andi	t1,t2,1200
    7e4c:	b311f013          	andi	zero,gp,-1231
    7e50:	f511c093          	xori	ra,gp,-175
    7e54:	0bab10b7          	lui	ra,0xbab1
    7e58:	4775c0b7          	lui	ra,0x4775c
    7e5c:	b5d14193          	xori	gp,sp,-1187
    7e60:	cda95297          	auipc	t0,0xcda95
    7e64:	d6e1e093          	ori	ra,gp,-658
    7e68:	c58761b7          	lui	gp,0xc5876
    7e6c:	b9ca3097          	auipc	ra,0xb9ca3
    7e70:	00110233          	add	tp,sp,ra
    7e74:	08c36113          	ori	sp,t1,140
    7e78:	7d7c3097          	auipc	ra,0x7d7c3
    7e7c:	c3150337          	lui	t1,0xc3150
    7e80:	726fd097          	auipc	ra,0x726fd
    7e84:	a5d18393          	addi	t2,gp,-1443 # 0xffffffffc5875a5d
    7e88:	001f81b3          	add	gp,t6,ra
    7e8c:	98e17193          	andi	gp,sp,-1650
    7e90:	5dd0f113          	andi	sp,ra,1501
    7e94:	94924313          	xori	t1,tp,-1719
    7e98:	0061e133          	or	sp,gp,t1
    7e9c:	02b1c113          	xori	sp,gp,43
    7ea0:	001180b3          	add	ra,gp,ra
    7ea4:	0041f033          	and	zero,gp,tp
    7ea8:	a3dde097          	auipc	ra,0xa3dde
    7eac:	000f8113          	mv	sp,t6
    7eb0:	7df10e63          	beq	sp,t6,0x868c
    7eb4:	37816213          	ori	tp,sp,888
    7eb8:	a1a1c093          	xori	ra,gp,-1510
    7ebc:	0a20c593          	xori	a1,ra,162
    7ec0:	0020c1b3          	xor	gp,ra,sp
    7ec4:	f59f6117          	auipc	sp,0xf59f6
    7ec8:	72208113          	addi	sp,ra,1826 # 0xffffffffa3de65ca
    7ecc:	0011c1b3          	xor	gp,gp,ra
    7ed0:	5da0c193          	xori	gp,ra,1498
    7ed4:	1acec0b7          	lui	ra,0x1acec
    7ed8:	00116133          	or	sp,sp,ra
    7edc:	0d481d37          	lui	s10,0xd481
    7ee0:	d4a1d697          	auipc	a3,0xd4a1d
    7ee4:	ec30c193          	xori	gp,ra,-317
    7ee8:	221ef1b7          	lui	gp,0x221ef
    7eec:	3a37d317          	auipc	t1,0x3a37d
    7ef0:	403006b3          	neg	a3,gp
    7ef4:	00317133          	and	sp,sp,gp
    7ef8:	06cfd2b7          	lui	t0,0x6cfd
    7efc:	9c117093          	andi	ra,sp,-1599
    7f00:	07a1b197          	auipc	gp,0x7a1b
    7f04:	d1c3a1b7          	lui	gp,0xd1c3a
    7f08:	00110133          	add	sp,sp,ra
    7f0c:	0075c133          	xor	sp,a1,t2
    7f10:	f4430713          	addi	a4,t1,-188 # 0x3a384e30
    7f14:	00527133          	and	sp,tp,t0
    7f18:	74eef137          	lui	sp,0x74eef
    7f1c:	122d71b7          	lui	gp,0x122d7
    7f20:	0032f0b3          	and	ra,t0,gp
    7f24:	52217313          	andi	t1,sp,1314
    7f28:	00000217          	auipc	tp,0x0
    7f2c:	c3420167          	jalr	sp,-972(tp) # 0x0
    7f30:	a2861317          	auipc	t1,0xa2861
    7f34:	001341b3          	xor	gp,t1,ra
    7f38:	bf4ca137          	lui	sp,0xbf4ca
    7f3c:	3281e193          	ori	gp,gp,808
    7f40:	f71ad337          	lui	t1,0xf71ad
    7f44:	0020f133          	and	sp,ra,sp
    7f48:	00214133          	xor	sp,sp,sp
    7f4c:	ebb24093          	xori	ra,tp,-325
    7f50:	c2db80b7          	lui	ra,0xc2db8
    7f54:	0020cb33          	xor	s6,ra,sp
    7f58:	0013f1b3          	and	gp,t2,ra
    7f5c:	00717133          	and	sp,sp,t2
    7f60:	a050e093          	ori	ra,ra,-1531
    7f64:	5920b137          	lui	sp,0x5920b
    7f68:	e7f10193          	addi	gp,sp,-385 # 0x5920ae7f
    7f6c:	40410133          	sub	sp,sp,tp
    7f70:	4061c393          	xori	t2,gp,1030
    7f74:	f2490337          	lui	t1,0xf2490
    7f78:	80b1f193          	andi	gp,gp,-2037
    7f7c:	a60c1317          	auipc	t1,0xa60c1
    7f80:	0716a017          	auipc	zero,0x716a
    7f84:	5c8bc0b7          	lui	ra,0x5c8bc
    7f88:	665ec1b7          	lui	gp,0x665ec
    7f8c:	29617313          	andi	t1,sp,662
    7f90:	f161e313          	ori	t1,gp,-234
    7f94:	d85ae137          	lui	sp,0xd85ae
    7f98:	0011e3b3          	or	t2,gp,ra
    7f9c:	f7c67093          	andi	ra,a2,-132
    7fa0:	26714113          	xori	sp,sp,615
    7fa4:	689d6137          	lui	sp,0x689d6
    7fa8:	0010c133          	xor	sp,ra,ra
    7fac:	7445d137          	lui	sp,0x7445d
    7fb0:	281c4117          	auipc	sp,0x281c4
    7fb4:	d218d397          	auipc	t2,0xd218d
    7fb8:	d140c193          	xori	gp,ra,-748
    7fbc:	d8716093          	ori	ra,sp,-633
    7fc0:	03c5c113          	xori	sp,a1,60
    7fc4:	00028213          	mv	tp,t0
    7fc8:	40520863          	beq	tp,t0,0x83d8
    7fcc:	a2a150b7          	lui	ra,0xa2a15
    7fd0:	c616e697          	auipc	a3,0xc616e
    7fd4:	403300b3          	sub	ra,t1,gp
    7fd8:	09a1f893          	andi	a7,gp,154
    7fdc:	fa372697          	auipc	a3,0xfa372
    7fe0:	ebc75237          	lui	tp,0xebc75
    7fe4:	aa63b117          	auipc	sp,0xaa63b
    7fe8:	14303017          	auipc	zero,0x14303
    7fec:	ddbfc1b7          	lui	gp,0xddbfc
    7ff0:	0f818193          	addi	gp,gp,248 # 0xffffffffddbfc0f8
    7ff4:	7429c1b7          	lui	gp,0x7429c
    7ff8:	003060b3          	or	ra,zero,gp
    7ffc:	33b07113          	andi	sp,zero,827
    8000:	19b8b0b7          	lui	ra,0x19b8b
    8004:	eef1f293          	andi	t0,gp,-273
    8008:	ebd18193          	addi	gp,gp,-323 # 0x7429bebd
    800c:	9888e197          	auipc	gp,0x9888e
    8010:	bd900217          	auipc	tp,0xbd900
    8014:	1030c2b7          	lui	t0,0x1030c
    8018:	0070c1b3          	xor	gp,ra,t2
    801c:	96e14313          	xori	t1,sp,-1682
    8020:	07d6b137          	lui	sp,0x7d6b
    8024:	0a0b1197          	auipc	gp,0xa0b1
    8028:	cb3e01b7          	lui	gp,0xcb3e0
    802c:	004181b3          	add	gp,gp,tp
    8030:	59d4c097          	auipc	ra,0x59d4c
    8034:	adc3f197          	auipc	gp,0xadc3f
    8038:	9b016193          	ori	gp,sp,-1616
    803c:	00116133          	or	sp,sp,ra
    8040:	9bbfa1b7          	lui	gp,0x9bbfa
    8044:	e9bab0b7          	lui	ra,0xe9bab
    8048:	24d10113          	addi	sp,sp,589 # 0x7d6b24d
    804c:	3907f0b7          	lui	ra,0x3907f
    8050:	403c8133          	sub	sp,s9,gp
    8054:	00018113          	mv	sp,gp
    8058:	00310263          	beq	sp,gp,0x805c
    805c:	9550f097          	auipc	ra,0x9550f
    8060:	426b8017          	auipc	zero,0x426b8
    8064:	001100b3          	add	ra,sp,ra
    8068:	9d365137          	lui	sp,0x9d365
    806c:	42ae2097          	auipc	ra,0x42ae2
    8070:	d0cb38b7          	lui	a7,0xd0cb3
    8074:	d9055597          	auipc	a1,0xd9055
    8078:	0040c1b3          	xor	gp,ra,tp
    807c:	ff917093          	andi	ra,sp,-7
    8080:	d2ac30b7          	lui	ra,0xd2ac3
    8084:	0020c1b3          	xor	gp,ra,sp
    8088:	002161b3          	or	gp,sp,sp
    808c:	d5c27393          	andi	t2,tp,-676
    8090:	0011c133          	xor	sp,gp,ra
    8094:	c4fa50b7          	lui	ra,0xc4fa5
    8098:	e7bcf337          	lui	t1,0xe7bcf
    809c:	db50e193          	ori	gp,ra,-587
    80a0:	fcad61b7          	lui	gp,0xfcad6
    80a4:	0027c0b3          	xor	ra,a5,sp
    80a8:	fba1a117          	auipc	sp,0xfba1a
    80ac:	0dbeb0b7          	lui	ra,0xdbeb
    80b0:	62d1f213          	andi	tp,gp,1581
    80b4:	1da17093          	andi	ra,sp,474
    80b8:	31a0f793          	andi	a5,ra,794
    80bc:	3bec31b7          	lui	gp,0x3bec3
    80c0:	40110033          	sub	zero,sp,ra
    80c4:	2d514193          	xori	gp,sp,725
    80c8:	eb70b137          	lui	sp,0xeb70b
    80cc:	b83cf6b7          	lui	a3,0xb83cf
    80d0:	97a42297          	auipc	t0,0x97a42
    80d4:	6e883097          	auipc	ra,0x6e883
    80d8:	001272b3          	and	t0,tp,ra
    80dc:	00306133          	or	sp,zero,gp
    80e0:	005200b3          	add	ra,tp,t0
    80e4:	00018113          	mv	sp,gp
    80e8:	08310663          	beq	sp,gp,0x8174
    80ec:	7580c093          	xori	ra,ra,1880
    80f0:	7d116217          	auipc	tp,0x7d116
    80f4:	6b798117          	auipc	sp,0x6b798
    80f8:	1511f093          	andi	ra,gp,337
    80fc:	fcceb337          	lui	t1,0xfcceb
    8100:	0f33f093          	andi	ra,t2,243
    8104:	9252e093          	ori	ra,t0,-1755
    8108:	a7f10313          	addi	t1,sp,-1409 # 0x6b79fb73
    810c:	c9a170b7          	lui	ra,0xc9a17
    8110:	24646197          	auipc	gp,0x24646
    8114:	0033e133          	or	sp,t2,gp
    8118:	052ed117          	auipc	sp,0x52ed
    811c:	f867b117          	auipc	sp,0xf867b
    8120:	78604337          	lui	t1,0x78604
    8124:	45108093          	addi	ra,ra,1105 # 0xffffffffc9a17451
    8128:	45108113          	addi	sp,ra,1105
    812c:	307e80b7          	lui	ra,0x307e8
    8130:	003301b3          	add	gp,t1,gp
    8134:	a8908113          	addi	sp,ra,-1399 # 0x307e7a89
    8138:	403300b3          	sub	ra,t1,gp
    813c:	38146f37          	lui	t5,0x38146
    8140:	d3e1e193          	ori	gp,gp,-706
    8144:	0011e1b3          	or	gp,gp,ra
    8148:	000371b3          	and	gp,t1,zero
    814c:	5481c137          	lui	sp,0x5481c
    8150:	43bd1237          	lui	tp,0x43bd1
    8154:	0b01a117          	auipc	sp,0xb01a
    8158:	403380b3          	sub	ra,t2,gp
    815c:	0ceeb1b7          	lui	gp,0xceeb
    8160:	9ae2a197          	auipc	gp,0x9ae2a
    8164:	a87f71b7          	lui	gp,0xa87f7
    8168:	2c5c0137          	lui	sp,0x2c5c0
    816c:	36610663          	beq	sp,t1,0x84d8
    8170:	368001ef          	jal	gp,0x84d8
    8174:	8470f093          	andi	ra,ra,-1977
    8178:	8b908093          	addi	ra,ra,-1863
    817c:	fdd36113          	ori	sp,t1,-35
    8180:	00118133          	add	sp,gp,ra
    8184:	b0c5c313          	xori	t1,a1,-1268
    8188:	00338133          	add	sp,t2,gp
    818c:	c4356217          	auipc	tp,0xc4356
    8190:	c4f17093          	andi	ra,sp,-945
    8194:	2c800613          	li	a2,712
    8198:	0003c4b3          	xor	s1,t2,zero
    819c:	32817093          	andi	ra,sp,808
    81a0:	eda7b0b7          	lui	ra,0xeda7b
    81a4:	748c0117          	auipc	sp,0x748c0
    81a8:	a790f097          	auipc	ra,0xa790f
    81ac:	b142c093          	xori	ra,t0,-1260
    81b0:	b3d10113          	addi	sp,sp,-1219 # 0x748c7ce1
    81b4:	00614333          	xor	t1,sp,t1
    81b8:	58411097          	auipc	ra,0x58411
    81bc:	b6291117          	auipc	sp,0xb6291
    81c0:	22f78193          	addi	gp,a5,559 # 0xfffffffffdc9122f
    81c4:	c5668137          	lui	sp,0xc5668
    81c8:	6de14193          	xori	gp,sp,1758
    81cc:	3f4e43b7          	lui	t2,0x3f4e4
    81d0:	0020f133          	and	sp,ra,sp
    81d4:	d931c013          	xori	zero,gp,-621
    81d8:	def0c097          	auipc	ra,0xdef0c
    81dc:	4ef0ba97          	auipc	s5,0x4ef0b
    81e0:	f7d7a097          	auipc	ra,0xf7d7a
    81e4:	00424133          	xor	sp,tp,tp
    81e8:	a7b43197          	auipc	gp,0xa7b43
    81ec:	61afb1b7          	lui	gp,0x61afb
    81f0:	bb307393          	andi	t2,zero,-1101
    81f4:	0031f0b3          	and	ra,gp,gp
    81f8:	81996097          	auipc	ra,0x81996
    81fc:	00018113          	mv	sp,gp
    8200:	00310263          	beq	sp,gp,0x8204
    8204:	58018393          	addi	t2,gp,1408 # 0x61afb580
    8208:	b38fe217          	auipc	tp,0xb38fe
    820c:	e4c17093          	andi	ra,sp,-436
    8210:	db310793          	addi	a5,sp,-589 # 0xffffffffc5667db3
    8214:	0020e133          	or	sp,ra,sp
    8218:	00114133          	xor	sp,sp,ra
    821c:	00207133          	and	sp,zero,sp
    8220:	41914797          	auipc	a5,0x41914
    8224:	df61e013          	ori	zero,gp,-522
    8228:	8df3e097          	auipc	ra,0x8df3e
    822c:	f1bf4097          	auipc	ra,0xf1bf4
    8230:	d628a197          	auipc	gp,0xd628a
    8234:	d71fa497          	auipc	s1,0xd71fa
    8238:	9db1d1b7          	lui	gp,0x9db1d
    823c:	0021fd33          	and	s10,gp,sp
    8240:	71c3e097          	auipc	ra,0x71c3e
    8244:	d7328113          	addi	sp,t0,-653 # 0xffffffff97a49e43
    8248:	7510c093          	xori	ra,ra,1873
    824c:	001171b3          	and	gp,sp,ra
    8250:	404101b3          	sub	gp,sp,tp
    8254:	159a33b7          	lui	t2,0x159a3
    8258:	50c7f197          	auipc	gp,0x50c7f
    825c:	67c0e793          	ori	a5,ra,1660
    8260:	00b1f1b3          	and	gp,gp,a1
    8264:	aa4a20b7          	lui	ra,0xaa4a2
    8268:	007406b3          	add	a3,s0,t2
    826c:	66517193          	andi	gp,sp,1637
    8270:	0101e0b3          	or	ra,gp,a6
    8274:	004081b3          	add	gp,ra,tp
    8278:	c7e9e4b7          	lui	s1,0xc7e9e
    827c:	403fa917          	auipc	s2,0x403fa
    8280:	cb9a41b7          	lui	gp,0xcb9a4
    8284:	d8752037          	lui	zero,0xd8752
    8288:	0010e133          	or	sp,ra,ra
    828c:	e969b1b7          	lui	gp,0xe969b
    8290:	16bfc017          	auipc	zero,0x16bfc
    8294:	a846e0b7          	lui	ra,0xa846e
    8298:	ae6382e3          	beq	t2,t1,0x7d7c
    829c:	ae1ff1ef          	jal	gp,0x7d7c
    82a0:	0011e133          	or	sp,gp,ra
    82a4:	40020133          	sub	sp,tp,zero
    82a8:	40310c33          	sub	s8,sp,gp
    82ac:	da31c113          	xori	sp,gp,-605
    82b0:	2bebb197          	auipc	gp,0x2bebb
    82b4:	0007e2b3          	or	t0,a5,zero
    82b8:	00517133          	and	sp,sp,t0
    82bc:	284a5097          	auipc	ra,0x284a5
    82c0:	a389d3b7          	lui	t2,0xa389d
    82c4:	95ab7317          	auipc	t1,0x95ab7
    82c8:	40310bb3          	sub	s7,sp,gp
    82cc:	4d764093          	xori	ra,a2,1239
    82d0:	0026f1b3          	and	gp,a3,sp
    82d4:	003101b3          	add	gp,sp,gp
    82d8:	ed928337          	lui	t1,0xed928
    82dc:	0020e0b3          	or	ra,ra,sp
    82e0:	75a5e117          	auipc	sp,0x75a5e
    82e4:	66d93097          	auipc	ra,0x66d93
    82e8:	40310133          	sub	sp,sp,gp
    82ec:	003100b3          	add	ra,sp,gp
    82f0:	14da43b7          	lui	t2,0x14da4
    82f4:	696cf117          	auipc	sp,0x696cf
    82f8:	a007f193          	andi	gp,a5,-1536
    82fc:	2b45f0b7          	lui	ra,0x2b45f
    8300:	006a40b3          	xor	ra,s4,t1
    8304:	113fd137          	lui	sp,0x113fd
    8308:	00610c33          	add	s8,sp,t1
    830c:	15b25117          	auipc	sp,0x15b25
    8310:	9b210113          	addi	sp,sp,-1614 # 0x15b2ccbe
    8314:	401103b3          	sub	t2,sp,ra
    8318:	0031e3b3          	or	t2,gp,gp
    831c:	00117233          	and	tp,sp,ra
    8320:	e6746037          	lui	zero,0xe6746
    8324:	442ca1b7          	lui	gp,0x442ca
    8328:	dfec6117          	auipc	sp,0xdfec6
    832c:	00b30133          	add	sp,t1,a1
    8330:	4b387197          	auipc	gp,0x4b387
    8334:	8a110ae3          	beq	sp,ra,0x7be8
    8338:	8b1ff0ef          	jal	ra,0x7be8
    833c:	8bc200b7          	lui	ra,0x8bc20
    8340:	ab10f093          	andi	ra,ra,-1359
    8344:	0ed0c093          	xori	ra,ra,237
    8348:	400180b3          	sub	ra,gp,zero
    834c:	b4410193          	addi	gp,sp,-1212 # 0xffffffffdfecde6c
    8350:	f2d6f293          	andi	t0,a3,-211
    8354:	af55d0b7          	lui	ra,0xaf55d
    8358:	90e10113          	addi	sp,sp,-1778
    835c:	c1b0e093          	ori	ra,ra,-997
    8360:	20b440b7          	lui	ra,0x20b44
    8364:	bff2e113          	ori	sp,t0,-1025
    8368:	001170b3          	and	ra,sp,ra
    836c:	404f00b3          	sub	ra,t5,tp
    8370:	31e00193          	li	gp,798
    8374:	27117113          	andi	sp,sp,625
    8378:	72a0e093          	ori	ra,ra,1834
    837c:	cf508093          	addi	ra,ra,-779 # 0x20b43cf5
    8380:	482af017          	auipc	zero,0x482af
    8384:	00014233          	xor	tp,sp,zero
    8388:	002140b3          	xor	ra,sp,sp
    838c:	404101b3          	sub	gp,sp,tp
    8390:	082190b7          	lui	ra,0x8219
    8394:	d2b08213          	addi	tp,ra,-725 # 0x8218d2b
    8398:	52336113          	ori	sp,t1,1315
    839c:	5fd14113          	xori	sp,sp,1533
    83a0:	90d2b117          	auipc	sp,0x90d2b
    83a4:	0040e0b3          	or	ra,ra,tp
    83a8:	3fee5197          	auipc	gp,0x3fee5
    83ac:	01c1c193          	xori	gp,gp,28
    83b0:	50280097          	auipc	ra,0x50280
    83b4:	60f0e093          	ori	ra,ra,1551
    83b8:	93816013          	ori	zero,sp,-1736
    83bc:	007983b3          	add	t2,s3,t2
    83c0:	fbdcf037          	lui	zero,0xfbdcf
    83c4:	0fdc5117          	auipc	sp,0xfdc5
    83c8:	403281b3          	sub	gp,t0,gp
    83cc:	0013c133          	xor	sp,t2,ra
    83d0:	8a0382e3          	beqz	t2,0x7c74
    83d4:	8a1ff1ef          	jal	gp,0x7c74
    83d8:	01a16333          	or	t1,sp,s10
    83dc:	00542117          	auipc	sp,0x542
    83e0:	e030f193          	andi	gp,ra,-509
    83e4:	0015e133          	or	sp,a1,ra
    83e8:	007181b3          	add	gp,gp,t2
    83ec:	6d720137          	lui	sp,0x6d720
    83f0:	db6cf297          	auipc	t0,0xdb6cf
    83f4:	9c0a6097          	auipc	ra,0x9c0a6
    83f8:	29df9297          	auipc	t0,0x29df9
    83fc:	4f80e013          	ori	zero,ra,1272
    8400:	c301f013          	andi	zero,gp,-976
    8404:	9bc9e117          	auipc	sp,0x9bc9e
    8408:	bd3e00b7          	lui	ra,0xbd3e0
    840c:	0051f133          	and	sp,gp,t0
    8410:	70b1e117          	auipc	sp,0x70b1e
    8414:	9054f117          	auipc	sp,0x9054f
    8418:	0031f1b3          	and	gp,gp,gp
    841c:	006371b3          	and	gp,t1,t1
    8420:	7c659137          	lui	sp,0x7c659
    8424:	eb104113          	xori	sp,zero,-335
    8428:	003e8133          	add	sp,t4,gp
    842c:	fdf79337          	lui	t1,0xfdf79
    8430:	003081b3          	add	gp,ra,gp
    8434:	c08bf797          	auipc	a5,0xc08bf
    8438:	40110133          	sub	sp,sp,ra
    843c:	70559117          	auipc	sp,0x70559
    8440:	02eed0b7          	lui	ra,0x2eed
    8444:	ba55e197          	auipc	gp,0xba55e
    8448:	55566117          	auipc	sp,0x55566
    844c:	00138263          	beq	t2,ra,0x8450
    8450:	e84ff16f          	jal	sp,0x7ad4
    8454:	000101b3          	add	gp,sp,zero
    8458:	0040c1b3          	xor	gp,ra,tp
    845c:	82e50197          	auipc	gp,0x82e50
    8460:	003161b3          	or	gp,sp,gp
    8464:	fdd26213          	ori	tp,tp,-35
    8468:	ddf9d117          	auipc	sp,0xddf9d
    846c:	97fe7117          	auipc	sp,0x97fe7
    8470:	fa982097          	auipc	ra,0xfa982
    8474:	002361b3          	or	gp,t1,sp
    8478:	752b2117          	auipc	sp,0x752b2
    847c:	401301b3          	sub	gp,t1,ra
    8480:	c7b07193          	andi	gp,zero,-901
    8484:	e751c213          	xori	tp,gp,-395
    8488:	dad0c093          	xori	ra,ra,-595
    848c:	00136133          	or	sp,t1,ra
    8490:	003081b3          	add	gp,ra,gp
    8494:	004781b3          	add	gp,a5,tp
    8498:	23468697          	auipc	a3,0x23468
    849c:	bce77797          	auipc	a5,0xbce77
    84a0:	40208133          	sub	sp,ra,sp
    84a4:	5d6d0193          	addi	gp,s10,1494 # 0xd4815d6
    84a8:	d444e1b7          	lui	gp,0xd444e
    84ac:	b2214097          	auipc	ra,0xb2214
    84b0:	0010f233          	and	tp,ra,ra
    84b4:	75c18093          	addi	ra,gp,1884 # 0xffffffffd444e75c
    84b8:	bc2fceb7          	lui	t4,0xbc2fc
    84bc:	d090e213          	ori	tp,ra,-759
    84c0:	ec03f1b7          	lui	gp,0xec03f
    84c4:	c9c9b137          	lui	sp,0xc9c9b
    84c8:	10507297          	auipc	t0,0x10507
    84cc:	cd3e90b7          	lui	ra,0xcd3e9
    84d0:	ae110ee3          	beq	sp,ra,0x7fcc
    84d4:	af9ff16f          	jal	sp,0x7fcc
    84d8:	2c216293          	ori	t0,sp,706
    84dc:	634bc3b7          	lui	t2,0x634bc
    84e0:	33eec137          	lui	sp,0x33eec
    84e4:	badfd137          	lui	sp,0xbadfd
    84e8:	ce10f0b7          	lui	ra,0xce10f
    84ec:	0031e0b3          	or	ra,gp,gp
    84f0:	7142d017          	auipc	zero,0x7142d
    84f4:	52918097          	auipc	ra,0x52918
    84f8:	9b61c113          	xori	sp,gp,-1610
    84fc:	5cb1f093          	andi	ra,gp,1483
    8500:	8c298a37          	lui	s4,0x8c298
    8504:	0051e0b3          	or	ra,gp,t0
    8508:	dabeb317          	auipc	t1,0xdabeb
    850c:	1f228913          	addi	s2,t0,498 # 0x1050f6ba
    8510:	0011e1b3          	or	gp,gp,ra
    8514:	d0c1c213          	xori	tp,gp,-756
    8518:	8b09a097          	auipc	ra,0x8b09a
    851c:	28010013          	addi	zero,sp,640 # 0xffffffffbadfd280
    8520:	95a0c193          	xori	gp,ra,-1702
    8524:	27a020b7          	lui	ra,0x27a02
    8528:	fd672037          	lui	zero,0xfd672
    852c:	69b17313          	andi	t1,sp,1691
    8530:	d2f36137          	lui	sp,0xd2f36
    8534:	403180b3          	sub	ra,gp,gp
    8538:	bfa07293          	andi	t0,zero,-1030
    853c:	8e5fd0b7          	lui	ra,0x8e5fd
    8540:	7ca16117          	auipc	sp,0x7ca16
    8544:	cf3dd0b7          	lui	ra,0xcf3dd
    8548:	a81c3197          	auipc	gp,0xa81c3
    854c:	43a9cdb7          	lui	s11,0x43a9c
    8550:	eb596397          	auipc	t2,0xeb596
    8554:	04b1c093          	xori	ra,gp,75
    8558:	4b1b5137          	lui	sp,0x4b1b5
    855c:	10114013          	xori	zero,sp,257
    8560:	40308033          	sub	zero,ra,gp
    8564:	1a11e193          	ori	gp,gp,417
    8568:	49f370b7          	lui	ra,0x49f37
    856c:	0030c1b3          	xor	gp,ra,gp
    8570:	85b340b7          	lui	ra,0x85b34
    8574:	dc6184e3          	beq	gp,t1,0x833c
    8578:	dc5ff16f          	jal	sp,0x833c
    857c:	06917113          	andi	sp,sp,105
    8580:	880e07b7          	lui	a5,0x880e0
    8584:	9db9f1b7          	lui	gp,0x9db9f
    8588:	0021e0b3          	or	ra,gp,sp
    858c:	95cdf197          	auipc	gp,0x95cdf
    8590:	5b376fb7          	lui	t6,0x5b376
    8594:	8454c237          	lui	tp,0x8454c
    8598:	7322e113          	ori	sp,t0,1842
    859c:	e5daa3b7          	lui	t2,0xe5daa
    85a0:	8a016093          	ori	ra,sp,-1888
    85a4:	d0ce2237          	lui	tp,0xd0ce2
    85a8:	b5468393          	addi	t2,a3,-1196 # 0x2346ffec
    85ac:	300be037          	lui	zero,0x300be
    85b0:	ca459337          	lui	t1,0xca459
    85b4:	401181b3          	sub	gp,gp,ra
    85b8:	c6a2e093          	ori	ra,t0,-918
    85bc:	2f3ad097          	auipc	ra,0x2f3ad
    85c0:	42c5c193          	xori	gp,a1,1068
    85c4:	c0b1e197          	auipc	gp,0xc0b1e
    85c8:	0060e133          	or	sp,ra,t1
    85cc:	41d180b3          	sub	ra,gp,t4
    85d0:	0021f133          	and	sp,gp,sp
    85d4:	acca9117          	auipc	sp,0xacca9
    85d8:	337110b7          	lui	ra,0x33711
    85dc:	cf5f43b7          	lui	t2,0xcf5f4
    85e0:	db33d197          	auipc	gp,0xdb33d
    85e4:	002176b3          	and	a3,sp,sp
    85e8:	6ed38117          	auipc	sp,0x6ed38
    85ec:	bae3f197          	auipc	gp,0xbae3f
    85f0:	0031c133          	xor	sp,gp,gp
    85f4:	0020e1b3          	or	gp,ra,sp
    85f8:	15b561b7          	lui	gp,0x15b56
    85fc:	75356197          	auipc	gp,0x75356
    8600:	bde08113          	addi	sp,ra,-1058 # 0x33710bde
    8604:	00110263          	beq	sp,ra,0x8608
    8608:	ef4ff26f          	jal	tp,0x7cfc
    860c:	0f007113          	andi	sp,zero,240
    8610:	5f7f51b7          	lui	gp,0x5f7f5
    8614:	0021f133          	and	sp,gp,sp
    8618:	f400f093          	andi	ra,ra,-192
    861c:	4b970097          	auipc	ra,0x4b970
    8620:	2b72f113          	andi	sp,t0,695
    8624:	355042b7          	lui	t0,0x35504
    8628:	d220c293          	xori	t0,ra,-734
    862c:	dd21e093          	ori	ra,gp,-558
    8630:	0012c3b3          	xor	t2,t0,ra
    8634:	4341c097          	auipc	ra,0x4341c
    8638:	63150197          	auipc	gp,0x63150
    863c:	40230333          	sub	t1,t1,sp
    8640:	012141b3          	xor	gp,sp,s2
    8644:	909e7097          	auipc	ra,0x909e7
    8648:	b2916113          	ori	sp,sp,-1239
    864c:	d9afc397          	auipc	t2,0xd9afc
    8650:	67c17337          	lui	t1,0x67c17
    8654:	e3e1a317          	auipc	t1,0xe3e1a
    8658:	003270b3          	and	ra,tp,gp
    865c:	40218133          	sub	sp,gp,sp
    8660:	667470b7          	lui	ra,0x66747
    8664:	9c3d7117          	auipc	sp,0x9c3d7
    8668:	c330c117          	auipc	sp,0xc330c
    866c:	7ed4d097          	auipc	ra,0x7ed4d
    8670:	bc914193          	xori	gp,sp,-1079
    8674:	0ae1f013          	andi	zero,gp,174
    8678:	33c00713          	li	a4,828
    867c:	0011e133          	or	sp,gp,ra
    8680:	13c1c193          	xori	gp,gp,316
    8684:	5e128c63          	beq	t0,ra,0x8c7c
    8688:	5f40016f          	jal	sp,0x8c7c
    868c:	00108333          	add	t1,ra,ra
    8690:	e9d62197          	auipc	gp,0xe9d62
    8694:	7191c193          	xori	gp,gp,1817
    8698:	9b4e5137          	lui	sp,0x9b4e5
    869c:	00068233          	add	tp,a3,zero
    86a0:	4bb63137          	lui	sp,0x4bb63
    86a4:	000141b3          	xor	gp,sp,zero
    86a8:	ce394137          	lui	sp,0xce394
    86ac:	b3130093          	addi	ra,t1,-1231 # 0xffffffffe3e22185
    86b0:	81700117          	auipc	sp,0x81700
    86b4:	7a3f5397          	auipc	t2,0x7a3f5
    86b8:	03217193          	andi	gp,sp,50
    86bc:	0061f1b3          	and	gp,gp,t1
    86c0:	946a5237          	lui	tp,0x946a5
    86c4:	73ced117          	auipc	sp,0x73ced
    86c8:	c1006393          	ori	t2,zero,-1008
    86cc:	145f8097          	auipc	ra,0x145f8
    86d0:	1111f113          	andi	sp,gp,273
    86d4:	3713e193          	ori	gp,t2,881
    86d8:	bac73117          	auipc	sp,0xbac73
    86dc:	bdc18313          	addi	t1,gp,-1060 # 0xffffffffe9d6a26c
    86e0:	995e9137          	lui	sp,0x995e9
    86e4:	64d18113          	addi	sp,gp,1613
    86e8:	8c17a0b7          	lui	ra,0x8c17a
    86ec:	a7955097          	auipc	ra,0xa7955
    86f0:	fb7861b7          	lui	gp,0xfb786
    86f4:	8031e113          	ori	sp,gp,-2045
    86f8:	0021f1b3          	and	gp,gp,sp
    86fc:	d4408193          	addi	gp,ra,-700 # 0xffffffffa795d430
    8700:	53b70197          	auipc	gp,0x53b70
    8704:	4a40c093          	xori	ra,ra,1188
    8708:	0010e0b3          	or	ra,ra,ra
    870c:	0abd0097          	auipc	ra,0xabd0
    8710:	e1c1c293          	xori	t0,gp,-484
    8714:	4e208463          	beq	ra,sp,0x8bfc
    8718:	4e4000ef          	jal	ra,0x8bfc
    871c:	b8d17593          	andi	a1,sp,-1139
    8720:	0010e1b3          	or	gp,ra,ra
    8724:	bbcb7417          	auipc	s0,0xbbcb7
    8728:	b8eb35b7          	lui	a1,0xb8eb3
    872c:	567e1097          	auipc	ra,0x567e1
    8730:	e8514113          	xori	sp,sp,-379
    8734:	00216133          	or	sp,sp,sp
    8738:	cd942097          	auipc	ra,0xcd942
    873c:	b4e371b7          	lui	gp,0xb4e37
    8740:	00117333          	and	t1,sp,ra
    8744:	4f7db217          	auipc	tp,0x4f7db
    8748:	004180b3          	add	ra,gp,tp
    874c:	bf85f197          	auipc	gp,0xbf85f
    8750:	0001e1b3          	or	gp,gp,zero
    8754:	0011c1b3          	xor	gp,gp,ra
    8758:	41c1ce37          	lui	t3,0x41c1c
    875c:	40efd1b7          	lui	gp,0x40efd
    8760:	c2c2e093          	ori	ra,t0,-980
    8764:	a13d1117          	auipc	sp,0xa13d1
    8768:	0c3b4117          	auipc	sp,0xc3b4
    876c:	e8671137          	lui	sp,0xe8671
    8770:	6f7aa137          	lui	sp,0x6f7aa
    8774:	70af8197          	auipc	gp,0x70af8
    8778:	2e3801b7          	lui	gp,0x2e380
    877c:	f061c193          	xori	gp,gp,-250
    8780:	00308133          	add	sp,ra,gp
    8784:	a4ffc193          	xori	gp,t6,-1457
    8788:	001600b3          	add	ra,a2,ra
    878c:	2a71c093          	xori	ra,gp,679
    8790:	18c85137          	lui	sp,0x18c85
    8794:	0021f0b3          	and	ra,gp,sp
    8798:	7862f113          	andi	sp,t0,1926
    879c:	e47ff0b7          	lui	ra,0xe47ff
    87a0:	0011e1b3          	or	gp,gp,ra
    87a4:	c8630093          	addi	ra,t1,-890
    87a8:	0afa4017          	auipc	zero,0xafa4
    87ac:	7ac16017          	auipc	zero,0x7ac16
    87b0:	00148263          	beq	s1,ra,0x87b4
    87b4:	10d003ef          	jal	t2,0x90c0
    87b8:	c09b9037          	lui	zero,0xc09b9
    87bc:	3310c093          	xori	ra,ra,817
    87c0:	b17902b7          	lui	t0,0xb1790
    87c4:	23f07193          	andi	gp,zero,575
    87c8:	23d08093          	addi	ra,ra,573 # 0xffffffffe47ff23d
    87cc:	0de191b7          	lui	gp,0xde19
    87d0:	105ed217          	auipc	tp,0x105ed
    87d4:	4b4bb097          	auipc	ra,0x4b4bb
    87d8:	b835e5b7          	lui	a1,0xb835e
    87dc:	f051f093          	andi	ra,gp,-251
    87e0:	40160233          	sub	tp,a2,ra
    87e4:	cfc10093          	addi	ra,sp,-772 # 0x18c84cfc
    87e8:	400183b3          	sub	t2,gp,zero
    87ec:	c2d29117          	auipc	sp,0xc2d29
    87f0:	0060c4b3          	xor	s1,ra,t1
    87f4:	16cfe093          	ori	ra,t6,364
    87f8:	d2b28097          	auipc	ra,0xd2b28
    87fc:	0031f133          	and	sp,gp,gp
    8800:	efe78197          	auipc	gp,0xefe78
    8804:	b8830293          	addi	t0,t1,-1144
    8808:	b4584097          	auipc	ra,0xb4584
    880c:	0be02197          	auipc	gp,0xbe02
    8810:	6eb76197          	auipc	gp,0x6eb76
    8814:	40066293          	ori	t0,a2,1024
    8818:	f4c1f193          	andi	gp,gp,-180
    881c:	22daec17          	auipc	s8,0x22dae
    8820:	0012e333          	or	t1,t0,ra
    8824:	46aa51b7          	lui	gp,0x46aa5
    8828:	2622c113          	xori	sp,t0,610
    882c:	0020c0b3          	xor	ra,ra,sp
    8830:	6e31c113          	xori	sp,gp,1763
    8834:	00107033          	and	zero,zero,ra
    8838:	0d4f42b7          	lui	t0,0xd4f4
    883c:	e663e197          	auipc	gp,0xe663e
    8840:	4f628313          	addi	t1,t0,1270 # 0xd4f44f6
    8844:	00000197          	auipc	gp,0x0
    8848:	310181e7          	jalr	gp,784(gp) # 0x8b54
    884c:	090fc337          	lui	t1,0x90fc
    8850:	401180b3          	sub	ra,gp,ra
    8854:	1b284197          	auipc	gp,0x1b284
    8858:	0030f033          	and	zero,ra,gp
    885c:	0ae55117          	auipc	sp,0xae55
    8860:	d30ba197          	auipc	gp,0xd30ba
    8864:	51e74197          	auipc	gp,0x51e74
    8868:	dc17d197          	auipc	gp,0xdc17d
    886c:	40100133          	neg	sp,ra
    8870:	40208233          	sub	tp,ra,sp
    8874:	8d2be317          	auipc	t1,0x8d2be
    8878:	b97ea117          	auipc	sp,0xb97ea
    887c:	38e4b197          	auipc	gp,0x38e4b
    8880:	10251117          	auipc	sp,0x10251
    8884:	ace17193          	andi	gp,sp,-1330
    8888:	22b10397          	auipc	t2,0x22b10
    888c:	efb2d1b7          	lui	gp,0xefb2d
    8890:	003241b3          	xor	gp,tp,gp
    8894:	b9169137          	lui	sp,0xb9169
    8898:	930a4197          	auipc	gp,0x930a4
    889c:	0030f0b3          	and	ra,ra,gp
    88a0:	14d6d117          	auipc	sp,0x14d6d
    88a4:	7e25d237          	lui	tp,0x7e25d
    88a8:	31fb2097          	auipc	ra,0x31fb2
    88ac:	b452a097          	auipc	ra,0xb452a
    88b0:	0010c1b3          	xor	gp,ra,ra
    88b4:	04b27113          	andi	sp,tp,75
    88b8:	f1708113          	addi	sp,ra,-233 # 0xffffffffb45327c3
    88bc:	6990f297          	auipc	t0,0x6990f
    88c0:	8d310013          	addi	zero,sp,-1837 # 0x14d75173
    88c4:	0021e0b3          	or	ra,gp,sp
    88c8:	002576b3          	and	a3,a0,sp
    88cc:	77611117          	auipc	sp,0x77611
    88d0:	40328033          	sub	zero,t0,gp
    88d4:	d710e113          	ori	sp,ra,-655
    88d8:	00e1e133          	or	sp,gp,a4
    88dc:	378cc397          	auipc	t2,0x378cc
    88e0:	64208a63          	beq	ra,sp,0x8f34
    88e4:	650002ef          	jal	t0,0x8f34
    88e8:	5921f597          	auipc	a1,0x5921f
    88ec:	11cff0b7          	lui	ra,0x11cff
    88f0:	0ca36113          	ori	sp,t1,202
    88f4:	ce23c117          	auipc	sp,0xce23c
    88f8:	cd4ab197          	auipc	gp,0xcd4ab
    88fc:	404100b3          	sub	ra,sp,tp
    8900:	00636133          	or	sp,t1,t1
    8904:	e0960037          	lui	zero,0xe0960
    8908:	786d2117          	auipc	sp,0x786d2
    890c:	00207133          	and	sp,zero,sp
    8910:	2fd54097          	auipc	ra,0x2fd54
    8914:	8bd10093          	addi	ra,sp,-1859 # 0x786da1c5
    8918:	522681b7          	lui	gp,0x52268
    891c:	0020c1b3          	xor	gp,ra,sp
    8920:	5bb7e317          	auipc	t1,0x5bb7e
    8924:	0027e033          	or	zero,a5,sp
    8928:	ca214193          	xori	gp,sp,-862
    892c:	0011c0b3          	xor	ra,gp,ra
    8930:	41a181b3          	sub	gp,gp,s10
    8934:	a2d1d097          	auipc	ra,0xa2d1d
    8938:	3eb16313          	ori	t1,sp,1003
    893c:	401100b3          	sub	ra,sp,ra
    8940:	9046f097          	auipc	ra,0x9046f
    8944:	447bf0b7          	lui	ra,0x447bf
    8948:	0010f2b3          	and	t0,ra,ra
    894c:	1930e037          	lui	zero,0x1930e
    8950:	ad9e9117          	auipc	sp,0xad9e9
    8954:	187fe0b7          	lui	ra,0x187fe
    8958:	94f06193          	ori	gp,zero,-1713
    895c:	33f0f193          	andi	gp,ra,831
    8960:	001181b3          	add	gp,gp,ra
    8964:	40210133          	sub	sp,sp,sp
    8968:	61e18113          	addi	sp,gp,1566 # 0x5226861e
    896c:	3395b597          	auipc	a1,0x3395b
    8970:	5cea5097          	auipc	ra,0x5cea5
    8974:	cc9583b7          	lui	t2,0xcc958
    8978:	4a118063          	beq	gp,ra,0x8e18
    897c:	49c0006f          	j	0x8e18
    8980:	ee92e193          	ori	gp,t0,-279
    8984:	00216f33          	or	t5,sp,sp
    8988:	403182b3          	sub	t0,gp,gp
    898c:	8935f137          	lui	sp,0x8935f
    8990:	34c04393          	xori	t2,zero,844
    8994:	1e7c16b7          	lui	a3,0x1e7c1
    8998:	00d171b3          	and	gp,sp,a3
    899c:	ee533197          	auipc	gp,0xee533
    89a0:	6224b097          	auipc	ra,0x6224b
    89a4:	3a514f93          	xori	t6,sp,933
    89a8:	0021f333          	and	t1,gp,sp
    89ac:	9b3502b7          	lui	t0,0x9b350
    89b0:	4f504113          	xori	sp,zero,1269
    89b4:	9824c137          	lui	sp,0x9824c
    89b8:	aded3217          	auipc	tp,0xaded3
    89bc:	f274d197          	auipc	gp,0xf274d
    89c0:	bcafb1b7          	lui	gp,0xbcafb
    89c4:	4b310193          	addi	gp,sp,1203 # 0xffffffff9824c4b3
    89c8:	2e367137          	lui	sp,0x2e367
    89cc:	69a00113          	li	sp,1690
    89d0:	511e6097          	auipc	ra,0x511e6
    89d4:	2e7d6197          	auipc	gp,0x2e7d6
    89d8:	004140b3          	xor	ra,sp,tp
    89dc:	1d4a21b7          	lui	gp,0x1d4a2
    89e0:	8281f117          	auipc	sp,0x8281f
    89e4:	e1d14197          	auipc	gp,0xe1d14
    89e8:	07753337          	lui	t1,0x7753
    89ec:	71c9d097          	auipc	ra,0x71c9d
    89f0:	5590c117          	auipc	sp,0x5590c
    89f4:	2b30c237          	lui	tp,0x2b30c
    89f8:	a9c9f093          	andi	ra,s3,-1380
    89fc:	3d6bb097          	auipc	ra,0x3d6bb
    8a00:	40218133          	sub	sp,gp,sp
    8a04:	66050137          	lui	sp,0x66050
    8a08:	85deb117          	auipc	sp,0x85deb
    8a0c:	d0656037          	lui	zero,0xd0656
    8a10:	e3f38ee3          	beq	t2,t6,0x884c
    8a14:	e39ff0ef          	jal	ra,0x884c
    8a18:	97a1c113          	xori	sp,gp,-1670
    8a1c:	eaf1c113          	xori	sp,gp,-337
    8a20:	0033f1b3          	and	gp,t2,gp
    8a24:	0011c0b3          	xor	ra,gp,ra
    8a28:	0046c5b3          	xor	a1,a3,tp
    8a2c:	403000b3          	neg	ra,gp
    8a30:	f355c097          	auipc	ra,0xf355c
    8a34:	727112b7          	lui	t0,0x72711
    8a38:	0571c193          	xori	gp,gp,87
    8a3c:	0b916013          	ori	zero,sp,185
    8a40:	001080b3          	add	ra,ra,ra
    8a44:	fa616e13          	ori	t3,sp,-90
    8a48:	0465d1b7          	lui	gp,0x465d
    8a4c:	a3c1e0b7          	lui	ra,0xa3c1e
    8a50:	000df0b3          	and	ra,s11,zero
    8a54:	403681b3          	sub	gp,a3,gp
    8a58:	2b10e1b7          	lui	gp,0x2b10e
    8a5c:	6960e093          	ori	ra,ra,1686
    8a60:	0160f393          	andi	t2,ra,22
    8a64:	6400c093          	xori	ra,ra,1600
    8a68:	32586197          	auipc	gp,0x32586
    8a6c:	70f12097          	auipc	ra,0x70f12
    8a70:	e881f093          	andi	ra,gp,-376
    8a74:	f74fa137          	lui	sp,0xf74fa
    8a78:	4f737397          	auipc	t2,0x4f737
    8a7c:	5ccbf5b7          	lui	a1,0x5ccbf
    8a80:	0013c0b3          	xor	ra,t2,ra
    8a84:	7fea9217          	auipc	tp,0x7fea9
    8a88:	000141b3          	xor	gp,sp,zero
    8a8c:	3f975217          	auipc	tp,0x3f975
    8a90:	0f7db137          	lui	sp,0xf7db
    8a94:	476c0137          	lui	sp,0x476c0
    8a98:	004101b3          	add	gp,sp,tp
    8a9c:	b3317193          	andi	gp,sp,-1229
    8aa0:	b61fc037          	lui	zero,0xb61fc
    8aa4:	401100b3          	sub	ra,sp,ra
    8aa8:	7e17c197          	auipc	gp,0x7e17c
    8aac:	a6b2c1b7          	lui	gp,0xa6b2c
    8ab0:	00000797          	auipc	a5,0x0
    8ab4:	e38781e7          	jalr	gp,-456(a5) # 0x88e8
    8ab8:	2174a1b7          	lui	gp,0x2174a
    8abc:	003163b3          	or	t2,sp,gp
    8ac0:	1eeca097          	auipc	ra,0x1eeca
    8ac4:	9ceae197          	auipc	gp,0x9ceae
    8ac8:	13c370b7          	lui	ra,0x13c37
    8acc:	0031c133          	xor	sp,gp,gp
    8ad0:	fd618493          	addi	s1,gp,-42 # 0xffffffff9ceb6a9a
    8ad4:	74b200b7          	lui	ra,0x74b20
    8ad8:	d5e8c337          	lui	t1,0xd5e8c
    8adc:	06659117          	auipc	sp,0x6659
    8ae0:	2dd1e113          	ori	sp,gp,733
    8ae4:	a9a08093          	addi	ra,ra,-1382 # 0x74b1fa9a
    8ae8:	7b37f097          	auipc	ra,0x7b37f
    8aec:	00314333          	xor	t1,sp,gp
    8af0:	00216133          	or	sp,sp,sp
    8af4:	7d3730b7          	lui	ra,0x7d373
    8af8:	e7388197          	auipc	gp,0xe7388
    8afc:	20b3e137          	lui	sp,0x20b3e
    8b00:	f9c73097          	auipc	ra,0xf9c73
    8b04:	97dbc1b7          	lui	gp,0x97dbc
    8b08:	a21d5117          	auipc	sp,0xa21d5
    8b0c:	07f0f193          	andi	gp,ra,127
    8b10:	21674097          	auipc	ra,0x21674
    8b14:	8a814113          	xori	sp,sp,-1880
    8b18:	6ef10193          	addi	gp,sp,1775 # 0xffffffffa21de1f7
    8b1c:	9532f193          	andi	gp,t0,-1709
    8b20:	6130c193          	xori	gp,ra,1555
    8b24:	58800093          	li	ra,1416
    8b28:	ece0d097          	auipc	ra,0xece0d
    8b2c:	53aea0b7          	lui	ra,0x53aea
    8b30:	e4ed7197          	auipc	gp,0xe4ed7
    8b34:	04c5f113          	andi	sp,a1,76
    8b38:	0299f1b7          	lui	gp,0x299f
    8b3c:	0075f1b3          	and	gp,a1,t2
    8b40:	f03a7197          	auipc	gp,0xf03a7
    8b44:	003241b3          	xor	gp,tp,gp
    8b48:	0070c1b3          	xor	gp,ra,t2
    8b4c:	46118863          	beq	gp,ra,0x8fbc
    8b50:	46c0006f          	j	0x8fbc
    8b54:	7bfc1137          	lui	sp,0x7bfc1
    8b58:	028cc097          	auipc	ra,0x28cc
    8b5c:	3129e0b7          	lui	ra,0x3129e
    8b60:	2176f117          	auipc	sp,0x2176f
    8b64:	0020e033          	or	zero,ra,sp
    8b68:	58428113          	addi	sp,t0,1412 # 0x72711584
    8b6c:	ca50f093          	andi	ra,ra,-859
    8b70:	0043c0b3          	xor	ra,t2,tp
    8b74:	00217133          	and	sp,sp,sp
    8b78:	53a6f137          	lui	sp,0x53a6f
    8b7c:	0019f2b3          	and	t0,s3,ra
    8b80:	4e59f137          	lui	sp,0x4e59f
    8b84:	0027f1b3          	and	gp,a5,sp
    8b88:	d1c1f193          	andi	gp,gp,-740
    8b8c:	0031e0b3          	or	ra,gp,gp
    8b90:	ff5fc0b7          	lui	ra,0xff5fc
    8b94:	0050e0b3          	or	ra,ra,t0
    8b98:	92b630b7          	lui	ra,0x92b63
    8b9c:	e1914193          	xori	gp,sp,-487
    8ba0:	1090f213          	andi	tp,ra,265
    8ba4:	d1e0e193          	ori	gp,ra,-738
    8ba8:	0032c0b3          	xor	ra,t0,gp
    8bac:	0220f693          	andi	a3,ra,34
    8bb0:	fd708193          	addi	gp,ra,-41 # 0xffffffff92b62fd7
    8bb4:	3b016213          	ori	tp,sp,944
    8bb8:	002101b3          	add	gp,sp,sp
    8bbc:	2dca7097          	auipc	ra,0x2dca7
    8bc0:	43e75317          	auipc	t1,0x43e75
    8bc4:	2ebdb037          	lui	zero,0x2ebdb
    8bc8:	003170b3          	and	ra,sp,gp
    8bcc:	1d9e40b7          	lui	ra,0x1d9e4
    8bd0:	01e161b3          	or	gp,sp,t5
    8bd4:	adc08113          	addi	sp,ra,-1316 # 0x1d9e3adc
    8bd8:	70500237          	lui	tp,0x70500
    8bdc:	8630f093          	andi	ra,ra,-1949
    8be0:	892d0137          	lui	sp,0x892d0
    8be4:	d280e313          	ori	t1,ra,-728
    8be8:	0c4fa097          	auipc	ra,0xc4fa
    8bec:	e5c50317          	auipc	t1,0xe5c50
    8bf0:	f2e07093          	andi	ra,zero,-210
    8bf4:	10230e63          	beq	t1,sp,0x8d10
    8bf8:	118000ef          	jal	ra,0x8d10
    8bfc:	26d92197          	auipc	gp,0x26d92
    8c00:	3fe36393          	ori	t2,t1,1022
    8c04:	05338093          	addi	ra,t2,83 # 0x4f73facb
    8c08:	4820c213          	xori	tp,ra,1154
    8c0c:	773b0317          	auipc	t1,0x773b0
    8c10:	23d8e297          	auipc	t0,0x23d8e
    8c14:	0020f1b3          	and	gp,ra,sp
    8c18:	8a31c293          	xori	t0,gp,-1885
    8c1c:	58960137          	lui	sp,0x58960
    8c20:	6ccc9137          	lui	sp,0x6ccc9
    8c24:	9bf83e37          	lui	t3,0x9bf83
    8c28:	57f71697          	auipc	a3,0x57f71
    8c2c:	bd35f1b7          	lui	gp,0xbd35f
    8c30:	00116133          	or	sp,sp,ra
    8c34:	00f3f333          	and	t1,t2,a5
    8c38:	b9d3f197          	auipc	gp,0xb9d3f
    8c3c:	bceb7e37          	lui	t3,0xbceb7
    8c40:	16a0c113          	xori	sp,ra,362
    8c44:	5883a0b7          	lui	ra,0x5883a
    8c48:	e6bf5137          	lui	sp,0xe6bf5
    8c4c:	34196037          	lui	zero,0x34196
    8c50:	517981b7          	lui	gp,0x51798
    8c54:	001080b3          	add	ra,ra,ra
    8c58:	f8814113          	xori	sp,sp,-120
    8c5c:	0031e133          	or	sp,gp,gp
    8c60:	40110133          	sub	sp,sp,ra
    8c64:	0071e0b3          	or	ra,gp,t2
    8c68:	4f16d0b7          	lui	ra,0x4f16d
    8c6c:	aed08193          	addi	gp,ra,-1299 # 0x4f16caed
    8c70:	4c81a017          	auipc	zero,0x4c81a
    8c74:	00000097          	auipc	ra,0x0
    8c78:	e44083e7          	jalr	t2,-444(ra) # 0x8ab8
    8c7c:	403001b3          	neg	gp,gp
    8c80:	5beae0b7          	lui	ra,0x5beae
    8c84:	00218033          	add	zero,gp,sp
    8c88:	7fa3c013          	xori	zero,t2,2042
    8c8c:	40120133          	sub	sp,tp,ra
    8c90:	0020c333          	xor	t1,ra,sp
    8c94:	f5e1f113          	andi	sp,gp,-162
    8c98:	61824393          	xori	t2,tp,1560
    8c9c:	136b1117          	auipc	sp,0x136b1
    8ca0:	6b609117          	auipc	sp,0x6b609
    8ca4:	15008193          	addi	gp,ra,336 # 0x5beae150
    8ca8:	b7790117          	auipc	sp,0xb7790
    8cac:	94d3d0b7          	lui	ra,0x94d3d
    8cb0:	003fed37          	lui	s10,0x3fe
    8cb4:	87627093          	andi	ra,tp,-1930
    8cb8:	0110e0b3          	or	ra,ra,a7
    8cbc:	001241b3          	xor	gp,tp,ra
    8cc0:	63bfb1b7          	lui	gp,0x63bfb
    8cc4:	361fd1b7          	lui	gp,0x361fd
    8cc8:	8262c093          	xori	ra,t0,-2010
    8ccc:	e1938097          	auipc	ra,0xe1938
    8cd0:	90e27097          	auipc	ra,0x90e27
    8cd4:	53834117          	auipc	sp,0x53834
    8cd8:	d3a586b7          	lui	a3,0xd3a58
    8cdc:	002261b3          	or	gp,tp,sp
    8ce0:	0011f2b3          	and	t0,gp,ra
    8ce4:	570c9137          	lui	sp,0x570c9
    8ce8:	141fd317          	auipc	t1,0x141fd
    8cec:	10087097          	auipc	ra,0x10087
    8cf0:	755dc097          	auipc	ra,0x755dc
    8cf4:	4a882317          	auipc	t1,0x4a882
    8cf8:	13a62eb7          	lui	t4,0x13a62
    8cfc:	40108133          	sub	sp,ra,ra
    8d00:	0301c193          	xori	gp,gp,48
    8d04:	ef0800b7          	lui	ra,0xef080
    8d08:	08208e63          	beq	ra,sp,0x8da4
    8d0c:	098000ef          	jal	ra,0x8da4
    8d10:	003180b3          	add	ra,gp,gp
    8d14:	33c67117          	auipc	sp,0x33c67
    8d18:	8dfde337          	lui	t1,0x8dfde
    8d1c:	751b0f93          	addi	t6,s6,1873 # 0xffffffffdf89b751
    8d20:	6ba2c113          	xori	sp,t0,1722
    8d24:	05808093          	addi	ra,ra,88 # 0xffffffffef080058
    8d28:	00374333          	xor	t1,a4,gp
    8d2c:	2ba7c093          	xori	ra,a5,698
    8d30:	f709f193          	andi	gp,s3,-144
    8d34:	121ecb13          	xori	s6,t4,289
    8d38:	d2729237          	lui	tp,0xd2729
    8d3c:	7b79f117          	auipc	sp,0x7b79f
    8d40:	40b10233          	sub	tp,sp,a1
    8d44:	72c1e193          	ori	gp,gp,1836
    8d48:	64dc4097          	auipc	ra,0x64dc4
    8d4c:	3b586197          	auipc	gp,0x3b586
    8d50:	aa2c15b7          	lui	a1,0xaa2c1
    8d54:	dc610113          	addi	sp,sp,-570 # 0x7b7a7b02
    8d58:	5172b1b7          	lui	gp,0x5172b
    8d5c:	205ba2b7          	lui	t0,0x205ba
    8d60:	c8d47217          	auipc	tp,0xc8d47
    8d64:	19119397          	auipc	t2,0x19119
    8d68:	873250b7          	lui	ra,0x87325
    8d6c:	cd049117          	auipc	sp,0xcd049
    8d70:	00227733          	and	a4,tp,sp
    8d74:	00324033          	xor	zero,tp,gp
    8d78:	31080117          	auipc	sp,0x31080
    8d7c:	3d645137          	lui	sp,0x3d645
    8d80:	00416233          	or	tp,sp,tp
    8d84:	04e64117          	auipc	sp,0x4e64
    8d88:	bd6aa137          	lui	sp,0xbd6aa
    8d8c:	3a91e093          	ori	ra,gp,937
    8d90:	003082b3          	add	t0,ra,gp
    8d94:	97c79117          	auipc	sp,0x97c79
    8d98:	a4316013          	ori	zero,sp,-1469
    8d9c:	00000097          	auipc	ra,0x0
    8da0:	0fc081e7          	jalr	gp,252(ra) # 0x8e98
    8da4:	0011c133          	xor	sp,gp,ra
    8da8:	cd936113          	ori	sp,t1,-807
    8dac:	e592b197          	auipc	gp,0xe592b
    8db0:	41610133          	sub	sp,sp,s6
    8db4:	4cd1e093          	ori	ra,gp,1229
    8db8:	9b41c293          	xori	t0,gp,-1612
    8dbc:	8eb09137          	lui	sp,0x8eb09
    8dc0:	47cf6117          	auipc	sp,0x47cf6
    8dc4:	6a21f393          	andi	t2,gp,1698
    8dc8:	40730133          	sub	sp,t1,t2
    8dcc:	00227333          	and	t1,tp,sp
    8dd0:	b30083b7          	lui	t2,0xb3008
    8dd4:	c46491b7          	lui	gp,0xc4649
    8dd8:	0021e133          	or	sp,gp,sp
    8ddc:	51d16113          	ori	sp,sp,1309
    8de0:	0057c0b3          	xor	ra,a5,t0
    8de4:	e4a89d37          	lui	s10,0xe4a89
    8de8:	84c6c1b7          	lui	gp,0x84c6c
    8dec:	5c8ff297          	auipc	t0,0x5c8ff
    8df0:	e651f193          	andi	gp,gp,-411
    8df4:	7d6de3b7          	lui	t2,0x7d6de
    8df8:	7e641117          	auipc	sp,0x7e641
    8dfc:	1287f217          	auipc	tp,0x1287f
    8e00:	655910b7          	lui	ra,0x65591
    8e04:	dde4e0b7          	lui	ra,0xdde4e
    8e08:	b8216093          	ori	ra,sp,-1150
    8e0c:	8afe1197          	auipc	gp,0x8afe1
    8e10:	00030113          	mv	sp,t1
    8e14:	22610863          	beq	sp,t1,0x9044
    8e18:	1d01a117          	auipc	sp,0x1d01a
    8e1c:	8a8cf097          	auipc	ra,0x8a8cf
    8e20:	982e1197          	auipc	gp,0x982e1
    8e24:	4c298397          	auipc	t2,0x4c298
    8e28:	32f0fd13          	andi	s10,ra,815
    8e2c:	88b11017          	auipc	zero,0x88b11
    8e30:	002187b3          	add	a5,gp,sp
    8e34:	eedc91b7          	lui	gp,0xeedc9
    8e38:	c7504093          	xori	ra,zero,-907
    8e3c:	b45a50b7          	lui	ra,0xb45a5
    8e40:	2661e113          	ori	sp,gp,614
    8e44:	c5489917          	auipc	s2,0xc5489
    8e48:	1260e093          	ori	ra,ra,294
    8e4c:	39c1f337          	lui	t1,0x39c1f
    8e50:	006080b3          	add	ra,ra,t1
    8e54:	a00c8197          	auipc	gp,0xa00c8
    8e58:	fea59237          	lui	tp,0xfea59
    8e5c:	3ece9017          	auipc	zero,0x3ece9
    8e60:	90c14093          	xori	ra,sp,-1780
    8e64:	403282b3          	sub	t0,t0,gp
    8e68:	59d9f117          	auipc	sp,0x59d9f
    8e6c:	537640b7          	lui	ra,0x53764
    8e70:	a09df113          	andi	sp,s11,-1527
    8e74:	3a4111b7          	lui	gp,0x3a411
    8e78:	4bb66137          	lui	sp,0x4bb66
    8e7c:	006181b3          	add	gp,gp,t1
    8e80:	0042e2b3          	or	t0,t0,tp
    8e84:	f3dfe797          	auipc	a5,0xf3dfe
    8e88:	0a70d197          	auipc	gp,0xa70d
    8e8c:	470ecb37          	lui	s6,0x470ec
    8e90:	34158c63          	beq	a1,ra,0x91e8
    8e94:	354001ef          	jal	gp,0x91e8
    8e98:	01a37933          	and	s2,t1,s10
    8e9c:	cb114117          	auipc	sp,0xcb114
    8ea0:	74bd4093          	xori	ra,s10,1867
    8ea4:	0cc430b7          	lui	ra,0xcc43
    8ea8:	06cafc93          	andi	s9,s5,108
    8eac:	77a3e193          	ori	gp,t2,1914
    8eb0:	e9822197          	auipc	gp,0xe9822
    8eb4:	8cc18113          	addi	sp,gp,-1844 # 0xffffffffe982a77c
    8eb8:	5d8ad137          	lui	sp,0x5d8ad
    8ebc:	f949c037          	lui	zero,0xf949c
    8ec0:	a4a1e793          	ori	a5,gp,-1462
    8ec4:	002373b3          	and	t2,t1,sp
    8ec8:	9dc1e0b7          	lui	ra,0x9dc1e
    8ecc:	d0c00093          	li	ra,-756
    8ed0:	00108133          	add	sp,ra,ra
    8ed4:	a6d6b097          	auipc	ra,0xa6d6b
    8ed8:	ad723097          	auipc	ra,0xad723
    8edc:	5b620197          	auipc	gp,0x5b620
    8ee0:	1dfb7197          	auipc	gp,0x1dfb7
    8ee4:	89108213          	addi	tp,ra,-1903 # 0xffffffffad72b769
    8ee8:	238c9337          	lui	t1,0x238c9
    8eec:	b0161117          	auipc	sp,0xb0161
    8ef0:	400081b3          	sub	gp,ra,zero
    8ef4:	0001e3b3          	or	t2,gp,zero
    8ef8:	9c230193          	addi	gp,t1,-1598 # 0x238c89c2
    8efc:	1992e037          	lui	zero,0x1992e
    8f00:	15338193          	addi	gp,t2,339 # 0x4c2a0f77
    8f04:	402001b3          	neg	gp,sp
    8f08:	7a937113          	andi	sp,t1,1961
    8f0c:	27f85197          	auipc	gp,0x27f85
    8f10:	c6166137          	lui	sp,0xc6166
    8f14:	ba144017          	auipc	zero,0xba144
    8f18:	0035c0b3          	xor	ra,a1,gp
    8f1c:	002783b3          	add	t2,a5,sp
    8f20:	c4949137          	lui	sp,0xc4949
    8f24:	66706193          	ori	gp,zero,1639
    8f28:	15e99117          	auipc	sp,0x15e99
    8f2c:	00078093          	mv	ra,a5
    8f30:	aef084e3          	beq	ra,a5,0x8a18
    8f34:	96c36093          	ori	ra,t1,-1684
    8f38:	c6c0c513          	xori	a0,ra,-916
    8f3c:	001181b3          	add	gp,gp,ra
    8f40:	aaca9097          	auipc	ra,0xaaca9
    8f44:	faf06193          	ori	gp,zero,-81
    8f48:	7860c313          	xori	t1,ra,1926
    8f4c:	0033c0b3          	xor	ra,t2,gp
    8f50:	dfcce113          	ori	sp,s9,-516
    8f54:	4bd27113          	andi	sp,tp,1213
    8f58:	8936e137          	lui	sp,0x8936e
    8f5c:	dc2e0137          	lui	sp,0xdc2e0
    8f60:	6de07693          	andi	a3,zero,1758
    8f64:	83c26113          	ori	sp,tp,-1988
    8f68:	0050f0b3          	and	ra,ra,t0
    8f6c:	002280b3          	add	ra,t0,sp
    8f70:	9d3f71b7          	lui	gp,0x9d3f7
    8f74:	a8b17313          	andi	t1,sp,-1397
    8f78:	55c6b017          	auipc	zero,0x55c6b
    8f7c:	0022f5b3          	and	a1,t0,sp
    8f80:	001041b3          	xor	gp,zero,ra
    8f84:	812b6197          	auipc	gp,0x812b6
    8f88:	4aae3137          	lui	sp,0x4aae3
    8f8c:	0020f3b3          	and	t2,ra,sp
    8f90:	003172b3          	and	t0,sp,gp
    8f94:	38c1c393          	xori	t2,gp,908
    8f98:	547d4337          	lui	t1,0x547d4
    8f9c:	00d17133          	and	sp,sp,a3
    8fa0:	404081b3          	sub	gp,ra,tp
    8fa4:	9bf5d117          	auipc	sp,0x9bf5d
    8fa8:	51b1f197          	auipc	gp,0x51b1f
    8fac:	7f17f1b7          	lui	gp,0x7f17f
    8fb0:	b2907113          	andi	sp,zero,-1239
    8fb4:	00628263          	beq	t0,t1,0x8fb8
    8fb8:	f64ff16f          	jal	sp,0x871c
    8fbc:	67610193          	addi	gp,sp,1654 # 0xffffffff9bf6661a
    8fc0:	54554013          	xori	zero,a0,1349
    8fc4:	0020f333          	and	t1,ra,sp
    8fc8:	d4e55337          	lui	t1,0xd4e55
    8fcc:	9c21d117          	auipc	sp,0x9c21d
    8fd0:	37f39117          	auipc	sp,0x37f39
    8fd4:	ab9ae097          	auipc	ra,0xab9ae
    8fd8:	097521b7          	lui	gp,0x9752
    8fdc:	3cdeb197          	auipc	gp,0x3cdeb
    8fe0:	4bad1317          	auipc	t1,0x4bad1
    8fe4:	731d7113          	andi	sp,s10,1841
    8fe8:	c89a11b7          	lui	gp,0xc89a1
    8fec:	d714e117          	auipc	sp,0xd714e
    8ff0:	a36ce197          	auipc	gp,0xa36ce
    8ff4:	07707317          	auipc	t1,0x7707
    8ff8:	bd1f7337          	lui	t1,0xbd1f7
    8ffc:	69d1c093          	xori	ra,gp,1693
    9000:	d4604193          	xori	gp,zero,-698
    9004:	5422ef97          	auipc	t6,0x5422e
    9008:	93923197          	auipc	gp,0x93923
    900c:	1dd30093          	addi	ra,t1,477 # 0xffffffffbd1f71dd
    9010:	dd508113          	addi	sp,ra,-555 # 0xffffffffab9b6da9
    9014:	9931ea13          	ori	s4,gp,-1645
    9018:	eae3c093          	xori	ra,t2,-338
    901c:	005101b3          	add	gp,sp,t0
    9020:	3cdc4137          	lui	sp,0x3cdc4
    9024:	40310333          	sub	t1,sp,gp
    9028:	0010c333          	xor	t1,ra,ra
    902c:	bffb7197          	auipc	gp,0xbffb7
    9030:	656390b7          	lui	ra,0x65639
    9034:	3a1b9137          	lui	sp,0x3a1b9
    9038:	036543b7          	lui	t2,0x3654
    903c:	00018093          	mv	ra,gp
    9040:	943080e3          	beq	ra,gp,0x8980
    9044:	003071b3          	and	gp,zero,gp
    9048:	67d14237          	lui	tp,0x67d14
    904c:	40220133          	sub	sp,tp,sp
    9050:	5c1c1297          	auipc	t0,0x5c1c1
    9054:	7af220b7          	lui	ra,0x7af22
    9058:	08ebc797          	auipc	a5,0x8ebc
    905c:	403001b3          	neg	gp,gp
    9060:	91c10013          	addi	zero,sp,-1764 # 0x3a1b891c
    9064:	9b3600b7          	lui	ra,0x9b360
    9068:	cea8f1b7          	lui	gp,0xcea8f
    906c:	143827b7          	lui	a5,0x14382
    9070:	a939b317          	auipc	t1,0xa939b
    9074:	1ea0b317          	auipc	t1,0x1ea0b
    9078:	40278333          	sub	t1,a5,sp
    907c:	1d9a31b7          	lui	gp,0x1d9a3
    9080:	413822b7          	lui	t0,0x41382
    9084:	846626b7          	lui	a3,0x84662
    9088:	88918f13          	addi	t5,gp,-1911 # 0x1d9a2889
    908c:	40210033          	sub	zero,sp,sp
    9090:	c1118493          	addi	s1,gp,-1007
    9094:	b6898237          	lui	tp,0xb6898
    9098:	00118a33          	add	s4,gp,ra
    909c:	09b7ed17          	auipc	s10,0x9b7e
    90a0:	89e1e213          	ori	tp,gp,-1890
    90a4:	f08bd497          	auipc	s1,0xf08bd
    90a8:	559a51b7          	lui	gp,0x559a5
    90ac:	5b4331b7          	lui	gp,0x5b433
    90b0:	c3418097          	auipc	ra,0xc3418
    90b4:	1942f093          	andi	ra,t0,404
    90b8:	00118263          	beq	gp,ra,0x90bc
    90bc:	efcff0ef          	jal	ra,0x87b8
    90c0:	0010c2b3          	xor	t0,ra,ra
    90c4:	40310333          	sub	t1,sp,gp
    90c8:	a3a951b7          	lui	gp,0xa3a95
    90cc:	854f7137          	lui	sp,0x854f7
    90d0:	f720c093          	xori	ra,ra,-142
    90d4:	003140b3          	xor	ra,sp,gp
    90d8:	85d0e213          	ori	tp,ra,-1955
    90dc:	40fde037          	lui	zero,0x40fde
    90e0:	08108013          	addi	zero,ra,129 # 0xffffffffc3421131
    90e4:	79578237          	lui	tp,0x79578
    90e8:	90893317          	auipc	t1,0x90893
    90ec:	002181b3          	add	gp,gp,sp
    90f0:	9b946317          	auipc	t1,0x9b946
    90f4:	c7408093          	addi	ra,ra,-908
    90f8:	35cf6097          	auipc	ra,0x35cf6
    90fc:	5e369197          	auipc	gp,0x5e369
    9100:	002360b3          	or	ra,t1,sp
    9104:	b3260113          	addi	sp,a2,-1230 # 0x67f987f2
    9108:	00414133          	xor	sp,sp,tp
    910c:	d941f113          	andi	sp,gp,-620
    9110:	4ae6b117          	auipc	sp,0x4ae6b
    9114:	c4b3e3b7          	lui	t2,0xc4b3e
    9118:	8b9373b7          	lui	t2,0x8b937
    911c:	3e36d1b7          	lui	gp,0x3e36d
    9120:	0af16313          	ori	t1,sp,175
    9124:	00326133          	or	sp,tp,gp
    9128:	b1408113          	addi	sp,ra,-1260 # 0x35cfec0c
    912c:	3aa26117          	auipc	sp,0x3aa26
    9130:	f1173137          	lui	sp,0xf1173
    9134:	003175b3          	and	a1,sp,gp
    9138:	2ce37197          	auipc	gp,0x2ce37
    913c:	0041c093          	xori	ra,gp,4
    9140:	00218263          	beq	gp,sp,0x9144
    9144:	cc8ff16f          	jal	sp,0x860c
    9148:	25ed6217          	auipc	tp,0x25ed6
    914c:	40c080b3          	sub	ra,ra,a2
    9150:	302786b7          	lui	a3,0x30278
    9154:	16028113          	addi	sp,t0,352 # 0x41382160
    9158:	55326213          	ori	tp,tp,1363
    915c:	001000b3          	add	ra,zero,ra
    9160:	7ef96117          	auipc	sp,0x7ef96
    9164:	187ea097          	auipc	ra,0x187ea
    9168:	0031e3b3          	or	t2,gp,gp
    916c:	01a040b3          	xor	ra,zero,s10
    9170:	e311f193          	andi	gp,gp,-463
    9174:	b71952b7          	lui	t0,0xb7195
    9178:	002370b3          	and	ra,t1,sp
    917c:	245ad597          	auipc	a1,0x245ad
    9180:	594f8197          	auipc	gp,0x594f8
    9184:	402100b3          	sub	ra,sp,sp
    9188:	07d18313          	addi	t1,gp,125 # 0x595011fd
    918c:	0283b337          	lui	t1,0x283b
    9190:	26a59197          	auipc	gp,0x26a59
    9194:	43ce31b7          	lui	gp,0x43ce3
    9198:	0340e193          	ori	gp,ra,52
    919c:	47f18093          	addi	ra,gp,1151 # 0x43ce347f
    91a0:	e5f10013          	addi	zero,sp,-417 # 0x7ef9efbf
    91a4:	5d910193          	addi	gp,sp,1497
    91a8:	0031eb33          	or	s6,gp,gp
    91ac:	62e18113          	addi	sp,gp,1582
    91b0:	90a500b7          	lui	ra,0x90a50
    91b4:	13ff7217          	auipc	tp,0x13ff7
    91b8:	002141b3          	xor	gp,sp,sp
    91bc:	409aa397          	auipc	t2,0x409aa
    91c0:	e0de5117          	auipc	sp,0xe0de5
    91c4:	11ebfeb7          	lui	t4,0x11ebf
    91c8:	003d4433          	xor	s0,s10,gp
    91cc:	0dc33197          	auipc	gp,0xdc33
    91d0:	0aa02137          	lui	sp,0xaa02
    91d4:	09ea8137          	lui	sp,0x9ea8
    91d8:	6361f093          	andi	ra,gp,1590
    91dc:	0c91e093          	ori	ra,gp,201
    91e0:	46018063          	beqz	gp,0x9640
    91e4:	45c0016f          	jal	sp,0x9640
    91e8:	bfd36393          	ori	t2,t1,-1027
    91ec:	da1ff797          	auipc	a5,0xda1ff
    91f0:	89fa06b7          	lui	a3,0x89fa0
    91f4:	001081b3          	add	gp,ra,ra
    91f8:	6381b097          	auipc	ra,0x6381b
    91fc:	f2c83f17          	auipc	t5,0xf2c83
    9200:	6066a1b7          	lui	gp,0x6066a
    9204:	5d56d337          	lui	t1,0x5d56d
    9208:	c941b197          	auipc	gp,0xc941b
    920c:	7350e213          	ori	tp,ra,1845
    9210:	52159137          	lui	sp,0x52159
    9214:	b9e68097          	auipc	ra,0xb9e68
    9218:	8cf47237          	lui	tp,0x8cf47
    921c:	0016e1b3          	or	gp,a3,ra
    9220:	2c7b2137          	lui	sp,0x2c7b2
    9224:	f342b2b7          	lui	t0,0xf342b
    9228:	6f7b2097          	auipc	ra,0x6f7b2
    922c:	e7372137          	lui	sp,0xe7372
    9230:	5bd1e093          	ori	ra,gp,1469
    9234:	f1814313          	xori	t1,sp,-232
    9238:	00127133          	and	sp,tp,ra
    923c:	e0d96097          	auipc	ra,0xe0d96
    9240:	67beb097          	auipc	ra,0x67beb
    9244:	001160b3          	or	ra,sp,ra
    9248:	8cc5c017          	auipc	zero,0x8cc5c
    924c:	ec316393          	ori	t2,sp,-317
    9250:	eb818093          	addi	ra,gp,-328 # 0xffffffffc94240c0
    9254:	0030e1b3          	or	gp,ra,gp
    9258:	19e89137          	lui	sp,0x19e89
    925c:	0020c133          	xor	sp,ra,sp
    9260:	46430063          	beq	t1,tp,0x96c0
    9264:	45c000ef          	jal	ra,0x96c0
    9268:	00230233          	add	tp,t1,sp
    926c:	d2292397          	auipc	t2,0xd2292
    9270:	e0ba4197          	auipc	gp,0xe0ba4
    9274:	87f0c113          	xori	sp,ra,-1921
    9278:	7420a137          	lui	sp,0x7420a
    927c:	7278c137          	lui	sp,0x7278c
    9280:	0071e1b3          	or	gp,gp,t2
    9284:	6aa08193          	addi	gp,ra,1706 # 0x67bf48ea
    9288:	40d08b33          	sub	s6,ra,a3
    928c:	e324d297          	auipc	t0,0xe324d
    9290:	040210b7          	lui	ra,0x4021
    9294:	7c443117          	auipc	sp,0x7c443
    9298:	83167097          	auipc	ra,0x83167
    929c:	00316133          	or	sp,sp,gp
    92a0:	ea9cf197          	auipc	gp,0xea9cf
    92a4:	c31d3197          	auipc	gp,0xc31d3
    92a8:	580b4197          	auipc	gp,0x580b4
    92ac:	31495137          	lui	sp,0x31495
    92b0:	402200b3          	sub	ra,tp,sp
    92b4:	d041f093          	andi	ra,gp,-764
    92b8:	403100b3          	sub	ra,sp,gp
    92bc:	9b237113          	andi	sp,t1,-1614
    92c0:	46910193          	addi	gp,sp,1129 # 0x31495469
    92c4:	40f380b3          	sub	ra,t2,a5
    92c8:	679721b7          	lui	gp,0x67972
    92cc:	403301b3          	sub	gp,t1,gp
    92d0:	00214133          	xor	sp,sp,sp
    92d4:	40310133          	sub	sp,sp,gp
    92d8:	acbac1b7          	lui	gp,0xacbac
    92dc:	b6094117          	auipc	sp,0xb6094
    92e0:	003080b3          	add	ra,ra,gp
    92e4:	46c8f397          	auipc	t2,0x46c8f
    92e8:	fe0221b7          	lui	gp,0xfe022
    92ec:	bd74f117          	auipc	sp,0xbd74f
    92f0:	2270e113          	ori	sp,ra,551
    92f4:	00148263          	beq	s1,ra,0x92f8
    92f8:	0510016f          	jal	sp,0x9b48
    92fc:	7f1d4593          	xori	a1,s10,2033
    9300:	c161ff13          	andi	t5,gp,-1002
    9304:	72d53117          	auipc	sp,0x72d53
    9308:	5d7bf097          	auipc	ra,0x5d7bf
    930c:	c3e021b7          	lui	gp,0xc3e02
    9310:	760cd197          	auipc	gp,0x760cd
    9314:	e6ad4097          	auipc	ra,0xe6ad4
    9318:	b2b5c0b7          	lui	ra,0xb2b5c
    931c:	d36c8117          	auipc	sp,0xd36c8
    9320:	29028117          	auipc	sp,0x29028
    9324:	fc792197          	auipc	gp,0xfc792
    9328:	00116133          	or	sp,sp,ra
    932c:	82d36113          	ori	sp,t1,-2003
    9330:	f3617193          	andi	gp,sp,-202
    9334:	70a83017          	auipc	zero,0x70a83
    9338:	40b18133          	sub	sp,gp,a1
    933c:	0021f1b3          	and	gp,gp,sp
    9340:	0020c133          	xor	sp,ra,sp
    9344:	221583b7          	lui	t2,0x22158
    9348:	ae50c093          	xori	ra,ra,-1307
    934c:	00328033          	add	zero,t0,gp
    9350:	e79ed197          	auipc	gp,0xe79ed
    9354:	b6840197          	auipc	gp,0xb6840
    9358:	ee9aa197          	auipc	gp,0xee9aa
    935c:	ef757097          	auipc	ra,0xef757
    9360:	f7c17117          	auipc	sp,0xf7c17
    9364:	bfa16213          	ori	tp,sp,-1030
    9368:	178ea197          	auipc	gp,0x178ea
    936c:	62588097          	auipc	ra,0x62588
    9370:	f5124113          	xori	sp,tp,-175
    9374:	e5eb4197          	auipc	gp,0xe5eb4
    9378:	002081b3          	add	gp,ra,sp
    937c:	40240133          	sub	sp,s0,sp
    9380:	8bfb1097          	auipc	ra,0x8bfb1
    9384:	60208a63          	beq	ra,sp,0x9998
    9388:	610003ef          	jal	t2,0x9998
    938c:	0030c133          	xor	sp,ra,gp
    9390:	7010f193          	andi	gp,ra,1793
    9394:	c4038113          	addi	sp,t2,-960 # 0x22157c40
    9398:	001160b3          	or	ra,sp,ra
    939c:	1763f693          	andi	a3,t2,374
    93a0:	402006b3          	neg	a3,sp
    93a4:	8830f193          	andi	gp,ra,-1917
    93a8:	25353297          	auipc	t0,0x25353
    93ac:	d1014193          	xori	gp,sp,-752
    93b0:	68016193          	ori	gp,sp,1664
    93b4:	59c68137          	lui	sp,0x59c68
    93b8:	eaf18213          	addi	tp,gp,-337 # 0xffffffffe5ebd223
    93bc:	d9524117          	auipc	sp,0xd9524
    93c0:	d3fd9117          	auipc	sp,0xd3fd9
    93c4:	0031e1b3          	or	gp,gp,gp
    93c8:	00a101b3          	add	gp,sp,a0
    93cc:	0011f0b3          	and	ra,gp,ra
    93d0:	47a0e293          	ori	t0,ra,1146
    93d4:	98216193          	ori	gp,sp,-1662
    93d8:	70937113          	andi	sp,t1,1801
    93dc:	20c61097          	auipc	ra,0x20c61
    93e0:	25e521b7          	lui	gp,0x25e52
    93e4:	5cd77197          	auipc	gp,0x5cd77
    93e8:	90002397          	auipc	t2,0x90002
    93ec:	1f2793b7          	lui	t2,0x1f279
    93f0:	5a01f193          	andi	gp,gp,1440
    93f4:	61c37197          	auipc	gp,0x61c37
    93f8:	d0348237          	lui	tp,0xd0348
    93fc:	080391b7          	lui	gp,0x8039
    9400:	50120063          	beq	tp,ra,0x9900
    9404:	4fc000ef          	jal	ra,0x9900
    9408:	2422b1b7          	lui	gp,0x2422b
    940c:	00108333          	add	t1,ra,ra
    9410:	0030c1b3          	xor	gp,ra,gp
    9414:	dd9a2197          	auipc	gp,0xdd9a2
    9418:	5135d097          	auipc	ra,0x5135d
    941c:	3690c113          	xori	sp,ra,873
    9420:	34f07293          	andi	t0,zero,847
    9424:	b6c0e193          	ori	gp,ra,-1172
    9428:	e674d0b7          	lui	ra,0xe674d
    942c:	2d10b197          	auipc	gp,0x2d10b
    9430:	aba460b7          	lui	ra,0xaba46
    9434:	69059bb7          	lui	s7,0x69059
    9438:	882fd0b7          	lui	ra,0x882fd
    943c:	464dc0b7          	lui	ra,0x464dc
    9440:	00718133          	add	sp,gp,t2
    9444:	0011f133          	and	sp,gp,ra
    9448:	b1418113          	addi	sp,gp,-1260 # 0x2d113f40
    944c:	003101b3          	add	gp,sp,gp
    9450:	01c17b33          	and	s6,sp,t3
    9454:	0071cfb3          	xor	t6,gp,t2
    9458:	620530b7          	lui	ra,0x62053
    945c:	282a2097          	auipc	ra,0x282a2
    9460:	3618b2b7          	lui	t0,0x3618b
    9464:	779c4137          	lui	sp,0x779c4
    9468:	26c1d137          	lui	sp,0x26c1d
    946c:	6f434137          	lui	sp,0x6f434
    9470:	3bc06393          	ori	t2,zero,956
    9474:	40808333          	sub	t1,ra,s0
    9478:	0019e333          	or	t1,s3,ra
    947c:	d0c99117          	auipc	sp,0xd0c99
    9480:	0020f133          	and	sp,ra,sp
    9484:	5fa31197          	auipc	gp,0x5fa31
    9488:	247ad097          	auipc	ra,0x247ad
    948c:	e65108e3          	beq	sp,t0,0x92fc
    9490:	e6dff16f          	jal	sp,0x92fc
    9494:	f9e1c113          	xori	sp,gp,-98
    9498:	a9b3e193          	ori	gp,t2,-1381
    949c:	9e9d6097          	auipc	ra,0x9e9d6
    94a0:	0020c133          	xor	sp,ra,sp
    94a4:	954ea137          	lui	sp,0x954ea
    94a8:	4de1c0b7          	lui	ra,0x4de1c
    94ac:	9f01f113          	andi	sp,gp,-1552
    94b0:	3d111137          	lui	sp,0x3d111
    94b4:	1f118313          	addi	t1,gp,497 # 0x5fa3a675
    94b8:	5fd23337          	lui	t1,0x5fd23
    94bc:	001271b3          	and	gp,tp,ra
    94c0:	0901c093          	xori	ra,gp,144
    94c4:	6cee9097          	auipc	ra,0x6cee9
    94c8:	58126297          	auipc	t0,0x58126
    94cc:	4e40f113          	andi	sp,ra,1252
    94d0:	975be1b7          	lui	gp,0x975be
    94d4:	409480b3          	sub	ra,s1,s1
    94d8:	0031e133          	or	sp,gp,gp
    94dc:	66d04097          	auipc	ra,0x66d04
    94e0:	ae3993b7          	lui	t2,0xae399
    94e4:	3e7df897          	auipc	a7,0x3e7df
    94e8:	98cd1137          	lui	sp,0x98cd1
    94ec:	8ef36017          	auipc	zero,0x8ef36
    94f0:	d8bb41b7          	lui	gp,0xd8bb4
    94f4:	0040f1b3          	and	gp,ra,tp
    94f8:	d69f01b7          	lui	gp,0xd69f0
    94fc:	006181b3          	add	gp,gp,t1
    9500:	402181b3          	sub	gp,gp,sp
    9504:	88920197          	auipc	gp,0x88920
    9508:	914a8117          	auipc	sp,0x914a8
    950c:	8a83e137          	lui	sp,0x8a83e
    9510:	9563f093          	andi	ra,t2,-1706
    9514:	d4337137          	lui	sp,0xd4337
    9518:	f40d2097          	auipc	ra,0xf40d2
    951c:	00194133          	xor	sp,s2,ra
    9520:	51318063          	beq	gp,s3,0x9a20
    9524:	4fc0016f          	jal	sp,0x9a20
    9528:	0000e1b3          	or	gp,ra,zero
    952c:	d75643b7          	lui	t2,0xd7564
    9530:	00210033          	add	zero,sp,sp
    9534:	3c91c093          	xori	ra,gp,969
    9538:	4b1930b7          	lui	ra,0x4b193
    953c:	5ae1e193          	ori	gp,gp,1454
    9540:	750d81b7          	lui	gp,0x750d8
    9544:	1a30e193          	ori	gp,ra,419
    9548:	002163b3          	or	t2,sp,sp
    954c:	15224017          	auipc	zero,0x15224
    9550:	86901337          	lui	t1,0x86901
    9554:	00038133          	add	sp,t2,zero
    9558:	9ad99017          	auipc	zero,0x9ad99
    955c:	4e408093          	addi	ra,ra,1252 # 0x4b1934e4
    9560:	a2a14093          	xori	ra,sp,-1494
    9564:	cc63b097          	auipc	ra,0xcc63b
    9568:	00028133          	add	sp,t0,zero
    956c:	5555cb17          	auipc	s6,0x5555c
    9570:	87463117          	auipc	sp,0x87463
    9574:	98db6c97          	auipc	s9,0x98db6
    9578:	5a50c097          	auipc	ra,0x5a50c
    957c:	39f524b7          	lui	s1,0x39f52
    9580:	78110193          	addi	gp,sp,1921 # 0xffffffff8746ccf1
    9584:	53e0e093          	ori	ra,ra,1342
    9588:	f0a93117          	auipc	sp,0xf0a93
    958c:	1f8f8137          	lui	sp,0x1f8f8
    9590:	fa28b097          	auipc	ra,0xfa28b
    9594:	402180b3          	sub	ra,gp,sp
    9598:	abb77097          	auipc	ra,0xabb77
    959c:	0034e1b3          	or	gp,s1,gp
    95a0:	fb20f693          	andi	a3,ra,-78
    95a4:	80a8d1b7          	lui	gp,0x80a8d
    95a8:	a3a14113          	xori	sp,sp,-1478
    95ac:	9c11e193          	ori	gp,gp,-1599
    95b0:	00000197          	auipc	gp,0x0
    95b4:	008183e7          	jalr	t2,8(gp) # 0x95b8
    95b8:	db1c8197          	auipc	gp,0xdb1c8
    95bc:	fe6200b7          	lui	ra,0xfe620
    95c0:	06017193          	andi	gp,sp,96
    95c4:	fb3e6237          	lui	tp,0xfb3e6
    95c8:	006081b3          	add	gp,ra,t1
    95cc:	1b5ff137          	lui	sp,0x1b5ff
    95d0:	00d1f1b3          	and	gp,gp,a3
    95d4:	af53a0b7          	lui	ra,0xaf53a
    95d8:	35a18293          	addi	t0,gp,858 # 0xffffffffdb1d1912
    95dc:	0061c8b3          	xor	a7,gp,t1
    95e0:	c4f4d197          	auipc	gp,0xc4f4d
    95e4:	003181b3          	add	gp,gp,gp
    95e8:	002170b3          	and	ra,sp,sp
    95ec:	f0900137          	lui	sp,0xf0900
    95f0:	0030f6b3          	and	a3,ra,gp
    95f4:	7d81e393          	ori	t2,gp,2008
    95f8:	57918693          	addi	a3,gp,1401 # 0xffffffffc4f56b59
    95fc:	a9f1e0b7          	lui	ra,0xa9f1e
    9600:	00207133          	and	sp,zero,sp
    9604:	42fe2017          	auipc	zero,0x42fe2
    9608:	b3407113          	andi	sp,zero,-1228
    960c:	0010c1b3          	xor	gp,ra,ra
    9610:	243001b7          	lui	gp,0x24300
    9614:	cda152b7          	lui	t0,0xcda15
    9618:	78d04193          	xori	gp,zero,1933
    961c:	32099537          	lui	a0,0x32099
    9620:	af10f113          	andi	sp,ra,-1295
    9624:	0030f233          	and	tp,ra,gp
    9628:	e69840b7          	lui	ra,0xe6984
    962c:	3cb31117          	auipc	sp,0x3cb31
    9630:	16633097          	auipc	ra,0x16633
    9634:	ddf0f093          	andi	ra,ra,-545
    9638:	00308263          	beq	ra,gp,0x963c
    963c:	0b1003ef          	jal	t2,0x9eec
    9640:	5ed27113          	andi	sp,tp,1517
    9644:	002240b3          	xor	ra,tp,sp
    9648:	a4c17113          	andi	sp,sp,-1460
    964c:	0021f0b3          	and	ra,gp,sp
    9650:	fb50f1b7          	lui	gp,0xfb50f
    9654:	c5c34313          	xori	t1,t1,-932
    9658:	002101b3          	add	gp,sp,sp
    965c:	efb10193          	addi	gp,sp,-261 # 0x3cb3a527
    9660:	4e5d7117          	auipc	sp,0x4e5d7
    9664:	c8f04193          	xori	gp,zero,-881
    9668:	92d17113          	andi	sp,sp,-1747
    966c:	0021f133          	and	sp,gp,sp
    9670:	b6b1e093          	ori	ra,gp,-1173
    9674:	e2cd90b7          	lui	ra,0xe2cd9
    9678:	14373117          	auipc	sp,0x14373
    967c:	be569337          	lui	t1,0xbe569
    9680:	64700017          	auipc	zero,0x64700
    9684:	9e21c113          	xori	sp,gp,-1566
    9688:	db316293          	ori	t0,sp,-589
    968c:	ada30013          	addi	zero,t1,-1318 # 0xffffffffbe568ada
    9690:	9224d217          	auipc	tp,0x9224d
    9694:	1aeec0b7          	lui	ra,0x1aeec
    9698:	1f6360b7          	lui	ra,0x1f636
    969c:	8d92e193          	ori	gp,t0,-1831
    96a0:	3d120097          	auipc	ra,0x3d120
    96a4:	b5208137          	lui	sp,0xb5208
    96a8:	a9df8197          	auipc	gp,0xa9df8
    96ac:	21d34113          	xori	sp,t1,541
    96b0:	9860e313          	ori	t1,ra,-1658
    96b4:	17534137          	lui	sp,0x17534
    96b8:	50118663          	beq	gp,ra,0x9bc4
    96bc:	508000ef          	jal	ra,0x9bc4
    96c0:	401182b3          	sub	t0,gp,ra
    96c4:	01510133          	add	sp,sp,s5
    96c8:	004100b3          	add	ra,sp,tp
    96cc:	a0314313          	xori	t1,sp,-1533
    96d0:	000140b3          	xor	ra,sp,zero
    96d4:	a1bd8097          	auipc	ra,0xa1bd8
    96d8:	bf1cf397          	auipc	t2,0xbf1cf
    96dc:	a7eac017          	auipc	zero,0xa7eac
    96e0:	0018c3b3          	xor	t2,a7,ra
    96e4:	5f50e193          	ori	gp,ra,1525
    96e8:	bac16213          	ori	tp,sp,-1108
    96ec:	eaf34137          	lui	sp,0xeaf34
    96f0:	b6dcc417          	auipc	s0,0xb6dcc
    96f4:	4a093117          	auipc	sp,0x4a093
    96f8:	ff30c093          	xori	ra,ra,-13
    96fc:	23f90137          	lui	sp,0x23f90
    9700:	d5837b17          	auipc	s6,0xd5837
    9704:	b364f117          	auipc	sp,0xb364f
    9708:	67016093          	ori	ra,sp,1648
    970c:	e4f08793          	addi	a5,ra,-433 # 0xffffffffa1be1523
    9710:	001083b3          	add	t2,ra,ra
    9714:	480020b7          	lui	ra,0x48002
    9718:	0071e1b3          	or	gp,gp,t2
    971c:	7491f213          	andi	tp,gp,1865
    9720:	0060f0b3          	and	ra,ra,t1
    9724:	fe997137          	lui	sp,0xfe997
    9728:	c6cc81b7          	lui	gp,0xc6cc8
    972c:	00d87133          	and	sp,a6,a3
    9730:	3fb2c093          	xori	ra,t0,1019
    9734:	74b1c013          	xori	zero,gp,1867
    9738:	000100b3          	add	ra,sp,zero
    973c:	00310133          	add	sp,sp,gp
    9740:	34322117          	auipc	sp,0x34322
    9744:	87bf20b7          	lui	ra,0x87bf2
    9748:	00028093          	mv	ra,t0
    974c:	9e508ee3          	beq	ra,t0,0x9148
    9750:	4c2180b7          	lui	ra,0x4c218
    9754:	9f3f9197          	auipc	gp,0x9f3f9
    9758:	3e416193          	ori	gp,sp,996
    975c:	0030c1b3          	xor	gp,ra,gp
    9760:	0030c3b3          	xor	t2,ra,gp
    9764:	004103b3          	add	t2,sp,tp
    9768:	b832c117          	auipc	sp,0xb832c
    976c:	e9fc3097          	auipc	ra,0xe9fc3
    9770:	00114133          	xor	sp,sp,ra
    9774:	f511f113          	andi	sp,gp,-175
    9778:	92ccf197          	auipc	gp,0x92ccf
    977c:	1b2150b7          	lui	ra,0x1b215
    9780:	ac3c60b7          	lui	ra,0xac3c6
    9784:	a9e62097          	auipc	ra,0xa9e62
    9788:	82ae90b7          	lui	ra,0x82ae9
    978c:	06b5e7b7          	lui	a5,0x6b5e
    9790:	40108133          	sub	sp,ra,ra
    9794:	d21dc117          	auipc	sp,0xd21dc
    9798:	cf526113          	ori	sp,tp,-779
    979c:	0742b117          	auipc	sp,0x742b
    97a0:	003241b3          	xor	gp,tp,gp
    97a4:	3c916313          	ori	t1,sp,969
    97a8:	392f7197          	auipc	gp,0x392f7
    97ac:	04e18113          	addi	sp,gp,78 # 0x393007f6
    97b0:	00524333          	xor	t1,tp,t0
    97b4:	1f01b097          	auipc	ra,0x1f01b
    97b8:	90c17b93          	andi	s7,sp,-1780
    97bc:	52a1e113          	ori	sp,gp,1322
    97c0:	4e7f60b7          	lui	ra,0x4e7f6
    97c4:	82e75297          	auipc	t0,0x82e75
    97c8:	d67f31b7          	lui	gp,0xd67f3
    97cc:	59e94197          	auipc	gp,0x59e94
    97d0:	c42062b7          	lui	t0,0xc4206
    97d4:	c73f9037          	lui	zero,0xc73f9
    97d8:	fbe38113          	addi	sp,t2,-66 # 0xffffffffbf1d8696
    97dc:	7a21f793          	andi	a5,gp,1954
    97e0:	ffe17117          	auipc	sp,0xffe17
    97e4:	00018113          	mv	sp,gp
    97e8:	00310263          	beq	sp,gp,0x97ec
    97ec:	df2f51b7          	lui	gp,0xdf2f5
    97f0:	002170b3          	and	ra,sp,sp
    97f4:	3437f0b7          	lui	ra,0x3437f
    97f8:	29f1c393          	xori	t2,gp,671
    97fc:	00308233          	add	tp,ra,gp
    9800:	1a42a237          	lui	tp,0x1a42a
    9804:	0060c133          	xor	sp,ra,t1
    9808:	b6755397          	auipc	t2,0xb6755
    980c:	400180b3          	sub	ra,gp,zero
    9810:	0011e233          	or	tp,gp,ra
    9814:	16ac0297          	auipc	t0,0x16ac0
    9818:	a5117093          	andi	ra,sp,-1455
    981c:	01516133          	or	sp,sp,s5
    9820:	002ff1b3          	and	gp,t6,sp
    9824:	003176b3          	and	a3,sp,gp
    9828:	52f2c193          	xori	gp,t0,1327
    982c:	cbf36193          	ori	gp,t1,-833
    9830:	40218333          	sub	t1,gp,sp
    9834:	f692c0b7          	lui	ra,0xf692c
    9838:	471146b7          	lui	a3,0x47114
    983c:	00108133          	add	sp,ra,ra
    9840:	35a4b1b7          	lui	gp,0x35a4b
    9844:	ac838193          	addi	gp,t2,-1336 # 0xffffffffb675e2d0
    9848:	0c1b4117          	auipc	sp,0xc1b4
    984c:	fa71f113          	andi	sp,gp,-89
    9850:	448d3097          	auipc	ra,0x448d3
    9854:	01714133          	xor	sp,sp,s7
    9858:	06b0f313          	andi	t1,ra,107
    985c:	056c7297          	auipc	t0,0x56c7
    9860:	e3f00093          	li	ra,-449
    9864:	a4280317          	auipc	t1,0xa4280
    9868:	401201b3          	sub	gp,tp,ra
    986c:	bcb0e893          	ori	a7,ra,-1077
    9870:	77b92137          	lui	sp,0x77b92
    9874:	ca388ae3          	beq	a7,gp,0x9528
    9878:	cb1ff16f          	jal	sp,0x9528
    987c:	401100b3          	sub	ra,sp,ra
    9880:	3a71e293          	ori	t0,gp,935
    9884:	44a53097          	auipc	ra,0x44a53
    9888:	402080b3          	sub	ra,ra,sp
    988c:	802f90b7          	lui	ra,0x802f9
    9890:	a2c620b7          	lui	ra,0xa2c62
    9894:	8c46f393          	andi	t2,a3,-1852
    9898:	007180b3          	add	ra,gp,t2
    989c:	0c2c00b7          	lui	ra,0xc2c0
    98a0:	f4a75497          	auipc	s1,0xf4a75
    98a4:	5f73e117          	auipc	sp,0x5f73e
    98a8:	3f2d9097          	auipc	ra,0x3f2d9
    98ac:	0df3f193          	andi	gp,t2,223
    98b0:	def08013          	addi	zero,ra,-529 # 0x3f2e2697
    98b4:	5e41f093          	andi	ra,gp,1508
    98b8:	50206097          	auipc	ra,0x50206
    98bc:	1ed460b7          	lui	ra,0x1ed46
    98c0:	000004b3          	add	s1,zero,zero
    98c4:	850781b7          	lui	gp,0x85078
    98c8:	5e624117          	auipc	sp,0x5e624
    98cc:	00127333          	and	t1,tp,ra
    98d0:	4e010193          	addi	gp,sp,1248 # 0x5e62dda8
    98d4:	000041b3          	xor	gp,zero,zero
    98d8:	40010133          	sub	sp,sp,zero
    98dc:	5c3c7317          	auipc	t1,0x5c3c7
    98e0:	0041c133          	xor	sp,gp,tp
    98e4:	b4b34093          	xori	ra,t1,-1205
    98e8:	14fd5237          	lui	tp,0x14fd5
    98ec:	43fda137          	lui	sp,0x43fda
    98f0:	00110133          	add	sp,sp,ra
    98f4:	3e4f7097          	auipc	ra,0x3e4f7
    98f8:	00018093          	mv	ra,gp
    98fc:	b03086e3          	beq	ra,gp,0x9408
    9900:	e972ff17          	auipc	t5,0xe972f
    9904:	0070e2b3          	or	t0,ra,t2
    9908:	0021c233          	xor	tp,gp,sp
    990c:	72516193          	ori	gp,sp,1829
    9910:	0f01e393          	ori	t2,gp,240
    9914:	83e230b7          	lui	ra,0x83e23
    9918:	401781b3          	sub	gp,a5,ra
    991c:	00408233          	add	tp,ra,tp
    9920:	a4175197          	auipc	gp,0xa4175
    9924:	ab8cd017          	auipc	zero,0xab8cd
    9928:	67cc6137          	lui	sp,0x67cc6
    992c:	3da08393          	addi	t2,ra,986 # 0xffffffff83e233da
    9930:	e9a3e193          	ori	gp,t2,-358
    9934:	18b68697          	auipc	a3,0x18b68
    9938:	00327333          	and	t1,tp,gp
    993c:	0010f0b3          	and	ra,ra,ra
    9940:	c6d4a3b7          	lui	t2,0xc6d4a
    9944:	8c41c193          	xori	gp,gp,-1852
    9948:	002541b3          	xor	gp,a0,sp
    994c:	c19c30b7          	lui	ra,0xc19c3
    9950:	0cc34197          	auipc	gp,0xcc34
    9954:	f2d0e013          	ori	zero,ra,-211
    9958:	aa2d82b7          	lui	t0,0xaa2d8
    995c:	08d10097          	auipc	ra,0x8d10
    9960:	c0af21b7          	lui	gp,0xc0af2
    9964:	12587217          	auipc	tp,0x12587
    9968:	3a120093          	addi	ra,tp,929 # 0x12590d05
    996c:	401103b3          	sub	t2,sp,ra
    9970:	0e5a9197          	auipc	gp,0xe5a9
    9974:	85114093          	xori	ra,sp,-1967
    9978:	dae10293          	addi	t0,sp,-594 # 0x67cc5dae
    997c:	43735097          	auipc	ra,0x43735
    9980:	00114133          	xor	sp,sp,ra
    9984:	71ef3137          	lui	sp,0x71ef3
    9988:	eb44c0b7          	lui	ra,0xeb44c
    998c:	7d79f137          	lui	sp,0x7d79f
    9990:	b01382e3          	beq	t2,ra,0x9494
    9994:	b01ff1ef          	jal	gp,0x9494
    9998:	2a90e113          	ori	sp,ra,681
    999c:	31f5f117          	auipc	sp,0x31f5f
    99a0:	00408193          	addi	gp,ra,4 # 0xffffffffeb44c004
    99a4:	002163b3          	or	t2,sp,sp
    99a8:	c269f017          	auipc	zero,0xc269f
    99ac:	a3189137          	lui	sp,0xa3189
    99b0:	f423c093          	xori	ra,t2,-190
    99b4:	54b06913          	ori	s2,zero,1355
    99b8:	28cf8297          	auipc	t0,0x28cf8
    99bc:	3f289117          	auipc	sp,0x3f289
    99c0:	003181b3          	add	gp,gp,gp
    99c4:	412110b7          	lui	ra,0x41211
    99c8:	16737093          	andi	ra,t1,359
    99cc:	e6578197          	auipc	gp,0xe6578
    99d0:	66f00693          	li	a3,1647
    99d4:	8de14093          	xori	ra,sp,-1826
    99d8:	0a724b93          	xori	s7,tp,167
    99dc:	626b8237          	lui	tp,0x626b8
    99e0:	1aa54097          	auipc	ra,0x1aa54
    99e4:	3c904113          	xori	sp,zero,969
    99e8:	3369a1b7          	lui	gp,0x3369a
    99ec:	32818393          	addi	t2,gp,808 # 0x3369a328
    99f0:	566be2b7          	lui	t0,0x566be
    99f4:	d0e7b5b7          	lui	a1,0xd0e7b
    99f8:	0031e133          	or	sp,gp,gp
    99fc:	8c4a6117          	auipc	sp,0x8c4a6
    9a00:	bd2ff593          	andi	a1,t6,-1070
    9a04:	b65351b7          	lui	gp,0xb6535
    9a08:	00114033          	xor	zero,sp,ra
    9a0c:	d5eee1b7          	lui	gp,0xd5eee
    9a10:	11f32237          	lui	tp,0x11f32
    9a14:	62e06293          	ori	t0,zero,1582
    9a18:	00000297          	auipc	t0,0x0
    9a1c:	d38281e7          	jalr	gp,-712(t0) # 0x9750
    9a20:	48d0e193          	ori	gp,ra,1165
    9a24:	0035c033          	xor	zero,a1,gp
    9a28:	3be6b297          	auipc	t0,0x3be6b
    9a2c:	1640f093          	andi	ra,ra,356
    9a30:	152ec297          	auipc	t0,0x152ec
    9a34:	46fbf117          	auipc	sp,0x46fbf
    9a38:	2ed16093          	ori	ra,sp,749
    9a3c:	1477a137          	lui	sp,0x1477a
    9a40:	de9fc137          	lui	sp,0xde9fc
    9a44:	1ad1e093          	ori	ra,gp,429
    9a48:	00d2c0b3          	xor	ra,t0,a3
    9a4c:	cd808793          	addi	a5,ra,-808 # 0x1aa5d6b8
    9a50:	c8c11197          	auipc	gp,0xc8c11
    9a54:	58d3f693          	andi	a3,t2,1421
    9a58:	1c5f2097          	auipc	ra,0x1c5f2
    9a5c:	fb984197          	auipc	gp,0xfb984
    9a60:	8f873237          	lui	tp,0x8f873
    9a64:	fee7b197          	auipc	gp,0xfee7b
    9a68:	00a1c8b3          	xor	a7,gp,a0
    9a6c:	f0f21097          	auipc	ra,0xf0f21
    9a70:	403301b3          	sub	gp,t1,gp
    9a74:	01e0f133          	and	sp,ra,t5
    9a78:	956a5197          	auipc	gp,0x956a5
    9a7c:	0022c0b3          	xor	ra,t0,sp
    9a80:	d6eec117          	auipc	sp,0xd6eec
    9a84:	e33d71b7          	lui	gp,0xe33d7
    9a88:	402000b3          	neg	ra,sp
    9a8c:	004074b3          	and	s1,zero,tp
    9a90:	007171b3          	and	gp,sp,t2
    9a94:	d003c113          	xori	sp,t2,-768
    9a98:	00310133          	add	sp,sp,gp
    9a9c:	9a3a9197          	auipc	gp,0x9a3a9
    9aa0:	66bee097          	auipc	ra,0x66bee
    9aa4:	4bfd51b7          	lui	gp,0x4bfd5
    9aa8:	00200263          	beq	zero,sp,0x9aac
    9aac:	fbcff36f          	jal	t1,0x9268
    9ab0:	20716393          	ori	t2,sp,519
    9ab4:	32116093          	ori	ra,sp,801
    9ab8:	82d0c613          	xori	a2,ra,-2003
    9abc:	002140b3          	xor	ra,sp,sp
    9ac0:	b2b1f013          	andi	zero,gp,-1237
    9ac4:	fe6b8197          	auipc	gp,0xfe6b8
    9ac8:	0070f3b3          	and	t2,ra,t2
    9acc:	40210e33          	sub	t3,sp,sp
    9ad0:	5b444397          	auipc	t2,0x5b444
    9ad4:	1cb901b7          	lui	gp,0x1cb90
    9ad8:	b4e17093          	andi	ra,sp,-1202
    9adc:	00a16013          	ori	zero,sp,10
    9ae0:	5f717113          	andi	sp,sp,1527
    9ae4:	4ee27117          	auipc	sp,0x4ee27
    9ae8:	95508197          	auipc	gp,0x95508
    9aec:	d00d61b7          	lui	gp,0xd00d6
    9af0:	d7010113          	addi	sp,sp,-656 # 0x4ee30854
    9af4:	0010f0b3          	and	ra,ra,ra
    9af8:	857120b7          	lui	ra,0x85712
    9afc:	767ea117          	auipc	sp,0x767ea
    9b00:	00114233          	xor	tp,sp,ra
    9b04:	db05c1b7          	lui	gp,0xdb05c
    9b08:	da3d0217          	auipc	tp,0xda3d0
    9b0c:	401300b3          	sub	ra,t1,ra
    9b10:	0c1c7317          	auipc	t1,0xc1c7
    9b14:	98bc50b7          	lui	ra,0x98bc5
    9b18:	3a9860b7          	lui	ra,0x3a986
    9b1c:	402181b3          	sub	gp,gp,sp
    9b20:	179360b7          	lui	ra,0x17936
    9b24:	2fcdd0b7          	lui	ra,0x2fcdd
    9b28:	00027133          	and	sp,tp,zero
    9b2c:	799037b7          	lui	a5,0x79903
    9b30:	0040f133          	and	sp,ra,tp
    9b34:	e50c4317          	auipc	t1,0xe50c4
    9b38:	fd1bd097          	auipc	ra,0xfd1bd
    9b3c:	9f2974b7          	lui	s1,0x9f297
    9b40:	d2300ee3          	beq	zero,gp,0x987c
    9b44:	d39ff1ef          	jal	gp,0x987c
    9b48:	d8580037          	lui	zero,0xd8580
    9b4c:	a4318193          	addi	gp,gp,-1469 # 0xffffffffdb05ba43
    9b50:	81a7a337          	lui	t1,0x81a7a
    9b54:	001102b3          	add	t0,sp,ra
    9b58:	001af1b3          	and	gp,s5,ra
    9b5c:	d3704293          	xori	t0,zero,-713
    9b60:	21ab70b7          	lui	ra,0x21ab7
    9b64:	ac35b117          	auipc	sp,0xac35b
    9b68:	003161b3          	or	gp,sp,gp
    9b6c:	1840f293          	andi	t0,ra,388
    9b70:	0022f3b3          	and	t2,t0,sp
    9b74:	10221597          	auipc	a1,0x10221
    9b78:	96308193          	addi	gp,ra,-1693 # 0x21ab6963
    9b7c:	403301b3          	sub	gp,t1,gp
    9b80:	c220a317          	auipc	t1,0xc220a
    9b84:	fea99137          	lui	sp,0xfea99
    9b88:	2c824093          	xori	ra,tp,712
    9b8c:	7161c213          	xori	tp,gp,1814
    9b90:	f0c5a317          	auipc	t1,0xf0c5a
    9b94:	5100c093          	xori	ra,ra,1296
    9b98:	82b1a137          	lui	sp,0x82b1a
    9b9c:	dfe30213          	addi	tp,t1,-514 # 0xfffffffff0c6398e
    9ba0:	778c6197          	auipc	gp,0x778c6
    9ba4:	f3e12137          	lui	sp,0xf3e12
    9ba8:	99a17093          	andi	ra,sp,-1638
    9bac:	d871e113          	ori	sp,gp,-633
    9bb0:	280a1197          	auipc	gp,0x280a1
    9bb4:	778f70b7          	lui	ra,0x778f7
    9bb8:	9e4510b7          	lui	ra,0x9e451
    9bbc:	00000097          	auipc	ra,0x0
    9bc0:	ef408167          	jalr	sp,-268(ra) # 0x9ab0
    9bc4:	7eb64337          	lui	t1,0x7eb64
    9bc8:	fb43e113          	ori	sp,t2,-76
    9bcc:	00317333          	and	t1,sp,gp
    9bd0:	003340b3          	xor	ra,t1,gp
    9bd4:	9a51c193          	xori	gp,gp,-1627
    9bd8:	baef7097          	auipc	ra,0xbaef7
    9bdc:	e0014093          	xori	ra,sp,-512
    9be0:	791793b7          	lui	t2,0x79179
    9be4:	00316733          	or	a4,sp,gp
    9be8:	dce14193          	xori	gp,sp,-562
    9bec:	0022c0b3          	xor	ra,t0,sp
    9bf0:	00214133          	xor	sp,sp,sp
    9bf4:	0021c0b3          	xor	ra,gp,sp
    9bf8:	0e11e093          	ori	ra,gp,225
    9bfc:	0000f1b3          	and	gp,ra,zero
    9c00:	0022e3b3          	or	t2,t0,sp
    9c04:	c9851197          	auipc	gp,0xc9851
    9c08:	00327133          	and	sp,tp,gp
    9c0c:	b570c093          	xori	ra,ra,-1193
    9c10:	a590f193          	andi	gp,ra,-1447
    9c14:	f8e4e113          	ori	sp,s1,-114
    9c18:	39f62117          	auipc	sp,0x39f62
    9c1c:	dd01f113          	andi	sp,gp,-560
    9c20:	00338133          	add	sp,t2,gp
    9c24:	cd0570b7          	lui	ra,0xcd057
    9c28:	0031f133          	and	sp,gp,gp
    9c2c:	002271b3          	and	gp,tp,sp
    9c30:	40308133          	sub	sp,ra,gp
    9c34:	8b14d497          	auipc	s1,0x8b14d
    9c38:	0030f233          	and	tp,ra,gp
    9c3c:	85146137          	lui	sp,0x85146
    9c40:	00114833          	xor	a6,sp,ra
    9c44:	0ad4d2b7          	lui	t0,0xad4d
    9c48:	2960c093          	xori	ra,ra,662
    9c4c:	00208263          	beq	ra,sp,0x9c50
    9c50:	f3cff0ef          	jal	ra,0x938c
    9c54:	fa11e193          	ori	gp,gp,-95
    9c58:	9fc6f093          	andi	ra,a3,-1540
    9c5c:	13538293          	addi	t0,t2,309 # 0x79179135
    9c60:	a614f217          	auipc	tp,0xa614f
    9c64:	f1210097          	auipc	ra,0xf1210
    9c68:	29b77237          	lui	tp,0x29b77
    9c6c:	54a6e093          	ori	ra,a3,1354
    9c70:	f335b1b7          	lui	gp,0xf335b
    9c74:	39f6f197          	auipc	gp,0x39f6f
    9c78:	28e11197          	auipc	gp,0x28e11
    9c7c:	2a4c8317          	auipc	t1,0x2a4c8
    9c80:	403503b3          	sub	t2,a0,gp
    9c84:	7c0f7137          	lui	sp,0x7c0f7
    9c88:	daa30193          	addi	gp,t1,-598 # 0x2a4d1a26
    9c8c:	c5105337          	lui	t1,0xc5105
    9c90:	0031e133          	or	sp,gp,gp
    9c94:	4440c113          	xori	sp,ra,1092
    9c98:	4f6a71b7          	lui	gp,0x4f6a7
    9c9c:	40e3d0b7          	lui	ra,0x40e3d
    9ca0:	238c4117          	auipc	sp,0x238c4
    9ca4:	030050b7          	lui	ra,0x3005
    9ca8:	0050c1b3          	xor	gp,ra,t0
    9cac:	30327137          	lui	sp,0x30327
    9cb0:	b41740b7          	lui	ra,0xb4174
    9cb4:	85f3f193          	andi	gp,t2,-1953
    9cb8:	0d5630b7          	lui	ra,0xd563
    9cbc:	0010e0b3          	or	ra,ra,ra
    9cc0:	ab5be097          	auipc	ra,0xab5be
    9cc4:	b23c2337          	lui	t1,0xb23c2
    9cc8:	40218133          	sub	sp,gp,sp
    9ccc:	2d9c57b7          	lui	a5,0x2d9c5
    9cd0:	00008113          	mv	sp,ra
    9cd4:	08110463          	beq	sp,ra,0x9d5c
    9cd8:	0061f233          	and	tp,gp,t1
    9cdc:	006100b3          	add	ra,sp,t1
    9ce0:	90627237          	lui	tp,0x90627
    9ce4:	1d0f8337          	lui	t1,0x1d0f8
    9ce8:	143233b7          	lui	t2,0x14323
    9cec:	71b26093          	ori	ra,tp,1819
    9cf0:	f3eaa137          	lui	sp,0xf3eaa
    9cf4:	2f81c093          	xori	ra,gp,760
    9cf8:	dd8c73b7          	lui	t2,0xdd8c7
    9cfc:	155b20b7          	lui	ra,0x155b2
    9d00:	ce208013          	addi	zero,ra,-798 # 0x155b1ce2
    9d04:	1d2f3097          	auipc	ra,0x1d2f3
    9d08:	6dcf8197          	auipc	gp,0x6dcf8
    9d0c:	0c116093          	ori	ra,sp,193
    9d10:	77b92097          	auipc	ra,0x77b92
    9d14:	005140b3          	xor	ra,sp,t0
    9d18:	0030cfb3          	xor	t6,ra,gp
    9d1c:	b011f493          	andi	s1,gp,-1279
    9d20:	aab36393          	ori	t2,t1,-1365
    9d24:	cb3720b7          	lui	ra,0xcb372
    9d28:	0ccd31b7          	lui	gp,0xccd3
    9d2c:	1ba1e113          	ori	sp,gp,442
    9d30:	a2328193          	addi	gp,t0,-1501 # 0xad4ca23
    9d34:	04164117          	auipc	sp,0x4164
    9d38:	53236213          	ori	tp,t1,1330
    9d3c:	a970c493          	xori	s1,ra,-1385
    9d40:	402102b3          	sub	t0,sp,sp
    9d44:	002172b3          	and	t0,sp,sp
    9d48:	34dda137          	lui	sp,0x34dda
    9d4c:	ad463137          	lui	sp,0xad463
    9d50:	2f1e1117          	auipc	sp,0x2f1e1
    9d54:	00308263          	beq	ra,gp,0x9d58
    9d58:	1410046f          	jal	s0,0xa698
    9d5c:	2ed18013          	addi	zero,gp,749 # 0xccd32ed
    9d60:	a9d01297          	auipc	t0,0xa9d01
    9d64:	e8d14093          	xori	ra,sp,-371
    9d68:	b650f113          	andi	sp,ra,-1179
    9d6c:	955e01b7          	lui	gp,0x955e0
    9d70:	c89d0097          	auipc	ra,0xc89d0
    9d74:	352a40b7          	lui	ra,0x352a4
    9d78:	e170c093          	xori	ra,ra,-489
    9d7c:	26719117          	auipc	sp,0x26719
    9d80:	5ce81ab7          	lui	s5,0x5ce81
    9d84:	00e1c033          	xor	zero,gp,a4
    9d88:	761440b7          	lui	ra,0x76144
    9d8c:	19bf1117          	auipc	sp,0x19bf1
    9d90:	006182b3          	add	t0,gp,t1
    9d94:	960ab097          	auipc	ra,0x960ab
    9d98:	a8608013          	addi	zero,ra,-1402 # 0xffffffff960b481a
    9d9c:	00337cb3          	and	s9,t1,gp
    9da0:	401683b3          	sub	t2,a3,ra
    9da4:	f2c4d097          	auipc	ra,0xf2c4d
    9da8:	44fa7217          	auipc	tp,0x44fa7
    9dac:	13bd3197          	auipc	gp,0x13bd3
    9db0:	0000c1b3          	xor	gp,ra,zero
    9db4:	3b11b017          	auipc	zero,0x3b11b
    9db8:	0034f033          	and	zero,s1,gp
    9dbc:	c30f7197          	auipc	gp,0xc30f7
    9dc0:	ea606793          	ori	a5,zero,-346
    9dc4:	00000013          	nop
    9dc8:	68000e63          	beqz	zero,0xa464
    9dcc:	0001f133          	and	sp,gp,zero
    9dd0:	e8403197          	auipc	gp,0xe8403
    9dd4:	72c5e1b7          	lui	gp,0x72c5e
    9dd8:	0a46f197          	auipc	gp,0xa46f
    9ddc:	aa83c193          	xori	gp,t2,-1368
    9de0:	00f10133          	add	sp,sp,a5
    9de4:	0020e0b3          	or	ra,ra,sp
    9de8:	b9817013          	andi	zero,sp,-1128
    9dec:	73563117          	auipc	sp,0x73563
    9df0:	04910193          	addi	gp,sp,73 # 0x7356ce35
    9df4:	d663f097          	auipc	ra,0xd663f
    9df8:	4c714093          	xori	ra,sp,1223
    9dfc:	6e9ab337          	lui	t1,0x6e9ab
    9e00:	0033c133          	xor	sp,t2,gp
    9e04:	0041c5b3          	xor	a1,gp,tp
    9e08:	00108033          	add	zero,ra,ra
    9e0c:	5653b237          	lui	tp,0x5653b
    9e10:	1212f117          	auipc	sp,0x1212f
    9e14:	ba5fe1b7          	lui	gp,0xba5fe
    9e18:	4bd00193          	li	gp,1213
    9e1c:	715b21b7          	lui	gp,0x715b2
    9e20:	002100b3          	add	ra,sp,sp
    9e24:	003081b3          	add	gp,ra,gp
    9e28:	402300b3          	sub	ra,t1,sp
    9e2c:	d82206b7          	lui	a3,0xd8220
    9e30:	40210133          	sub	sp,sp,sp
    9e34:	459c0397          	auipc	t2,0x459c0
    9e38:	c880f793          	andi	a5,ra,-888
    9e3c:	00248033          	add	zero,s1,sp
    9e40:	2604b0b7          	lui	ra,0x2604b
    9e44:	e078f137          	lui	sp,0xe078f
    9e48:	43216113          	ori	sp,sp,1074
    9e4c:	53469097          	auipc	ra,0x53469
    9e50:	9561f193          	andi	gp,gp,-1706
    9e54:	00000117          	auipc	sp,0x0
    9e58:	3cc100e7          	jalr	972(sp) # 0xa220
    9e5c:	b6a1c193          	xori	gp,gp,-1174
    9e60:	70028197          	auipc	gp,0x70028
    9e64:	edc431b7          	lui	gp,0xedc43
    9e68:	629ea117          	auipc	sp,0x629ea
    9e6c:	2440f093          	andi	ra,ra,580
    9e70:	d7b10197          	auipc	gp,0xd7b10
    9e74:	7391f013          	andi	zero,gp,1849
    9e78:	0010e0b3          	or	ra,ra,ra
    9e7c:	94fb3097          	auipc	ra,0x94fb3
    9e80:	fde940b7          	lui	ra,0xfde94
    9e84:	bb51e193          	ori	gp,gp,-1099
    9e88:	405186b3          	sub	a3,gp,t0
    9e8c:	a85991b7          	lui	gp,0xa8599
    9e90:	9ee0e093          	ori	ra,ra,-1554
    9e94:	a4019097          	auipc	ra,0xa4019
    9e98:	9b3dd597          	auipc	a1,0x9b3dd
    9e9c:	f53451b7          	lui	gp,0xf5345
    9ea0:	81f14313          	xori	t1,sp,-2017
    9ea4:	e7d1e113          	ori	sp,gp,-387
    9ea8:	0021e333          	or	t1,gp,sp
    9eac:	02c10a17          	auipc	s4,0x2c10
    9eb0:	0001f0b3          	and	ra,gp,zero
    9eb4:	7bd20093          	addi	ra,tp,1981 # 0x5653b7bd
    9eb8:	107dc137          	lui	sp,0x107dc
    9ebc:	0010f0b3          	and	ra,ra,ra
    9ec0:	3bb3e113          	ori	sp,t2,955
    9ec4:	005141b3          	xor	gp,sp,t0
    9ec8:	5838d197          	auipc	gp,0x5838d
    9ecc:	001181b3          	add	gp,gp,ra
    9ed0:	0030f0b3          	and	ra,ra,gp
    9ed4:	0aae3097          	auipc	ra,0xaae3
    9ed8:	c5755517          	auipc	a0,0xc5755
    9edc:	8bb27193          	andi	gp,tp,-1861
    9ee0:	a9c9c097          	auipc	ra,0xa9c9c
    9ee4:	00010093          	mv	ra,sp
    9ee8:	2a208663          	beq	ra,sp,0xa194
    9eec:	002140b3          	xor	ra,sp,sp
    9ef0:	0fd691b7          	lui	gp,0xfd69
    9ef4:	9f41c113          	xori	sp,gp,-1548
    9ef8:	66237093          	andi	ra,t1,1634
    9efc:	0c909397          	auipc	t2,0xc909
    9f00:	00726133          	or	sp,tp,t2
    9f04:	e1521117          	auipc	sp,0xe1521
    9f08:	62c5f297          	auipc	t0,0x62c5f
    9f0c:	0042c133          	xor	sp,t0,tp
    9f10:	006681b3          	add	gp,a3,t1
    9f14:	bf90f213          	andi	tp,ra,-1031
    9f18:	28194197          	auipc	gp,0x28194
    9f1c:	76cd1517          	auipc	a0,0x76cd1
    9f20:	2422c117          	auipc	sp,0x2422c
    9f24:	0030f3b3          	and	t2,ra,gp
    9f28:	9df07093          	andi	ra,zero,-1569
    9f2c:	403581b3          	sub	gp,a1,gp
    9f30:	a29651b7          	lui	gp,0xa2965
    9f34:	be73a097          	auipc	ra,0xbe73a
    9f38:	00210233          	add	tp,sp,sp
    9f3c:	94f9b137          	lui	sp,0x94f9b
    9f40:	15f03317          	auipc	t1,0x15f03
    9f44:	401180b3          	sub	ra,gp,ra
    9f48:	f52ab9b7          	lui	s3,0xf52ab
    9f4c:	0471e237          	lui	tp,0x471e
    9f50:	003161b3          	or	gp,sp,gp
    9f54:	bf8f45b7          	lui	a1,0xbf8f4
    9f58:	32926113          	ori	sp,tp,809
    9f5c:	a17dda17          	auipc	s4,0xa17dd
    9f60:	00030113          	mv	sp,t1
    9f64:	34610663          	beq	sp,t1,0xa2b0
    9f68:	3d13c2b7          	lui	t0,0x3d13c
    9f6c:	76414113          	xori	sp,sp,1892
    9f70:	b5263097          	auipc	ra,0xb5263
    9f74:	0020f133          	and	sp,ra,sp
    9f78:	b631f597          	auipc	a1,0xb631f
    9f7c:	007070b3          	and	ra,zero,t2
    9f80:	c1823197          	auipc	gp,0xc1823
    9f84:	a85450b7          	lui	ra,0xa8545
    9f88:	5ae14337          	lui	t1,0x5ae14
    9f8c:	a92eb097          	auipc	ra,0xa92eb
    9f90:	6fab1197          	auipc	gp,0x6fab1
    9f94:	e2c06213          	ori	tp,zero,-468
    9f98:	ab95b1b7          	lui	gp,0xab95b
    9f9c:	40338133          	sub	sp,t2,gp
    9fa0:	cf326193          	ori	gp,tp,-781
    9fa4:	27797117          	auipc	sp,0x27797
    9fa8:	84e18213          	addi	tp,gp,-1970 # 0xffffffffab95a84e
    9fac:	bc1e0097          	auipc	ra,0xbc1e0
    9fb0:	032df137          	lui	sp,0x32df
    9fb4:	00b346b3          	xor	a3,t1,a1
    9fb8:	86bfb197          	auipc	gp,0x86bfb
    9fbc:	0856c0b7          	lui	ra,0x856c
    9fc0:	40c89097          	auipc	ra,0x40c89
    9fc4:	47902137          	lui	sp,0x47902
    9fc8:	002170b3          	and	ra,sp,sp
    9fcc:	e6714213          	xori	tp,sp,-409
    9fd0:	ea23f097          	auipc	ra,0xea23f
    9fd4:	1661f297          	auipc	t0,0x1661f
    9fd8:	0022c1b3          	xor	gp,t0,sp
    9fdc:	40320133          	sub	sp,tp,gp
    9fe0:	40436093          	ori	ra,t1,1028
    9fe4:	402080b3          	sub	ra,ra,sp
    9fe8:	7d86b137          	lui	sp,0x7d86b
    9fec:	00018093          	mv	ra,gp
    9ff0:	ce3084e3          	beq	ra,gp,0x9cd8
    9ff4:	adb791b7          	lui	gp,0xadb79
    9ff8:	77016213          	ori	tp,sp,1904
    9ffc:	72e26113          	ori	sp,tp,1838
    a000:	f017c117          	auipc	sp,0xf017c
    a004:	dcbaeeb7          	lui	t4,0xdcbae
    a008:	1c809197          	auipc	gp,0x1c809
    a00c:	20c48017          	auipc	zero,0x20c48
    a010:	47ffc137          	lui	sp,0x47ffc
    a014:	6bc17313          	andi	t1,sp,1724
    a018:	ec5ea137          	lui	sp,0xec5ea
    a01c:	135285b7          	lui	a1,0x13528
    a020:	be2f0197          	auipc	gp,0xbe2f0
    a024:	b57c4137          	lui	sp,0xb57c4
    a028:	e05601b7          	lui	gp,0xe0560
    a02c:	1b40c013          	xori	zero,ra,436
    a030:	df070117          	auipc	sp,0xdf070
    a034:	2829e137          	lui	sp,0x2829e
    a038:	b8917013          	andi	zero,sp,-1143
    a03c:	54616113          	ori	sp,sp,1350
    a040:	00717133          	and	sp,sp,t2
    a044:	0091e133          	or	sp,gp,s1
    a048:	3b251217          	auipc	tp,0x3b251
    a04c:	bd9223b7          	lui	t2,0xbd922
    a050:	83fe3a97          	auipc	s5,0x83fe3
    a054:	a88da197          	auipc	gp,0xa88da
    a058:	ce566097          	auipc	ra,0xce566
    a05c:	e2f16393          	ori	t2,sp,-465
    a060:	403081b3          	sub	gp,ra,gp
    a064:	3a5bc1b7          	lui	gp,0x3a5bc
    a068:	36020663          	beqz	tp,0xa3d4
    a06c:	368000ef          	jal	ra,0xa3d4
    a070:	7df1c313          	xori	t1,gp,2015
    a074:	9f9461b7          	lui	gp,0x9f946
    a078:	002104b3          	add	s1,sp,sp
    a07c:	40618133          	sub	sp,gp,t1
    a080:	20eaf137          	lui	sp,0x20eaf
    a084:	64d26213          	ori	tp,tp,1613
    a088:	86428137          	lui	sp,0x86428
    a08c:	00114133          	xor	sp,sp,ra
    a090:	35ca65b7          	lui	a1,0x35ca6
    a094:	6c9b4317          	auipc	t1,0x6c9b4
    a098:	93cad197          	auipc	gp,0x93cad
    a09c:	028bb017          	auipc	zero,0x28bb
    a0a0:	1047a337          	lui	t1,0x1047a
    a0a4:	910ba317          	auipc	t1,0x910ba
    a0a8:	0011e0b3          	or	ra,gp,ra
    a0ac:	c0940117          	auipc	sp,0xc0940
    a0b0:	9380c0b7          	lui	ra,0x9380c
    a0b4:	8c308093          	addi	ra,ra,-1853 # 0xffffffff9380b8c3
    a0b8:	6beb70b7          	lui	ra,0x6beb7
    a0bc:	402280b3          	sub	ra,t0,sp
    a0c0:	0022c233          	xor	tp,t0,sp
    a0c4:	e4b48093          	addi	ra,s1,-437 # 0xffffffff8b156a7f
    a0c8:	ebb01117          	auipc	sp,0xebb01
    a0cc:	0cee62b7          	lui	t0,0xcee6
    a0d0:	20d37137          	lui	sp,0x20d37
    a0d4:	fbc060b7          	lui	ra,0xfbc06
    a0d8:	0031e1b3          	or	gp,gp,gp
    a0dc:	cd7b68b7          	lui	a7,0xcd7b6
    a0e0:	9cc59017          	auipc	zero,0x9cc59
    a0e4:	0011f133          	and	sp,gp,ra
    a0e8:	0032f0b3          	and	ra,t0,gp
    a0ec:	79188197          	auipc	gp,0x79188
    a0f0:	6380b197          	auipc	gp,0x6380b
    a0f4:	00018113          	mv	sp,gp
    a0f8:	00310263          	beq	sp,gp,0xa0fc
    a0fc:	8d434393          	xori	t2,t1,-1836
    a100:	557781b7          	lui	gp,0x55778
    a104:	478b9197          	auipc	gp,0x478b9
    a108:	7bab80b7          	lui	ra,0x7bab8
    a10c:	66f3f093          	andi	ra,t2,1647
    a110:	e6b63597          	auipc	a1,0xe6b63
    a114:	4ef0b197          	auipc	gp,0x4ef0b
    a118:	d4e17093          	andi	ra,sp,-690
    a11c:	003171b3          	and	gp,sp,gp
    a120:	0025c033          	xor	zero,a1,sp
    a124:	0020f133          	and	sp,ra,sp
    a128:	003180b3          	add	ra,gp,gp
    a12c:	3840f113          	andi	sp,ra,900
    a130:	fe029237          	lui	tp,0xfe029
    a134:	7f116093          	ori	ra,sp,2033
    a138:	098cc1b7          	lui	gp,0x98cc
    a13c:	366c11b7          	lui	gp,0x366c1
    a140:	85480197          	auipc	gp,0x85480
    a144:	1fc6a097          	auipc	ra,0x1fc6a
    a148:	ccc030b7          	lui	ra,0xccc03
    a14c:	d421f693          	andi	a3,gp,-702
    a150:	2730e113          	ori	sp,ra,627
    a154:	40110133          	sub	sp,sp,ra
    a158:	79c33037          	lui	zero,0x79c33
    a15c:	cc4ff097          	auipc	ra,0xcc4ff
    a160:	60eed117          	auipc	sp,0x60eed
    a164:	0ade8337          	lui	t1,0xade8
    a168:	b0e31d97          	auipc	s11,0xb0e31
    a16c:	dee23137          	lui	sp,0xdee23
    a170:	002b6233          	or	tp,s6,sp
    a174:	003101b3          	add	gp,sp,gp
    a178:	403080b3          	sub	ra,ra,gp
    a17c:	c4e18293          	addi	t0,gp,-946 # 0xffffffff85489d8e
    a180:	f42d91b7          	lui	gp,0xf42d9
    a184:	05f00393          	li	t2,95
    a188:	0030f2b3          	and	t0,ra,gp
    a18c:	c41100e3          	beq	sp,ra,0x9dcc
    a190:	c3dff26f          	jal	tp,0x9dcc
    a194:	0014f0b3          	and	ra,s1,ra
    a198:	71914113          	xori	sp,sp,1817
    a19c:	395f3217          	auipc	tp,0x395f3
    a1a0:	0011ebb3          	or	s7,gp,ra
    a1a4:	a472f197          	auipc	gp,0xa472f
    a1a8:	80428093          	addi	ra,t0,-2044 # 0xcee5804
    a1ac:	970d0117          	auipc	sp,0x970d0
    a1b0:	0031c033          	xor	zero,gp,gp
    a1b4:	c64437b7          	lui	a5,0xc6443
    a1b8:	00216133          	or	sp,sp,sp
    a1bc:	324c5137          	lui	sp,0x324c5
    a1c0:	003160b3          	or	ra,sp,gp
    a1c4:	1cb9c113          	xori	sp,s3,459
    a1c8:	d360e093          	ori	ra,ra,-714
    a1cc:	188cc113          	xori	sp,s9,392
    a1d0:	0031c133          	xor	sp,gp,gp
    a1d4:	00328133          	add	sp,t0,gp
    a1d8:	eda54093          	xori	ra,a0,-294
    a1dc:	006080b3          	add	ra,ra,t1
    a1e0:	e865c437          	lui	s0,0xe865c
    a1e4:	f0a11097          	auipc	ra,0xf0a11
    a1e8:	e6682397          	auipc	t2,0xe6682
    a1ec:	401081b3          	sub	gp,ra,ra
    a1f0:	402100b3          	sub	ra,sp,sp
    a1f4:	003141b3          	xor	gp,sp,gp
    a1f8:	35c240b7          	lui	ra,0x35c24
    a1fc:	0020c133          	xor	sp,ra,sp
    a200:	9dbad6b7          	lui	a3,0x9dbad
    a204:	0066f0b3          	and	ra,a3,t1
    a208:	73710193          	addi	gp,sp,1847 # 0x324c5737
    a20c:	d1a340b7          	lui	ra,0xd1a34
    a210:	555a5197          	auipc	gp,0x555a5
    a214:	9f4f0397          	auipc	t2,0x9f4f0
    a218:	dc110ee3          	beq	sp,ra,0x9ff4
    a21c:	dd9ff1ef          	jal	gp,0x9ff4
    a220:	0091e0b3          	or	ra,gp,s1
    a224:	a6613397          	auipc	t2,0xa6613
    a228:	dca8a0b7          	lui	ra,0xdca8a
    a22c:	0f9e4193          	xori	gp,t3,249
    a230:	001143b3          	xor	t2,sp,ra
    a234:	05610213          	addi	tp,sp,86
    a238:	60711137          	lui	sp,0x60711
    a23c:	e8a18193          	addi	gp,gp,-374 # 0x555af09a
    a240:	6f417293          	andi	t0,sp,1780
    a244:	341c6113          	ori	sp,s8,833
    a248:	00117333          	and	t1,sp,ra
    a24c:	403081b3          	sub	gp,ra,gp
    a250:	002344b3          	xor	s1,t1,sp
    a254:	f1f0f513          	andi	a0,ra,-225
    a258:	bb3b6117          	auipc	sp,0xbb3b6
    a25c:	6780fd93          	andi	s11,ra,1656
    a260:	00317133          	and	sp,sp,gp
    a264:	c85cb297          	auipc	t0,0xc85cb
    a268:	a9d52217          	auipc	tp,0xa9d52
    a26c:	e7e17113          	andi	sp,sp,-386
    a270:	b8969117          	auipc	sp,0xb8969
    a274:	403e81b3          	sub	gp,t4,gp
    a278:	0000f1b3          	and	gp,ra,zero
    a27c:	d9d8c197          	auipc	gp,0xd9d8c
    a280:	27e92117          	auipc	sp,0x27e92
    a284:	d120e013          	ori	zero,ra,-750
    a288:	5327b097          	auipc	ra,0x5327b
    a28c:	96e0c113          	xori	sp,ra,-1682
    a290:	dfa1f113          	andi	sp,gp,-518
    a294:	a960e193          	ori	gp,ra,-1386
    a298:	40128133          	sub	sp,t0,ra
    a29c:	0010e0b3          	or	ra,ra,ra
    a2a0:	78400293          	li	t0,1924
    a2a4:	886416b7          	lui	a3,0x88641
    a2a8:	00008093          	mv	ra,ra
    a2ac:	ba1088e3          	beq	ra,ra,0x9e5c
    a2b0:	003270b3          	and	ra,tp,gp
    a2b4:	00210133          	add	sp,sp,sp
    a2b8:	0491e313          	ori	t1,gp,73
    a2bc:	80b3d137          	lui	sp,0x80b3d
    a2c0:	2df6b137          	lui	sp,0x2df6b
    a2c4:	0021e0b3          	or	ra,gp,sp
    a2c8:	004040b3          	xor	ra,zero,tp
    a2cc:	22891337          	lui	t1,0x22891
    a2d0:	82963017          	auipc	zero,0x82963
    a2d4:	003140b3          	xor	ra,sp,gp
    a2d8:	014340b3          	xor	ra,t1,s4
    a2dc:	06f590b7          	lui	ra,0x6f59
    a2e0:	b9246217          	auipc	tp,0xb9246
    a2e4:	91ce43b7          	lui	t2,0x91ce4
    a2e8:	002140b3          	xor	ra,sp,sp
    a2ec:	7f90e113          	ori	sp,ra,2041
    a2f0:	791ce397          	auipc	t2,0x791ce
    a2f4:	da69c0b7          	lui	ra,0xda69c
    a2f8:	ae3fc317          	auipc	t1,0xae3fc
    a2fc:	0011c1b3          	xor	gp,gp,ra
    a300:	07a8b117          	auipc	sp,0x7a8b
    a304:	d5aa50b7          	lui	ra,0xd5aa5
    a308:	943db117          	auipc	sp,0x943db
    a30c:	e59c21b7          	lui	gp,0xe59c2
    a310:	d0381337          	lui	t1,0xd0381
    a314:	9ee17f13          	andi	t5,sp,-1554
    a318:	00334133          	xor	sp,t1,gp
    a31c:	b792f193          	andi	gp,t0,-1159
    a320:	002176b3          	and	a3,sp,sp
    a324:	00d04133          	xor	sp,zero,a3
    a328:	53e1e093          	ori	ra,gp,1342
    a32c:	8f72c137          	lui	sp,0x8f72c
    a330:	45317113          	andi	sp,sp,1107
    a334:	06527197          	auipc	gp,0x6527
    a338:	0021c1b3          	xor	gp,gp,sp
    a33c:	2a27e0b7          	lui	ra,0x2a27e
    a340:	aaa27037          	lui	zero,0xaaa27
    a344:	1c238063          	beq	t2,sp,0xa504
    a348:	1bc000ef          	jal	ra,0xa504
    a34c:	0030c133          	xor	sp,ra,gp
    a350:	a62a1197          	auipc	gp,0xa62a1
    a354:	8694e113          	ori	sp,s1,-1943
    a358:	2151f113          	andi	sp,gp,533
    a35c:	929503b7          	lui	t2,0x92950
    a360:	97654cb7          	lui	s9,0x97654
    a364:	88f10193          	addi	gp,sp,-1905 # 0xffffffff8f72b88f
    a368:	53108093          	addi	ra,ra,1329 # 0x2a27e531
    a36c:	002500b3          	add	ra,a0,sp
    a370:	592970b7          	lui	ra,0x59297
    a374:	ebc1f113          	andi	sp,gp,-324
    a378:	003082b3          	add	t0,ra,gp
    a37c:	b3220b13          	addi	s6,tp,-1230 # 0xffffffffb924fe12
    a380:	bc55f197          	auipc	gp,0xbc55f
    a384:	3304fc93          	andi	s9,s1,816
    a388:	d25a6137          	lui	sp,0xd25a6
    a38c:	40420033          	sub	zero,tp,tp
    a390:	5cd66093          	ori	ra,a2,1485
    a394:	42e3c093          	xori	ra,t2,1070
    a398:	c1e08113          	addi	sp,ra,-994 # 0x59296c1e
    a39c:	d401f113          	andi	sp,gp,-704
    a3a0:	6d416913          	ori	s2,sp,1748
    a3a4:	3cb4f197          	auipc	gp,0x3cb4f
    a3a8:	801324b7          	lui	s1,0x80132
    a3ac:	bff02137          	lui	sp,0xbff02
    a3b0:	85e0f393          	andi	t2,ra,-1954
    a3b4:	3713b3b7          	lui	t2,0x3713b
    a3b8:	07308193          	addi	gp,ra,115
    a3bc:	6f793097          	auipc	ra,0x6f793
    a3c0:	e7018093          	addi	ra,gp,-400 # 0x3cb59214
    a3c4:	787a2337          	lui	t1,0x787a2
    a3c8:	c316a137          	lui	sp,0xc316a
    a3cc:	cab082e3          	beq	ra,a1,0xa070
    a3d0:	ca1ff16f          	jal	sp,0xa070
    a3d4:	b77f41b7          	lui	gp,0xb77f4
    a3d8:	0041e1b3          	or	gp,gp,tp
    a3dc:	1c1be037          	lui	zero,0x1c1be
    a3e0:	a14d61b7          	lui	gp,0xa14d6
    a3e4:	402081b3          	sub	gp,ra,sp
    a3e8:	ed410193          	addi	gp,sp,-300 # 0xffffffffc3169ed4
    a3ec:	0070e133          	or	sp,ra,t2
    a3f0:	43644117          	auipc	sp,0x43644
    a3f4:	16f467b7          	lui	a5,0x16f46
    a3f8:	00110133          	add	sp,sp,ra
    a3fc:	ef5e7837          	lui	a6,0xef5e7
    a400:	604310b7          	lui	ra,0x60431
    a404:	f3617113          	andi	sp,sp,-202
    a408:	6bd7f113          	andi	sp,a5,1725
    a40c:	b1718197          	auipc	gp,0xb1718
    a410:	a7d0f113          	andi	sp,ra,-1411
    a414:	5a79b237          	lui	tp,0x5a79b
    a418:	824f4237          	lui	tp,0x824f4
    a41c:	0e1400b7          	lui	ra,0xe140
    a420:	0061c0b3          	xor	ra,gp,t1
    a424:	003160b3          	or	ra,sp,gp
    a428:	0041e133          	or	sp,gp,tp
    a42c:	0041c1b3          	xor	gp,gp,tp
    a430:	dea6b0b7          	lui	ra,0xdea6b
    a434:	405080b3          	sub	ra,ra,t0
    a438:	ed651197          	auipc	gp,0xed651
    a43c:	002343b3          	xor	t2,t1,sp
    a440:	3e728197          	auipc	gp,0x3e728
    a444:	5c96d117          	auipc	sp,0x5c96d
    a448:	5b8d5097          	auipc	ra,0x5b8d5
    a44c:	0070f7b3          	and	a5,ra,t2
    a450:	0bc14193          	xori	gp,sp,188
    a454:	34b16093          	ori	ra,sp,843
    a458:	874a2017          	auipc	zero,0x874a2
    a45c:	1a320863          	beq	tp,gp,0xa60c
    a460:	1ac0016f          	jal	sp,0xa60c
    a464:	434e00b7          	lui	ra,0x434e0
    a468:	40318333          	sub	t1,gp,gp
    a46c:	40210033          	sub	zero,sp,sp
    a470:	2e9aa197          	auipc	gp,0x2e9aa
    a474:	5b110013          	addi	zero,sp,1457 # 0x5c9779f5
    a478:	d743c017          	auipc	zero,0xd743c
    a47c:	a6fb0117          	auipc	sp,0xa6fb0
    a480:	024c5117          	auipc	sp,0x24c5
    a484:	cf0222b7          	lui	t0,0xcf022
    a488:	5bf86097          	auipc	ra,0x5bf86
    a48c:	103ee0b7          	lui	ra,0x103ee
    a490:	ace0e113          	ori	sp,ra,-1330
    a494:	c221f213          	andi	tp,gp,-990
    a498:	6f51c693          	xori	a3,gp,1781
    a49c:	04f131b7          	lui	gp,0x4f13
    a4a0:	3ae24093          	xori	ra,tp,942
    a4a4:	13b9c137          	lui	sp,0x13b9c
    a4a8:	d4960117          	auipc	sp,0xd4960
    a4ac:	0031c0b3          	xor	ra,gp,gp
    a4b0:	403101b3          	sub	gp,sp,gp
    a4b4:	40368133          	sub	sp,a3,gp
    a4b8:	37277217          	auipc	tp,0x37277
    a4bc:	641f4117          	auipc	sp,0x641f4
    a4c0:	647971b7          	lui	gp,0x64797
    a4c4:	3de3a097          	auipc	ra,0x3de3a
    a4c8:	6d210137          	lui	sp,0x6d210
    a4cc:	9ff37113          	andi	sp,t1,-1537
    a4d0:	bcff11b7          	lui	gp,0xbcff1
    a4d4:	33543197          	auipc	gp,0x33543
    a4d8:	00107133          	and	sp,zero,ra
    a4dc:	54214113          	xori	sp,sp,1346
    a4e0:	30668297          	auipc	t0,0x30668
    a4e4:	cf016013          	ori	zero,sp,-784
    a4e8:	2057a197          	auipc	gp,0x2057a
    a4ec:	118d6a37          	lui	s4,0x118d6
    a4f0:	54917293          	andi	t0,sp,1353
    a4f4:	403280b3          	sub	ra,t0,gp
    a4f8:	4341c093          	xori	ra,gp,1076
    a4fc:	00008113          	mv	sp,ra
    a500:	a61104e3          	beq	sp,ra,0x9f68
    a504:	55a5c093          	xori	ra,a1,1370
    a508:	0031c033          	xor	zero,gp,gp
    a50c:	79760117          	auipc	sp,0x79760
    a510:	2f6f0137          	lui	sp,0x2f6f0
    a514:	b5144097          	auipc	ra,0xb5144
    a518:	4c45a217          	auipc	tp,0x4c45a
    a51c:	77f08197          	auipc	gp,0x77f08
    a520:	0040f1b3          	and	gp,ra,tp
    a524:	6d3931b7          	lui	gp,0x6d393
    a528:	5e44b197          	auipc	gp,0x5e44b
    a52c:	42069197          	auipc	gp,0x42069
    a530:	cfb43197          	auipc	gp,0xcfb43
    a534:	3472e093          	ori	ra,t0,839
    a538:	28a4f1b7          	lui	gp,0x28a4f
    a53c:	9fa141b7          	lui	gp,0x9fa14
    a540:	002170b3          	and	ra,sp,sp
    a544:	00126333          	or	t1,tp,ra
    a548:	003170b3          	and	ra,sp,gp
    a54c:	5d162137          	lui	sp,0x5d162
    a550:	bf0e3317          	auipc	t1,0xbf0e3
    a554:	ed50c793          	xori	a5,ra,-299
    a558:	3cdd6137          	lui	sp,0x3cdd6
    a55c:	2d9aa1b7          	lui	gp,0x2d9aa
    a560:	403507b3          	sub	a5,a0,gp
    a564:	70198013          	addi	zero,s3,1793 # 0xfffffffff52ab701
    a568:	06910193          	addi	gp,sp,105 # 0x3cdd6069
    a56c:	56e14193          	xori	gp,sp,1390
    a570:	f6e61217          	auipc	tp,0xf6e61
    a574:	65e302b7          	lui	t0,0x65e30
    a578:	01d6c133          	xor	sp,a3,t4
    a57c:	40230c33          	sub	s8,t1,sp
    a580:	8217e137          	lui	sp,0x8217e
    a584:	87910313          	addi	t1,sp,-1927 # 0xffffffff8217d879
    a588:	dc1102e3          	beq	sp,ra,0xa34c
    a58c:	dc1ff36f          	jal	t1,0xa34c
    a590:	23d62337          	lui	t1,0x23d62
    a594:	b8b14397          	auipc	t2,0xb8b14
    a598:	8bae51b7          	lui	gp,0x8bae5
    a59c:	00130133          	add	sp,t1,ra
    a5a0:	8fbc2197          	auipc	gp,0x8fbc2
    a5a4:	005341b3          	xor	gp,t1,t0
    a5a8:	004143b3          	xor	t2,sp,tp
    a5ac:	0037e033          	or	zero,a5,gp
    a5b0:	eff08313          	addi	t1,ra,-257 # 0xffffffffb514e413
    a5b4:	002170b3          	and	ra,sp,sp
    a5b8:	bdd16113          	ori	sp,sp,-1059
    a5bc:	dd614193          	xori	gp,sp,-554
    a5c0:	de078097          	auipc	ra,0xde078
    a5c4:	40028533          	sub	a0,t0,zero
    a5c8:	403080b3          	sub	ra,ra,gp
    a5cc:	cd1680b7          	lui	ra,0xcd168
    a5d0:	42831197          	auipc	gp,0x42831
    a5d4:	002e7133          	and	sp,t3,sp
    a5d8:	362010b7          	lui	ra,0x36201
    a5dc:	0020f1b3          	and	gp,ra,sp
    a5e0:	96a99237          	lui	tp,0x96a99
    a5e4:	003081b3          	add	gp,ra,gp
    a5e8:	439f6097          	auipc	ra,0x439f6
    a5ec:	00436233          	or	tp,t1,tp
    a5f0:	001170b3          	and	ra,sp,ra
    a5f4:	402283b3          	sub	t2,t0,sp
    a5f8:	39cd3197          	auipc	gp,0x39cd3
    a5fc:	61930097          	auipc	ra,0x61930
    a600:	97010093          	addi	ra,sp,-1680
    a604:	00218263          	beq	gp,sp,0xa608
    a608:	e4cff0ef          	jal	ra,0x9c54
    a60c:	602a4097          	auipc	ra,0x602a4
    a610:	1d2a30b7          	lui	ra,0x1d2a3
    a614:	00278133          	add	sp,a5,sp
    a618:	a2f08113          	addi	sp,ra,-1489 # 0x1d2a2a2f
    a61c:	70118113          	addi	sp,gp,1793 # 0x39cddcf9
    a620:	51f97093          	andi	ra,s2,1311
    a624:	403001b3          	neg	gp,gp
    a628:	0031e0b3          	or	ra,gp,gp
    a62c:	82ef80b7          	lui	ra,0x82ef8
    a630:	01d007b3          	add	a5,zero,t4
    a634:	06e1c093          	xori	ra,gp,110
    a638:	164ac037          	lui	zero,0x164ac
    a63c:	403181b3          	sub	gp,gp,gp
    a640:	49a0f393          	andi	t2,ra,1178
    a644:	a16a5237          	lui	tp,0xa16a5
    a648:	4880c113          	xori	sp,ra,1160
    a64c:	1b81e193          	ori	gp,gp,440
    a650:	00300133          	add	sp,zero,gp
    a654:	e884a337          	lui	t1,0xe884a
    a658:	bf0c2317          	auipc	t1,0xbf0c2
    a65c:	cbe31117          	auipc	sp,0xcbe31
    a660:	b8c14113          	xori	sp,sp,-1140
    a664:	ae21e113          	ori	sp,gp,-1310
    a668:	36ed82b7          	lui	t0,0x36ed8
    a66c:	403081b3          	sub	gp,ra,gp
    a670:	f945f1b7          	lui	gp,0xf945f
    a674:	dea74017          	auipc	zero,0xdea74
    a678:	5f295137          	lui	sp,0x5f295
    a67c:	01ad91b7          	lui	gp,0x1ad9
    a680:	001780b3          	add	ra,a5,ra
    a684:	84a96217          	auipc	tp,0x84a96
    a688:	0022e3b3          	or	t2,t0,sp
    a68c:	b350c093          	xori	ra,ra,-1227
    a690:	f01100e3          	beq	sp,ra,0xa590
    a694:	efdff2ef          	jal	t0,0xa590
    a698:	28f623b7          	lui	t2,0x28f62
    a69c:	00218133          	add	sp,gp,sp
    a6a0:	001140b3          	xor	ra,sp,ra
    a6a4:	da4ff093          	andi	ra,t6,-604
    a6a8:	fef3d097          	auipc	ra,0xfef3d
    a6ac:	51aef397          	auipc	t2,0x51aef
    a6b0:	f478e337          	lui	t1,0xf478e
    a6b4:	5d6c40b7          	lui	ra,0x5d6c4
    a6b8:	6b406097          	auipc	ra,0x6b406
    a6bc:	b8436193          	ori	gp,t1,-1148
    a6c0:	da4c7017          	auipc	zero,0xda4c7
    a6c4:	343220b7          	lui	ra,0x34322
    a6c8:	848d9317          	auipc	t1,0x848d9
    a6cc:	0020f1b3          	and	gp,ra,sp
    a6d0:	000261b3          	or	gp,tp,zero
    a6d4:	40508133          	sub	sp,ra,t0
    a6d8:	4311c193          	xori	gp,gp,1073
    a6dc:	492d3137          	lui	sp,0x492d3
    a6e0:	eb0d6037          	lui	zero,0xeb0d6
    a6e4:	90cae1b7          	lui	gp,0x90cae
    a6e8:	3dd5f137          	lui	sp,0x3dd5f
    a6ec:	1191f093          	andi	ra,gp,281
    a6f0:	37710113          	addi	sp,sp,887 # 0x3dd5f377
    a6f4:	c9717193          	andi	gp,sp,-873
    a6f8:	de20f693          	andi	a3,ra,-542
    a6fc:	bb1f7097          	auipc	ra,0xbb1f7
    a700:	a95a9197          	auipc	gp,0xa95a9
    a704:	003081b3          	add	gp,ra,gp
    a708:	af634313          	xori	t1,t1,-1290
    a70c:	429d4317          	auipc	t1,0x429d4
    a710:	ed41f193          	andi	gp,gp,-300
    a714:	00307a33          	and	s4,zero,gp
    a718:	5a110463          	beq	sp,ra,0xacc0
    a71c:	5a4000ef          	jal	ra,0xacc0
    a720:	df1a11b7          	lui	gp,0xdf1a1
    a724:	adf0c313          	xori	t1,ra,-1313
    a728:	a23ea0b7          	lui	ra,0xa23ea
    a72c:	403101b3          	sub	gp,sp,gp
    a730:	64106193          	ori	gp,zero,1601
    a734:	7df96093          	ori	ra,s2,2015
    a738:	003c0233          	add	tp,s8,gp
    a73c:	fa9541b7          	lui	gp,0xfa954
    a740:	40338133          	sub	sp,t2,gp
    a744:	e30aa097          	auipc	ra,0xe30aa
    a748:	9d1b6093          	ori	ra,s6,-1583
    a74c:	8e50e093          	ori	ra,ra,-1819
    a750:	00127133          	and	sp,tp,ra
    a754:	40578033          	sub	zero,a5,t0
    a758:	f221e093          	ori	ra,gp,-222
    a75c:	60050197          	auipc	gp,0x60050
    a760:	0010e0b3          	or	ra,ra,ra
    a764:	4b9f7193          	andi	gp,t5,1209
    a768:	85717093          	andi	ra,sp,-1961
    a76c:	56c0c193          	xori	gp,ra,1388
    a770:	5877d7b7          	lui	a5,0x5877d
    a774:	002341b3          	xor	gp,t1,sp
    a778:	0041f1b3          	and	gp,gp,tp
    a77c:	0012e1b3          	or	gp,t0,ra
    a780:	15780093          	addi	ra,a6,343 # 0xffffffffef5e7157
    a784:	401100b3          	sub	ra,sp,ra
    a788:	0022f333          	and	t1,t0,sp
    a78c:	d1adb117          	auipc	sp,0xd1adb
    a790:	63c410b7          	lui	ra,0x63c41
    a794:	cee17093          	andi	ra,sp,-786
    a798:	0010e1b3          	or	gp,ra,ra
    a79c:	4ed66117          	auipc	sp,0x4ed66
    a7a0:	30b62217          	auipc	tp,0x30b62
    a7a4:	c527e317          	auipc	t1,0xc527e
    a7a8:	ac61e013          	ori	zero,gp,-1338
    a7ac:	afe08193          	addi	gp,ra,-1282 # 0x63c40afe
    a7b0:	14e29097          	auipc	ra,0x14e29
    a7b4:	d736f193          	andi	gp,a3,-653
    a7b8:	0030f3b3          	and	t2,ra,gp
    a7bc:	00008263          	beqz	ra,0xa7c0
    a7c0:	0d10006f          	j	0xb090
    a7c4:	0471f113          	andi	sp,gp,71
    a7c8:	9be60197          	auipc	gp,0x9be60
    a7cc:	acf97137          	lui	sp,0xacf97
    a7d0:	403087b3          	sub	a5,ra,gp
    a7d4:	4a25a317          	auipc	t1,0x4a25a
    a7d8:	58efd097          	auipc	ra,0x58efd
    a7dc:	9fd4b097          	auipc	ra,0x9fd4b
    a7e0:	6ab3f0b7          	lui	ra,0x6ab3f
    a7e4:	6bb910b7          	lui	ra,0x6bb91
    a7e8:	69f16313          	ori	t1,sp,1695
    a7ec:	38992697          	auipc	a3,0x38992
    a7f0:	78e08113          	addi	sp,ra,1934 # 0x6bb9178e
    a7f4:	8c28b137          	lui	sp,0x8c28b
    a7f8:	42aa0017          	auipc	zero,0x42aa0
    a7fc:	10b26197          	auipc	gp,0x10b26
    a800:	cfc0e193          	ori	gp,ra,-772
    a804:	403081b3          	sub	gp,ra,gp
    a808:	9f90e293          	ori	t0,ra,-1543
    a80c:	e8d87097          	auipc	ra,0xe8d87
    a810:	04a7e017          	auipc	zero,0x4a7e
    a814:	057111b7          	lui	gp,0x5711
    a818:	8ddce497          	auipc	s1,0x8ddce
    a81c:	eee2e1b7          	lui	gp,0xeee2e
    a820:	005085b3          	add	a1,ra,t0
    a824:	ec88c337          	lui	t1,0xec88c
    a828:	ef332197          	auipc	gp,0xef332
    a82c:	d112a097          	auipc	ra,0xd112a
    a830:	7b216093          	ori	ra,sp,1970
    a834:	93c0f213          	andi	tp,ra,-1732
    a838:	0190e2b3          	or	t0,ra,s9
    a83c:	001182b3          	add	t0,gp,ra
    a840:	75878097          	auipc	ra,0x75878
    a844:	04f0c113          	xori	sp,ra,79
    a848:	2ba98097          	auipc	ra,0x2ba98
    a84c:	0020e133          	or	sp,ra,sp
    a850:	12330263          	beq	t1,gp,0xa974
    a854:	120001ef          	jal	gp,0xa974
    a858:	47a10213          	addi	tp,sp,1146 # 0xffffffff8c28b47a
    a85c:	41627093          	andi	ra,tp,1046
    a860:	37465197          	auipc	gp,0x37465
    a864:	bf61c197          	auipc	gp,0xbf61c
    a868:	0001f133          	and	sp,gp,zero
    a86c:	998ba297          	auipc	t0,0x998ba
    a870:	d14ad317          	auipc	t1,0xd14ad
    a874:	46e14193          	xori	gp,sp,1134
    a878:	22ff5a97          	auipc	s5,0x22ff5
    a87c:	2891e113          	ori	sp,gp,649
    a880:	4db58197          	auipc	gp,0x4db58
    a884:	8c5d31b7          	lui	gp,0x8c5d3
    a888:	a378d317          	auipc	t1,0xa378d
    a88c:	48e8e237          	lui	tp,0x48e8e
    a890:	1ed1b097          	auipc	ra,0x1ed1b
    a894:	69c270b7          	lui	ra,0x69c27
    a898:	007270b3          	and	ra,tp,t2
    a89c:	9711e313          	ori	t1,gp,-1679
    a8a0:	40318133          	sub	sp,gp,gp
    a8a4:	8d07b337          	lui	t1,0x8d07b
    a8a8:	002080b3          	add	ra,ra,sp
    a8ac:	e7308093          	addi	ra,ra,-397 # 0x69c26e73
    a8b0:	000180b3          	add	ra,gp,zero
    a8b4:	a86cb117          	auipc	sp,0xa86cb
    a8b8:	0f533097          	auipc	ra,0xf533
    a8bc:	0023c133          	xor	sp,t2,sp
    a8c0:	8b578037          	lui	zero,0x8b578
    a8c4:	b646c093          	xori	ra,a3,-1180
    a8c8:	0012f1b3          	and	gp,t0,ra
    a8cc:	da216113          	ori	sp,sp,-606
    a8d0:	a29df137          	lui	sp,0xa29df
    a8d4:	86efe1b7          	lui	gp,0x86efe
    a8d8:	00110263          	beq	sp,ra,0xa8dc
    a8dc:	0c10016f          	jal	sp,0xb19c
    a8e0:	8046f337          	lui	t1,0x8046f
    a8e4:	7eb1e113          	ori	sp,gp,2027
    a8e8:	00218233          	add	tp,gp,sp
    a8ec:	77d18593          	addi	a1,gp,1917 # 0xffffffff86efe77d
    a8f0:	f8e7b117          	auipc	sp,0xf8e7b
    a8f4:	40330133          	sub	sp,t1,gp
    a8f8:	d141f393          	andi	t2,gp,-748
    a8fc:	34110113          	addi	sp,sp,833 # 0xfffffffff8e85c31
    a900:	00014033          	xor	zero,sp,zero
    a904:	0020e133          	or	sp,ra,sp
    a908:	b33ac097          	auipc	ra,0xb33ac
    a90c:	cfed6017          	auipc	zero,0xcfed6
    a910:	00617133          	and	sp,sp,t1
    a914:	fc91a097          	auipc	ra,0xfc91a
    a918:	0831c113          	xori	sp,gp,131
    a91c:	82a77337          	lui	t1,0x82a77
    a920:	8b5281b7          	lui	gp,0x8b528
    a924:	0010e133          	or	sp,ra,ra
    a928:	f6855237          	lui	tp,0xf6855
    a92c:	0020e2b3          	or	t0,ra,sp
    a930:	3e9a10b7          	lui	ra,0x3e9a1
    a934:	0023c0b3          	xor	ra,t2,sp
    a938:	001160b3          	or	ra,sp,ra
    a93c:	d1108113          	addi	sp,ra,-751 # 0x3e9a0d11
    a940:	0021c0b3          	xor	ra,gp,sp
    a944:	f083c237          	lui	tp,0xf083c
    a948:	a22f8137          	lui	sp,0xa22f8
    a94c:	eb017093          	andi	ra,sp,-336
    a950:	351ec097          	auipc	ra,0x351ec
    a954:	98417113          	andi	sp,sp,-1660
    a958:	5ae95117          	auipc	sp,0x5ae95
    a95c:	0bf16117          	auipc	sp,0xbf16
    a960:	0e010693          	addi	a3,sp,224 # 0xbf20a3c
    a964:	40108333          	sub	t1,ra,ra
    a968:	2ab0c193          	xori	gp,ra,683
    a96c:	00018193          	mv	gp,gp
    a970:	22318c63          	beq	gp,gp,0xaba8
    a974:	f730e293          	ori	t0,ra,-141
    a978:	44ba33b7          	lui	t2,0x44ba3
    a97c:	001173b3          	and	t2,sp,ra
    a980:	9f11c137          	lui	sp,0x9f11c
    a984:	cac01237          	lui	tp,0xcac01
    a988:	004061b3          	or	gp,zero,tp
    a98c:	405100b3          	sub	ra,sp,t0
    a990:	002380b3          	add	ra,t2,sp
    a994:	405082b3          	sub	t0,ra,t0
    a998:	8c36d0b7          	lui	ra,0x8c36d
    a99c:	a6189137          	lui	sp,0xa6189
    a9a0:	1b5a5117          	auipc	sp,0x1b5a5
    a9a4:	007100b3          	add	ra,sp,t2
    a9a8:	a41e9117          	auipc	sp,0xa41e9
    a9ac:	8953b117          	auipc	sp,0x8953b
    a9b0:	61869197          	auipc	gp,0x61869
    a9b4:	01c1c6b3          	xor	a3,gp,t3
    a9b8:	9b610113          	addi	sp,sp,-1610 # 0xffffffff89545362
    a9bc:	a86a7097          	auipc	ra,0xa86a7
    a9c0:	000171b3          	and	gp,sp,zero
    a9c4:	0060c3b3          	xor	t2,ra,t1
    a9c8:	588420b7          	lui	ra,0x58842
    a9cc:	63b1e113          	ori	sp,gp,1595
    a9d0:	75b16093          	ori	ra,sp,1883
    a9d4:	985fc197          	auipc	gp,0x985fc
    a9d8:	403702b3          	sub	t0,a4,gp
    a9dc:	0054f233          	and	tp,s1,t0
    a9e0:	52430317          	auipc	t1,0x52430
    a9e4:	00116133          	or	sp,sp,ra
    a9e8:	e31c51b7          	lui	gp,0xe31c5
    a9ec:	c01ce197          	auipc	gp,0xc01ce
    a9f0:	54a2b117          	auipc	sp,0x54a2b
    a9f4:	5febf037          	lui	zero,0x5febf
    a9f8:	40208733          	sub	a4,ra,sp
    a9fc:	b966b137          	lui	sp,0xb966b
    aa00:	0041c1b3          	xor	gp,gp,tp
    aa04:	57878113          	addi	sp,a5,1400 # 0x5877d578
    aa08:	00020193          	mv	gp,tp
    aa0c:	10418c63          	beq	gp,tp,0xab24
    aa10:	00110133          	add	sp,sp,ra
    aa14:	3417c1b7          	lui	gp,0x3417c
    aa18:	002100b3          	add	ra,sp,sp
    aa1c:	e022f093          	andi	ra,t0,-510
    aa20:	0073f9b3          	and	s3,t2,t2
    aa24:	401200b3          	sub	ra,tp,ra
    aa28:	0c288697          	auipc	a3,0xc288
    aa2c:	26bb81b7          	lui	gp,0x26bb8
    aa30:	5a0d4117          	auipc	sp,0x5a0d4
    aa34:	404382b3          	sub	t0,t2,tp
    aa38:	0016ff33          	and	t5,a3,ra
    aa3c:	bc338093          	addi	ra,t2,-1085 # 0x44ba2bc3
    aa40:	79b6d237          	lui	tp,0x79b6d
    aa44:	7321f193          	andi	gp,gp,1842
    aa48:	e5c9b1b7          	lui	gp,0xe5c9b
    aa4c:	4da00193          	li	gp,1242
    aa50:	e88c6113          	ori	sp,s8,-376
    aa54:	48ec00b7          	lui	ra,0x48ec0
    aa58:	a1205117          	auipc	sp,0xa1205
    aa5c:	af900193          	li	gp,-1287
    aa60:	50d8f237          	lui	tp,0x50d8f
    aa64:	7fbfd137          	lui	sp,0x7fbfd
    aa68:	002081b3          	add	gp,ra,sp
    aa6c:	8db4a097          	auipc	ra,0x8db4a
    aa70:	9b7061b7          	lui	gp,0x9b706
    aa74:	9416c0b7          	lui	ra,0x9416c
    aa78:	002103b3          	add	t2,sp,sp
    aa7c:	bd517093          	andi	ra,sp,-1067
    aa80:	01b41097          	auipc	ra,0x1b41
    aa84:	40200133          	neg	sp,sp
    aa88:	1953e1b7          	lui	gp,0x1953e
    aa8c:	00000397          	auipc	t2,0x0
    aa90:	19c380e7          	jalr	412(t2) # 0xac28
    aa94:	0031c133          	xor	sp,gp,gp
    aa98:	a2118113          	addi	sp,gp,-1503 # 0x1953da21
    aa9c:	c2f18593          	addi	a1,gp,-977
    aaa0:	402183b3          	sub	t2,gp,sp
    aaa4:	402101b3          	sub	gp,sp,sp
    aaa8:	0011c9b3          	xor	s3,gp,ra
    aaac:	04008093          	addi	ra,ra,64 # 0x1b4bac0
    aab0:	00306233          	or	tp,zero,gp
    aab4:	40200233          	neg	tp,sp
    aab8:	f0c63117          	auipc	sp,0xf0c63
    aabc:	5c10c293          	xori	t0,ra,1473
    aac0:	484f1017          	auipc	zero,0x484f1
    aac4:	a451c193          	xori	gp,gp,-1467
    aac8:	209b10b7          	lui	ra,0x209b1
    aacc:	004162b3          	or	t0,sp,tp
    aad0:	0020c0b3          	xor	ra,ra,sp
    aad4:	0f05d237          	lui	tp,0xf05d
    aad8:	127bf897          	auipc	a7,0x127bf
    aadc:	42ea95b7          	lui	a1,0x42ea9
    aae0:	0ad1d097          	auipc	ra,0xad1d
    aae4:	e4414113          	xori	sp,sp,-444
    aae8:	6a83b997          	auipc	s3,0x6a83b
    aaec:	dfd140b7          	lui	ra,0xdfd14
    aaf0:	d3be2097          	auipc	ra,0xd3be2
    aaf4:	0010c0b3          	xor	ra,ra,ra
    aaf8:	002163b3          	or	t2,sp,sp
    aafc:	0350e193          	ori	gp,ra,53
    ab00:	db152197          	auipc	gp,0xdb152
    ab04:	00714133          	xor	sp,sp,t2
    ab08:	933681b7          	lui	gp,0x93368
    ab0c:	d2b721b7          	lui	gp,0xd2b72
    ab10:	4559b137          	lui	sp,0x4559b
    ab14:	d4d27197          	auipc	gp,0xd4d27
    ab18:	402281b3          	sub	gp,t0,sp
    ab1c:	00148263          	beq	s1,ra,0xab20
    ab20:	188010ef          	jal	ra,0xbca8
    ab24:	0031e133          	or	sp,gp,gp
    ab28:	17a435b7          	lui	a1,0x17a43
    ab2c:	00317133          	and	sp,sp,gp
    ab30:	5ec94237          	lui	tp,0x5ec94
    ab34:	e1602197          	auipc	gp,0xe1602
    ab38:	8fb4c113          	xori	sp,s1,-1797
    ab3c:	df435097          	auipc	ra,0xdf435
    ab40:	403081b3          	sub	gp,ra,gp
    ab44:	0070c133          	xor	sp,ra,t2
    ab48:	2a60f093          	andi	ra,ra,678
    ab4c:	0031f333          	and	t1,gp,gp
    ab50:	dff400b7          	lui	ra,0xdff40
    ab54:	8700e293          	ori	t0,ra,-1936
    ab58:	cfd18097          	auipc	ra,0xcfd18
    ab5c:	83e1e093          	ori	ra,gp,-1986
    ab60:	5c4d0113          	addi	sp,s10,1476 # 0x9b87660
    ab64:	6ec7d097          	auipc	ra,0x6ec7d
    ab68:	00117133          	and	sp,sp,ra
    ab6c:	e221e393          	ori	t2,gp,-478
    ab70:	01f070b3          	and	ra,zero,t6
    ab74:	06827193          	andi	gp,tp,104
    ab78:	9dc34b97          	auipc	s7,0x9dc34
    ab7c:	3df2b397          	auipc	t2,0x3df2b
    ab80:	16da9217          	auipc	tp,0x16da9
    ab84:	738ea197          	auipc	gp,0x738ea
    ab88:	59f1e093          	ori	ra,gp,1439
    ab8c:	006161b3          	or	gp,sp,t1
    ab90:	959de117          	auipc	sp,0x959de
    ab94:	2ed24093          	xori	ra,tp,749
    ab98:	2c90e493          	ori	s1,ra,713
    ab9c:	38497097          	auipc	ra,0x38497
    aba0:	ca118ce3          	beq	gp,ra,0xa858
    aba4:	cb5ff0ef          	jal	ra,0xa858
    aba8:	002160b3          	or	ra,sp,sp
    abac:	9720f193          	andi	gp,ra,-1678
    abb0:	f3b16193          	ori	gp,sp,-197
    abb4:	0010f0b3          	and	ra,ra,ra
    abb8:	21dbf097          	auipc	ra,0x21dbf
    abbc:	00214233          	xor	tp,sp,sp
    abc0:	d5b522b7          	lui	t0,0xd5b52
    abc4:	7d18d137          	lui	sp,0x7d18d
    abc8:	867be317          	auipc	t1,0x867be
    abcc:	42626193          	ori	gp,tp,1062
    abd0:	894f5097          	auipc	ra,0x894f5
    abd4:	0011f0b3          	and	ra,gp,ra
    abd8:	003180b3          	add	ra,gp,gp
    abdc:	40200133          	neg	sp,sp
    abe0:	78a14097          	auipc	ra,0x78a14
    abe4:	2c217093          	andi	ra,sp,706
    abe8:	848dd1b7          	lui	gp,0x848dd
    abec:	dffcc217          	auipc	tp,0xdffcc
    abf0:	003140b3          	xor	ra,sp,gp
    abf4:	f195d1b7          	lui	gp,0xf195d
    abf8:	3a024093          	xori	ra,tp,928
    abfc:	d37e9097          	auipc	ra,0xd37e9
    ac00:	3e717113          	andi	sp,sp,999
    ac04:	6eeee097          	auipc	ra,0x6eeee
    ac08:	bbea5117          	auipc	sp,0xbbea5
    ac0c:	de13d117          	auipc	sp,0xde13d
    ac10:	40c320b7          	lui	ra,0x40c32
    ac14:	403181b3          	sub	gp,gp,gp
    ac18:	cd8b23b7          	lui	t2,0xcd8b2
    ac1c:	310450b7          	lui	ra,0x31045
    ac20:	00020113          	mv	sp,tp
    ac24:	4e410863          	beq	sp,tp,0xb114
    ac28:	8f334293          	xori	t0,t1,-1805
    ac2c:	14c14193          	xori	gp,sp,332
    ac30:	4e21c093          	xori	ra,gp,1250
    ac34:	2ba1c293          	xori	t0,gp,698
    ac38:	00f10233          	add	tp,sp,a5
    ac3c:	2d3c83b7          	lui	t2,0x2d3c8
    ac40:	50cd07b7          	lui	a5,0x50cd0
    ac44:	f0a06137          	lui	sp,0xf0a06
    ac48:	51fa7417          	auipc	s0,0x51fa7
    ac4c:	00117133          	and	sp,sp,ra
    ac50:	ef1fb217          	auipc	tp,0xef1fb
    ac54:	77806093          	ori	ra,zero,1912
    ac58:	b8a37097          	auipc	ra,0xb8a37
    ac5c:	4bff02b7          	lui	t0,0x4bff0
    ac60:	df314093          	xori	ra,sp,-525
    ac64:	003106b3          	add	a3,sp,gp
    ac68:	0070c0b3          	xor	ra,ra,t2
    ac6c:	518eb0b7          	lui	ra,0x518eb
    ac70:	66a00237          	lui	tp,0x66a00
    ac74:	6e7cc2b7          	lui	t0,0x6e7cc
    ac78:	001202b3          	add	t0,tp,ra
    ac7c:	feee0397          	auipc	t2,0xfeee0
    ac80:	0050f0b3          	and	ra,ra,t0
    ac84:	91332217          	auipc	tp,0x91332
    ac88:	cd85f293          	andi	t0,a1,-808
    ac8c:	f25ba697          	auipc	a3,0xf25ba
    ac90:	93bb9137          	lui	sp,0x93bb9
    ac94:	75d5b197          	auipc	gp,0x75d5b
    ac98:	55c6c137          	lui	sp,0x55c6c
    ac9c:	cfb13497          	auipc	s1,0xcfb13
    aca0:	feb8c197          	auipc	gp,0xfeb8c
    aca4:	00104133          	xor	sp,zero,ra
    aca8:	00227133          	and	sp,tp,sp
    acac:	00128133          	add	sp,t0,ra
    acb0:	401081b3          	sub	gp,ra,ra
    acb4:	f7ff6237          	lui	tp,0xf7ff6
    acb8:	00008113          	mv	sp,ra
    acbc:	a61102e3          	beq	sp,ra,0xa720
    acc0:	59473137          	lui	sp,0x59473
    acc4:	a1a45097          	auipc	ra,0xa1a45
    acc8:	a5806097          	auipc	ra,0xa5806
    accc:	0a7821b7          	lui	gp,0xa782
    acd0:	cc6140b7          	lui	ra,0xcc614
    acd4:	7cd98217          	auipc	tp,0x7cd98
    acd8:	0710f093          	andi	ra,ra,113
    acdc:	835d6117          	auipc	sp,0x835d6
    ace0:	3f5d0297          	auipc	t0,0x3f5d0
    ace4:	0010e0b3          	or	ra,ra,ra
    ace8:	ba668193          	addi	gp,a3,-1114 # 0xfffffffff25c4832
    acec:	1e3f8493          	addi	s1,t6,483 # 0x542371e7
    acf0:	ba91e193          	ori	gp,gp,-1111
    acf4:	9f41a197          	auipc	gp,0x9f41a
    acf8:	7c3c8137          	lui	sp,0x7c3c8
    acfc:	f971c193          	xori	gp,gp,-105
    ad00:	74c0e113          	ori	sp,ra,1868
    ad04:	cce17193          	andi	gp,sp,-818
    ad08:	c9eb1397          	auipc	t2,0xc9eb1
    ad0c:	e040e213          	ori	tp,ra,-508
    ad10:	003066b3          	or	a3,zero,gp
    ad14:	2c79f113          	andi	sp,s3,711
    ad18:	0030f133          	and	sp,ra,gp
    ad1c:	000246b3          	xor	a3,tp,zero
    ad20:	56281197          	auipc	gp,0x56281
    ad24:	d0fcc197          	auipc	gp,0xd0fcc
    ad28:	67171197          	auipc	gp,0x67171
    ad2c:	0010f0b3          	and	ra,ra,ra
    ad30:	4af21117          	auipc	sp,0x4af21
    ad34:	64ed5097          	auipc	ra,0x64ed5
    ad38:	35fe9317          	auipc	t1,0x35fe9
    ad3c:	64bee193          	ori	gp,t4,1611
    ad40:	c5617097          	auipc	ra,0xc5617
    ad44:	00d301b3          	add	gp,t1,a3
    ad48:	402087b3          	sub	a5,ra,sp
    ad4c:	10218a63          	beq	gp,sp,0xae60
    ad50:	1100006f          	j	0xae60
    ad54:	d4e0e093          	ori	ra,ra,-690
    ad58:	00308133          	add	sp,ra,gp
    ad5c:	e2c7f193          	andi	gp,a5,-468
    ad60:	14c16193          	ori	gp,sp,332
    ad64:	40218133          	sub	sp,gp,sp
    ad68:	19683d37          	lui	s10,0x19683
    ad6c:	0175f193          	andi	gp,a1,23
    ad70:	0010e133          	or	sp,ra,ra
    ad74:	92e0f313          	andi	t1,ra,-1746
    ad78:	402181b3          	sub	gp,gp,sp
    ad7c:	e94d81b7          	lui	gp,0xe94d8
    ad80:	c9037c13          	andi	s8,t1,-880
    ad84:	9e534793          	xori	a5,t1,-1563
    ad88:	5e4f0917          	auipc	s2,0x5e4f0
    ad8c:	c0422037          	lui	zero,0xc0422
    ad90:	002142b3          	xor	t0,sp,sp
    ad94:	0020f0b3          	and	ra,ra,sp
    ad98:	1f3b7197          	auipc	gp,0x1f3b7
    ad9c:	01807133          	and	sp,zero,s8
    ada0:	f5020193          	addi	gp,tp,-176 # 0x7cda2c24
    ada4:	f6aea0b7          	lui	ra,0xf6aea
    ada8:	6e2152b7          	lui	t0,0x6e215
    adac:	006481b3          	add	gp,s1,t1
    adb0:	28624193          	xori	gp,tp,646
    adb4:	2d10e093          	ori	ra,ra,721
    adb8:	47713097          	auipc	ra,0x47713
    adbc:	f520e313          	ori	t1,ra,-174
    adc0:	53a06113          	ori	sp,zero,1338
    adc4:	19617093          	andi	ra,sp,406
    adc8:	e360b397          	auipc	t2,0xe360b
    adcc:	c4441097          	auipc	ra,0xc4441
    add0:	c49e5297          	auipc	t0,0xc49e5
    add4:	00000217          	auipc	tp,0x0
    add8:	008200e7          	jalr	8(tp) # 0x0
    addc:	00b20f33          	add	t5,tp,a1
    ade0:	0061c033          	xor	zero,gp,t1
    ade4:	a59ab097          	auipc	ra,0xa59ab
    ade8:	2533f093          	andi	ra,t2,595
    adec:	32508317          	auipc	t1,0x32508
    adf0:	e9c6d137          	lui	sp,0xe9c6d
    adf4:	57ade117          	auipc	sp,0x57ade
    adf8:	aff8d137          	lui	sp,0xaff8d
    adfc:	3e707093          	andi	ra,zero,999
    ae00:	406101b3          	sub	gp,sp,t1
    ae04:	199aa1b7          	lui	gp,0x199aa
    ae08:	1e78c097          	auipc	ra,0x1e78c
    ae0c:	160a9117          	auipc	sp,0x160a9
    ae10:	c19fb1b7          	lui	gp,0xc19fb
    ae14:	0010e133          	or	sp,ra,ra
    ae18:	0072c0b3          	xor	ra,t0,t2
    ae1c:	eebe3097          	auipc	ra,0xeebe3
    ae20:	75909117          	auipc	sp,0x75909
    ae24:	002080b3          	add	ra,ra,sp
    ae28:	3eb0e193          	ori	gp,ra,1003
    ae2c:	f99e1197          	auipc	gp,0xf99e1
    ae30:	e2e261b7          	lui	gp,0xe2e26
    ae34:	41b28133          	sub	sp,t0,s11
    ae38:	5abb0197          	auipc	gp,0x5abb0
    ae3c:	80107113          	andi	sp,zero,-2047
    ae40:	3692e393          	ori	t2,t0,873
    ae44:	d7c04313          	xori	t1,zero,-644
    ae48:	4b514093          	xori	ra,sp,1205
    ae4c:	ca665797          	auipc	a5,0xca665
    ae50:	0020f133          	and	sp,ra,sp
    ae54:	b3e20017          	auipc	zero,0xb3e20
    ae58:	08110c63          	beq	sp,ra,0xaef0
    ae5c:	094000ef          	jal	ra,0xaef0
    ae60:	1c3f80b7          	lui	ra,0x1c3f8
    ae64:	4b79f217          	auipc	tp,0x4b79f
    ae68:	4baa31b7          	lui	gp,0x4baa3
    ae6c:	42566117          	auipc	sp,0x42566
    ae70:	37127093          	andi	ra,tp,881
    ae74:	b16411b7          	lui	gp,0xb1641
    ae78:	001161b3          	or	gp,sp,ra
    ae7c:	26d8f097          	auipc	ra,0x26d8f
    ae80:	c710f493          	andi	s1,ra,-911
    ae84:	96edf137          	lui	sp,0x96edf
    ae88:	40128133          	sub	sp,t0,ra
    ae8c:	bac94297          	auipc	t0,0xbac94
    ae90:	d66ea0b7          	lui	ra,0xd66ea
    ae94:	f202cc13          	xori	s8,t0,-224
    ae98:	0030e1b3          	or	gp,ra,gp
    ae9c:	8740c213          	xori	tp,ra,-1932
    aea0:	98e1f593          	andi	a1,gp,-1650
    aea4:	65c48113          	addi	sp,s1,1628 # 0xffffffffcfb1e2f8
    aea8:	ae9b55b7          	lui	a1,0xae9b5
    aeac:	0031e1b3          	or	gp,gp,gp
    aeb0:	0020e233          	or	tp,ra,sp
    aeb4:	00336033          	or	zero,t1,gp
    aeb8:	e8018093          	addi	ra,gp,-384 # 0xffffffffb1640e80
    aebc:	13580117          	auipc	sp,0x13580
    aec0:	0ee81317          	auipc	t1,0xee81
    aec4:	40200233          	neg	tp,sp
    aec8:	00210133          	add	sp,sp,sp
    aecc:	194e60b7          	lui	ra,0x194e6
    aed0:	0030c133          	xor	sp,ra,gp
    aed4:	f8f31397          	auipc	t2,0xf8f31
    aed8:	0043e133          	or	sp,t2,tp
    aedc:	838eb137          	lui	sp,0x838eb
    aee0:	8d9191b7          	lui	gp,0x8d919
    aee4:	42318093          	addi	ra,gp,1059 # 0xffffffff8d919423
    aee8:	00000013          	nop
    aeec:	8c000ce3          	beqz	zero,0xa7c4
    aef0:	7f926137          	lui	sp,0x7f926
    aef4:	0010f133          	and	sp,ra,ra
    aef8:	1b90f093          	andi	ra,ra,441
    aefc:	51278193          	addi	gp,a5,1298 # 0xffffffffca67035e
    af00:	72a0c213          	xori	tp,ra,1834
    af04:	af227093          	andi	ra,tp,-1294
    af08:	2f8181b7          	lui	gp,0x2f818
    af0c:	0efa6237          	lui	tp,0xefa6
    af10:	b1abd317          	auipc	t1,0xb1abd
    af14:	e5ce2137          	lui	sp,0xe5ce2
    af18:	8efb0097          	auipc	ra,0x8efb0
    af1c:	400101b3          	sub	gp,sp,zero
    af20:	91bfd317          	auipc	t1,0x91bfd
    af24:	62e9a0b7          	lui	ra,0x62e9a
    af28:	6c4901b7          	lui	gp,0x6c490
    af2c:	0bbeb3b7          	lui	t2,0xbbeb
    af30:	2fc16113          	ori	sp,sp,764
    af34:	079aa0b7          	lui	ra,0x79aa
    af38:	002142b3          	xor	t0,sp,sp
    af3c:	c3c26113          	ori	sp,tp,-964
    af40:	adc06193          	ori	gp,zero,-1316
    af44:	eb30b117          	auipc	sp,0xeb30b
    af48:	001371b3          	and	gp,t1,ra
    af4c:	d74421b7          	lui	gp,0xd7442
    af50:	2c2bf0b7          	lui	ra,0x2c2bf
    af54:	002080b3          	add	ra,ra,sp
    af58:	bf817093          	andi	ra,sp,-1032
    af5c:	00a3f133          	and	sp,t2,a0
    af60:	02397137          	lui	sp,0x2397
    af64:	40610133          	sub	sp,sp,t1
    af68:	224d0117          	auipc	sp,0x224d0
    af6c:	0030e0b3          	or	ra,ra,gp
    af70:	a303e397          	auipc	t2,0xa303e
    af74:	00058093          	mv	ra,a1
    af78:	00b08263          	beq	ra,a1,0xaf7c
    af7c:	002360b3          	or	ra,t1,sp
    af80:	9b00f193          	andi	gp,ra,-1616
    af84:	67c33117          	auipc	sp,0x67c33
    af88:	0021f0b3          	and	ra,gp,sp
    af8c:	0013f0b3          	and	ra,t2,ra
    af90:	401103b3          	sub	t2,sp,ra
    af94:	0020c3b3          	xor	t2,ra,sp
    af98:	0851f113          	andi	sp,gp,133
    af9c:	00f0e133          	or	sp,ra,a5
    afa0:	00117133          	and	sp,sp,ra
    afa4:	c8408613          	addi	a2,ra,-892 # 0x2c2bec84
    afa8:	85eb1137          	lui	sp,0x85eb1
    afac:	e3875197          	auipc	gp,0xe3875
    afb0:	a1b77d17          	auipc	s10,0xa1b77
    afb4:	ff3f9137          	lui	sp,0xff3f9
    afb8:	2430c113          	xori	sp,ra,579
    afbc:	01d27093          	andi	ra,tp,29
    afc0:	7871f093          	andi	ra,gp,1927
    afc4:	25b421b7          	lui	gp,0x25b42
    afc8:	0002c4b3          	xor	s1,t0,zero
    afcc:	003101b3          	add	gp,sp,gp
    afd0:	e80c4337          	lui	t1,0xe80c4
    afd4:	047d5137          	lui	sp,0x47d5
    afd8:	49418593          	addi	a1,gp,1172 # 0x25b42494
    afdc:	4afe6217          	auipc	tp,0x4afe6
    afe0:	29aaf197          	auipc	gp,0x29aaf
    afe4:	400381b3          	sub	gp,t2,zero
    afe8:	a4a2c317          	auipc	t1,0xa4a2c
    afec:	00010113          	mv	sp,sp
    aff0:	aa2102e3          	beq	sp,sp,0xaa94
    aff4:	00e080b3          	add	ra,ra,a4
    aff8:	f8cce2b7          	lui	t0,0xf8cce
    affc:	feb3f393          	andi	t2,t2,-21
    b000:	17052097          	auipc	ra,0x17052
    b004:	9491c013          	xori	zero,gp,-1719
    b008:	40280133          	sub	sp,a6,sp
    b00c:	95510113          	addi	sp,sp,-1707 # 0x47d4955
    b010:	889393b7          	lui	t2,0x88939
    b014:	2d874137          	lui	sp,0x2d874
    b018:	17fbe0b7          	lui	ra,0x17fbe
    b01c:	6671e013          	ori	zero,gp,1639
    b020:	91cc71b7          	lui	gp,0x91cc7
    b024:	000640b3          	xor	ra,a2,zero
    b028:	5c40e313          	ori	t1,ra,1476
    b02c:	2027a197          	auipc	gp,0x2027a
    b030:	d534e217          	auipc	tp,0xd534e
    b034:	5c9a1917          	auipc	s2,0x5c9a1
    b038:	3bc20393          	addi	t2,tp,956 # 0xffffffffd53593ec
    b03c:	0043e0b3          	or	ra,t2,tp
    b040:	89a3d097          	auipc	ra,0x89a3d
    b044:	002081b3          	add	gp,ra,sp
    b048:	003ef0b3          	and	ra,t4,gp
    b04c:	396a73b7          	lui	t2,0x396a7
    b050:	8d51c313          	xori	t1,gp,-1835
    b054:	018e61b3          	or	gp,t3,s8
    b058:	cc8ce337          	lui	t1,0xcc8ce
    b05c:	001be0b3          	or	ra,s7,ra
    b060:	007100b3          	add	ra,sp,t2
    b064:	05b09097          	auipc	ra,0x5b09
    b068:	c38bf237          	lui	tp,0xc38bf
    b06c:	003100b3          	add	ra,sp,gp
    b070:	9158b037          	lui	zero,0x9158b
    b074:	403081b3          	sub	gp,ra,gp
    b078:	c30d91b7          	lui	gp,0xc30d9
    b07c:	a5717117          	auipc	sp,0xa5717
    b080:	8837d097          	auipc	ra,0x8837d
    b084:	0f6d50b7          	lui	ra,0xf6d5
    b088:	983084e3          	beq	ra,gp,0xaa10
    b08c:	985ff16f          	jal	sp,0xaa10
    b090:	2891e193          	ori	gp,gp,649
    b094:	50a99197          	auipc	gp,0x50a99
    b098:	93e7e097          	auipc	ra,0x93e7e
    b09c:	5559d117          	auipc	sp,0x5559d
    b0a0:	1247a097          	auipc	ra,0x1247a
    b0a4:	6a0e6397          	auipc	t2,0x6a0e6
    b0a8:	a0e0f313          	andi	t1,ra,-1522
    b0ac:	00326133          	or	sp,tp,gp
    b0b0:	81afc137          	lui	sp,0x81afc
    b0b4:	401101b3          	sub	gp,sp,ra
    b0b8:	ef21e193          	ori	gp,gp,-270
    b0bc:	0472e113          	ori	sp,t0,71
    b0c0:	b092a3b7          	lui	t2,0xb092a
    b0c4:	60886337          	lui	t1,0x60886
    b0c8:	379de097          	auipc	ra,0x379de
    b0cc:	6a1a6137          	lui	sp,0x6a1a6
    b0d0:	96d18013          	addi	zero,gp,-1683 # 0x50aa3a01
    b0d4:	ec60e313          	ori	t1,ra,-314
    b0d8:	0f70e317          	auipc	t1,0xf70e
    b0dc:	40430233          	sub	tp,t1,tp
    b0e0:	0023f0b3          	and	ra,t2,sp
    b0e4:	8ba59037          	lui	zero,0x8ba59
    b0e8:	d7e20193          	addi	gp,tp,-642 # 0xffffffffc38bed7e
    b0ec:	88d1e093          	ori	ra,gp,-1907
    b0f0:	cd4c51b7          	lui	gp,0xcd4c5
    b0f4:	a0303137          	lui	sp,0xa0303
    b0f8:	af6c5117          	auipc	sp,0xaf6c5
    b0fc:	002301b3          	add	gp,t1,sp
    b100:	28e11317          	auipc	t1,0x28e11
    b104:	5e8da397          	auipc	t2,0x5e8da
    b108:	001101b3          	add	gp,sp,ra
    b10c:	00118263          	beq	gp,ra,0xb110
    b110:	fd0ff0ef          	jal	ra,0xa8e0
    b114:	7a044137          	lui	sp,0x7a044
    b118:	00717033          	and	zero,sp,t2
    b11c:	04f52197          	auipc	gp,0x4f52
    b120:	33355137          	lui	sp,0x33355
    b124:	2ea0e193          	ori	gp,ra,746
    b128:	c0b97397          	auipc	t2,0xc0b97
    b12c:	393e7097          	auipc	ra,0x393e7
    b130:	0051c333          	xor	t1,gp,t0
    b134:	0d807213          	andi	tp,zero,216
    b138:	e190f093          	andi	ra,ra,-487
    b13c:	59e28193          	addi	gp,t0,1438 # 0xfffffffff8cce59e
    b140:	a1935237          	lui	tp,0xa1935
    b144:	51c1c093          	xori	ra,gp,1308
    b148:	f8f10093          	addi	ra,sp,-113 # 0x33354f8f
    b14c:	681152b7          	lui	t0,0x68115
    b150:	0031f133          	and	sp,gp,gp
    b154:	ecc21317          	auipc	t1,0xecc21
    b158:	b5dbd297          	auipc	t0,0xb5dbd
    b15c:	4dd0e137          	lui	sp,0x4dd0e
    b160:	7cdf0297          	auipc	t0,0x7cdf0
    b164:	fb104393          	xori	t2,zero,-79
    b168:	c5b17113          	andi	sp,sp,-933
    b16c:	ff0e6097          	auipc	ra,0xff0e6
    b170:	0c718113          	addi	sp,gp,199 # 0x4f5d1e3
    b174:	344a9117          	auipc	sp,0x344a9
    b178:	5f02a117          	auipc	sp,0x5f02a
    b17c:	001301b3          	add	gp,t1,ra
    b180:	0031e133          	or	sp,gp,gp
    b184:	3c5240b7          	lui	ra,0x3c524
    b188:	8295c137          	lui	sp,0x8295c
    b18c:	ba0c0137          	lui	sp,0xba0c0
    b190:	2c51e013          	ori	zero,gp,709
    b194:	00010213          	mv	tp,sp
    b198:	ba220ee3          	beq	tp,sp,0xad54
    b19c:	7cf72837          	lui	a6,0x7cf72
    b1a0:	41e181b3          	sub	gp,gp,t5
    b1a4:	003161b3          	or	gp,sp,gp
    b1a8:	68c16093          	ori	ra,sp,1676
    b1ac:	2b71f093          	andi	ra,gp,695
    b1b0:	51a9b017          	auipc	zero,0x51a9b
    b1b4:	a7b3a0b7          	lui	ra,0xa7b3a
    b1b8:	402100b3          	sub	ra,sp,sp
    b1bc:	8f816313          	ori	t1,sp,-1800
    b1c0:	c7fcc0b7          	lui	ra,0xc7fcc
    b1c4:	e7d5f393          	andi	t2,a1,-387
    b1c8:	c780c197          	auipc	gp,0xc780c
    b1cc:	4cc0f313          	andi	t1,ra,1228
    b1d0:	401102b3          	sub	t0,sp,ra
    b1d4:	b9041137          	lui	sp,0xb9041
    b1d8:	4e5d3117          	auipc	sp,0x4e5d3
    b1dc:	4435e0b7          	lui	ra,0x4435e
    b1e0:	76eed317          	auipc	t1,0x76eed
    b1e4:	93a8c297          	auipc	t0,0x93a8c
    b1e8:	b2314213          	xori	tp,sp,-1245
    b1ec:	88bc4197          	auipc	gp,0x88bc4
    b1f0:	0003f1b3          	and	gp,t2,zero
    b1f4:	40318133          	sub	sp,gp,gp
    b1f8:	00e90113          	addi	sp,s2,14 # 0x5c9ac042
    b1fc:	06ff12b7          	lui	t0,0x6ff1
    b200:	597dd197          	auipc	gp,0x597dd
    b204:	26b9a1b7          	lui	gp,0x26b9a
    b208:	0081f0b3          	and	ra,gp,s0
    b20c:	91706213          	ori	tp,zero,-1769
    b210:	003bc1b3          	xor	gp,s7,gp
    b214:	07018113          	addi	sp,gp,112 # 0x26b9a070
    b218:	00000697          	auipc	a3,0x0
    b21c:	ddc68167          	jalr	sp,-548(a3) # 0xaff4
    b220:	5ee79197          	auipc	gp,0x5ee79
    b224:	9b60e593          	ori	a1,ra,-1610
    b228:	0030f233          	and	tp,ra,gp
    b22c:	ca882d97          	auipc	s11,0xca882
    b230:	3cdae0b7          	lui	ra,0x3cdae
    b234:	61c001b7          	lui	gp,0x61c00
    b238:	94768393          	addi	t2,a3,-1721
    b23c:	f87c0397          	auipc	t2,0xf87c0
    b240:	6676e117          	auipc	sp,0x6676e
    b244:	7c41c213          	xori	tp,gp,1988
    b248:	f3d0c113          	xori	sp,ra,-195
    b24c:	f6f7d1b7          	lui	gp,0xf6f7d
    b250:	df48f197          	auipc	gp,0xdf48f
    b254:	57a10293          	addi	t0,sp,1402 # 0x667797ba
    b258:	a851c113          	xori	sp,gp,-1403
    b25c:	7ffeb097          	auipc	ra,0x7ffeb
    b260:	2070e193          	ori	gp,ra,519
    b264:	0bd45197          	auipc	gp,0xbd45
    b268:	3089e1b7          	lui	gp,0x3089e
    b26c:	4b659097          	auipc	ra,0x4b659
    b270:	403a81b3          	sub	gp,s5,gp
    b274:	0021e333          	or	t1,gp,sp
    b278:	3db1e793          	ori	a5,gp,987
    b27c:	27748193          	addi	gp,s1,631
    b280:	04a81197          	auipc	gp,0x4a81
    b284:	0022e4b3          	or	s1,t0,sp
    b288:	407180b3          	sub	ra,gp,t2
    b28c:	09b14113          	xori	sp,sp,155
    b290:	0023c1b3          	xor	gp,t2,sp
    b294:	486b51b7          	lui	gp,0x486b5
    b298:	401181b3          	sub	gp,gp,ra
    b29c:	85597137          	lui	sp,0x85597
    b2a0:	0102c213          	xori	tp,t0,16
    b2a4:	415e91b7          	lui	gp,0x415e9
    b2a8:	7c89a237          	lui	tp,0x7c89a
    b2ac:	d83921b7          	lui	gp,0xd8392
    b2b0:	91d82037          	lui	zero,0x91d82
    b2b4:	46610863          	beq	sp,t1,0xb724
    b2b8:	46c000ef          	jal	ra,0xb724
    b2bc:	40208133          	sub	sp,ra,sp
    b2c0:	005080b3          	add	ra,ra,t0
    b2c4:	00308133          	add	sp,ra,gp
    b2c8:	9d2dd097          	auipc	ra,0x9d2dd
    b2cc:	183a7597          	auipc	a1,0x183a7
    b2d0:	563dc317          	auipc	t1,0x563dc
    b2d4:	a8723217          	auipc	tp,0xa8723
    b2d8:	73714293          	xori	t0,sp,1847
    b2dc:	c655c137          	lui	sp,0xc655c
    b2e0:	001080b3          	add	ra,ra,ra
    b2e4:	2295a1b7          	lui	gp,0x2295a
    b2e8:	405450b7          	lui	ra,0x40545
    b2ec:	486371b7          	lui	gp,0x48637
    b2f0:	82b58393          	addi	t2,a1,-2005 # 0x183b1af7
    b2f4:	eb51e093          	ori	ra,gp,-331
    b2f8:	9ab18013          	addi	zero,gp,-1621 # 0x486369ab
    b2fc:	f86e54b7          	lui	s1,0xf86e5
    b300:	0feb5117          	auipc	sp,0xfeb5
    b304:	11c1f093          	andi	ra,gp,284
    b308:	c53b5297          	auipc	t0,0xc53b5
    b30c:	00308133          	add	sp,ra,gp
    b310:	abf081b7          	lui	gp,0xabf08
    b314:	c6554097          	auipc	ra,0xc6554
    b318:	7321e493          	ori	s1,gp,1842
    b31c:	002180b3          	add	ra,gp,sp
    b320:	b58c51b7          	lui	gp,0xb58c5
    b324:	98914293          	xori	t0,sp,-1655
    b328:	39386137          	lui	sp,0x39386
    b32c:	8dae6137          	lui	sp,0x8dae6
    b330:	31c24193          	xori	gp,tp,796
    b334:	a581c113          	xori	sp,gp,-1448
    b338:	c480c013          	xori	zero,ra,-952
    b33c:	69c22117          	auipc	sp,0x69c22
    b340:	00508263          	beq	ra,t0,0xb344
    b344:	1c8010ef          	jal	ra,0xc50c
    b348:	da21a197          	auipc	gp,0xda21a
    b34c:	0bf37193          	andi	gp,t1,191
    b350:	00116133          	or	sp,sp,ra
    b354:	3720e113          	ori	sp,ra,882
    b358:	557940b7          	lui	ra,0x55794
    b35c:	50193137          	lui	sp,0x50193
    b360:	31c66137          	lui	sp,0x31c66
    b364:	361f33b7          	lui	t2,0x361f3
    b368:	db9dc097          	auipc	ra,0xdb9dc
    b36c:	caa480b7          	lui	ra,0xcaa48
    b370:	c7b06193          	ori	gp,zero,-901
    b374:	561d0237          	lui	tp,0x561d0
    b378:	90929137          	lui	sp,0x90929
    b37c:	0061c0b3          	xor	ra,gp,t1
    b380:	f3d7ffb7          	lui	t6,0xf3d7f
    b384:	2eaca117          	auipc	sp,0x2eaca
    b388:	ff7a7217          	auipc	tp,0xff7a7
    b38c:	dd545117          	auipc	sp,0xdd545
    b390:	18d36093          	ori	ra,t1,397
    b394:	85124193          	xori	gp,tp,-1967
    b398:	5cc07193          	andi	gp,zero,1484
    b39c:	356a2097          	auipc	ra,0x356a2
    b3a0:	925c93b7          	lui	t2,0x925c9
    b3a4:	0031c333          	xor	t1,gp,gp
    b3a8:	bfc1f193          	andi	gp,gp,-1028
    b3ac:	0021e333          	or	t1,gp,sp
    b3b0:	097eb217          	auipc	tp,0x97eb
    b3b4:	402780b3          	sub	ra,a5,sp
    b3b8:	0051c133          	xor	sp,gp,t0
    b3bc:	634c5137          	lui	sp,0x634c5
    b3c0:	cd14c037          	lui	zero,0xcd14c
    b3c4:	40208133          	sub	sp,ra,sp
    b3c8:	29a601b7          	lui	gp,0x29a60
    b3cc:	00018393          	mv	t2,gp
    b3d0:	3c338e63          	beq	t2,gp,0xb7ac
    b3d4:	f2928293          	addi	t0,t0,-215 # 0xffffffffc53c0231
    b3d8:	0011c033          	xor	zero,gp,ra
    b3dc:	cef18297          	auipc	t0,0xcef18
    b3e0:	8c04a317          	auipc	t1,0x8c04a
    b3e4:	e28b1197          	auipc	gp,0xe28b1
    b3e8:	64c49237          	lui	tp,0x64c49
    b3ec:	d882e193          	ori	gp,t0,-632
    b3f0:	c0f2c117          	auipc	sp,0xc0f2c
    b3f4:	977cc137          	lui	sp,0x977cc
    b3f8:	40418333          	sub	t1,gp,tp
    b3fc:	69516217          	auipc	tp,0x69516
    b400:	0021f1b3          	and	gp,gp,sp
    b404:	00218133          	add	sp,gp,sp
    b408:	55bd4097          	auipc	ra,0x55bd4
    b40c:	001000b3          	add	ra,zero,ra
    b410:	00308d33          	add	s10,ra,gp
    b414:	1fb1f113          	andi	sp,gp,507
    b418:	402181b3          	sub	gp,gp,sp
    b41c:	590680b7          	lui	ra,0x59068
    b420:	b8b1c093          	xori	ra,gp,-1141
    b424:	0038f133          	and	sp,a7,gp
    b428:	0021f0b3          	and	ra,gp,sp
    b42c:	0012c0b3          	xor	ra,t0,ra
    b430:	0023c0b3          	xor	ra,t2,sp
    b434:	c7e1f313          	andi	t1,gp,-898
    b438:	cc409117          	auipc	sp,0xcc409
    b43c:	00517133          	and	sp,sp,t0
    b440:	00117133          	and	sp,sp,ra
    b444:	61243137          	lui	sp,0x61243
    b448:	401181b3          	sub	gp,gp,ra
    b44c:	40330133          	sub	sp,t1,gp
    b450:	4274f097          	auipc	ra,0x4274f
    b454:	d6309137          	lui	sp,0xd6309
    b458:	dc0104e3          	beqz	sp,0xb220
    b45c:	dc5ff1ef          	jal	gp,0xb220
    b460:	003241b3          	xor	gp,tp,gp
    b464:	48714113          	xori	sp,sp,1159
    b468:	73f58097          	auipc	ra,0x73f58
    b46c:	406181b3          	sub	gp,gp,t1
    b470:	1c2630b7          	lui	ra,0x1c263
    b474:	0020f2b3          	and	t0,ra,sp
    b478:	0480c193          	xori	gp,ra,72
    b47c:	3db0e113          	ori	sp,ra,987
    b480:	d478e237          	lui	tp,0xd478e
    b484:	401101b3          	sub	gp,sp,ra
    b488:	b972c113          	xori	sp,t0,-1129
    b48c:	9f440117          	auipc	sp,0x9f440
    b490:	ba3d2417          	auipc	s0,0xba3d2
    b494:	c7c1e493          	ori	s1,gp,-900
    b498:	2295f113          	andi	sp,a1,553
    b49c:	21a24113          	xori	sp,tp,538
    b4a0:	ed11f213          	andi	tp,gp,-303
    b4a4:	0c9d8097          	auipc	ra,0xc9d8
    b4a8:	07588137          	lui	sp,0x7588
    b4ac:	00338133          	add	sp,t2,gp
    b4b0:	97cde137          	lui	sp,0x97cde
    b4b4:	8797f237          	lui	tp,0x8797f
    b4b8:	b2678797          	auipc	a5,0xb2678
    b4bc:	0021c2b3          	xor	t0,gp,sp
    b4c0:	7701e293          	ori	t0,gp,1904
    b4c4:	18acb0b7          	lui	ra,0x18acb
    b4c8:	cee19397          	auipc	t2,0xcee19
    b4cc:	c381f313          	andi	t1,gp,-968
    b4d0:	72c971b7          	lui	gp,0x72c97
    b4d4:	40110333          	sub	t1,sp,ra
    b4d8:	3786d197          	auipc	gp,0x3786d
    b4dc:	d1ffc117          	auipc	sp,0xd1ffc
    b4e0:	b1d83237          	lui	tp,0xb1d83
    b4e4:	0060c133          	xor	sp,ra,t1
    b4e8:	a3b08113          	addi	sp,ra,-1477 # 0x18acaa3b
    b4ec:	00068293          	mv	t0,a3
    b4f0:	68d28c63          	beq	t0,a3,0xbb88
    b4f4:	14817193          	andi	gp,sp,328
    b4f8:	6f890417          	auipc	s0,0x6f890
    b4fc:	0e947317          	auipc	t1,0xe947
    b500:	0ada0037          	lui	zero,0xada0
    b504:	74385097          	auipc	ra,0x74385
    b508:	03524193          	xori	gp,tp,53
    b50c:	a840e117          	auipc	sp,0xa840e
    b510:	001060b3          	or	ra,zero,ra
    b514:	0031f033          	and	zero,gp,gp
    b518:	e8917293          	andi	t0,sp,-375
    b51c:	403300b3          	sub	ra,t1,gp
    b520:	e3cde0b7          	lui	ra,0xe3cde
    b524:	dfcbd117          	auipc	sp,0xdfcbd
    b528:	00518133          	add	sp,gp,t0
    b52c:	405300b3          	sub	ra,t1,t0
    b530:	5ef1e013          	ori	zero,gp,1519
    b534:	a577f117          	auipc	sp,0xa577f
    b538:	fe5d21b7          	lui	gp,0xfe5d2
    b53c:	001140b3          	xor	ra,sp,ra
    b540:	8a4e3197          	auipc	gp,0x8a4e3
    b544:	6cc842b7          	lui	t0,0x6cc84
    b548:	0e18b497          	auipc	s1,0xe18b
    b54c:	27306093          	ori	ra,zero,627
    b550:	4a320213          	addi	tp,tp,1187 # 0xffffffffb1d834a3
    b554:	b8a3a137          	lui	sp,0xb8a3a
    b558:	3dfbe137          	lui	sp,0x3dfbe
    b55c:	3e80c113          	xori	sp,ra,1000
    b560:	57f0e993          	ori	s3,ra,1407
    b564:	00337133          	and	sp,t1,gp
    b568:	41f10093          	addi	ra,sp,1055 # 0x3dfbe41f
    b56c:	341b5097          	auipc	ra,0x341b5
    b570:	58718263          	beq	gp,t2,0xbaf4
    b574:	580001ef          	jal	gp,0xbaf4
    b578:	855d5197          	auipc	gp,0x855d5
    b57c:	2e69b1b7          	lui	gp,0x2e69b
    b580:	e000e313          	ori	t1,ra,-512
    b584:	b6f6d1b7          	lui	gp,0xb6f6d
    b588:	9c918093          	addi	ra,gp,-1591 # 0xffffffffb6f6c9c9
    b58c:	f6118193          	addi	gp,gp,-159
    b590:	00116233          	or	tp,sp,ra
    b594:	0ee6b317          	auipc	t1,0xee6b
    b598:	0030e133          	or	sp,ra,gp
    b59c:	0022e0b3          	or	ra,t0,sp
    b5a0:	d99ee113          	ori	sp,t4,-615
    b5a4:	00500033          	add	zero,zero,t0
    b5a8:	5c817193          	andi	gp,sp,1480
    b5ac:	e5b8f197          	auipc	gp,0xe5b8f
    b5b0:	001145b3          	xor	a1,sp,ra
    b5b4:	0a317093          	andi	ra,sp,163
    b5b8:	a6ea9337          	lui	t1,0xa6ea9
    b5bc:	d420c093          	xori	ra,ra,-702
    b5c0:	404106b3          	sub	a3,sp,tp
    b5c4:	554fe1b7          	lui	gp,0x554fe
    b5c8:	06810193          	addi	gp,sp,104
    b5cc:	8f73e1b7          	lui	gp,0x8f73e
    b5d0:	0061f1b3          	and	gp,gp,t1
    b5d4:	4a1a5217          	auipc	tp,0x4a1a5
    b5d8:	88c3d117          	auipc	sp,0x88c3d
    b5dc:	f9910093          	addi	ra,sp,-103 # 0xffffffff88c48571
    b5e0:	0031c0b3          	xor	ra,gp,gp
    b5e4:	d6e4a137          	lui	sp,0xd6e4a
    b5e8:	2df433b7          	lui	t2,0x2df43
    b5ec:	f7d07217          	auipc	tp,0xf7d07
    b5f0:	0021c0b3          	xor	ra,gp,sp
    b5f4:	00318133          	add	sp,gp,gp
    b5f8:	84530113          	addi	sp,t1,-1979 # 0xffffffffa6ea8845
    b5fc:	405101b3          	sub	gp,sp,t0
    b600:	2b9b2137          	lui	sp,0x2b9b2
    b604:	00308463          	beq	ra,gp,0xb60c
    b608:	0040016f          	jal	sp,0xb60c
    b60c:	9872a197          	auipc	gp,0x9872a
    b610:	d47b8097          	auipc	ra,0xd47b8
    b614:	46010113          	addi	sp,sp,1120 # 0x2b9b2460
    b618:	002083b3          	add	t2,ra,sp
    b61c:	e1718193          	addi	gp,gp,-489 # 0xffffffff98735423
    b620:	c0316113          	ori	sp,sp,-1021
    b624:	5959e2b7          	lui	t0,0x5959e
    b628:	4db7f197          	auipc	gp,0x4db7f
    b62c:	2c89e337          	lui	t1,0x2c89e
    b630:	ab50e213          	ori	tp,ra,-1355
    b634:	ddaa7697          	auipc	a3,0xddaa7
    b638:	f790e193          	ori	gp,ra,-135
    b63c:	40238233          	sub	tp,t2,sp
    b640:	b3e2e193          	ori	gp,t0,-1218
    b644:	002171b3          	and	gp,sp,sp
    b648:	21417193          	andi	gp,sp,532
    b64c:	d94bb117          	auipc	sp,0xd94bb
    b650:	f8aaa197          	auipc	gp,0xf8aaa
    b654:	349fa117          	auipc	sp,0x349fa
    b658:	0021e2b3          	or	t0,gp,sp
    b65c:	66917113          	andi	sp,sp,1641
    b660:	d1fb8117          	auipc	sp,0xd1fb8
    b664:	0011e0b3          	or	ra,gp,ra
    b668:	40618133          	sub	sp,gp,t1
    b66c:	44717093          	andi	ra,sp,1095
    b670:	3ab26193          	ori	gp,tp,939
    b674:	09d85097          	auipc	ra,0x9d85
    b678:	0091e0b3          	or	ra,gp,s1
    b67c:	57da2137          	lui	sp,0x57da2
    b680:	f151f193          	andi	gp,gp,-235
    b684:	b590e113          	ori	sp,ra,-1191
    b688:	e971c113          	xori	sp,gp,-361
    b68c:	00018693          	mv	a3,gp
    b690:	d43682e3          	beq	a3,gp,0xb3d4
    b694:	000041b3          	xor	gp,zero,zero
    b698:	6cf8c197          	auipc	gp,0x6cf8c
    b69c:	0011c3b3          	xor	t2,gp,ra
    b6a0:	b8b77117          	auipc	sp,0xb8b77
    b6a4:	fa0be117          	auipc	sp,0xfa0be
    b6a8:	23310093          	addi	ra,sp,563 # 0xfffffffffa0c98d7
    b6ac:	401101b3          	sub	gp,sp,ra
    b6b0:	0031c0b3          	xor	ra,gp,gp
    b6b4:	430fb217          	auipc	tp,0x430fb
    b6b8:	498c50b7          	lui	ra,0x498c5
    b6bc:	6e00e113          	ori	sp,ra,1760
    b6c0:	f941f093          	andi	ra,gp,-108
    b6c4:	e9514213          	xori	tp,sp,-363
    b6c8:	00018333          	add	t1,gp,zero
    b6cc:	0cf6c0b7          	lui	ra,0xcf6c
    b6d0:	6b318193          	addi	gp,gp,1715 # 0x6cf97d4b
    b6d4:	40110133          	sub	sp,sp,ra
    b6d8:	0071c1b3          	xor	gp,gp,t2
    b6dc:	003e71b3          	and	gp,t3,gp
    b6e0:	001f06b3          	add	a3,t5,ra
    b6e4:	93a1c093          	xori	ra,gp,-1734
    b6e8:	48a3f113          	andi	sp,t2,1162
    b6ec:	49539097          	auipc	ra,0x49539
    b6f0:	8eb19137          	lui	sp,0x8eb19
    b6f4:	2647ee37          	lui	t3,0x2647e
    b6f8:	6040ce13          	xori	t3,ra,1540
    b6fc:	40328133          	sub	sp,t0,gp
    b700:	0060c0b3          	xor	ra,ra,t1
    b704:	5ebac197          	auipc	gp,0x5ebac
    b708:	39995197          	auipc	gp,0x39995
    b70c:	00308133          	add	sp,ra,gp
    b710:	ef60cd13          	xori	s10,ra,-266
    b714:	6780e213          	ori	tp,ra,1656
    b718:	403000b3          	neg	ra,gp
    b71c:	4e320c63          	beq	tp,gp,0xbc14
    b720:	4f4001ef          	jal	gp,0xbc14
    b724:	e560c113          	xori	sp,ra,-426
    b728:	a5f9d137          	lui	sp,0xa5f9d
    b72c:	cf9e50b7          	lui	ra,0xcf9e5
    b730:	8295b197          	auipc	gp,0x8295b
    b734:	0020c133          	xor	sp,ra,sp
    b738:	30d0e1b7          	lui	gp,0x30d0e
    b73c:	6ed0c317          	auipc	t1,0x6ed0c
    b740:	8a7ce0b7          	lui	ra,0x8a7ce
    b744:	352c7317          	auipc	t1,0x352c7
    b748:	14a14393          	xori	t2,sp,330
    b74c:	ad7b8117          	auipc	sp,0xad7b8
    b750:	8261f093          	andi	ra,gp,-2010
    b754:	980950b7          	lui	ra,0x98095
    b758:	c0314193          	xori	gp,sp,-1021
    b75c:	f00d71b7          	lui	gp,0xf00d7
    b760:	f601f013          	andi	zero,gp,-160
    b764:	1ca15097          	auipc	ra,0x1ca15
    b768:	e9806b13          	ori	s6,zero,-360
    b76c:	9d4f8237          	lui	tp,0x9d4f8
    b770:	07408113          	addi	sp,ra,116 # 0x1ca207d8
    b774:	62c340b7          	lui	ra,0x62c34
    b778:	40410333          	sub	t1,sp,tp
    b77c:	c7a18793          	addi	a5,gp,-902 # 0xfffffffff00d6c7a
    b780:	8c7da1b7          	lui	gp,0x8c7da
    b784:	e30b0113          	addi	sp,s6,-464 # 0xffffffffd5840530
    b788:	2bc07317          	auipc	t1,0x2bc07
    b78c:	24957337          	lui	t1,0x24957
    b790:	ef50e013          	ori	zero,ra,-267
    b794:	9b60e193          	ori	gp,ra,-1610
    b798:	aed90017          	auipc	zero,0xaed90
    b79c:	9590c113          	xori	sp,ra,-1703
    b7a0:	405b00b3          	sub	ra,s6,t0
    b7a4:	22600263          	beq	zero,t1,0xb9c8
    b7a8:	2200026f          	jal	tp,0xb9c8
    b7ac:	0013e133          	or	sp,t2,ra
    b7b0:	0e40c197          	auipc	gp,0xe40c
    b7b4:	aa0fe0b7          	lui	ra,0xaa0fe
    b7b8:	9b00e293          	ori	t0,ra,-1616
    b7bc:	002080b3          	add	ra,ra,sp
    b7c0:	02c0ce13          	xori	t3,ra,44
    b7c4:	0012e033          	or	zero,t0,ra
    b7c8:	70831137          	lui	sp,0x70831
    b7cc:	d083b097          	auipc	ra,0xd083b
    b7d0:	9ffde097          	auipc	ra,0x9ffde
    b7d4:	0054c0b3          	xor	ra,s1,t0
    b7d8:	74018093          	addi	ra,gp,1856 # 0xe417ef0
    b7dc:	40128133          	sub	sp,t0,ra
    b7e0:	401101b3          	sub	gp,sp,ra
    b7e4:	954a81b7          	lui	gp,0x954a8
    b7e8:	390b4097          	auipc	ra,0x390b4
    b7ec:	24ee8117          	auipc	sp,0x24ee8
    b7f0:	002171b3          	and	gp,sp,sp
    b7f4:	1f6a71b7          	lui	gp,0x1f6a7
    b7f8:	b3c980b7          	lui	ra,0xb3c98
    b7fc:	401180b3          	sub	ra,gp,ra
    b800:	02e551b7          	lui	gp,0x2e55
    b804:	ce741117          	auipc	sp,0xce741
    b808:	88928093          	addi	ra,t0,-1911 # 0x5959d889
    b80c:	863e4197          	auipc	gp,0x863e4
    b810:	401081b3          	sub	gp,ra,ra
    b814:	40330133          	sub	sp,t1,gp
    b818:	2a678197          	auipc	gp,0x2a678
    b81c:	80710193          	addi	gp,sp,-2041 # 0xffffffffce74c00b
    b820:	a9aa4017          	auipc	zero,0xa9aa4
    b824:	003161b3          	or	gp,sp,gp
    b828:	a8600ae3          	beq	zero,t1,0xb2bc
    b82c:	a91ff1ef          	jal	gp,0xb2bc
    b830:	e2cea1b7          	lui	gp,0xe2cea
    b834:	6d7402b7          	lui	t0,0x6d740
    b838:	68f0e113          	ori	sp,ra,1679
    b83c:	ec124113          	xori	sp,tp,-319
    b840:	1eb4e197          	auipc	gp,0x1eb4e
    b844:	eff6b297          	auipc	t0,0xeff6b
    b848:	c1468337          	lui	t1,0xc1468
    b84c:	0031c0b3          	xor	ra,gp,gp
    b850:	003141b3          	xor	gp,sp,gp
    b854:	c8707113          	andi	sp,zero,-889
    b858:	0030e133          	or	sp,ra,gp
    b85c:	376960b7          	lui	ra,0x37696
    b860:	b530e093          	ori	ra,ra,-1197
    b864:	7fa00193          	li	gp,2042
    b868:	bab16093          	ori	ra,sp,-1109
    b86c:	8fd02217          	auipc	tp,0x8fd02
    b870:	a62051b7          	lui	gp,0xa6205
    b874:	2fc52017          	auipc	zero,0x2fc52
    b878:	406201b3          	sub	gp,tp,t1
    b87c:	415a8193          	addi	gp,s5,1045 # 0x22fffc8d
    b880:	8e454117          	auipc	sp,0x8e454
    b884:	40120133          	sub	sp,tp,ra
    b888:	db116193          	ori	gp,sp,-591
    b88c:	0000c433          	xor	s0,ra,zero
    b890:	f3a9d197          	auipc	gp,0xf3a9d
    b894:	618cb0b7          	lui	ra,0x618cb
    b898:	3856e0b7          	lui	ra,0x3856e
    b89c:	c6148093          	addi	ra,s1,-927 # 0xe1961a9
    b8a0:	08128a63          	beq	t0,ra,0xb934
    b8a4:	090001ef          	jal	gp,0xb934
    b8a8:	2bb6f137          	lui	sp,0x2bb6f
    b8ac:	49453137          	lui	sp,0x49453
    b8b0:	b6442197          	auipc	gp,0xb6442
    b8b4:	0030f0b3          	and	ra,ra,gp
    b8b8:	3a4d7137          	lui	sp,0x3a4d7
    b8bc:	58198337          	lui	t1,0x58198
    b8c0:	35123697          	auipc	a3,0x35123
    b8c4:	7443f137          	lui	sp,0x7443f
    b8c8:	59598097          	auipc	ra,0x59598
    b8cc:	c0d10137          	lui	sp,0xc0d10
    b8d0:	b490f313          	andi	t1,ra,-1207
    b8d4:	3fa4c093          	xori	ra,s1,1018
    b8d8:	5e220293          	addi	t0,tp,1506 # 0xffffffff8fd0de4e
    b8dc:	5c3dd097          	auipc	ra,0x5c3dd
    b8e0:	0041c0b3          	xor	ra,gp,tp
    b8e4:	6fbb6197          	auipc	gp,0x6fbb6
    b8e8:	a6a82117          	auipc	sp,0xa6a82
    b8ec:	1ed1cb93          	xori	s7,gp,493
    b8f0:	94a3e193          	ori	gp,t2,-1718
    b8f4:	64b2c0b7          	lui	ra,0x64b2c
    b8f8:	c26750b7          	lui	ra,0xc2675
    b8fc:	b93c7197          	auipc	gp,0xb93c7
    b900:	79ca4a37          	lui	s4,0x79ca4
    b904:	12fda117          	auipc	sp,0x12fda
    b908:	34fa21b7          	lui	gp,0x34fa2
    b90c:	15534113          	xori	sp,t1,341
    b910:	aeee7117          	auipc	sp,0xaeee7
    b914:	403103b3          	sub	t2,sp,gp
    b918:	403186b3          	sub	a3,gp,gp
    b91c:	21810237          	lui	tp,0x21810
    b920:	5d260097          	auipc	ra,0x5d260
    b924:	d79d30b7          	lui	ra,0xd79d3
    b928:	1bf0e093          	ori	ra,ra,447
    b92c:	f03102e3          	beq	sp,gp,0xb830
    b930:	f01ff1ef          	jal	gp,0xb830
    b934:	003061b3          	or	gp,zero,gp
    b938:	2ff30097          	auipc	ra,0x2ff30
    b93c:	002341b3          	xor	gp,t1,sp
    b940:	ffd5c113          	xori	sp,a1,-3
    b944:	9c79f0b7          	lui	ra,0x9c79f
    b948:	c4538093          	addi	ra,t2,-955 # 0x2df42c45
    b94c:	00018133          	add	sp,gp,zero
    b950:	002141b3          	xor	gp,sp,sp
    b954:	ba129097          	auipc	ra,0xba129
    b958:	01f140b3          	xor	ra,sp,t6
    b95c:	00b0c033          	xor	zero,ra,a1
    b960:	12be9237          	lui	tp,0x12be9
    b964:	37d18093          	addi	ra,gp,893 # 0x34fa237d
    b968:	d591e0b7          	lui	ra,0xd591e
    b96c:	77407193          	andi	gp,zero,1908
    b970:	7cd16113          	ori	sp,sp,1997
    b974:	fe526197          	auipc	gp,0xfe526
    b978:	d22d7613          	andi	a2,s10,-734
    b97c:	1822e137          	lui	sp,0x1822e
    b980:	40328133          	sub	sp,t0,gp
    b984:	ccc57217          	auipc	tp,0xccc57
    b988:	3dfb3737          	lui	a4,0x3dfb3
    b98c:	f180e093          	ori	ra,ra,-232
    b990:	00110133          	add	sp,sp,ra
    b994:	40b681b3          	sub	gp,a3,a1
    b998:	c374c113          	xori	sp,s1,-969
    b99c:	d776a137          	lui	sp,0xd776a
    b9a0:	00b17a33          	and	s4,sp,a1
    b9a4:	0031f133          	and	sp,gp,gp
    b9a8:	16800013          	li	zero,360
    b9ac:	0036c1b3          	xor	gp,a3,gp
    b9b0:	3e00f193          	andi	gp,ra,992
    b9b4:	7934b1b7          	lui	gp,0x7934b
    b9b8:	00710333          	add	t1,sp,t2
    b9bc:	6191c193          	xori	gp,gp,1561
    b9c0:	00000693          	li	a3,0
    b9c4:	b20688e3          	beqz	a3,0xb4f4
    b9c8:	003181b3          	add	gp,gp,gp
    b9cc:	e8308093          	addi	ra,ra,-381 # 0xffffffffd591de83
    b9d0:	ba1ce197          	auipc	gp,0xba1ce
    b9d4:	abd0c093          	xori	ra,ra,-1347
    b9d8:	b1c16113          	ori	sp,sp,-1252
    b9dc:	ed935217          	auipc	tp,0xed935
    b9e0:	ccdb71b7          	lui	gp,0xccdb7
    b9e4:	2c36b317          	auipc	t1,0x2c36b
    b9e8:	40510133          	sub	sp,sp,t0
    b9ec:	2dc4b097          	auipc	ra,0x2dc4b
    b9f0:	0021e133          	or	sp,gp,sp
    b9f4:	0020e533          	or	a0,ra,sp
    b9f8:	bc55f037          	lui	zero,0xbc55f
    b9fc:	88559137          	lui	sp,0x88559
    ba00:	2b1ee137          	lui	sp,0x2b1ee
    ba04:	00869097          	auipc	ra,0x869
    ba08:	42196293          	ori	t0,s2,1057
    ba0c:	c3838393          	addi	t2,t2,-968
    ba10:	002001b3          	add	gp,zero,sp
    ba14:	55925097          	auipc	ra,0x55925
    ba18:	9f803097          	auipc	ra,0x9f803
    ba1c:	7c615097          	auipc	ra,0x7c615
    ba20:	9fbd7b97          	auipc	s7,0x9fbd7
    ba24:	9321ee17          	auipc	t3,0x9321e
    ba28:	0f20e193          	ori	gp,ra,242
    ba2c:	004181b3          	add	gp,gp,tp
    ba30:	00017133          	and	sp,sp,zero
    ba34:	98510213          	addi	tp,sp,-1659 # 0x2b1ed985
    ba38:	99ca8193          	addi	gp,s5,-1636
    ba3c:	1b165117          	auipc	sp,0x1b165
    ba40:	0010e133          	or	sp,ra,ra
    ba44:	9630e013          	ori	zero,ra,-1693
    ba48:	2d528093          	addi	ra,t0,725 # 0xffffffffeff76b19
    ba4c:	0011f0b3          	and	ra,gp,ra
    ba50:	00d140b3          	xor	ra,sp,a3
    ba54:	0021f7b3          	and	a5,gp,sp
    ba58:	20799197          	auipc	gp,0x20799
    ba5c:	32cc21b7          	lui	gp,0x32cc2
    ba60:	00000097          	auipc	ra,0x0
    ba64:	e4808067          	jr	-440(ra) # 0xb8a8
    ba68:	0061c3b3          	xor	t2,gp,t1
    ba6c:	402580b3          	sub	ra,a1,sp
    ba70:	006070b3          	and	ra,zero,t1
    ba74:	5e95f113          	andi	sp,a1,1513
    ba78:	e3a4b097          	auipc	ra,0xe3a4b
    ba7c:	f88ed0b7          	lui	ra,0xf88ed
    ba80:	769300b7          	lui	ra,0x76930
    ba84:	dd1e1137          	lui	sp,0xdd1e1
    ba88:	e0d8e097          	auipc	ra,0xe0d8e
    ba8c:	5a708093          	addi	ra,ra,1447 # 0xffffffffe0d9a02f
    ba90:	126c5c17          	auipc	s8,0x126c5
    ba94:	0033c1b3          	xor	gp,t2,gp
    ba98:	2721e393          	ori	t2,gp,626
    ba9c:	d97a2137          	lui	sp,0xd97a2
    baa0:	c582d097          	auipc	ra,0xc582d
    baa4:	ec138137          	lui	sp,0xec138
    baa8:	93539117          	auipc	sp,0x93539
    baac:	71e951b7          	lui	gp,0x71e95
    bab0:	41c06193          	ori	gp,zero,1052
    bab4:	ee68e197          	auipc	gp,0xee68e
    bab8:	8c1c11b7          	lui	gp,0x8c1c1
    babc:	7b923097          	auipc	ra,0x7b923
    bac0:	972341b7          	lui	gp,0x97234
    bac4:	207a0097          	auipc	ra,0x207a0
    bac8:	48c801b7          	lui	gp,0x48c80
    bacc:	4651e093          	ori	ra,gp,1125
    bad0:	00158233          	add	tp,a1,ra
    bad4:	8c5e7397          	auipc	t2,0x8c5e7
    bad8:	006b63b3          	or	t2,s6,t1
    badc:	77a17193          	andi	gp,sp,1914
    bae0:	006000b3          	add	ra,zero,t1
    bae4:	9e406097          	auipc	ra,0x9e406
    bae8:	2dce0197          	auipc	gp,0x2dce0
    baec:	ba2084e3          	beq	ra,sp,0xb694
    baf0:	ba5ff0ef          	jal	ra,0xb694
    baf4:	a673f5b7          	lui	a1,0xa673f
    baf8:	0031e1b3          	or	gp,gp,gp
    bafc:	40320133          	sub	sp,tp,gp
    bb00:	486e8217          	auipc	tp,0x486e8
    bb04:	d37850b7          	lui	ra,0xd3785
    bb08:	34618013          	addi	zero,gp,838 # 0x2dcebe2e
    bb0c:	00316133          	or	sp,sp,gp
    bb10:	7afd4117          	auipc	sp,0x7afd4
    bb14:	ad2d0093          	addi	ra,s10,-1326 # 0xffffffffa1b81a82
    bb18:	001162b3          	or	t0,sp,ra
    bb1c:	044f6b97          	auipc	s7,0x44f6
    bb20:	48ce20b7          	lui	ra,0x48ce2
    bb24:	00118333          	add	t1,gp,ra
    bb28:	dbf4a197          	auipc	gp,0xdbf4a
    bb2c:	473d8097          	auipc	ra,0x473d8
    bb30:	b33b61b7          	lui	gp,0xb33b6
    bb34:	531cf0b7          	lui	ra,0x531cf
    bb38:	d2a0f093          	andi	ra,ra,-726
    bb3c:	406100b3          	sub	ra,sp,t1
    bb40:	863080b7          	lui	ra,0x86308
    bb44:	0023f1b3          	and	gp,t2,sp
    bb48:	0073e1b3          	or	gp,t2,t2
    bb4c:	58eb2037          	lui	zero,0x58eb2
    bb50:	b0dc6217          	auipc	tp,0xb0dc6
    bb54:	a85fbf37          	lui	t5,0xa85fb
    bb58:	9eb89117          	auipc	sp,0x9eb89
    bb5c:	a4584317          	auipc	t1,0xa4584
    bb60:	00216233          	or	tp,sp,sp
    bb64:	0ae38113          	addi	sp,t2,174 # 0xffffffff8c5f2b82
    bb68:	86256237          	lui	tp,0x86256
    bb6c:	003171b3          	and	gp,sp,gp
    bb70:	a0c1f193          	andi	gp,gp,-1524
    bb74:	7ec27197          	auipc	gp,0x7ec27
    bb78:	c38c4097          	auipc	ra,0xc38c4
    bb7c:	01a0f3b3          	and	t2,ra,s10
    bb80:	8e1100e3          	beq	sp,ra,0xb460
    bb84:	8ddff16f          	jal	sp,0xb460
    bb88:	00204333          	xor	t1,zero,sp
    bb8c:	10f01097          	auipc	ra,0x10f01
    bb90:	435480b7          	lui	ra,0x43548
    bb94:	a7f0f193          	andi	gp,ra,-1409
    bb98:	1871f113          	andi	sp,gp,391
    bb9c:	b6bd5137          	lui	sp,0xb6bd5
    bba0:	5071e193          	ori	gp,gp,1287
    bba4:	6941d1b7          	lui	gp,0x6941d
    bba8:	40618c33          	sub	s8,gp,t1
    bbac:	f46b5237          	lui	tp,0xf46b5
    bbb0:	402081b3          	sub	gp,ra,sp
    bbb4:	19a5e097          	auipc	ra,0x19a5e
    bbb8:	8ec56097          	auipc	ra,0x8ec56
    bbbc:	0023f133          	and	sp,t2,sp
    bbc0:	403082b3          	sub	t0,ra,gp
    bbc4:	ba8360b7          	lui	ra,0xba836
    bbc8:	d52e5117          	auipc	sp,0xd52e5
    bbcc:	fdc18f13          	addi	t5,gp,-36 # 0x6941cfdc
    bbd0:	434181b7          	lui	gp,0x43418
    bbd4:	33416217          	auipc	tp,0x33416
    bbd8:	405080b3          	sub	ra,ra,t0
    bbdc:	7fdff197          	auipc	gp,0x7fdff
    bbe0:	0020c113          	xori	sp,ra,2
    bbe4:	002371b3          	and	gp,t1,sp
    bbe8:	26508317          	auipc	t1,0x26508
    bbec:	d6529317          	auipc	t1,0xd6529
    bbf0:	21f2e113          	ori	sp,t0,543
    bbf4:	d641e137          	lui	sp,0xd641e
    bbf8:	94ff8137          	lui	sp,0x94ff8
    bbfc:	0921f193          	andi	gp,gp,146
    bc00:	2c88e197          	auipc	gp,0x2c88e
    bc04:	006340b3          	xor	ra,t1,t1
    bc08:	9050c113          	xori	sp,ra,-1787
    bc0c:	00180263          	beq	a6,ra,0xbc10
    bc10:	f38ff1ef          	jal	gp,0xb348
    bc14:	50e090b7          	lui	ra,0x50e09
    bc18:	798ba1b7          	lui	gp,0x798ba
    bc1c:	5327d7b7          	lui	a5,0x5327d
    bc20:	5d23c1b7          	lui	gp,0x5d23c
    bc24:	26f73137          	lui	sp,0x26f73
    bc28:	7e28f197          	auipc	gp,0x7e28f
    bc2c:	57f2c193          	xori	gp,t0,1407
    bc30:	0c808113          	addi	sp,ra,200 # 0x50e090c8
    bc34:	0010f1b3          	and	gp,ra,ra
    bc38:	25624113          	xori	sp,tp,598
    bc3c:	9594c0b7          	lui	ra,0x9594c
    bc40:	b4a10113          	addi	sp,sp,-1206 # 0x26f72b4a
    bc44:	d01620b7          	lui	ra,0xd0162
    bc48:	1ecfa317          	auipc	t1,0x1ecfa
    bc4c:	82542197          	auipc	gp,0x82542
    bc50:	00217033          	and	zero,sp,sp
    bc54:	400101b3          	sub	gp,sp,zero
    bc58:	004180b3          	add	ra,gp,tp
    bc5c:	00300233          	add	tp,zero,gp
    bc60:	391c5217          	auipc	tp,0x391c5
    bc64:	f35cd017          	auipc	zero,0xf35cd
    bc68:	34c58097          	auipc	ra,0x34c58
    bc6c:	e401c193          	xori	gp,gp,-448
    bc70:	0a624093          	xori	ra,tp,166
    bc74:	b6fae117          	auipc	sp,0xb6fae
    bc78:	003101b3          	add	gp,sp,gp
    bc7c:	7cfae037          	lui	zero,0x7cfae
    bc80:	00430133          	add	sp,t1,tp
    bc84:	2ca76097          	auipc	ra,0x2ca76
    bc88:	e4419217          	auipc	tp,0xe4419
    bc8c:	b79b5197          	auipc	gp,0xb79b5
    bc90:	00314333          	xor	t1,sp,gp
    bc94:	68814193          	xori	gp,sp,1672
    bc98:	0e00f013          	andi	zero,ra,224
    bc9c:	0d757117          	auipc	sp,0xd757
    bca0:	8c310ce3          	beq	sp,gp,0xb578
    bca4:	8d5ff06f          	j	0xb578
    bca8:	0000e0b3          	or	ra,ra,zero
    bcac:	7f4f3397          	auipc	t2,0x7f4f3
    bcb0:	20e1c193          	xori	gp,gp,526
    bcb4:	9a2d2097          	auipc	ra,0x9a2d2
    bcb8:	87d00513          	li	a0,-1923
    bcbc:	00026133          	or	sp,tp,zero
    bcc0:	0045f133          	and	sp,a1,tp
    bcc4:	8f44a297          	auipc	t0,0x8f44a
    bcc8:	caf2e137          	lui	sp,0xcaf2e
    bccc:	10f10d93          	addi	s11,sp,271 # 0xffffffffcaf2e10f
    bcd0:	e3a0c193          	xori	gp,ra,-454
    bcd4:	406181b3          	sub	gp,gp,t1
    bcd8:	cb955137          	lui	sp,0xcb955
    bcdc:	65721137          	lui	sp,0x65721
    bce0:	db391117          	auipc	sp,0xdb391
    bce4:	afc99117          	auipc	sp,0xafc99
    bce8:	00317133          	and	sp,sp,gp
    bcec:	88edb097          	auipc	ra,0x88edb
    bcf0:	0012e1b3          	or	gp,t0,ra
    bcf4:	19b3e313          	ori	t1,t2,411
    bcf8:	0031f4b3          	and	s1,gp,gp
    bcfc:	cd527137          	lui	sp,0xcd527
    bd00:	3e066137          	lui	sp,0x3e066
    bd04:	566540b7          	lui	ra,0x56654
    bd08:	403100b3          	sub	ra,sp,gp
    bd0c:	405100b3          	sub	ra,sp,t0
    bd10:	6adc81b7          	lui	gp,0x6adc8
    bd14:	3074a117          	auipc	sp,0x3074a
    bd18:	002271b3          	and	gp,tp,sp
    bd1c:	0022e0b3          	or	ra,t0,sp
    bd20:	e211f093          	andi	ra,gp,-479
    bd24:	2e617493          	andi	s1,sp,742
    bd28:	158ae117          	auipc	sp,0x158ae
    bd2c:	0070eeb3          	or	t4,ra,t2
    bd30:	54a1d217          	auipc	tp,0x54a1d
    bd34:	37bdd0b7          	lui	ra,0x37bdd
    bd38:	08a31097          	auipc	ra,0x8a31
    bd3c:	30b10093          	addi	ra,sp,779 # 0x158ba033
    bd40:	d2a204e3          	beq	tp,a0,0xba68
    bd44:	d25ff0ef          	jal	ra,0xba68
    bd48:	16474093          	xori	ra,a4,356
    bd4c:	0061f1b3          	and	gp,gp,t1
    bd50:	0025e1b3          	or	gp,a1,sp
    bd54:	1b2c9217          	auipc	tp,0x1b2c9
    bd58:	001100b3          	add	ra,sp,ra
    bd5c:	066d01b7          	lui	gp,0x66d0
    bd60:	9531c113          	xori	sp,gp,-1709
    bd64:	2e307093          	andi	ra,zero,739
    bd68:	87f3c1b7          	lui	gp,0x87f3c
    bd6c:	69e16113          	ori	sp,sp,1694
    bd70:	00208133          	add	sp,ra,sp
    bd74:	c0c111b7          	lui	gp,0xc0c11
    bd78:	02ab4097          	auipc	ra,0x2ab4
    bd7c:	5f490917          	auipc	s2,0x5f490
    bd80:	673cd137          	lui	sp,0x673cd
    bd84:	407081b3          	sub	gp,ra,t2
    bd88:	e47d00b7          	lui	ra,0xe47d0
    bd8c:	00338233          	add	tp,t2,gp
    bd90:	402186b3          	sub	a3,gp,sp
    bd94:	bf818093          	addi	ra,gp,-1032 # 0xffffffffc0c10bf8
    bd98:	fcf26113          	ori	sp,tp,-49
    bd9c:	938b4137          	lui	sp,0x938b4
    bda0:	483110b7          	lui	ra,0x48311
    bda4:	401103b3          	sub	t2,sp,ra
    bda8:	002041b3          	xor	gp,zero,sp
    bdac:	d4816213          	ori	tp,sp,-696
    bdb0:	9369a017          	auipc	zero,0x9369a
    bdb4:	0036e233          	or	tp,a3,gp
    bdb8:	ab8f8197          	auipc	gp,0xab8f8
    bdbc:	407081b3          	sub	gp,ra,t2
    bdc0:	403302b3          	sub	t0,t1,gp
    bdc4:	5a110e63          	beq	sp,ra,0xc380
    bdc8:	5b80026f          	jal	tp,0xc380
    bdcc:	0030f133          	and	sp,ra,gp
    bdd0:	5054c297          	auipc	t0,0x5054c
    bdd4:	0031e133          	or	sp,gp,gp
    bdd8:	51c78197          	auipc	gp,0x51c78
    bddc:	4916d137          	lui	sp,0x4916d
    bde0:	b7321097          	auipc	ra,0xb7321
    bde4:	c736c2b7          	lui	t0,0xc736c
    bde8:	45fe4013          	xori	zero,t3,1119
    bdec:	dcdab117          	auipc	sp,0xdcdab
    bdf0:	84c32117          	auipc	sp,0x84c32
    bdf4:	f8c10113          	addi	sp,sp,-116 # 0xffffffff84c3dd7c
    bdf8:	7e6d90b7          	lui	ra,0x7e6d9
    bdfc:	3f21f313          	andi	t1,gp,1010
    be00:	0030c1b3          	xor	gp,ra,gp
    be04:	005302b3          	add	t0,t1,t0
    be08:	81e821b7          	lui	gp,0x81e82
    be0c:	002180b3          	add	ra,gp,sp
    be10:	0010e1b3          	or	gp,ra,ra
    be14:	eb6730b7          	lui	ra,0xeb673
    be18:	003071b3          	and	gp,zero,gp
    be1c:	d533ee13          	ori	t3,t2,-685
    be20:	0010f3b3          	and	t2,ra,ra
    be24:	29c7f1b7          	lui	gp,0x29c7f
    be28:	cd70c113          	xori	sp,ra,-809
    be2c:	41e0e113          	ori	sp,ra,1054
    be30:	0040c3b3          	xor	t2,ra,tp
    be34:	0221c193          	xori	gp,gp,34
    be38:	0057c397          	auipc	t2,0x57c
    be3c:	0010c133          	xor	sp,ra,ra
    be40:	45d17013          	andi	zero,sp,1117
    be44:	4dc0f093          	andi	ra,ra,1244
    be48:	bf760117          	auipc	sp,0xbf760
    be4c:	ff05e097          	auipc	ra,0xff05e
    be50:	003100b3          	add	ra,sp,gp
    be54:	ef026213          	ori	tp,tp,-272
    be58:	08e76197          	auipc	gp,0x8e76
    be5c:	00628263          	beq	t0,t1,0xbe60
    be60:	0550016f          	jal	sp,0xc6b4
    be64:	09214793          	xori	a5,sp,146
    be68:	0b8f0097          	auipc	ra,0xb8f0
    be6c:	670ec137          	lui	sp,0x670ec
    be70:	2b9dd2b7          	lui	t0,0x2b9dd
    be74:	0dd82397          	auipc	t2,0xdd82
    be78:	6972e0b7          	lui	ra,0x6972e
    be7c:	00d0e033          	or	zero,ra,a3
    be80:	75a4f293          	andi	t0,s1,1882
    be84:	40110133          	sub	sp,sp,ra
    be88:	0ae05097          	auipc	ra,0xae05
    be8c:	01a1c193          	xori	gp,gp,26
    be90:	d6559197          	auipc	gp,0xd6559
    be94:	048e8097          	auipc	ra,0x48e8
    be98:	00204133          	xor	sp,zero,sp
    be9c:	f2e0c093          	xori	ra,ra,-210
    bea0:	2f1f2197          	auipc	gp,0x2f1f2
    bea4:	fdf13117          	auipc	sp,0xfdf13
    bea8:	fe0621b7          	lui	gp,0xfe062
    beac:	eed4e197          	auipc	gp,0xeed4e
    beb0:	58354137          	lui	sp,0x58354
    beb4:	403106b3          	sub	a3,sp,gp
    beb8:	002100b3          	add	ra,sp,sp
    bebc:	0010f1b3          	and	gp,ra,ra
    bec0:	e4b10093          	addi	ra,sp,-437 # 0x58353e4b
    bec4:	3cb18093          	addi	ra,gp,971 # 0xffffffffeed5a277
    bec8:	a292b1b7          	lui	gp,0xa292b
    becc:	0017e0b3          	or	ra,a5,ra
    bed0:	0031f0b3          	and	ra,gp,gp
    bed4:	8e91b0b7          	lui	ra,0x8e91b
    bed8:	0000f133          	and	sp,ra,zero
    bedc:	da21e393          	ori	t2,gp,-606
    bee0:	9991f393          	andi	t2,gp,-1639
    bee4:	00008393          	mv	t2,ra
    bee8:	6a138a63          	beq	t2,ra,0xc59c
    beec:	9f20f1b7          	lui	gp,0x9f20f
    bef0:	b37231b7          	lui	gp,0xb3723
    bef4:	402381b3          	sub	gp,t2,sp
    bef8:	bbc4e137          	lui	sp,0xbbc4e
    befc:	8ad820b7          	lui	ra,0x8ad82
    bf00:	403100b3          	sub	ra,sp,gp
    bf04:	0021e133          	or	sp,gp,sp
    bf08:	0910f193          	andi	gp,ra,145
    bf0c:	2707a117          	auipc	sp,0x2707a
    bf10:	003170b3          	and	ra,sp,gp
    bf14:	d1a10013          	addi	zero,sp,-742 # 0x27085c26
    bf18:	005161b3          	or	gp,sp,t0
    bf1c:	00c0e1b3          	or	gp,ra,a2
    bf20:	9ad0cc93          	xori	s9,ra,-1619
    bf24:	526493b7          	lui	t2,0x52649
    bf28:	0025c2b3          	xor	t0,a1,sp
    bf2c:	00210033          	add	zero,sp,sp
    bf30:	d750c1b7          	lui	gp,0xd750c
    bf34:	e8c1f193          	andi	gp,gp,-372
    bf38:	d91ca137          	lui	sp,0xd91ca
    bf3c:	dc01e393          	ori	t2,gp,-576
    bf40:	003141b3          	xor	gp,sp,gp
    bf44:	e8b1f193          	andi	gp,gp,-373
    bf48:	06937313          	andi	t1,t1,105
    bf4c:	00318d33          	add	s10,gp,gp
    bf50:	002181b3          	add	gp,gp,sp
    bf54:	a6ca1517          	auipc	a0,0xa6ca1
    bf58:	18b910b7          	lui	ra,0x18b91
    bf5c:	40208133          	sub	sp,ra,sp
    bf60:	59418593          	addi	a1,gp,1428 # 0xffffffffd750c594
    bf64:	42c38093          	addi	ra,t2,1068 # 0x5264942c
    bf68:	56103097          	auipc	ra,0x56103
    bf6c:	06092197          	auipc	gp,0x6092
    bf70:	00000097          	auipc	ra,0x0
    bf74:	dd808067          	jr	-552(ra) # 0xbd48
    bf78:	8b822217          	auipc	tp,0x8b822
    bf7c:	2ee0f213          	andi	tp,ra,750
    bf80:	84d2f0b7          	lui	ra,0x84d2f
    bf84:	55feb017          	auipc	zero,0x55feb
    bf88:	ad013237          	lui	tp,0xad013
    bf8c:	eec7a137          	lui	sp,0xeec7a
    bf90:	00117133          	and	sp,sp,ra
    bf94:	eea1e193          	ori	gp,gp,-278
    bf98:	a13f0037          	lui	zero,0xa13f0
    bf9c:	f210b317          	auipc	t1,0xf210b
    bfa0:	2277f117          	auipc	sp,0x2277f
    bfa4:	002100b3          	add	ra,sp,sp
    bfa8:	dc14f397          	auipc	t2,0xdc14f
    bfac:	6be04093          	xori	ra,zero,1726
    bfb0:	b671c393          	xori	t2,gp,-1177
    bfb4:	80717137          	lui	sp,0x80717
    bfb8:	ed816493          	ori	s1,sp,-296
    bfbc:	3299e197          	auipc	gp,0x3299e
    bfc0:	a2d16393          	ori	t2,sp,-1491
    bfc4:	0070c1b3          	xor	gp,ra,t2
    bfc8:	eef33097          	auipc	ra,0xeef33
    bfcc:	60326097          	auipc	ra,0x60326
    bfd0:	8f6c8237          	lui	tp,0x8f6c8
    bfd4:	bef16093          	ori	ra,sp,-1041
    bfd8:	a62d4117          	auipc	sp,0xa62d4
    bfdc:	40908133          	sub	sp,ra,s1
    bfe0:	30010993          	addi	s3,sp,768 # 0xffffffffa62e02d8
    bfe4:	58c73097          	auipc	ra,0x58c73
    bfe8:	3750e193          	ori	gp,ra,885
    bfec:	e902c013          	xori	zero,t0,-368
    bff0:	34528217          	auipc	tp,0x34528
    bff4:	12168463          	beq	a3,ra,0xc11c
    bff8:	1240016f          	jal	sp,0xc11c
    bffc:	c2d0eb13          	ori	s6,ra,-979
    c000:	a94a0097          	auipc	ra,0xa94a0
    c004:	5350d2b7          	lui	t0,0x5350d
    c008:	c09a8137          	lui	sp,0xc09a8
    c00c:	618e9317          	auipc	t1,0x618e9
    c010:	e6a315b7          	lui	a1,0xe6a31
    c014:	c8e04093          	xori	ra,zero,-882
    c018:	8a5d01b7          	lui	gp,0x8a5d0
    c01c:	7a318393          	addi	t2,gp,1955 # 0xffffffff8a5d07a3
    c020:	33f08013          	addi	zero,ra,831 # 0xffffffffa94ac33f
    c024:	d7e1e113          	ori	sp,gp,-642
    c028:	0021f9b3          	and	s3,gp,sp
    c02c:	6b11f093          	andi	ra,gp,1713
    c030:	f04da197          	auipc	gp,0xf04da
    c034:	25c14293          	xori	t0,sp,604
    c038:	708fe097          	auipc	ra,0x708fe
    c03c:	a896d1b7          	lui	gp,0xa896d
    c040:	8cee22b7          	lui	t0,0x8cee2
    c044:	5892c317          	auipc	t1,0x5892c
    c048:	d3508293          	addi	t0,ra,-715 # 0x70909d6d
    c04c:	aca10197          	auipc	gp,0xaca10
    c050:	b5cd6497          	auipc	s1,0xb5cd6
    c054:	5b40a097          	auipc	ra,0x5b40a
    c058:	be4d4097          	auipc	ra,0xbe4d4
    c05c:	002081b3          	add	gp,ra,sp
    c060:	6c4aa297          	auipc	t0,0x6c4aa
    c064:	00f181b3          	add	gp,gp,a5
    c068:	16fca1b7          	lui	gp,0x16fca
    c06c:	3010f113          	andi	sp,ra,769
    c070:	20447213          	andi	tp,s0,516
    c074:	c8f711b7          	lui	gp,0xc8f71
    c078:	efeea197          	auipc	gp,0xefeea
    c07c:	007070b3          	and	ra,zero,t2
    c080:	00000297          	auipc	t0,0x0
    c084:	14028267          	jalr	tp,320(t0) # 0xc1c0
    c088:	d13573b7          	lui	t2,0xd1357
    c08c:	96059117          	auipc	sp,0x96059
    c090:	e1cf2697          	auipc	a3,0xe1cf2
    c094:	05ad91b7          	lui	gp,0x5ad9
    c098:	0091f193          	andi	gp,gp,9
    c09c:	f2f1c093          	xori	ra,gp,-209
    c0a0:	815d01b7          	lui	gp,0x815d0
    c0a4:	58ab6197          	auipc	gp,0x58ab6
    c0a8:	c3652137          	lui	sp,0xc3652
    c0ac:	27ed7137          	lui	sp,0x27ed7
    c0b0:	1001f213          	andi	tp,gp,256
    c0b4:	2561e193          	ori	gp,gp,598
    c0b8:	58ac0097          	auipc	ra,0x58ac0
    c0bc:	8c4502b7          	lui	t0,0x8c450
    c0c0:	12d53197          	auipc	gp,0x12d53
    c0c4:	f091f113          	andi	sp,gp,-247
    c0c8:	7681f093          	andi	ra,gp,1896
    c0cc:	407f8137          	lui	sp,0x407f8
    c0d0:	241c8197          	auipc	gp,0x241c8
    c0d4:	dc3570b7          	lui	ra,0xdc357
    c0d8:	cbf06193          	ori	gp,zero,-833
    c0dc:	0022f133          	and	sp,t0,sp
    c0e0:	2a5e5a37          	lui	s4,0x2a5e5
    c0e4:	45edf117          	auipc	sp,0x45edf
    c0e8:	001381b3          	add	gp,t2,ra
    c0ec:	0051f7b3          	and	a5,gp,t0
    c0f0:	a9827193          	andi	gp,tp,-1384
    c0f4:	400101b3          	sub	gp,sp,zero
    c0f8:	f25b3117          	auipc	sp,0xf25b3
    c0fc:	e5117113          	andi	sp,sp,-431
    c100:	0585d337          	lui	t1,0x585d
    c104:	dfea0697          	auipc	a3,0xdfea0
    c108:	18a16893          	ori	a7,sp,394
    c10c:	eed6f117          	auipc	sp,0xeed6f
    c110:	f890c197          	auipc	gp,0xf890c
    c114:	ca128ce3          	beq	t0,ra,0xbdcc
    c118:	cb5ff16f          	jal	sp,0xbdcc
    c11c:	404081b3          	sub	gp,ra,tp
    c120:	185310b7          	lui	ra,0x18531
    c124:	dcd26313          	ori	t1,tp,-563
    c128:	72807193          	andi	gp,zero,1832
    c12c:	1bc910b7          	lui	ra,0x1bc91
    c130:	8a817013          	andi	zero,sp,-1880
    c134:	fbc20193          	addi	gp,tp,-68 # 0x34533fac
    c138:	35abd097          	auipc	ra,0x35abd
    c13c:	402080b3          	sub	ra,ra,sp
    c140:	b441c093          	xori	ra,gp,-1212
    c144:	36fb3697          	auipc	a3,0x36fb3
    c148:	40210433          	sub	s0,sp,sp
    c14c:	dd4050b7          	lui	ra,0xdd405
    c150:	00318333          	add	t1,gp,gp
    c154:	6d82ea93          	ori	s5,t0,1752
    c158:	b26f9097          	auipc	ra,0xb26f9
    c15c:	402481b3          	sub	gp,s1,sp
    c160:	cdf22197          	auipc	gp,0xcdf22
    c164:	7bd7b1b7          	lui	gp,0x7bd7b
    c168:	0051f1b3          	and	gp,gp,t0
    c16c:	b02f0217          	auipc	tp,0xb02f0
    c170:	30d1c193          	xori	gp,gp,781
    c174:	5591c113          	xori	sp,gp,1369
    c178:	40328333          	sub	t1,t0,gp
    c17c:	ad5be113          	ori	sp,s7,-1323
    c180:	00217133          	and	sp,sp,sp
    c184:	d5f1e293          	ori	t0,gp,-673
    c188:	0031f133          	and	sp,gp,gp
    c18c:	38e405b7          	lui	a1,0x38e40
    c190:	0021f3b3          	and	t2,gp,sp
    c194:	69e37313          	andi	t1,t1,1694
    c198:	0011e1b3          	or	gp,gp,ra
    c19c:	43bc4137          	lui	sp,0x43bc4
    c1a0:	e403a317          	auipc	t1,0xe403a
    c1a4:	8b368113          	addi	sp,a3,-1869 # 0x36fbe9f7
    c1a8:	29d3c113          	xori	sp,t2,669
    c1ac:	80038117          	auipc	sp,0x80038
    c1b0:	b5a3e117          	auipc	sp,0xb5a3e
    c1b4:	5e655097          	auipc	ra,0x5e655
    c1b8:	00208263          	beq	ra,sp,0xc1bc
    c1bc:	1710036f          	jal	t1,0xcb2c
    c1c0:	5f0fe097          	auipc	ra,0x5f0fe
    c1c4:	23c8c117          	auipc	sp,0x23c8c
    c1c8:	6c52e193          	ori	gp,t0,1733
    c1cc:	41efd117          	auipc	sp,0x41efd
    c1d0:	7508b1b7          	lui	gp,0x7508b
    c1d4:	8134f197          	auipc	gp,0x8134f
    c1d8:	0011f133          	and	sp,gp,ra
    c1dc:	23730137          	lui	sp,0x23730
    c1e0:	002171b3          	and	gp,sp,sp
    c1e4:	ddf13397          	auipc	t2,0xddf13
    c1e8:	068ba137          	lui	sp,0x68ba
    c1ec:	001160b3          	or	ra,sp,ra
    c1f0:	1f692117          	auipc	sp,0x1f692
    c1f4:	24018213          	addi	tp,gp,576 # 0xffffffff8135b414
    c1f8:	18082d17          	auipc	s10,0x18082
    c1fc:	d41ff197          	auipc	gp,0xd41ff
    c200:	5df3f097          	auipc	ra,0x5df3f
    c204:	f8d14093          	xori	ra,sp,-115
    c208:	0033c133          	xor	sp,t2,gp
    c20c:	88ecf093          	andi	ra,s9,-1906
    c210:	21e24193          	xori	gp,tp,542
    c214:	ce63e117          	auipc	sp,0xce63e
    c218:	00137133          	and	sp,t1,ra
    c21c:	146ce137          	lui	sp,0x146ce
    c220:	52e9a0b7          	lui	ra,0x52e9a
    c224:	0b908293          	addi	t0,ra,185 # 0x52e9a0b9
    c228:	f520e193          	ori	gp,ra,-174
    c22c:	fd68b2b7          	lui	t0,0xfd68b
    c230:	e7308093          	addi	ra,ra,-397
    c234:	17f90197          	auipc	gp,0x17f90
    c238:	402781b3          	sub	gp,a5,sp
    c23c:	00216233          	or	tp,sp,sp
    c240:	24216193          	ori	gp,sp,578
    c244:	be6d8137          	lui	sp,0xbe6d8
    c248:	009141b3          	xor	gp,sp,s1
    c24c:	74c38113          	addi	sp,t2,1868 # 0xffffffffddf1f930
    c250:	4e1ab0b7          	lui	ra,0x4e1ab
    c254:	6a510193          	addi	gp,sp,1701 # 0xffffffffbe6d86a5
    c258:	3c208863          	beq	ra,sp,0xc628
    c25c:	3cc001ef          	jal	gp,0xc628
    c260:	0001c0b3          	xor	ra,gp,zero
    c264:	94611137          	lui	sp,0x94611
    c268:	91355117          	auipc	sp,0x91355
    c26c:	002070b3          	and	ra,zero,sp
    c270:	74a0e093          	ori	ra,ra,1866
    c274:	0062e213          	ori	tp,t0,6
    c278:	928a40b7          	lui	ra,0x928a4
    c27c:	d8e0f0b7          	lui	ra,0xd8e0f
    c280:	6a5bb137          	lui	sp,0x6a5bb
    c284:	2228fd37          	lui	s10,0x2228f
    c288:	a53ed117          	auipc	sp,0xa53ed
    c28c:	38834013          	xori	zero,t1,904
    c290:	a2c462b7          	lui	t0,0xa2c46
    c294:	93e48193          	addi	gp,s1,-1730 # 0xffffffffb5ce198e
    c298:	d2dfe197          	auipc	gp,0xd2dfe
    c29c:	0030e133          	or	sp,ra,gp
    c2a0:	01eac233          	xor	tp,s5,t5
    c2a4:	84f96337          	lui	t1,0x84f96
    c2a8:	6675d317          	auipc	t1,0x6675d
    c2ac:	e481c193          	xori	gp,gp,-440
    c2b0:	195931b7          	lui	gp,0x19593
    c2b4:	a2365397          	auipc	t2,0xa2365
    c2b8:	e9b68217          	auipc	tp,0xe9b68
    c2bc:	da716113          	ori	sp,sp,-601
    c2c0:	003081b3          	add	gp,ra,gp
    c2c4:	40108133          	sub	sp,ra,ra
    c2c8:	7201e193          	ori	gp,gp,1824
    c2cc:	9b5a8117          	auipc	sp,0x9b5a8
    c2d0:	69bf1097          	auipc	ra,0x69bf1
    c2d4:	00116333          	or	t1,sp,ra
    c2d8:	0031f1b3          	and	gp,gp,gp
    c2dc:	46308863          	beq	ra,gp,0xc74c
    c2e0:	46c000ef          	jal	ra,0xc74c
    c2e4:	93008137          	lui	sp,0x93008
    c2e8:	ca268137          	lui	sp,0xca268
    c2ec:	0032c133          	xor	sp,t0,gp
    c2f0:	003385b3          	add	a1,t2,gp
    c2f4:	d3e17093          	andi	ra,sp,-706
    c2f8:	28d21197          	auipc	gp,0x28d21
    c2fc:	b100f113          	andi	sp,ra,-1264
    c300:	3b46a137          	lui	sp,0x3b46a
    c304:	15114093          	xori	ra,sp,337
    c308:	403180b3          	sub	ra,gp,gp
    c30c:	f423c097          	auipc	ra,0xf423c
    c310:	4b728193          	addi	gp,t0,1207 # 0xffffffffa2c464b7
    c314:	02cf8497          	auipc	s1,0x2cf8
    c318:	b051f593          	andi	a1,gp,-1275
    c31c:	9765a297          	auipc	t0,0x9765a
    c320:	862f6197          	auipc	gp,0x862f6
    c324:	1dc08013          	addi	zero,ra,476 # 0xfffffffff42484e8
    c328:	001c74b3          	and	s1,s8,ra
    c32c:	74b001b7          	lui	gp,0x74b00
    c330:	2107e093          	ori	ra,a5,528
    c334:	45515137          	lui	sp,0x45515
    c338:	dc1be0b7          	lui	ra,0xdc1be
    c33c:	0030e1b3          	or	gp,ra,gp
    c340:	f2865237          	lui	tp,0xf2865
    c344:	97206193          	ori	gp,zero,-1678
    c348:	b834f137          	lui	sp,0xb834f
    c34c:	e55eb2b7          	lui	t0,0xe55eb
    c350:	c025e3b7          	lui	t2,0xc025e
    c354:	003166b3          	or	a3,sp,gp
    c358:	5993d3b7          	lui	t2,0x5993d
    c35c:	001170b3          	and	ra,sp,ra
    c360:	b1d1d197          	auipc	gp,0xb1d1d
    c364:	0da18113          	addi	sp,gp,218 # 0xffffffffb1d2943a
    c368:	c76c5197          	auipc	gp,0xc76c5
    c36c:	716c5197          	auipc	gp,0x716c5
    c370:	b842c0b7          	lui	ra,0xb842c
    c374:	2c60e213          	ori	tp,ra,710
    c378:	00000097          	auipc	ra,0x0
    c37c:	ee8081e7          	jalr	gp,-280(ra) # 0xc260
    c380:	0ed2e193          	ori	gp,t0,237
    c384:	ea617193          	andi	gp,sp,-346
    c388:	2230d137          	lui	sp,0x2230d
    c38c:	0b417393          	andi	t2,sp,180
    c390:	0001e2b3          	or	t0,gp,zero
    c394:	401181b3          	sub	gp,gp,ra
    c398:	7751e093          	ori	ra,gp,1909
    c39c:	404481b3          	sub	gp,s1,tp
    c3a0:	73a7c397          	auipc	t2,0x73a7c
    c3a4:	0063f533          	and	a0,t2,t1
    c3a8:	5a6b6237          	lui	tp,0x5a6b6
    c3ac:	2a2a31b7          	lui	gp,0x2a2a3
    c3b0:	553dc117          	auipc	sp,0x553dc
    c3b4:	d49ee1b7          	lui	gp,0xd49ee
    c3b8:	3fcb8237          	lui	tp,0x3fcb8
    c3bc:	8159e097          	auipc	ra,0x8159e
    c3c0:	002101b3          	add	gp,sp,sp
    c3c4:	0011f1b3          	and	gp,gp,ra
    c3c8:	35a22137          	lui	sp,0x35a22
    c3cc:	7641f293          	andi	t0,gp,1892
    c3d0:	ee6d6537          	lui	a0,0xee6d6
    c3d4:	0020f233          	and	tp,ra,sp
    c3d8:	40320133          	sub	sp,tp,gp
    c3dc:	00106333          	or	t1,zero,ra
    c3e0:	bb23e093          	ori	ra,t2,-1102
    c3e4:	76b160b7          	lui	ra,0x76b16
    c3e8:	7b705197          	auipc	gp,0x7b705
    c3ec:	0020c333          	xor	t1,ra,sp
    c3f0:	5b646097          	auipc	ra,0x5b646
    c3f4:	b58540b7          	lui	ra,0xb5854
    c3f8:	2aa1e193          	ori	gp,gp,682
    c3fc:	00030193          	mv	gp,t1
    c400:	ee6182e3          	beq	gp,t1,0xc2e4
    c404:	29b60697          	auipc	a3,0x29b60
    c408:	370961b7          	lui	gp,0x37096
    c40c:	7ce370b7          	lui	ra,0x7ce37
    c410:	e96ff197          	auipc	gp,0xe96ff
    c414:	75be1197          	auipc	gp,0x75be1
    c418:	93cef217          	auipc	tp,0x93cef
    c41c:	f3756017          	auipc	zero,0xf3756
    c420:	678b8113          	addi	sp,s7,1656 # 0x4502194
    c424:	9621f093          	andi	ra,gp,-1694
    c428:	403081b3          	sub	gp,ra,gp
    c42c:	d13020b7          	lui	ra,0xd1302
    c430:	30218193          	addi	gp,gp,770 # 0x75bed716
    c434:	00214133          	xor	sp,sp,sp
    c438:	83339097          	auipc	ra,0x83339
    c43c:	84bad0b7          	lui	ra,0x84bad
    c440:	a060f093          	andi	ra,ra,-1530
    c444:	867f3317          	auipc	t1,0x867f3
    c448:	c277e297          	auipc	t0,0xc277e
    c44c:	1c1a17b7          	lui	a5,0x1c1a1
    c450:	a2538493          	addi	s1,t2,-1499 # 0x73a87dc5
    c454:	6b15f097          	auipc	ra,0x6b15f
    c458:	dc7da237          	lui	tp,0xdc7da
    c45c:	400101b3          	sub	gp,sp,zero
    c460:	db958113          	addi	sp,a1,-583 # 0x38e3fdb9
    c464:	2f530397          	auipc	t2,0x2f530
    c468:	ea1150b7          	lui	ra,0xea115
    c46c:	40d701b3          	sub	gp,a4,a3
    c470:	05644d97          	auipc	s11,0x5644
    c474:	588a2097          	auipc	ra,0x588a2
    c478:	1dd26117          	auipc	sp,0x1dd26
    c47c:	ae2870b7          	lui	ra,0xae287
    c480:	ae308ce3          	beq	ra,gp,0xbf78
    c484:	af5ff16f          	jal	sp,0xbf78
    c488:	a6d19097          	auipc	ra,0xa6d19
    c48c:	82bf90b7          	lui	ra,0x82bf9
    c490:	96a75237          	lui	tp,0x96a75
    c494:	b2f1e313          	ori	t1,gp,-1233
    c498:	a97070b7          	lui	ra,0xa9707
    c49c:	24b07113          	andi	sp,zero,587
    c4a0:	d007a097          	auipc	ra,0xd007a
    c4a4:	efb0c0b7          	lui	ra,0xefb0c
    c4a8:	50856317          	auipc	t1,0x50856
    c4ac:	8b05f393          	andi	t2,a1,-1872
    c4b0:	74be0197          	auipc	gp,0x74be0
    c4b4:	b9d86297          	auipc	t0,0xb9d86
    c4b8:	ea514093          	xori	ra,sp,-347
    c4bc:	40230133          	sub	sp,t1,sp
    c4c0:	10e94117          	auipc	sp,0x10e94
    c4c4:	d660e213          	ori	tp,ra,-666
    c4c8:	01a093b7          	lui	t2,0x1a09
    c4cc:	7ad93137          	lui	sp,0x7ad93
    c4d0:	d9f431b7          	lui	gp,0xd9f43
    c4d4:	0031c133          	xor	sp,gp,gp
    c4d8:	003189b3          	add	s3,gp,gp
    c4dc:	f25ca097          	auipc	ra,0xf25ca
    c4e0:	302ff097          	auipc	ra,0x302ff
    c4e4:	c1ac20b7          	lui	ra,0xc1ac2
    c4e8:	0010e133          	or	sp,ra,ra
    c4ec:	0011f233          	and	tp,gp,ra
    c4f0:	64bf0337          	lui	t1,0x64bf0
    c4f4:	df7b0197          	auipc	gp,0xdf7b0
    c4f8:	5eb0c217          	auipc	tp,0x5eb0c
    c4fc:	d4e45117          	auipc	sp,0xd4e45
    c500:	ffac3097          	auipc	ra,0xffac3
    c504:	f0d080e3          	beq	ra,a3,0xc404
    c508:	efdff1ef          	jal	gp,0xc404
    c50c:	4e92e3b7          	lui	t2,0x4e92e
    c510:	003081b3          	add	gp,ra,gp
    c514:	003741b3          	xor	gp,a4,gp
    c518:	0035c2b3          	xor	t0,a1,gp
    c51c:	bad17193          	andi	gp,sp,-1107
    c520:	2fe90137          	lui	sp,0x2fe90
    c524:	00114233          	xor	tp,sp,ra
    c528:	eb609137          	lui	sp,0xeb609
    c52c:	ea5c2017          	auipc	zero,0xea5c2
    c530:	003101b3          	add	gp,sp,gp
    c534:	bdfce0b7          	lui	ra,0xbdfce
    c538:	deec50b7          	lui	ra,0xdeec5
    c53c:	0030e133          	or	sp,ra,gp
    c540:	7ecc1117          	auipc	sp,0x7ecc1
    c544:	e7310913          	addi	s2,sp,-397 # 0x7eccd3b3
    c548:	37f03217          	auipc	tp,0x37f03
    c54c:	0030c1b3          	xor	gp,ra,gp
    c550:	0010f133          	and	sp,ra,ra
    c554:	003160b3          	or	ra,sp,gp
    c558:	40630333          	sub	t1,t1,t1
    c55c:	002281b3          	add	gp,t0,sp
    c560:	15f02197          	auipc	gp,0x15f02
    c564:	41bae197          	auipc	gp,0x41bae
    c568:	92418093          	addi	ra,gp,-1756 # 0x41bb9e88
    c56c:	01c381b3          	add	gp,t2,t3
    c570:	9f3c1137          	lui	sp,0x9f3c1
    c574:	f59b2297          	auipc	t0,0xf59b2
    c578:	ad6c8037          	lui	zero,0xad6c8
    c57c:	403100b3          	sub	ra,sp,gp
    c580:	4c78e117          	auipc	sp,0x4c78e
    c584:	a6802137          	lui	sp,0xa6802
    c588:	e788f1b7          	lui	gp,0xe788f
    c58c:	401380b3          	sub	ra,t2,ra
    c590:	597d2137          	lui	sp,0x597d2
    c594:	a65184e3          	beq	gp,t0,0xbffc
    c598:	a65ff36f          	jal	t1,0xbffc
    c59c:	eb03cc13          	xori	s8,t2,-336
    c5a0:	21d8d8b7          	lui	a7,0x21d8d
    c5a4:	a6e36093          	ori	ra,t1,-1426
    c5a8:	449791b7          	lui	gp,0x44979
    c5ac:	ee1f90b7          	lui	ra,0xee1f9
    c5b0:	50a460b7          	lui	ra,0x50a46
    c5b4:	3521c393          	xori	t2,gp,850
    c5b8:	07b14193          	xori	gp,sp,123
    c5bc:	c598c197          	auipc	gp,0xc598c
    c5c0:	dafa42b7          	lui	t0,0xdafa4
    c5c4:	13ee6137          	lui	sp,0x13ee6
    c5c8:	29618213          	addi	tp,gp,662 # 0xffffffffc5998852
    c5cc:	0000c5b3          	xor	a1,ra,zero
    c5d0:	9b9311b7          	lui	gp,0x9b931
    c5d4:	aea13037          	lui	zero,0xaea13
    c5d8:	e0e76317          	auipc	t1,0xe0e76
    c5dc:	397760b7          	lui	ra,0x39776
    c5e0:	00116133          	or	sp,sp,ra
    c5e4:	69510113          	addi	sp,sp,1685 # 0x13ee6695
    c5e8:	40418333          	sub	t1,gp,tp
    c5ec:	2a95f113          	andi	sp,a1,681
    c5f0:	0a91f1b7          	lui	gp,0xa91f
    c5f4:	49b18113          	addi	sp,gp,1179 # 0xa91f49b
    c5f8:	fd378137          	lui	sp,0xfd378
    c5fc:	0b9b0237          	lui	tp,0xb9b0
    c600:	7a8f20b7          	lui	ra,0x7a8f2
    c604:	c69a8113          	addi	sp,s5,-919
    c608:	a2910137          	lui	sp,0xa2910
    c60c:	0031c1b3          	xor	gp,gp,gp
    c610:	75610293          	addi	t0,sp,1878 # 0xffffffffa2910756
    c614:	0041c133          	xor	sp,gp,tp
    c618:	0040f133          	and	sp,ra,tp
    c61c:	b8da8197          	auipc	gp,0xb8da8
    c620:	e61104e3          	beq	sp,ra,0xc488
    c624:	e65ff16f          	jal	sp,0xc488
    c628:	65c99137          	lui	sp,0x65c99
    c62c:	7d80f197          	auipc	gp,0x7d80f
    c630:	d94bf137          	lui	sp,0xd94bf
    c634:	38616193          	ori	gp,sp,902
    c638:	244209b7          	lui	s3,0x24420
    c63c:	00100b33          	add	s6,zero,ra
    c640:	44fbd117          	auipc	sp,0x44fbd
    c644:	00f10033          	add	zero,sp,a5
    c648:	620b5097          	auipc	ra,0x620b5
    c64c:	d1a85197          	auipc	gp,0xd1a85
    c650:	cb337113          	andi	sp,t1,-845
    c654:	7b8c70b7          	lui	ra,0x7b8c7
    c658:	0010f0b3          	and	ra,ra,ra
    c65c:	01d3e133          	or	sp,t2,t4
    c660:	01a0c1b3          	xor	gp,ra,s10
    c664:	d3dda097          	auipc	ra,0xd3dda
    c668:	40210133          	sub	sp,sp,sp
    c66c:	8bc10113          	addi	sp,sp,-1860 # 0x44fc8efc
    c670:	c30e30b7          	lui	ra,0xc30e3
    c674:	31ee1a97          	auipc	s5,0x31ee1
    c678:	00b0c033          	xor	zero,ra,a1
    c67c:	000081b3          	add	gp,ra,zero
    c680:	29ec7117          	auipc	sp,0x29ec7
    c684:	e401e393          	ori	t2,gp,-448
    c688:	406101b3          	sub	gp,sp,t1
    c68c:	65246197          	auipc	gp,0x65246
    c690:	003370b3          	and	ra,t1,gp
    c694:	d1f44097          	auipc	ra,0xd1f44
    c698:	0b118137          	lui	sp,0xb118
    c69c:	f7dac397          	auipc	t2,0xf7dac
    c6a0:	002070b3          	and	ra,zero,sp
    c6a4:	afab41b7          	lui	gp,0xafab4
    c6a8:	3e94f0b7          	lui	ra,0x3e94f
    c6ac:	9c208ee3          	beq	ra,sp,0xc088
    c6b0:	9d9ff1ef          	jal	gp,0xc088
    c6b4:	d0f18693          	addi	a3,gp,-753 # 0xffffffffafab3d0f
    c6b8:	402181b3          	sub	gp,gp,sp
    c6bc:	ead730b7          	lui	ra,0xead73
    c6c0:	7446e317          	auipc	t1,0x7446e
    c6c4:	9f0e13b7          	lui	t2,0x9f0e1
    c6c8:	85d5c297          	auipc	t0,0x85d5c
    c6cc:	80207013          	andi	zero,zero,-2046
    c6d0:	001271b3          	and	gp,tp,ra
    c6d4:	5c44c013          	xori	zero,s1,1476
    c6d8:	81218113          	addi	sp,gp,-2030
    c6dc:	d442e0b7          	lui	ra,0xd442e
    c6e0:	eaa26113          	ori	sp,tp,-342
    c6e4:	003180b3          	add	ra,gp,gp
    c6e8:	40210133          	sub	sp,sp,sp
    c6ec:	c68d6337          	lui	t1,0xc68d6
    c6f0:	9908a197          	auipc	gp,0x9908a
    c6f4:	0cb3e193          	ori	gp,t2,203
    c6f8:	57424113          	xori	sp,tp,1396
    c6fc:	1a30f093          	andi	ra,ra,419
    c700:	5551c313          	xori	t1,gp,1365
    c704:	4fe18093          	addi	ra,gp,1278 # 0xffffffff99096bee
    c708:	9d5893b7          	lui	t2,0x9d589
    c70c:	89588bb7          	lui	s7,0x89588
    c710:	002840b3          	xor	ra,a6,sp
    c714:	85d0f093          	andi	ra,ra,-1955
    c718:	a460c093          	xori	ra,ra,-1466
    c71c:	9c60e313          	ori	t1,ra,-1594
    c720:	e628d697          	auipc	a3,0xe628d
    c724:	58b14313          	xori	t1,sp,1419
    c728:	71a8b197          	auipc	gp,0x71a8b
    c72c:	d9238097          	auipc	ra,0xd9238
    c730:	a579b097          	auipc	ra,0xa579b
    c734:	0033c0b3          	xor	ra,t2,gp
    c738:	50259117          	auipc	sp,0x50259
    c73c:	40318333          	sub	t1,gp,gp
    c740:	96884117          	auipc	sp,0x96884
    c744:	01700263          	beq	zero,s7,0xc748
    c748:	fa4ff36f          	jal	t1,0xbeec
    c74c:	91517193          	andi	gp,sp,-1771
    c750:	40230133          	sub	sp,t1,sp
    c754:	404182b3          	sub	t0,gp,tp
    c758:	d4617113          	andi	sp,sp,-698
    c75c:	1db38213          	addi	tp,t2,475 # 0xffffffff9d5891db
    c760:	7d14c097          	auipc	ra,0x7d14c
    c764:	9ec5f093          	andi	ra,a1,-1556
    c768:	7cb401b7          	lui	gp,0x7cb40
    c76c:	88a1c293          	xori	t0,gp,-1910
    c770:	de53b0b7          	lui	ra,0xde53b
    c774:	0021f1b3          	and	gp,gp,sp
    c778:	72f8f137          	lui	sp,0x72f8f
    c77c:	60ea2137          	lui	sp,0x60ea2
    c780:	40330133          	sub	sp,t1,gp
    c784:	4d76b137          	lui	sp,0x4d76b
    c788:	0021c133          	xor	sp,gp,sp
    c78c:	de39e317          	auipc	t1,0xde39e
    c790:	2eb10093          	addi	ra,sp,747 # 0x4d76b2eb
    c794:	9a5e50b7          	lui	ra,0x9a5e5
    c798:	002081b3          	add	gp,ra,sp
    c79c:	0f605197          	auipc	gp,0xf605
    c7a0:	e7b0e693          	ori	a3,ra,-389
    c7a4:	ccf9bb97          	auipc	s7,0xccf9b
    c7a8:	2ac37093          	andi	ra,t1,684
    c7ac:	f7c10013          	addi	zero,sp,-132
    c7b0:	52317113          	andi	sp,sp,1315
    c7b4:	f2d07093          	andi	ra,zero,-211
    c7b8:	9366f013          	andi	zero,a3,-1738
    c7bc:	00220463          	beq	tp,sp,0xc7c4
    c7c0:	0040016f          	jal	sp,0xc7c4
    c7c4:	0020e133          	or	sp,ra,sp
    c7c8:	0020e0b3          	or	ra,ra,sp
    c7cc:	401080b3          	sub	ra,ra,ra
    c7d0:	007001b3          	add	gp,zero,t2
    c7d4:	0021e1b3          	or	gp,gp,sp
    c7d8:	ffb36097          	auipc	ra,0xffb36
    c7dc:	00210133          	add	sp,sp,sp
    c7e0:	10ce61b7          	lui	gp,0x10ce6
    c7e4:	0030f133          	and	sp,ra,gp
    c7e8:	68102097          	auipc	ra,0x68102
    c7ec:	e7e1c137          	lui	sp,0xe7e1c
    c7f0:	42b06197          	auipc	gp,0x42b06
    c7f4:	e0464097          	auipc	ra,0xe0464
    c7f8:	406081b3          	sub	gp,ra,t1
    c7fc:	95314113          	xori	sp,sp,-1709
    c800:	001175b3          	and	a1,sp,ra
    c804:	ce73c2b7          	lui	t0,0xce73c
    c808:	003281b3          	add	gp,t0,gp
    c80c:	b6663397          	auipc	t2,0xb6663
    c810:	6607d1b7          	lui	gp,0x6607d
    c814:	a11120b7          	lui	ra,0xa1112
    c818:	e3b6e193          	ori	gp,a3,-453
    c81c:	ebf7d317          	auipc	t1,0xebf7d
    c820:	33dc3197          	auipc	gp,0x33dc3
    c824:	c72a8017          	auipc	zero,0xc72a8
    c828:	3cfe3117          	auipc	sp,0x3cfe3
    c82c:	c71b0097          	auipc	ra,0xc71b0
    c830:	0011f0b3          	and	ra,gp,ra
    c834:	0071c133          	xor	sp,gp,t2
    c838:	0021e233          	or	tp,gp,sp
    c83c:	911c2117          	auipc	sp,0x911c2
    c840:	d0ac2137          	lui	sp,0xd0ac2
    c844:	b331e113          	ori	sp,gp,-1229
    c848:	879f6397          	auipc	t2,0x879f6
    c84c:	00218263          	beq	gp,sp,0xc850
    c850:	e14ff0ef          	jal	ra,0xbe64
    c854:	001343b3          	xor	t2,t1,ra
    c858:	dc51f393          	andi	t2,gp,-571
    c85c:	368870b7          	lui	ra,0x36887
    c860:	7a12e517          	auipc	a0,0x7a12e
    c864:	18afb037          	lui	zero,0x18afb
    c868:	0021e0b3          	or	ra,gp,sp
    c86c:	001070b3          	and	ra,zero,ra
    c870:	1b70b117          	auipc	sp,0x1b70b
    c874:	318c33b7          	lui	t2,0x318c3
    c878:	d9d1c393          	xori	t2,gp,-611
    c87c:	403180b3          	sub	ra,gp,gp
    c880:	941ea297          	auipc	t0,0x941ea
    c884:	5ac0fe93          	andi	t4,ra,1452
    c888:	40218133          	sub	sp,gp,sp
    c88c:	51e5f113          	andi	sp,a1,1310
    c890:	3881f193          	andi	gp,gp,904
    c894:	28f4c093          	xori	ra,s1,655
    c898:	0031e4b3          	or	s1,gp,gp
    c89c:	ea6ed037          	lui	zero,0xea6ed
    c8a0:	89b17193          	andi	gp,sp,-1893
    c8a4:	5f86f193          	andi	gp,a3,1528
    c8a8:	1b0041b7          	lui	gp,0x1b004
    c8ac:	01307133          	and	sp,zero,s3
    c8b0:	0030c1b3          	xor	gp,ra,gp
    c8b4:	274a31b7          	lui	gp,0x274a3
    c8b8:	015300b3          	add	ra,t1,s5
    c8bc:	dd46d1b7          	lui	gp,0xdd46d
    c8c0:	a691c093          	xori	ra,gp,-1431
    c8c4:	91a08193          	addi	gp,ra,-1766 # 0x3688691a
    c8c8:	d001c213          	xori	tp,gp,-768
    c8cc:	00134133          	xor	sp,t1,ra
    c8d0:	6cc29037          	lui	zero,0x6cc29
    c8d4:	50208063          	beq	ra,sp,0xcdd4
    c8d8:	4fc007ef          	jal	a5,0xcdd4
    c8dc:	aa51e1b7          	lui	gp,0xaa51e
    c8e0:	923e8117          	auipc	sp,0x923e8
    c8e4:	c35523b7          	lui	t2,0xc3552
    c8e8:	00338133          	add	sp,t2,gp
    c8ec:	b6df1137          	lui	sp,0xb6df1
    c8f0:	85c08093          	addi	ra,ra,-1956
    c8f4:	40210333          	sub	t1,sp,sp
    c8f8:	bfb2a117          	auipc	sp,0xbfb2a
    c8fc:	7f4a52b7          	lui	t0,0x7f4a5
    c900:	e8414117          	auipc	sp,0xe8414
    c904:	903a13b7          	lui	t2,0x903a1
    c908:	64813297          	auipc	t0,0x64813
    c90c:	c63b8017          	auipc	zero,0xc63b8
    c910:	002142b3          	xor	t0,sp,sp
    c914:	73b24393          	xori	t2,tp,1851
    c918:	fe68b0b7          	lui	ra,0xfe68b
    c91c:	8071c113          	xori	sp,gp,-2041
    c920:	6d16c113          	xori	sp,a3,1745
    c924:	08a14093          	xori	ra,sp,138
    c928:	eb930313          	addi	t1,t1,-327 # 0xffffffffebf896d5
    c92c:	82020313          	addi	t1,tp,-2016 # 0xb9af820
    c930:	314860b7          	lui	ra,0x31486
    c934:	2377d197          	auipc	gp,0x2377d
    c938:	4290c797          	auipc	a5,0x4290c
    c93c:	d595d397          	auipc	t2,0xd595d
    c940:	400080b3          	sub	ra,ra,zero
    c944:	00d101b3          	add	gp,sp,a3
    c948:	0021e1b3          	or	gp,gp,sp
    c94c:	52878b37          	lui	s6,0x52878
    c950:	00024233          	xor	tp,tp,zero
    c954:	3be24093          	xori	ra,tp,958
    c958:	406100b3          	sub	ra,sp,t1
    c95c:	7bed5097          	auipc	ra,0x7bed5
    c960:	4b308193          	addi	gp,ra,1203 # 0x7bee1e0f
    c964:	d23a7137          	lui	sp,0xd23a7
    c968:	4e338c63          	beq	t2,gp,0xce60
    c96c:	4f4002ef          	jal	t0,0xce60
    c970:	0ee35117          	auipc	sp,0xee35
    c974:	0071c1b3          	xor	gp,gp,t2
    c978:	40408133          	sub	sp,ra,tp
    c97c:	d9988117          	auipc	sp,0xd9988
    c980:	00304133          	xor	sp,zero,gp
    c984:	e569f317          	auipc	t1,0xe569f
    c988:	508c80b7          	lui	ra,0x508c8
    c98c:	aed9f097          	auipc	ra,0xaed9f
    c990:	003171b3          	and	gp,sp,gp
    c994:	40008133          	sub	sp,ra,zero
    c998:	002340b3          	xor	ra,t1,sp
    c99c:	9b13f013          	andi	zero,t2,-1615
    c9a0:	c0a79397          	auipc	t2,0xc0a79
    c9a4:	1e908113          	addi	sp,ra,489 # 0xffffffffaedabb75
    c9a8:	d2902297          	auipc	t0,0xd2902
    c9ac:	1b4781b7          	lui	gp,0x1b478
    c9b0:	76916113          	ori	sp,sp,1897
    c9b4:	3630e193          	ori	gp,ra,867
    c9b8:	cd922e17          	auipc	t3,0xcd922
    c9bc:	7650c093          	xori	ra,ra,1893
    c9c0:	da4e1597          	auipc	a1,0xda4e1
    c9c4:	00117033          	and	zero,sp,ra
    c9c8:	001081b3          	add	gp,ra,ra
    c9cc:	04e8e097          	auipc	ra,0x4e8e
    c9d0:	9b8be113          	ori	sp,s7,-1608
    c9d4:	0057f393          	andi	t2,a5,5
    c9d8:	9fb6e0b7          	lui	ra,0x9fb6e
    c9dc:	c7a4f097          	auipc	ra,0xc7a4f
    c9e0:	3a4f9137          	lui	sp,0x3a4f9
    c9e4:	002080b3          	add	ra,ra,sp
    c9e8:	00110133          	add	sp,sp,ra
    c9ec:	4da820b7          	lui	ra,0x4da82
    c9f0:	00230263          	beq	t1,sp,0xc9f4
    c9f4:	719001ef          	jal	gp,0xd90c
    c9f8:	bb86c1b7          	lui	gp,0xbb86c
    c9fc:	000083b3          	add	t2,ra,zero
    ca00:	dfe0e093          	ori	ra,ra,-514
    ca04:	c4527113          	andi	sp,tp,-955
    ca08:	b761f113          	andi	sp,gp,-1162
    ca0c:	02b1f113          	andi	sp,gp,43
    ca10:	2839c097          	auipc	ra,0x2839c
    ca14:	4fc4a817          	auipc	a6,0x4fc4a
    ca18:	8e321217          	auipc	tp,0x8e321
    ca1c:	c0d40217          	auipc	tp,0xc0d40
    ca20:	f3d03117          	auipc	sp,0xf3d03
    ca24:	79a535b7          	lui	a1,0x79a53
    ca28:	34818013          	addi	zero,gp,840 # 0xffffffffbb86c348
    ca2c:	00300133          	add	sp,zero,gp
    ca30:	003142b3          	xor	t0,sp,gp
    ca34:	0022e0b3          	or	ra,t0,sp
    ca38:	a66b1117          	auipc	sp,0xa66b1
    ca3c:	26198117          	auipc	sp,0x26198
    ca40:	3e856193          	ori	gp,a0,1000
    ca44:	8edec337          	lui	t1,0x8edec
    ca48:	049ee637          	lui	a2,0x49ee
    ca4c:	53e74197          	auipc	gp,0x53e74
    ca50:	5a03d197          	auipc	gp,0x5a03d
    ca54:	b5813297          	auipc	t0,0xb5813
    ca58:	2aead037          	lui	zero,0x2aead
    ca5c:	ab9823b7          	lui	t2,0xab982
    ca60:	a50f3237          	lui	tp,0xa50f3
    ca64:	2f3b80b7          	lui	ra,0x2f3b8
    ca68:	01f10133          	add	sp,sp,t6
    ca6c:	5639c197          	auipc	gp,0x5639c
    ca70:	407c07b3          	sub	a5,s8,t2
    ca74:	005072b3          	and	t0,zero,t0
    ca78:	331ca137          	lui	sp,0x331ca
    ca7c:	00238033          	add	zero,t2,sp
    ca80:	21a9f097          	auipc	ra,0x21a9f
    ca84:	7fa45137          	lui	sp,0x7fa45
    ca88:	6c8f71b7          	lui	gp,0x6c8f7
    ca8c:	4ce85117          	auipc	sp,0x4ce85
    ca90:	d6237093          	andi	ra,t1,-670
    ca94:	70110c63          	beq	sp,ra,0xd1ac
    ca98:	7140006f          	j	0xd1ac
    ca9c:	003181b3          	add	gp,gp,gp
    caa0:	1fb0f393          	andi	t2,ra,507
    caa4:	a87ad097          	auipc	ra,0xa87ad
    caa8:	a3f76113          	ori	sp,a4,-1473
    caac:	0f4df097          	auipc	ra,0xf4df
    cab0:	0020e133          	or	sp,ra,sp
    cab4:	007181b3          	add	gp,gp,t2
    cab8:	088210b7          	lui	ra,0x8821
    cabc:	4a322097          	auipc	ra,0x4a322
    cac0:	bb06e113          	ori	sp,a3,-1104
    cac4:	ea5f0217          	auipc	tp,0xea5f0
    cac8:	4ea63897          	auipc	a7,0x4ea63
    cacc:	3a609097          	auipc	ra,0x3a609
    cad0:	7d03e093          	ori	ra,t2,2000
    cad4:	093f1117          	auipc	sp,0x93f1
    cad8:	464ed117          	auipc	sp,0x464ed
    cadc:	ef51b5b7          	lui	a1,0xef51b
    cae0:	cfb01137          	lui	sp,0xcfb01
    cae4:	0060c0b3          	xor	ra,ra,t1
    cae8:	3f928113          	addi	sp,t0,1017 # 0xffffffffb581fe4d
    caec:	957fb137          	lui	sp,0x957fb
    caf0:	ec310093          	addi	ra,sp,-317 # 0xffffffff957faec3
    caf4:	003201b3          	add	gp,tp,gp
    caf8:	3746a297          	auipc	t0,0x3746a
    cafc:	0f8fc697          	auipc	a3,0xf8fc
    cb00:	0010e1b3          	or	gp,ra,ra
    cb04:	96875197          	auipc	gp,0x96875
    cb08:	1c2b8297          	auipc	t0,0x1c2b8
    cb0c:	00518ab3          	add	s5,gp,t0
    cb10:	d970b237          	lui	tp,0xd970b
    cb14:	1a8fc0b7          	lui	ra,0x1a8fc
    cb18:	6870c093          	xori	ra,ra,1671
    cb1c:	2c9bd1b7          	lui	gp,0x2c9bd
    cb20:	f4037313          	andi	t1,t1,-192
    cb24:	d21388e3          	beq	t2,ra,0xc854
    cb28:	d2dff6ef          	jal	a3,0xc854
    cb2c:	08613337          	lui	t1,0x8613
    cb30:	19618d93          	addi	s11,gp,406 # 0x2c9bd196
    cb34:	64ea3197          	auipc	gp,0x64ea3
    cb38:	6f217993          	andi	s3,sp,1778
    cb3c:	58b7a217          	auipc	tp,0x58b7a
    cb40:	1fba21b7          	lui	gp,0x1fba2
    cb44:	1797a2b7          	lui	t0,0x1797a
    cb48:	e3adb097          	auipc	ra,0xe3adb
    cb4c:	732e3097          	auipc	ra,0x732e3
    cb50:	739b6037          	lui	zero,0x739b6
    cb54:	0013c1b3          	xor	gp,t2,ra
    cb58:	002105b3          	add	a1,sp,sp
    cb5c:	0031f033          	and	zero,gp,gp
    cb60:	ecd1f113          	andi	sp,gp,-307
    cb64:	6e8991b7          	lui	gp,0x6e899
    cb68:	fedbb2b7          	lui	t0,0xfedbb
    cb6c:	402281b3          	sub	gp,t0,sp
    cb70:	001081b3          	add	gp,ra,ra
    cb74:	a19ee097          	auipc	ra,0xa19ee
    cb78:	40b10133          	sub	sp,sp,a1
    cb7c:	40448333          	sub	t1,s1,tp
    cb80:	b8423197          	auipc	gp,0xb8423
    cb84:	d7e0e113          	ori	sp,ra,-642
    cb88:	b6925797          	auipc	a5,0xb6925
    cb8c:	00016233          	or	tp,sp,zero
    cb90:	e995e193          	ori	gp,a1,-359
    cb94:	afa1f093          	andi	ra,gp,-1286
    cb98:	bdddb1b7          	lui	gp,0xbdddb
    cb9c:	140950b7          	lui	ra,0x14095
    cba0:	84e842b7          	lui	t0,0x84e84
    cba4:	0023f133          	and	sp,t2,sp
    cba8:	92c5a1b7          	lui	gp,0x92c5a
    cbac:	00000097          	auipc	ra,0x0
    cbb0:	d3008167          	jalr	sp,-720(ra) # 0xc8dc
    cbb4:	c5051197          	auipc	gp,0xc5051
    cbb8:	d2d41117          	auipc	sp,0xd2d41
    cbbc:	ec9b41b7          	lui	gp,0xec9b4
    cbc0:	1b691117          	auipc	sp,0x1b691
    cbc4:	a19921b7          	lui	gp,0xa1992
    cbc8:	575b6037          	lui	zero,0x575b6
    cbcc:	0022f0b3          	and	ra,t0,sp
    cbd0:	43a38037          	lui	zero,0x43a38
    cbd4:	52d41197          	auipc	gp,0x52d41
    cbd8:	3d3aa1b7          	lui	gp,0x3d3aa
    cbdc:	0627a217          	auipc	tp,0x627a
    cbe0:	002bc0b3          	xor	ra,s7,sp
    cbe4:	0010f133          	and	sp,ra,ra
    cbe8:	68798113          	addi	sp,s3,1671 # 0x24420687
    cbec:	8ed1f113          	andi	sp,gp,-1811
    cbf0:	9e510113          	addi	sp,sp,-1563 # 0x1b69d5a5
    cbf4:	26037113          	andi	sp,t1,608
    cbf8:	003000b3          	add	ra,zero,gp
    cbfc:	3ac361b7          	lui	gp,0x3ac36
    cc00:	af785117          	auipc	sp,0xaf785
    cc04:	002102b3          	add	t0,sp,sp
    cc08:	e898b137          	lui	sp,0xe898b
    cc0c:	403100b3          	sub	ra,sp,gp
    cc10:	002171b3          	and	gp,sp,sp
    cc14:	46c00117          	auipc	sp,0x46c00
    cc18:	004160b3          	or	ra,sp,tp
    cc1c:	003860b3          	or	ra,a6,gp
    cc20:	423ed0b7          	lui	ra,0x423ed
    cc24:	406081b3          	sub	gp,ra,t1
    cc28:	a31d7197          	auipc	gp,0xa31d7
    cc2c:	bcb7a117          	auipc	sp,0xbcb7a
    cc30:	5ba8c117          	auipc	sp,0x5ba8c
    cc34:	32110263          	beq	sp,ra,0xcf58
    cc38:	3200006f          	j	0xcf58
    cc3c:	f4c2e0b7          	lui	ra,0xf4c2e
    cc40:	071df097          	auipc	ra,0x71df
    cc44:	205d0097          	auipc	ra,0x205d0
    cc48:	f912f117          	auipc	sp,0xf912f
    cc4c:	1a8c55b7          	lui	a1,0x1a8c5
    cc50:	00316133          	or	sp,sp,gp
    cc54:	56afe137          	lui	sp,0x56afe
    cc58:	000170b3          	and	ra,sp,zero
    cc5c:	d31e8337          	lui	t1,0xd31e8
    cc60:	2d118113          	addi	sp,gp,721 # 0xffffffffa31e3ef9
    cc64:	cfc0f093          	andi	ra,ra,-772
    cc68:	0020efb3          	or	t6,ra,sp
    cc6c:	1f74a3b7          	lui	t2,0x1f74a
    cc70:	3e95e137          	lui	sp,0x3e95e
    cc74:	868db117          	auipc	sp,0x868db
    cc78:	7e0831b7          	lui	gp,0x7e083
    cc7c:	f34d00b7          	lui	ra,0xf34d0
    cc80:	41de70b7          	lui	ra,0x41de7
    cc84:	bbf4d097          	auipc	ra,0xbbf4d
    cc88:	4fb660b7          	lui	ra,0x4fb66
    cc8c:	002181b3          	add	gp,gp,sp
    cc90:	0070f1b3          	and	gp,ra,t2
    cc94:	fdc2e113          	ori	sp,t0,-36
    cc98:	d591c093          	xori	ra,gp,-679
    cc9c:	bc048017          	auipc	zero,0xbc048
    cca0:	75e5f137          	lui	sp,0x75e5f
    cca4:	089bb197          	auipc	gp,0x89bb
    cca8:	11fe3297          	auipc	t0,0x11fe3
    ccac:	2fe80337          	lui	t1,0x2fe80
    ccb0:	2b34e197          	auipc	gp,0x2b34e
    ccb4:	fd864213          	xori	tp,a2,-40
    ccb8:	18471197          	auipc	gp,0x18471
    ccbc:	44d28e63          	beq	t0,a3,0xd118
    ccc0:	458004ef          	jal	s1,0xd118
    ccc4:	0011f1b3          	and	gp,gp,ra
    ccc8:	00a185b3          	add	a1,gp,a0
    cccc:	0043c1b3          	xor	gp,t2,tp
    ccd0:	89d6c1b7          	lui	gp,0x89d6c
    ccd4:	76f48197          	auipc	gp,0x76f48
    ccd8:	0bcb9317          	auipc	t1,0xbcb9
    ccdc:	21e18093          	addi	ra,gp,542 # 0x76f54ef2
    cce0:	9663ec17          	auipc	s8,0x9663e
    cce4:	37a31137          	lui	sp,0x37a31
    cce8:	32207093          	andi	ra,zero,802
    ccec:	ba209137          	lui	sp,0xba209
    ccf0:	5443e017          	auipc	zero,0x5443e
    ccf4:	00217333          	and	t1,sp,sp
    ccf8:	25e17193          	andi	gp,sp,606
    ccfc:	8973c0b7          	lui	ra,0x8973c
    cd00:	527b9097          	auipc	ra,0x527b9
    cd04:	001183b3          	add	t2,gp,ra
    cd08:	22ce00b7          	lui	ra,0x22ce0
    cd0c:	b9abb137          	lui	sp,0xb9abb
    cd10:	a481b7b7          	lui	a5,0xa481b
    cd14:	3001f193          	andi	gp,gp,768
    cd18:	469250b7          	lui	ra,0x46925
    cd1c:	e4fce193          	ori	gp,s9,-433
    cd20:	0cc30097          	auipc	ra,0xcc30
    cd24:	06b35097          	auipc	ra,0x6b35
    cd28:	40c1c013          	xori	zero,gp,1036
    cd2c:	772054b7          	lui	s1,0x77205
    cd30:	58130093          	addi	ra,t1,1409 # 0xbcc6259
    cd34:	118c71b7          	lui	gp,0x118c7
    cd38:	f14410b7          	lui	ra,0xf1441
    cd3c:	00916033          	or	zero,sp,s1
    cd40:	7830b017          	auipc	zero,0x7830b
    cd44:	006001b3          	add	gp,zero,t1
    cd48:	005080b3          	add	ra,ra,t0
    cd4c:	25e8b7b7          	lui	a5,0x25e8b
    cd50:	4e110863          	beq	sp,ra,0xd240
    cd54:	4ec002ef          	jal	t0,0xd240
    cd58:	d9730193          	addi	gp,t1,-617
    cd5c:	41c089b3          	sub	s3,ra,t3
    cd60:	1a6cf197          	auipc	gp,0x1a6cf
    cd64:	a2c38197          	auipc	gp,0xa2c38
    cd68:	40378133          	sub	sp,a5,gp
    cd6c:	0020c0b3          	xor	ra,ra,sp
    cd70:	cc3b2137          	lui	sp,0xcc3b2
    cd74:	6960eab7          	lui	s5,0x6960e
    cd78:	43710413          	addi	s0,sp,1079 # 0xffffffffcc3b2437
    cd7c:	4f986117          	auipc	sp,0x4f986
    cd80:	3e4b71b7          	lui	gp,0x3e4b7
    cd84:	d760e193          	ori	gp,ra,-650
    cd88:	235c81b7          	lui	gp,0x235c8
    cd8c:	40308033          	sub	zero,ra,gp
    cd90:	080b0137          	lui	sp,0x80b0
    cd94:	4c50b0b7          	lui	ra,0x4c50b
    cd98:	0021ee33          	or	t3,gp,sp
    cd9c:	2f934013          	xori	zero,t1,761
    cda0:	803871b7          	lui	gp,0x80387
    cda4:	1af73017          	auipc	zero,0x1af73
    cda8:	da91c193          	xori	gp,gp,-599
    cdac:	652da137          	lui	sp,0x652da
    cdb0:	d6f0b1b7          	lui	gp,0xd6f0b
    cdb4:	b2e0c137          	lui	sp,0xb2e0c
    cdb8:	68c051b7          	lui	gp,0x68c05
    cdbc:	401180b3          	sub	ra,gp,ra
    cdc0:	23aa6397          	auipc	t2,0x23aa6
    cdc4:	0b3b1117          	auipc	sp,0xb3b1
    cdc8:	03514293          	xori	t0,sp,53
    cdcc:	2a130e63          	beq	t1,ra,0xd088
    cdd0:	2b80006f          	j	0xd088
    cdd4:	8422c0b7          	lui	ra,0x8422c
    cdd8:	e845c113          	xori	sp,a1,-380
    cddc:	b6e30313          	addi	t1,t1,-1170
    cde0:	8354c097          	auipc	ra,0x8354c
    cde4:	001200b3          	add	ra,tp,ra
    cde8:	a67af1b7          	lui	gp,0xa67af
    cdec:	90685197          	auipc	gp,0x90685
    cdf0:	26c4b4b7          	lui	s1,0x26c4b
    cdf4:	0030c1b3          	xor	gp,ra,gp
    cdf8:	001101b3          	add	gp,sp,ra
    cdfc:	00706233          	or	tp,zero,t2
    ce00:	00310033          	add	zero,sp,gp
    ce04:	0011f0b3          	and	ra,gp,ra
    ce08:	9a80f337          	lui	t1,0x9a80f
    ce0c:	0016c133          	xor	sp,a3,ra
    ce10:	9ae1e317          	auipc	t1,0x9ae1e
    ce14:	5bf84117          	auipc	sp,0x5bf84
    ce18:	8ff56997          	auipc	s3,0x8ff56
    ce1c:	37525137          	lui	sp,0x37525
    ce20:	73f18793          	addi	a5,gp,1855 # 0xffffffff9069252b
    ce24:	67f40017          	auipc	zero,0x67f40
    ce28:	40350033          	sub	zero,a0,gp
    ce2c:	d0b38193          	addi	gp,t2,-757 # 0x23ab2acb
    ce30:	6f90e117          	auipc	sp,0x6f90e
    ce34:	0031f1b3          	and	gp,gp,gp
    ce38:	b6970097          	auipc	ra,0xb6970
    ce3c:	2bc1e337          	lui	t1,0x2bc1e
    ce40:	fc20f093          	andi	ra,ra,-62
    ce44:	c94ced97          	auipc	s11,0xc94ce
    ce48:	a5110093          	addi	ra,sp,-1455 # 0x6f91a881
    ce4c:	36914197          	auipc	gp,0x36914
    ce50:	0071c0b3          	xor	ra,gp,t2
    ce54:	fb27f097          	auipc	ra,0xfb27f
    ce58:	d4110ee3          	beq	sp,ra,0xcbb4
    ce5c:	d59ff06f          	j	0xcbb4
    ce60:	080c9337          	lui	t1,0x80c9
    ce64:	722bc0b7          	lui	ra,0x722bc
    ce68:	00127333          	and	t1,tp,ra
    ce6c:	1c8031b7          	lui	gp,0x1c803
    ce70:	fbe661b7          	lui	gp,0xfbe66
    ce74:	411a82b7          	lui	t0,0x411a8
    ce78:	81b43097          	auipc	ra,0x81b43
    ce7c:	03035237          	lui	tp,0x3035
    ce80:	adf16093          	ori	ra,sp,-1313
    ce84:	80101097          	auipc	ra,0x80101
    ce88:	e8fab217          	auipc	tp,0xe8fab
    ce8c:	0031cf93          	xori	t6,gp,3
    ce90:	0011c1b3          	xor	gp,gp,ra
    ce94:	5b126197          	auipc	gp,0x5b126
    ce98:	e0d0f193          	andi	gp,ra,-499
    ce9c:	cc4ed117          	auipc	sp,0xcc4ed
    cea0:	1911c093          	xori	ra,gp,401
    cea4:	10d1b117          	auipc	sp,0x10d1b
    cea8:	39bc0197          	auipc	gp,0x39bc0
    ceac:	0020f0b3          	and	ra,ra,sp
    ceb0:	8159b197          	auipc	gp,0x8159b
    ceb4:	41c30113          	addi	sp,t1,1052 # 0x80c941c
    ceb8:	dad4e097          	auipc	ra,0xdad4e
    cebc:	81cbb217          	auipc	tp,0x81cbb
    cec0:	ad2071b7          	lui	gp,0xad207
    cec4:	722e11b7          	lui	gp,0x722e1
    cec8:	00510133          	add	sp,sp,t0
    cecc:	5be17517          	auipc	a0,0x5be17
    ced0:	40318233          	sub	tp,gp,gp
    ced4:	0032c2b3          	xor	t0,t0,gp
    ced8:	248bf197          	auipc	gp,0x248bf
    cedc:	00010193          	mv	gp,sp
    cee0:	ba218ee3          	beq	gp,sp,0xca9c
    cee4:	cbec9097          	auipc	ra,0xcbec9
    cee8:	e5315197          	auipc	gp,0xe5315
    ceec:	6d66a097          	auipc	ra,0x6d66a
    cef0:	00210333          	add	t1,sp,sp
    cef4:	1eab0097          	auipc	ra,0x1eab0
    cef8:	00137133          	and	sp,t1,ra
    cefc:	0060f133          	and	sp,ra,t1
    cf00:	1681e193          	ori	gp,gp,360
    cf04:	001162b3          	or	t0,sp,ra
    cf08:	009370b3          	and	ra,t1,s1
    cf0c:	1677c593          	xori	a1,a5,359
    cf10:	2d39d117          	auipc	sp,0x2d39d
    cf14:	40f102b3          	sub	t0,sp,a5
    cf18:	6f54a197          	auipc	gp,0x6f54a
    cf1c:	acb1d097          	auipc	ra,0xacb1d
    cf20:	00b171b3          	and	gp,sp,a1
    cf24:	6880f093          	andi	ra,ra,1672
    cf28:	f6eea337          	lui	t1,0xf6eea
    cf2c:	eba99337          	lui	t1,0xeba99
    cf30:	000180b3          	add	ra,gp,zero
    cf34:	002171b3          	and	gp,sp,sp
    cf38:	a77d4397          	auipc	t2,0xa77d4
    cf3c:	8c46f0b7          	lui	ra,0x8c46f
    cf40:	9e278193          	addi	gp,a5,-1566 # 0x25e8a9e2
    cf44:	f6d80097          	auipc	ra,0xf6d80
    cf48:	b9416193          	ori	gp,sp,-1132
    cf4c:	01214133          	xor	sp,sp,s2
    cf50:	38218263          	beq	gp,sp,0xd2d4
    cf54:	3800016f          	jal	sp,0xd2d4
    cf58:	0071c133          	xor	sp,gp,t2
    cf5c:	000160b3          	or	ra,sp,zero
    cf60:	ac92a317          	auipc	t1,0xac92a
    cf64:	e6777197          	auipc	gp,0xe6777
    cf68:	ae5ac197          	auipc	gp,0xae5ac
    cf6c:	c3b80717          	auipc	a4,0xc3b80
    cf70:	0060e133          	or	sp,ra,t1
    cf74:	71b16193          	ori	gp,sp,1819
    cf78:	402e81b3          	sub	gp,t4,sp
    cf7c:	8438a0b7          	lui	ra,0x8438a
    cf80:	05916117          	auipc	sp,0x5916
    cf84:	81c9c117          	auipc	sp,0x81c9c
    cf88:	df3dd197          	auipc	gp,0xdf3dd
    cf8c:	6bb1e193          	ori	gp,gp,1723
    cf90:	ba2a6097          	auipc	ra,0xba2a6
    cf94:	2090e013          	ori	zero,ra,521
    cf98:	97994137          	lui	sp,0x97994
    cf9c:	36d0e393          	ori	t2,ra,877
    cfa0:	3083e197          	auipc	gp,0x3083e
    cfa4:	07169137          	lui	sp,0x7169
    cfa8:	d2f4a137          	lui	sp,0xd2f4a
    cfac:	8c86c1b7          	lui	gp,0x8c86c
    cfb0:	a35bb397          	auipc	t2,0xa35bb
    cfb4:	f103a097          	auipc	ra,0xf103a
    cfb8:	00136133          	or	sp,t1,ra
    cfbc:	00334133          	xor	sp,t1,gp
    cfc0:	f90a1117          	auipc	sp,0xf90a1
    cfc4:	faf9b217          	auipc	tp,0xfaf9b
    cfc8:	d2a3d297          	auipc	t0,0xd2a3d
    cfcc:	a1416193          	ori	gp,sp,-1516
    cfd0:	0022f0b3          	and	ra,t0,sp
    cfd4:	002300b3          	add	ra,t1,sp
    cfd8:	db58c313          	xori	t1,a7,-587
    cfdc:	a06530b7          	lui	ra,0xa0653
    cfe0:	00614033          	xor	zero,sp,t1
    cfe4:	00010c93          	mv	s9,sp
    cfe8:	ee2c8ee3          	beq	s9,sp,0xcee4
    cfec:	002000b3          	add	ra,zero,sp
    cff0:	2404d197          	auipc	gp,0x2404d
    cff4:	00038133          	add	sp,t2,zero
    cff8:	b725b217          	auipc	tp,0xb725b
    cffc:	e8b1c013          	xori	zero,gp,-373
    d000:	003306b3          	add	a3,t1,gp
    d004:	5c91c197          	auipc	gp,0x5c91c
    d008:	74d1e093          	ori	ra,gp,1869
    d00c:	5cbd3137          	lui	sp,0x5cbd3
    d010:	9ca241b7          	lui	gp,0x9ca24
    d014:	00327133          	and	sp,tp,gp
    d018:	32118093          	addi	ra,gp,801 # 0xffffffff9ca24321
    d01c:	e0164017          	auipc	zero,0xe0164
    d020:	89a49137          	lui	sp,0x89a49
    d024:	26c9b1b7          	lui	gp,0x26c9b
    d028:	e8808113          	addi	sp,ra,-376 # 0xffffffffa0652e88
    d02c:	00210333          	add	t1,sp,sp
    d030:	0df0e093          	ori	ra,ra,223
    d034:	88e1c313          	xori	t1,gp,-1906
    d038:	0020c0b3          	xor	ra,ra,sp
    d03c:	36f231b7          	lui	gp,0x36f23
    d040:	002141b3          	xor	gp,sp,sp
    d044:	0035f0b3          	and	ra,a1,gp
    d048:	c2353217          	auipc	tp,0xc2353
    d04c:	376cc217          	auipc	tp,0x376cc
    d050:	63d82137          	lui	sp,0x63d82
    d054:	fb5b00b7          	lui	ra,0xfb5b0
    d058:	fd683117          	auipc	sp,0xfd683
    d05c:	01b0c333          	xor	t1,ra,s11
    d060:	ca4ce097          	auipc	ra,0xca4ce
    d064:	8511f013          	andi	zero,gp,-1967
    d068:	327ac117          	auipc	sp,0x327ac
    d06c:	6eda7117          	auipc	sp,0x6eda7
    d070:	f4d58093          	addi	ra,a1,-179 # 0x1a8c4f4d
    d074:	555c9017          	auipc	zero,0x555c9
    d078:	2215c0b7          	lui	ra,0x2215c
    d07c:	8abd00b7          	lui	ra,0x8abd0
    d080:	96110ce3          	beq	sp,ra,0xc9f8
    d084:	975ff16f          	jal	sp,0xc9f8
    d088:	a75532b7          	lui	t0,0xa7553
    d08c:	0013c0b3          	xor	ra,t2,ra
    d090:	00210133          	add	sp,sp,sp
    d094:	0001f133          	and	sp,gp,zero
    d098:	7b60c313          	xori	t1,ra,1974
    d09c:	403300b3          	sub	ra,t1,gp
    d0a0:	40608133          	sub	sp,ra,t1
    d0a4:	a2e3b217          	auipc	tp,0xa2e3b
    d0a8:	0001f1b3          	and	gp,gp,zero
    d0ac:	1e705097          	auipc	ra,0x1e705
    d0b0:	0010f3b3          	and	t2,ra,ra
    d0b4:	f0217093          	andi	ra,sp,-254
    d0b8:	0000f1b3          	and	gp,ra,zero
    d0bc:	ead04193          	xori	gp,zero,-339
    d0c0:	d21341b7          	lui	gp,0xd2134
    d0c4:	0021cfb3          	xor	t6,gp,sp
    d0c8:	a0817217          	auipc	tp,0xa0817
    d0cc:	003141b3          	xor	gp,sp,gp
    d0d0:	e5394717          	auipc	a4,0xe5394
    d0d4:	402109b3          	sub	s3,sp,sp
    d0d8:	39a1c193          	xori	gp,gp,922
    d0dc:	bca27113          	andi	sp,tp,-1078
    d0e0:	0021e4b3          	or	s1,gp,sp
    d0e4:	a980a137          	lui	sp,0xa980a
    d0e8:	0b614193          	xori	gp,sp,182
    d0ec:	6aa77317          	auipc	t1,0x6aa77
    d0f0:	402100b3          	sub	ra,sp,sp
    d0f4:	0020e0b3          	or	ra,ra,sp
    d0f8:	c301e393          	ori	t2,gp,-976
    d0fc:	003160b3          	or	ra,sp,gp
    d100:	31115097          	auipc	ra,0x31115
    d104:	e432e1b7          	lui	gp,0xe432e
    d108:	249990b7          	lui	ra,0x24999
    d10c:	01c180b3          	add	ra,gp,t3
    d110:	ba1f0ae3          	beq	t5,ra,0xccc4
    d114:	bb1ff1ef          	jal	gp,0xccc4
    d118:	0071c733          	xor	a4,gp,t2
    d11c:	3cdcf197          	auipc	gp,0x3cdcf
    d120:	a4d06137          	lui	sp,0xa4d06
    d124:	29b14193          	xori	gp,sp,667
    d128:	00d18133          	add	sp,gp,a3
    d12c:	001ff0b3          	and	ra,t6,ra
    d130:	402280b3          	sub	ra,t0,sp
    d134:	a7c08793          	addi	a5,ra,-1412 # 0x24998a7c
    d138:	7690fbb7          	lui	s7,0x7690f
    d13c:	0c03f313          	andi	t1,t2,192
    d140:	ace1f137          	lui	sp,0xace1f
    d144:	f870a117          	auipc	sp,0xf870a
    d148:	36e14413          	xori	s0,sp,878
    d14c:	29806093          	ori	ra,zero,664
    d150:	001280b3          	add	ra,t0,ra
    d154:	0021e133          	or	sp,gp,sp
    d158:	40418133          	sub	sp,gp,tp
    d15c:	0033c3b3          	xor	t2,t2,gp
    d160:	b94411b7          	lui	gp,0xb9441
    d164:	57348e37          	lui	t3,0x57348
    d168:	785d41b7          	lui	gp,0x785d4
    d16c:	ce414093          	xori	ra,sp,-796
    d170:	0b730117          	auipc	sp,0xb730
    d174:	e6a71117          	auipc	sp,0xe6a71
    d178:	85578237          	lui	tp,0x85578
    d17c:	003101b3          	add	gp,sp,gp
    d180:	73a350b7          	lui	ra,0x73a35
    d184:	00004133          	xor	sp,zero,zero
    d188:	4784e193          	ori	gp,s1,1144
    d18c:	bf917213          	andi	tp,sp,-1031
    d190:	0021e5b3          	or	a1,gp,sp
    d194:	401103b3          	sub	t2,sp,ra
    d198:	006171b3          	and	gp,sp,t1
    d19c:	97a3c293          	xori	t0,t2,-1670
    d1a0:	f7504213          	xori	tp,zero,-139
    d1a4:	00010313          	mv	t1,sp
    d1a8:	e42302e3          	beq	t1,sp,0xcfec
    d1ac:	7d9a3137          	lui	sp,0x7d9a3
    d1b0:	0071f133          	and	sp,gp,t2
    d1b4:	d9bc26b7          	lui	a3,0xd9bc2
    d1b8:	95c291b7          	lui	gp,0x95c29
    d1bc:	0051f0b3          	and	ra,gp,t0
    d1c0:	ba64b1b7          	lui	gp,0xba64b
    d1c4:	16410093          	addi	ra,sp,356 # 0x7d9a3164
    d1c8:	ff0aa097          	auipc	ra,0xff0aa
    d1cc:	87936193          	ori	gp,t1,-1927
    d1d0:	7800f193          	andi	gp,ra,1920
    d1d4:	55058097          	auipc	ra,0x55058
    d1d8:	eb51f293          	andi	t0,gp,-331
    d1dc:	00416233          	or	tp,sp,tp
    d1e0:	9c100393          	li	t2,-1599
    d1e4:	3bf27517          	auipc	a0,0x3bf27
    d1e8:	01d04033          	xor	zero,zero,t4
    d1ec:	3c014093          	xori	ra,sp,960
    d1f0:	b6d0e813          	ori	a6,ra,-1171
    d1f4:	a72881b7          	lui	gp,0xa7288
    d1f8:	b8100113          	li	sp,-1151
    d1fc:	0002e1b3          	or	gp,t0,zero
    d200:	dc2c9197          	auipc	gp,0xdc2c9
    d204:	000180b3          	add	ra,gp,zero
    d208:	00108833          	add	a6,ra,ra
    d20c:	92810113          	addi	sp,sp,-1752
    d210:	dc216493          	ori	s1,sp,-574
    d214:	003141b3          	xor	gp,sp,gp
    d218:	672150b7          	lui	ra,0x67215
    d21c:	40008133          	sub	sp,ra,zero
    d220:	60f11097          	auipc	ra,0x60f11
    d224:	38a10197          	auipc	gp,0x38a10
    d228:	0030c133          	xor	sp,ra,gp
    d22c:	6e997113          	andi	sp,s2,1769
    d230:	ed40c193          	xori	gp,ra,-300
    d234:	26bdc2b7          	lui	t0,0x26bdc
    d238:	00228263          	beq	t0,sp,0xd23c
    d23c:	f34ff1ef          	jal	gp,0xc970
    d240:	997d3237          	lui	tp,0x997d3
    d244:	d3777297          	auipc	t0,0xd3777
    d248:	2f9921b7          	lui	gp,0x2f992
    d24c:	19d55597          	auipc	a1,0x19d55
    d250:	ce92e193          	ori	gp,t0,-791
    d254:	280c5137          	lui	sp,0x280c5
    d258:	30a34193          	xori	gp,t1,778
    d25c:	6d10b117          	auipc	sp,0x6d10b
    d260:	40538233          	sub	tp,t2,t0
    d264:	bf4c10b7          	lui	ra,0xbf4c1
    d268:	dc80b1b7          	lui	gp,0xdc80b
    d26c:	047502b7          	lui	t0,0x4750
    d270:	057921b7          	lui	gp,0x5792
    d274:	5f5dd317          	auipc	t1,0x5f5dd
    d278:	402101b3          	sub	gp,sp,sp
    d27c:	80218313          	addi	t1,gp,-2046 # 0x5791802
    d280:	002281b3          	add	gp,t0,sp
    d284:	39173017          	auipc	zero,0x39173
    d288:	ac808093          	addi	ra,ra,-1336 # 0xffffffffbf4c0ac8
    d28c:	401100b3          	sub	ra,sp,ra
    d290:	f0912b17          	auipc	s6,0xf0912
    d294:	401101b3          	sub	gp,sp,ra
    d298:	acd4f197          	auipc	gp,0xacd4f
    d29c:	00214233          	xor	tp,sp,sp
    d2a0:	c9adff97          	auipc	t6,0xc9adf
    d2a4:	0ed1c393          	xori	t2,gp,237
    d2a8:	ca30e237          	lui	tp,0xca30e
    d2ac:	f4818013          	addi	zero,gp,-184 # 0xffffffffacd5c1e0
    d2b0:	d8dfc017          	auipc	zero,0xd8dfc
    d2b4:	00230133          	add	sp,t1,sp
    d2b8:	5d028137          	lui	sp,0x5d028
    d2bc:	0020f1b3          	and	gp,ra,sp
    d2c0:	b8bd1397          	auipc	t2,0xb8bd1
    d2c4:	1a19d097          	auipc	ra,0x1a19d
    d2c8:	00307133          	and	sp,zero,gp
    d2cc:	00000793          	li	a5,0
    d2d0:	960786e3          	beqz	a5,0xcc3c
    d2d4:	fed5c037          	lui	zero,0xfed5c
    d2d8:	0021c0b3          	xor	ra,gp,sp
    d2dc:	bda1c093          	xori	ra,gp,-1062
    d2e0:	89c1e213          	ori	tp,gp,-1892
    d2e4:	d73f70b7          	lui	ra,0xd73f7
    d2e8:	f8923237          	lui	tp,0xf8923
    d2ec:	ed81e193          	ori	gp,gp,-296
    d2f0:	e6956797          	auipc	a5,0xe6956
    d2f4:	2eb1d097          	auipc	ra,0x2eb1d
    d2f8:	00314333          	xor	t1,sp,gp
    d2fc:	007160b3          	or	ra,sp,t2
    d300:	ca717013          	andi	zero,sp,-857
    d304:	40817393          	andi	t2,sp,1032
    d308:	2d5811b7          	lui	gp,0x2d581
    d30c:	41608133          	sub	sp,ra,s6
    d310:	00807113          	andi	sp,zero,8
    d314:	cdfb7917          	auipc	s2,0xcdfb7
    d318:	d23c41b7          	lui	gp,0xd23c4
    d31c:	66681097          	auipc	ra,0x66681
    d320:	492f6013          	ori	zero,t5,1170
    d324:	019301b7          	lui	gp,0x1930
    d328:	f3a34137          	lui	sp,0xf3a34
    d32c:	a8c08393          	addi	t2,ra,-1396 # 0x6668dda8
    d330:	a6e43117          	auipc	sp,0xa6e43
    d334:	2a034213          	xori	tp,t1,672
    d338:	db880297          	auipc	t0,0xdb880
    d33c:	c58262b7          	lui	t0,0xc5826
    d340:	0000f1b3          	and	gp,ra,zero
    d344:	835eb1b7          	lui	gp,0x835eb
    d348:	2bb7c093          	xori	ra,a5,699
    d34c:	6510c113          	xori	sp,ra,1617
    d350:	a1d084e3          	beq	ra,t4,0xcd58
    d354:	a05ff1ef          	jal	gp,0xcd58
    d358:	761ab0b7          	lui	ra,0x761ab
    d35c:	77fa5137          	lui	sp,0x77fa5
    d360:	09c791b7          	lui	gp,0x9c79
    d364:	8dd10f93          	addi	t6,sp,-1827 # 0x77fa48dd
    d368:	017980b7          	lui	ra,0x1798
    d36c:	0022c0b3          	xor	ra,t0,sp
    d370:	f9683197          	auipc	gp,0xf9683
    d374:	0bb753b7          	lui	t2,0xbb75
    d378:	b8b16913          	ori	s2,sp,-1141
    d37c:	e0a0f213          	andi	tp,ra,-502
    d380:	33610297          	auipc	t0,0x33610
    d384:	8d14c113          	xori	sp,s1,-1839
    d388:	402181b3          	sub	gp,gp,sp
    d38c:	b541f093          	andi	ra,gp,-1196
    d390:	f2666137          	lui	sp,0xf2666
    d394:	7c770117          	auipc	sp,0x7c770
    d398:	dbb7a217          	auipc	tp,0xdbb7a
    d39c:	401081b3          	sub	gp,ra,ra
    d3a0:	4e037213          	andi	tp,t1,1248
    d3a4:	56c0e793          	ori	a5,ra,1388
    d3a8:	0010f0b3          	and	ra,ra,ra
    d3ac:	d0a0e013          	ori	zero,ra,-758
    d3b0:	8d154137          	lui	sp,0x8d154
    d3b4:	90e37093          	andi	ra,t1,-1778
    d3b8:	8a7881b7          	lui	gp,0x8a788
    d3bc:	e1c1c093          	xori	ra,gp,-484
    d3c0:	d38716b7          	lui	a3,0xd3871
    d3c4:	00706233          	or	tp,zero,t2
    d3c8:	68ffe237          	lui	tp,0x68ffe
    d3cc:	0001f133          	and	sp,gp,zero
    d3d0:	2922f193          	andi	gp,t0,658
    d3d4:	fce47093          	andi	ra,s0,-50
    d3d8:	001100b3          	add	ra,sp,ra
    d3dc:	12708463          	beq	ra,t2,0xd504
    d3e0:	124001ef          	jal	gp,0xd504
    d3e4:	30c3f113          	andi	sp,t2,780
    d3e8:	30013117          	auipc	sp,0x30013
    d3ec:	0163f1b3          	and	gp,t2,s6
    d3f0:	fca03397          	auipc	t2,0xfca03
    d3f4:	00106133          	or	sp,zero,ra
    d3f8:	1f017493          	andi	s1,sp,496
    d3fc:	aac41137          	lui	sp,0xaac41
    d400:	24508113          	addi	sp,ra,581 # 0x1798245
    d404:	8f108113          	addi	sp,ra,-1807
    d408:	28ce3117          	auipc	sp,0x28ce3
    d40c:	60d0e197          	auipc	gp,0x60d0e
    d410:	0020f033          	and	zero,ra,sp
    d414:	401304b3          	sub	s1,t1,ra
    d418:	2f70f113          	andi	sp,ra,759
    d41c:	6018c313          	xori	t1,a7,1537
    d420:	e32e4017          	auipc	zero,0xe32e4
    d424:	483ca097          	auipc	ra,0x483ca
    d428:	2a114093          	xori	ra,sp,673
    d42c:	00227133          	and	sp,tp,sp
    d430:	0020c3b3          	xor	t2,ra,sp
    d434:	000382b3          	add	t0,t2,zero
    d438:	2f1861b7          	lui	gp,0x2f186
    d43c:	a9cc8117          	auipc	sp,0xa9cc8
    d440:	0033c133          	xor	sp,t2,gp
    d444:	b5316113          	ori	sp,sp,-1197
    d448:	8e09b037          	lui	zero,0x8e09b
    d44c:	591fc0b7          	lui	ra,0x591fc
    d450:	00704133          	xor	sp,zero,t2
    d454:	66af0117          	auipc	sp,0x66af0
    d458:	eff4a0b7          	lui	ra,0xeff4a
    d45c:	0d9f6117          	auipc	sp,0xd9f6
    d460:	92437117          	auipc	sp,0x92437
    d464:	9c169197          	auipc	gp,0x9c169
    d468:	009140b3          	xor	ra,sp,s1
    d46c:	00018213          	mv	tp,gp
    d470:	7e320263          	beq	tp,gp,0xdc54
    d474:	611d36b7          	lui	a3,0x611d3
    d478:	64bb2237          	lui	tp,0x64bb2
    d47c:	bd108193          	addi	gp,ra,-1071 # 0xffffffffeff49bd1
    d480:	8cebc037          	lui	zero,0x8cebc
    d484:	f6868317          	auipc	t1,0xf6868
    d488:	000183b3          	add	t2,gp,zero
    d48c:	00130333          	add	t1,t1,ra
    d490:	127d95b7          	lui	a1,0x127d9
    d494:	585bf337          	lui	t1,0x585bf
    d498:	76610193          	addi	gp,sp,1894 # 0xffffffff92444bc6
    d49c:	d1bce0b7          	lui	ra,0xd1bce
    d4a0:	1bd0f513          	andi	a0,ra,445
    d4a4:	00208133          	add	sp,ra,sp
    d4a8:	578230b7          	lui	ra,0x57823
    d4ac:	9ecea217          	auipc	tp,0x9ecea
    d4b0:	d031f313          	andi	t1,gp,-765
    d4b4:	2fe10113          	addi	sp,sp,766
    d4b8:	6ed9e017          	auipc	zero,0x6ed9e
    d4bc:	71599117          	auipc	sp,0x71599
    d4c0:	6303b337          	lui	t1,0x6303b
    d4c4:	2432d197          	auipc	gp,0x2432d
    d4c8:	6bbd81b7          	lui	gp,0x6bbd8
    d4cc:	baf14093          	xori	ra,sp,-1105
    d4d0:	daee3197          	auipc	gp,0xdaee3
    d4d4:	fc45e137          	lui	sp,0xfc45e
    d4d8:	7df6f297          	auipc	t0,0x7df6f
    d4dc:	3eccf1b7          	lui	gp,0x3eccf
    d4e0:	90a901b7          	lui	gp,0x90a90
    d4e4:	d681a0b7          	lui	ra,0xd681a
    d4e8:	001080b3          	add	ra,ra,ra
    d4ec:	344ea017          	auipc	zero,0x344ea
    d4f0:	0010f1b3          	and	gp,ra,ra
    d4f4:	40f0c113          	xori	sp,ra,1039
    d4f8:	00627133          	and	sp,tp,t1
    d4fc:	00008093          	mv	ra,ra
    d500:	12108863          	beq	ra,ra,0xd630
    d504:	b60f0137          	lui	sp,0xb60f0
    d508:	baa16193          	ori	gp,sp,-1110
    d50c:	4610f593          	andi	a1,ra,1121
    d510:	c2c2c113          	xori	sp,t0,-980
    d514:	070c3337          	lui	t1,0x70c3
    d518:	edf1e293          	ori	t0,gp,-289
    d51c:	84e11137          	lui	sp,0x84e11
    d520:	da8ec117          	auipc	sp,0xda8ec
    d524:	12887f17          	auipc	t5,0x12887
    d528:	97e580b7          	lui	ra,0x97e58
    d52c:	7131c213          	xori	tp,gp,1811
    d530:	87129137          	lui	sp,0x87129
    d534:	56f48193          	addi	gp,s1,1391 # 0x26c4b56f
    d538:	001c0133          	add	sp,s8,ra
    d53c:	23ab8137          	lui	sp,0x23ab8
    d540:	0010f233          	and	tp,ra,ra
    d544:	8663e093          	ori	ra,t2,-1946
    d548:	3aaec317          	auipc	t1,0x3aaec
    d54c:	ac11f093          	andi	ra,gp,-1343
    d550:	20d98137          	lui	sp,0x20d98
    d554:	1f0b4197          	auipc	gp,0x1f0b4
    d558:	6316c737          	lui	a4,0x6316c
    d55c:	c2e5a097          	auipc	ra,0xc2e5a
    d560:	00317833          	and	a6,sp,gp
    d564:	b1810013          	addi	zero,sp,-1256 # 0x20d97b18
    d568:	2add9217          	auipc	tp,0x2add9
    d56c:	a8d541b7          	lui	gp,0xa8d54
    d570:	82111117          	auipc	sp,0x82111
    d574:	40208333          	sub	t1,ra,sp
    d578:	401181b3          	sub	gp,gp,ra
    d57c:	401102b3          	sub	t0,sp,ra
    d580:	933d3117          	auipc	sp,0x933d3
    d584:	402300b3          	sub	ra,t1,sp
    d588:	f4100093          	li	ra,-191
    d58c:	00008113          	mv	sp,ra
    d590:	ee1102e3          	beq	sp,ra,0xd474
    d594:	06c2c093          	xori	ra,t0,108
    d598:	003a70b3          	and	ra,s4,gp
    d59c:	3c62e197          	auipc	gp,0x3c62e
    d5a0:	7157e0b7          	lui	ra,0x7157e
    d5a4:	093d8137          	lui	sp,0x93d8
    d5a8:	003161b3          	or	gp,sp,gp
    d5ac:	10c401b7          	lui	gp,0x10c40
    d5b0:	0010e533          	or	a0,ra,ra
    d5b4:	d0218f13          	addi	t5,gp,-766 # 0x10c3fd02
    d5b8:	a4b30197          	auipc	gp,0xa4b30
    d5bc:	0006e1b3          	or	gp,a3,zero
    d5c0:	0020e1b3          	or	gp,ra,sp
    d5c4:	f6458197          	auipc	gp,0xf6458
    d5c8:	953fc113          	xori	sp,t6,-1709
    d5cc:	f8b1c193          	xori	gp,gp,-117
    d5d0:	7021d1b7          	lui	gp,0x7021d
    d5d4:	97974237          	lui	tp,0x97974
    d5d8:	0010e2b3          	or	t0,ra,ra
    d5dc:	05537193          	andi	gp,t1,85
    d5e0:	0021c4b3          	xor	s1,gp,sp
    d5e4:	30e7b037          	lui	zero,0x30e7b
    d5e8:	56751097          	auipc	ra,0x56751
    d5ec:	fee82117          	auipc	sp,0xfee82
    d5f0:	381f70b7          	lui	ra,0x381f7
    d5f4:	6b081197          	auipc	gp,0x6b081
    d5f8:	5d21a097          	auipc	ra,0x5d21a
    d5fc:	6ae08013          	addi	zero,ra,1710 # 0x5d227ca6
    d600:	0ed293b7          	lui	t2,0xed29
    d604:	cc155397          	auipc	t2,0xcc155
    d608:	a780f193          	andi	gp,ra,-1416
    d60c:	ae070137          	lui	sp,0xae070
    d610:	87154197          	auipc	gp,0x87154
    d614:	000243b3          	xor	t2,tp,zero
    d618:	7ebdf193          	andi	gp,s11,2027
    d61c:	2cdb6097          	auipc	ra,0x2cdb6
    d620:	ff017213          	andi	tp,sp,-16
    d624:	846a8037          	lui	zero,0x846a8
    d628:	00000097          	auipc	ra,0x0
    d62c:	134081e7          	jalr	gp,308(ra) # 0xd75c
    d630:	c0388097          	auipc	ra,0xc0388
    d634:	b70e6193          	ori	gp,t3,-1168
    d638:	4375b197          	auipc	gp,0x4375b
    d63c:	0020e0b3          	or	ra,ra,sp
    d640:	001100b3          	add	ra,sp,ra
    d644:	0011e0b3          	or	ra,gp,ra
    d648:	3f2d7097          	auipc	ra,0x3f2d7
    d64c:	0060e133          	or	sp,ra,t1
    d650:	63c41797          	auipc	a5,0x63c41
    d654:	0e2b11b7          	lui	gp,0xe2b1
    d658:	9e9e0117          	auipc	sp,0x9e9e0
    d65c:	6bc8b2b7          	lui	t0,0x6bc8b
    d660:	0052f133          	and	sp,t0,t0
    d664:	40128133          	sub	sp,t0,ra
    d668:	618db097          	auipc	ra,0x618db
    d66c:	001160b3          	or	ra,sp,ra
    d670:	77460097          	auipc	ra,0x77460
    d674:	005360b3          	or	ra,t1,t0
    d678:	9f2c6137          	lui	sp,0x9f2c6
    d67c:	3e36d1b7          	lui	gp,0x3e36d
    d680:	40108033          	sub	zero,ra,ra
    d684:	39f1e113          	ori	sp,gp,927
    d688:	20314393          	xori	t2,sp,515
    d68c:	00934633          	xor	a2,t1,s1
    d690:	8a026913          	ori	s2,tp,-1888
    d694:	0011f1b3          	and	gp,gp,ra
    d698:	98a00113          	li	sp,-1654
    d69c:	c9929097          	auipc	ra,0xc9929
    d6a0:	a970e117          	auipc	sp,0xa970e
    d6a4:	c47d4137          	lui	sp,0xc47d4
    d6a8:	cfa17693          	andi	a3,sp,-774
    d6ac:	fdf13137          	lui	sp,0xfdf13
    d6b0:	35e4b497          	auipc	s1,0x35e4b
    d6b4:	77121117          	auipc	sp,0x77121
    d6b8:	734f64b7          	lui	s1,0x734f6
    d6bc:	9e7350b7          	lui	ra,0x9e735
    d6c0:	50130263          	beq	t1,ra,0xdbc4
    d6c4:	500000ef          	jal	ra,0xdbc4
    d6c8:	f56960b7          	lui	ra,0xf5696
    d6cc:	40308133          	sub	sp,ra,gp
    d6d0:	0031f033          	and	zero,gp,gp
    d6d4:	794db1b7          	lui	gp,0x794db
    d6d8:	5ad65297          	auipc	t0,0x5ad65
    d6dc:	00214133          	xor	sp,sp,sp
    d6e0:	30d6f137          	lui	sp,0x30d6f
    d6e4:	40600133          	neg	sp,t1
    d6e8:	ba2061b7          	lui	gp,0xba206
    d6ec:	fef36013          	ori	zero,t1,-17
    d6f0:	a8554197          	auipc	gp,0xa8554
    d6f4:	7eb17113          	andi	sp,sp,2027
    d6f8:	0012c1b3          	xor	gp,t0,ra
    d6fc:	b3678197          	auipc	gp,0xb3678
    d700:	002160b3          	or	ra,sp,sp
    d704:	4233b0b7          	lui	ra,0x4233b
    d708:	cab16137          	lui	sp,0xcab16
    d70c:	d1820137          	lui	sp,0xd1820
    d710:	0a4c4097          	auipc	ra,0xa4c4
    d714:	9ae0e193          	ori	gp,ra,-1618
    d718:	49c271b7          	lui	gp,0x49c27
    d71c:	7b65f117          	auipc	sp,0x7b65f
    d720:	e5b980b7          	lui	ra,0xe5b98
    d724:	ae817f13          	andi	t5,sp,-1304
    d728:	9ea2e717          	auipc	a4,0x9ea2e
    d72c:	3e709197          	auipc	gp,0x3e709
    d730:	002081b3          	add	gp,ra,sp
    d734:	8bfc4193          	xori	gp,s8,-1857
    d738:	bb52f013          	andi	zero,t0,-1099
    d73c:	04388037          	lui	zero,0x4388
    d740:	00137133          	and	sp,t1,ra
    d744:	009e70b3          	and	ra,t3,s1
    d748:	b8d18397          	auipc	t2,0xb8d18
    d74c:	40368133          	sub	sp,a3,gp
    d750:	52a14193          	xori	gp,sp,1322
    d754:	00018113          	mv	sp,gp
    d758:	58310463          	beq	sp,gp,0xdce0
    d75c:	667f4117          	auipc	sp,0x667f4
    d760:	001141b3          	xor	gp,sp,ra
    d764:	b3e6c317          	auipc	t1,0xb3e6c
    d768:	0031f233          	and	tp,gp,gp
    d76c:	c8f4b137          	lui	sp,0xc8f4b
    d770:	4cdd72b7          	lui	t0,0x4cdd7
    d774:	5144bcb7          	lui	s9,0x5144b
    d778:	0f000193          	li	gp,240
    d77c:	02fbf697          	auipc	a3,0x2fbf
    d780:	02508193          	addi	gp,ra,37 # 0xffffffffe5b98025
    d784:	46d17193          	andi	gp,sp,1133
    d788:	788e2097          	auipc	ra,0x788e2
    d78c:	ae6e51b7          	lui	gp,0xae6e5
    d790:	cc49c0b7          	lui	ra,0xcc49c
    d794:	5f3250b7          	lui	ra,0x5f325
    d798:	0010f5b3          	and	a1,ra,ra
    d79c:	74771197          	auipc	gp,0x74771
    d7a0:	ae9c51b7          	lui	gp,0xae9c5
    d7a4:	3140f093          	andi	ra,ra,788
    d7a8:	c35cd137          	lui	sp,0xc35cd
    d7ac:	72d0c0b7          	lui	ra,0x72d0c
    d7b0:	12e330b7          	lui	ra,0x12e33
    d7b4:	c0837093          	andi	ra,t1,-1016
    d7b8:	273791b7          	lui	gp,0x27379
    d7bc:	8ce26017          	auipc	zero,0x8ce26
    d7c0:	403082b3          	sub	t0,ra,gp
    d7c4:	d9c08313          	addi	t1,ra,-612 # 0x12e32d9c
    d7c8:	2d834293          	xori	t0,t1,728
    d7cc:	0011f1b3          	and	gp,gp,ra
    d7d0:	00000117          	auipc	sp,0x0
    d7d4:	00810167          	jalr	sp,8(sp) # 0xd7d8
    d7d8:	e46e91b7          	lui	gp,0xe46e9
    d7dc:	eae10093          	addi	ra,sp,-338
    d7e0:	2cc1c693          	xori	a3,gp,716
    d7e4:	003182b3          	add	t0,gp,gp
    d7e8:	480cc0b7          	lui	ra,0x480cc
    d7ec:	1a94e193          	ori	gp,s1,425
    d7f0:	5d127193          	andi	gp,tp,1489
    d7f4:	25daa1b7          	lui	gp,0x25daa
    d7f8:	001162b3          	or	t0,sp,ra
    d7fc:	05ff5037          	lui	zero,0x5ff5
    d800:	c3a18217          	auipc	tp,0xc3a18
    d804:	003180b3          	add	ra,gp,gp
    d808:	75a66137          	lui	sp,0x75a66
    d80c:	e38201b7          	lui	gp,0xe3820
    d810:	78e14193          	xori	gp,sp,1934
    d814:	63cb6097          	auipc	ra,0x63cb6
    d818:	2aec0137          	lui	sp,0x2aec0
    d81c:	73be20b7          	lui	ra,0x73be2
    d820:	2f314693          	xori	a3,sp,755
    d824:	b8608113          	addi	sp,ra,-1146 # 0x73be1b86
    d828:	0010f0b3          	and	ra,ra,ra
    d82c:	35414837          	lui	a6,0x35414
    d830:	0030f133          	and	sp,ra,gp
    d834:	6c9151b7          	lui	gp,0x6c915
    d838:	003cc0b3          	xor	ra,s9,gp
    d83c:	404081b3          	sub	gp,ra,tp
    d840:	d90870b7          	lui	ra,0xd9087
    d844:	cb033197          	auipc	gp,0xcb033
    d848:	1eb14193          	xori	gp,sp,491
    d84c:	0000c133          	xor	sp,ra,zero
    d850:	9c742237          	lui	tp,0x9c742
    d854:	67314093          	xori	ra,sp,1651
    d858:	85dd70b7          	lui	ra,0x85dd7
    d85c:	38ce2117          	auipc	sp,0x38ce2
    d860:	01327233          	and	tp,tp,s3
    d864:	00000097          	auipc	ra,0x0
    d868:	13808167          	jalr	sp,312(ra) # 0xd99c
    d86c:	ca9d0137          	lui	sp,0xca9d0
    d870:	8530c113          	xori	sp,ra,-1965
    d874:	2f617113          	andi	sp,sp,758
    d878:	b8515337          	lui	t1,0xb8515
    d87c:	00608133          	add	sp,ra,t1
    d880:	f4445117          	auipc	sp,0xf4445
    d884:	97408113          	addi	sp,ra,-1676
    d888:	b87323b7          	lui	t2,0xb8732
    d88c:	e19d9037          	lui	zero,0xe19d9
    d890:	e941e193          	ori	gp,gp,-364
    d894:	6a9fc117          	auipc	sp,0x6a9fc
    d898:	0011c233          	xor	tp,gp,ra
    d89c:	00114333          	xor	t1,sp,ra
    d8a0:	00110333          	add	t1,sp,ra
    d8a4:	40008333          	sub	t1,ra,zero
    d8a8:	893df7b7          	lui	a5,0x893df
    d8ac:	000146b3          	xor	a3,sp,zero
    d8b0:	9e406193          	ori	gp,zero,-1564
    d8b4:	0016f133          	and	sp,a3,ra
    d8b8:	e9dce137          	lui	sp,0xe9dce
    d8bc:	f7ae41b7          	lui	gp,0xf7ae4
    d8c0:	95ea8237          	lui	tp,0x95ea8
    d8c4:	1d10e193          	ori	gp,ra,465
    d8c8:	10876097          	auipc	ra,0x10876
    d8cc:	7901f1b7          	lui	gp,0x7901f
    d8d0:	93120313          	addi	t1,tp,-1743 # 0xffffffff95ea7931
    d8d4:	cbf10093          	addi	ra,sp,-833 # 0xffffffffe9dcdcbf
    d8d8:	54d18213          	addi	tp,gp,1357 # 0x7901f54d
    d8dc:	cbab0097          	auipc	ra,0xcbab0
    d8e0:	0031f3b3          	and	t2,gp,gp
    d8e4:	5c017393          	andi	t2,sp,1472
    d8e8:	ce518113          	addi	sp,gp,-795
    d8ec:	40110033          	sub	zero,sp,ra
    d8f0:	3e578313          	addi	t1,a5,997 # 0xffffffff893df3e5
    d8f4:	08a95237          	lui	tp,0x8a95
    d8f8:	000067b3          	or	a5,zero,zero
    d8fc:	ed09d1b7          	lui	gp,0xed09d
    d900:	c48541b7          	lui	gp,0xc4854
    d904:	46130a63          	beq	t1,ra,0xdd78
    d908:	4700026f          	jal	tp,0xdd78
    d90c:	e4018213          	addi	tp,gp,-448 # 0xffffffffc4853e40
    d910:	55f63117          	auipc	sp,0x55f63
    d914:	41f383b3          	sub	t2,t2,t6
    d918:	e91fa137          	lui	sp,0xe91fa
    d91c:	43329037          	lui	zero,0x43329
    d920:	51ce2117          	auipc	sp,0x51ce2
    d924:	832022b7          	lui	t0,0x83202
    d928:	c54f41b7          	lui	gp,0xc54f4
    d92c:	00110d33          	add	s10,sp,ra
    d930:	3042c393          	xori	t2,t0,772
    d934:	d74fe0b7          	lui	ra,0xd74fe
    d938:	00434033          	xor	zero,t1,tp
    d93c:	00304133          	xor	sp,zero,gp
    d940:	a30b60b7          	lui	ra,0xa30b6
    d944:	401002b3          	neg	t0,ra
    d948:	003161b3          	or	gp,sp,gp
    d94c:	cd96b117          	auipc	sp,0xcd96b
    d950:	6237c0b7          	lui	ra,0x6237c
    d954:	0020c0b3          	xor	ra,ra,sp
    d958:	40308133          	sub	sp,ra,gp
    d95c:	9fd5b037          	lui	zero,0x9fd5b
    d960:	6dcbd097          	auipc	ra,0x6dcbd
    d964:	0012f1b3          	and	gp,t0,ra
    d968:	da588217          	auipc	tp,0xda588
    d96c:	c1c7f1b7          	lui	gp,0xc1c7f
    d970:	03820113          	addi	sp,tp,56 # 0xffffffffda5959a0
    d974:	4972e117          	auipc	sp,0x4972e
    d978:	a6758193          	addi	gp,a1,-1433 # 0x127d8a67
    d97c:	7b757197          	auipc	gp,0x7b757
    d980:	fe818113          	addi	sp,gp,-24 # 0x7b764964
    d984:	0ca10113          	addi	sp,sp,202 # 0x4973ba3e
    d988:	1e230313          	addi	t1,t1,482 # 0xffffffffb85151e2
    d98c:	fff08197          	auipc	gp,0xfff08
    d990:	b1524113          	xori	sp,tp,-1259
    d994:	0a710263          	beq	sp,t2,0xda38
    d998:	0a0000ef          	jal	ra,0xda38
    d99c:	0051c933          	xor	s2,gp,t0
    d9a0:	003087b3          	add	a5,ra,gp
    d9a4:	57710193          	addi	gp,sp,1399
    d9a8:	3353c193          	xori	gp,t2,821
    d9ac:	406181b3          	sub	gp,gp,t1
    d9b0:	94966137          	lui	sp,0x94966
    d9b4:	14996297          	auipc	t0,0x14996
    d9b8:	adb9c137          	lui	sp,0xadb9c
    d9bc:	a3dba137          	lui	sp,0xa3dba
    d9c0:	0e2b3137          	lui	sp,0xe2b3
    d9c4:	d211e113          	ori	sp,gp,-735
    d9c8:	3d104017          	auipc	zero,0x3d104
    d9cc:	30120193          	addi	gp,tp,769 # 0x301
    d9d0:	41210393          	addi	t2,sp,1042 # 0xe2b3412
    d9d4:	3850f093          	andi	ra,ra,901
    d9d8:	e6239197          	auipc	gp,0xe6239
    d9dc:	14508293          	addi	t0,ra,325 # 0x6dccaaa5
    d9e0:	4a24a097          	auipc	ra,0x4a24a
    d9e4:	001140b3          	xor	ra,sp,ra
    d9e8:	002b60b3          	or	ra,s6,sp
    d9ec:	0030c133          	xor	sp,ra,gp
    d9f0:	ad914113          	xori	sp,sp,-1319
    d9f4:	402000b3          	neg	ra,sp
    d9f8:	194670b7          	lui	ra,0x19467
    d9fc:	4c18b197          	auipc	gp,0x4c18b
    da00:	4d9c7097          	auipc	ra,0x4d9c7
    da04:	e77d9117          	auipc	sp,0xe77d9
    da08:	0060f1b3          	and	gp,ra,t1
    da0c:	3910c693          	xori	a3,ra,913
    da10:	28453317          	auipc	t1,0x28453
    da14:	002100b3          	add	ra,sp,sp
    da18:	55a9d097          	auipc	ra,0x55a9d
    da1c:	81e0f393          	andi	t2,ra,-2018
    da20:	0020e1b3          	or	gp,ra,sp
    da24:	ee2520b7          	lui	ra,0xee252
    da28:	7e108293          	addi	t0,ra,2017 # 0xffffffffee2527e1
    da2c:	5fd7c097          	auipc	ra,0x5fd7c
    da30:	00000397          	auipc	t2,0x0
    da34:	3c438167          	jalr	sp,964(t2) # 0xddf4
    da38:	c942e693          	ori	a3,t0,-876
    da3c:	03914093          	xori	ra,sp,57
    da40:	5b92e1b7          	lui	gp,0x5b92e
    da44:	e044fd97          	auipc	s11,0xe044f
    da48:	00128333          	add	t1,t0,ra
    da4c:	324941b7          	lui	gp,0x32494
    da50:	91f41297          	auipc	t0,0x91f41
    da54:	ea6e3197          	auipc	gp,0xea6e3
    da58:	8b3de1b7          	lui	gp,0x8b3de
    da5c:	6f918193          	addi	gp,gp,1785 # 0xffffffff8b3de6f9
    da60:	34b04093          	xori	ra,zero,843
    da64:	c951c113          	xori	sp,gp,-875
    da68:	1e70f137          	lui	sp,0x1e70f
    da6c:	003580b3          	add	ra,a1,gp
    da70:	003180b3          	add	ra,gp,gp
    da74:	cbda1117          	auipc	sp,0xcbda1
    da78:	017281b3          	add	gp,t0,s7
    da7c:	c1008093          	addi	ra,ra,-1008 # 0x5fd8963c
    da80:	1542e037          	lui	zero,0x1542e
    da84:	002280b3          	add	ra,t0,sp
    da88:	6e7f2097          	auipc	ra,0x6e7f2
    da8c:	40318133          	sub	sp,gp,gp
    da90:	dd1fd137          	lui	sp,0xdd1fd
    da94:	d2618193          	addi	gp,gp,-730
    da98:	00148133          	add	sp,s1,ra
    da9c:	21b0f617          	auipc	a2,0x21b0f
    daa0:	e57f5197          	auipc	gp,0xe57f5
    daa4:	00317133          	and	sp,sp,gp
    daa8:	00130133          	add	sp,t1,ra
    daac:	311bc093          	xori	ra,s7,785
    dab0:	003102b3          	add	t0,sp,gp
    dab4:	00000217          	auipc	tp,0x0
    dab8:	00820167          	jalr	sp,8(tp) # 0x0
    dabc:	79b16093          	ori	ra,sp,1947
    dac0:	be514097          	auipc	ra,0xbe514
    dac4:	1f155137          	lui	sp,0x1f155
    dac8:	782ae097          	auipc	ra,0x782ae
    dacc:	0501e093          	ori	ra,gp,80
    dad0:	00f3c133          	xor	sp,t2,a5
    dad4:	0021e2b3          	or	t0,gp,sp
    dad8:	b9390113          	addi	sp,s2,-1133 # 0xffffffffcdfc3ea7
    dadc:	002166b3          	or	a3,sp,sp
    dae0:	8721c237          	lui	tp,0x8721c
    dae4:	0b917093          	andi	ra,sp,185
    dae8:	e03dd097          	auipc	ra,0xe03dd
    daec:	00388333          	add	t1,a7,gp
    daf0:	00134333          	xor	t1,t1,ra
    daf4:	fbf5e137          	lui	sp,0xfbf5e
    daf8:	e7c1c0b7          	lui	ra,0xe7c1c
    dafc:	403180b3          	sub	ra,gp,gp
    db00:	b8f0a017          	auipc	zero,0xb8f0a
    db04:	f5b36113          	ori	sp,t1,-165
    db08:	75220193          	addi	gp,tp,1874 # 0xffffffff8721c752
    db0c:	272b01b7          	lui	gp,0x272b0
    db10:	66e0c093          	xori	ra,ra,1646
    db14:	0051f1b3          	and	gp,gp,t0
    db18:	69308793          	addi	a5,ra,1683 # 0xffffffffe7c1c693
    db1c:	22d5b1b7          	lui	gp,0x22d5b
    db20:	a560c313          	xori	t1,ra,-1450
    db24:	401081b3          	sub	gp,ra,ra
    db28:	826188e3          	beq	gp,t1,0xd358
    db2c:	82dff16f          	jal	sp,0xd358
    db30:	404180b3          	sub	ra,gp,tp
    db34:	d4b3e9b7          	lui	s3,0xd4b3e
    db38:	0a810193          	addi	gp,sp,168 # 0xfffffffffbf5e0a8
    db3c:	cf6fe137          	lui	sp,0xcf6fe
    db40:	0030e1b3          	or	gp,ra,gp
    db44:	00034133          	xor	sp,t1,zero
    db48:	2cf0f193          	andi	gp,ra,719
    db4c:	2ba0d397          	auipc	t2,0x2ba0d
    db50:	a9eb9197          	auipc	gp,0xa9eb9
    db54:	d867d297          	auipc	t0,0xd867d
    db58:	004df133          	and	sp,s11,tp
    db5c:	27d0e1b7          	lui	gp,0x27d0e
    db60:	afec00b7          	lui	ra,0xafec0
    db64:	88503097          	auipc	ra,0x88503
    db68:	0050c3b3          	xor	t2,ra,t0
    db6c:	b8b33137          	lui	sp,0xb8b33
    db70:	6c391097          	auipc	ra,0x6c391
    db74:	d05bf197          	auipc	gp,0xd05bf
    db78:	0030e133          	or	sp,ra,gp
    db7c:	002071b3          	and	gp,zero,sp
    db80:	65e2c213          	xori	tp,t0,1630
    db84:	0fac52b7          	lui	t0,0xfac5
    db88:	eb40c193          	xori	gp,ra,-332
    db8c:	271f5117          	auipc	sp,0x271f5
    db90:	54b8b137          	lui	sp,0x54b8b
    db94:	0f610313          	addi	t1,sp,246 # 0x54b8b0f6
    db98:	e6c14093          	xori	ra,sp,-404
    db9c:	a4cca1b7          	lui	gp,0xa4cca
    dba0:	20116113          	ori	sp,sp,513
    dba4:	59b90197          	auipc	gp,0x59b90
    dba8:	b7f95097          	auipc	ra,0xb7f95
    dbac:	dadfba37          	lui	s4,0xdadfb
    dbb0:	b2f1f113          	andi	sp,gp,-1233
    dbb4:	7151c113          	xori	sp,gp,1813
    dbb8:	00110333          	add	t1,sp,ra
    dbbc:	00028113          	mv	sp,t0
    dbc0:	ca5106e3          	beq	sp,t0,0xd86c
    dbc4:	d7108313          	addi	t1,ra,-655 # 0xffffffffb7fa2919
    dbc8:	b3cb10b7          	lui	ra,0xb3cb1
    dbcc:	2be14093          	xori	ra,sp,702
    dbd0:	2bb170b7          	lui	ra,0x2bb17
    dbd4:	0eca90b7          	lui	ra,0xeca9
    dbd8:	d038e137          	lui	sp,0xd038e
    dbdc:	401100b3          	sub	ra,sp,ra
    dbe0:	0031c133          	xor	sp,gp,gp
    dbe4:	4af85097          	auipc	ra,0x4af85
    dbe8:	8402e313          	ori	t1,t0,-1984
    dbec:	98742317          	auipc	t1,0x98742
    dbf0:	14f3f113          	andi	sp,t2,335
    dbf4:	0011e3b3          	or	t2,gp,ra
    dbf8:	9a70e193          	ori	gp,ra,-1625
    dbfc:	ac6d3117          	auipc	sp,0xac6d3
    dc00:	341e96b7          	lui	a3,0x341e9
    dc04:	48d28117          	auipc	sp,0x48d28
    dc08:	0061e6b3          	or	a3,gp,t1
    dc0c:	b2bb7197          	auipc	gp,0xb2bb7
    dc10:	dd60e093          	ori	ra,ra,-554
    dc14:	bb61cd13          	xori	s10,gp,-1098
    dc18:	39c18193          	addi	gp,gp,924 # 0xffffffffb2bc4fa8
    dc1c:	0020f033          	and	zero,ra,sp
    dc20:	fcb97197          	auipc	gp,0xfcb97
    dc24:	1c8c1117          	auipc	sp,0x1c8c1
    dc28:	0dc95197          	auipc	gp,0xdc95
    dc2c:	6e01cf13          	xori	t5,gp,1760
    dc30:	ff9ac237          	lui	tp,0xff9ac
    dc34:	003081b3          	add	gp,ra,gp
    dc38:	40018233          	sub	tp,gp,zero
    dc3c:	412cc117          	auipc	sp,0x412cc
    dc40:	70c0f193          	andi	gp,ra,1804
    dc44:	2d21e193          	ori	gp,gp,722
    dc48:	5147e4b7          	lui	s1,0x5147e
    dc4c:	00008093          	mv	ra,ra
    dc50:	ee1080e3          	beq	ra,ra,0xdb30
    dc54:	61336193          	ori	gp,t1,1555
    dc58:	018163b3          	or	t2,sp,s8
    dc5c:	7dba3397          	auipc	t2,0x7dba3
    dc60:	d9b0f113          	andi	sp,ra,-613
    dc64:	002170b3          	and	ra,sp,sp
    dc68:	0030f0b3          	and	ra,ra,gp
    dc6c:	df569337          	lui	t1,0xdf569
    dc70:	00228033          	add	zero,t0,sp
    dc74:	9f3740b7          	lui	ra,0x9f374
    dc78:	49f0f013          	andi	zero,ra,1183
    dc7c:	48b10393          	addi	t2,sp,1163 # 0x412da0c7
    dc80:	6d710593          	addi	a1,sp,1751
    dc84:	da60c193          	xori	gp,ra,-602
    dc88:	29678197          	auipc	gp,0x29678
    dc8c:	dac1c193          	xori	gp,gp,-596
    dc90:	83534597          	auipc	a1,0x83534
    dc94:	00d14033          	xor	zero,sp,a3
    dc98:	54517113          	andi	sp,sp,1349
    dc9c:	dc6a6137          	lui	sp,0xdc6a6
    dca0:	c3568217          	auipc	tp,0xc3568
    dca4:	61b64137          	lui	sp,0x61b64
    dca8:	133d41b7          	lui	gp,0x133d4
    dcac:	0010c133          	xor	sp,ra,ra
    dcb0:	4dd7e337          	lui	t1,0x4dd7e
    dcb4:	f9306997          	auipc	s3,0xf9306
    dcb8:	9dfd6237          	lui	tp,0x9dfd6
    dcbc:	80b1e117          	auipc	sp,0x80b1e
    dcc0:	00516133          	or	sp,sp,t0
    dcc4:	5f03d0b7          	lui	ra,0x5f03d
    dcc8:	9811e093          	ori	ra,gp,-1663
    dccc:	f93a0117          	auipc	sp,0xf93a0
    dcd0:	01018133          	add	sp,gp,a6
    dcd4:	0032e0b3          	or	ra,t0,gp
    dcd8:	52208263          	beq	ra,sp,0xe1fc
    dcdc:	5200006f          	j	0xe1fc
    dce0:	3ff69397          	auipc	t2,0x3ff69
    dce4:	010361b3          	or	gp,t1,a6
    dce8:	0050f1b3          	and	gp,ra,t0
    dcec:	005160b3          	or	ra,sp,t0
    dcf0:	02fa7217          	auipc	tp,0x2fa7
    dcf4:	c6e5e1b7          	lui	gp,0xc6e5e
    dcf8:	401180b3          	sub	ra,gp,ra
    dcfc:	23446093          	ori	ra,s0,564
    dd00:	a2b68117          	auipc	sp,0xa2b68
    dd04:	0f6d00b7          	lui	ra,0xf6d0
    dd08:	f5708113          	addi	sp,ra,-169 # 0xf6cff57
    dd0c:	fc1ed2b7          	lui	t0,0xfc1ed
    dd10:	424860b7          	lui	ra,0x42486
    dd14:	e63e4193          	xori	gp,t3,-413
    dd18:	448a2197          	auipc	gp,0x448a2
    dd1c:	f86800b7          	lui	ra,0xf8680
    dd20:	dbaeb197          	auipc	gp,0xdbaeb
    dd24:	0030c133          	xor	sp,ra,gp
    dd28:	d23b97b7          	lui	a5,0xd23b9
    dd2c:	00334133          	xor	sp,t1,gp
    dd30:	919e0217          	auipc	tp,0x919e0
    dd34:	2f2283b7          	lui	t2,0x2f228
    dd38:	81628193          	addi	gp,t0,-2026 # 0xfffffffffc1ec816
    dd3c:	392a6137          	lui	sp,0x392a6
    dd40:	0013e133          	or	sp,t2,ra
    dd44:	26845337          	lui	t1,0x26845
    dd48:	003180b3          	add	ra,gp,gp
    dd4c:	036e33b7          	lui	t2,0x36e3
    dd50:	dda07193          	andi	gp,zero,-550
    dd54:	725ac097          	auipc	ra,0x725ac
    dd58:	3fe3b197          	auipc	gp,0x3fe3b
    dd5c:	003687b3          	add	a5,a3,gp
    dd60:	c4114137          	lui	sp,0xc4114
    dd64:	bf9460b7          	lui	ra,0xbf946
    dd68:	402007b3          	neg	a5,sp
    dd6c:	f3052117          	auipc	sp,0xf3052
    dd70:	00018093          	mv	ra,gp
    dd74:	823080e3          	beq	ra,gp,0xd594
    dd78:	20c20193          	addi	gp,tp,524 # 0xffffffff919edf3c
    dd7c:	0033e0b3          	or	ra,t2,gp
    dd80:	22a7f117          	auipc	sp,0x22a7f
    dd84:	f49d1137          	lui	sp,0xf49d1
    dd88:	fab4e197          	auipc	gp,0xfab4e
    dd8c:	e81b5197          	auipc	gp,0xe81b5
    dd90:	e6f51117          	auipc	sp,0xe6f51
    dd94:	5c53c393          	xori	t2,t2,1477
    dd98:	01c1e133          	or	sp,gp,t3
    dd9c:	001e73b3          	and	t2,t3,ra
    dda0:	03072237          	lui	tp,0x3072
    dda4:	0030f0b3          	and	ra,ra,gp
    dda8:	40246137          	lui	sp,0x40246
    ddac:	80d9c137          	lui	sp,0x80d9c
    ddb0:	ef71c297          	auipc	t0,0xef71c
    ddb4:	3761e293          	ori	t0,gp,886
    ddb8:	b19b1117          	auipc	sp,0xb19b1
    ddbc:	0d036093          	ori	ra,t1,208
    ddc0:	6300f193          	andi	gp,ra,1584
    ddc4:	00214133          	xor	sp,sp,sp
    ddc8:	1c537113          	andi	sp,t1,453
    ddcc:	caecb097          	auipc	ra,0xcaecb
    ddd0:	64b66137          	lui	sp,0x64b66
    ddd4:	48cd4117          	auipc	sp,0x48cd4
    ddd8:	a8a960b7          	lui	ra,0xa8a96
    dddc:	84292137          	lui	sp,0x84292
    dde0:	003281b3          	add	gp,t0,gp
    dde4:	5eb37317          	auipc	t1,0x5eb37
    dde8:	eea0a0b7          	lui	ra,0xeea0a
    ddec:	8c008ee3          	beqz	ra,0xd6c8
    ddf0:	8d9ff3ef          	jal	t2,0xd6c8
    ddf4:	d368b0b7          	lui	ra,0xd368b
    ddf8:	b0af3297          	auipc	t0,0xb0af3
    ddfc:	ac51c113          	xori	sp,gp,-1339
    de00:	1820c093          	xori	ra,ra,386
    de04:	bfcc1197          	auipc	gp,0xbfcc1
    de08:	02610213          	addi	tp,sp,38 # 0xffffffff84292026
    de0c:	002100b3          	add	ra,sp,sp
    de10:	ba1202b7          	lui	t0,0xba120
    de14:	4527d697          	auipc	a3,0x4527d
    de18:	35117093          	andi	ra,sp,849
    de1c:	0010f133          	and	sp,ra,ra
    de20:	3fb16093          	ori	ra,sp,1019
    de24:	8441c113          	xori	sp,gp,-1980
    de28:	edaaa1b7          	lui	gp,0xedaaa
    de2c:	f4bcd1b7          	lui	gp,0xf4bcd
    de30:	002080b3          	add	ra,ra,sp
    de34:	1bb84317          	auipc	t1,0x1bb84
    de38:	403103b3          	sub	t2,sp,gp
    de3c:	ae3970b7          	lui	ra,0xae397
    de40:	1e514193          	xori	gp,sp,485
    de44:	83fd7117          	auipc	sp,0x83fd7
    de48:	6b92e093          	ori	ra,t0,1721
    de4c:	003de1b3          	or	gp,s11,gp
    de50:	004140b3          	xor	ra,sp,tp
    de54:	746ef097          	auipc	ra,0x746ef
    de58:	5750e193          	ori	gp,ra,1397
    de5c:	96506113          	ori	sp,zero,-1691
    de60:	e0d973b7          	lui	t2,0xe0d97
    de64:	0030f333          	and	t1,ra,gp
    de68:	0021e1b3          	or	gp,gp,sp
    de6c:	400101b3          	sub	gp,sp,zero
    de70:	9066a197          	auipc	gp,0x9066a
    de74:	fbc9c137          	lui	sp,0xfbc9c
    de78:	d3c06193          	ori	gp,zero,-708
    de7c:	002080b3          	add	ra,ra,sp
    de80:	3671c293          	xori	t0,gp,871
    de84:	002083b3          	add	t2,ra,sp
    de88:	00618263          	beq	gp,t1,0xde8c
    de8c:	d58ff1ef          	jal	gp,0xd3e4
    de90:	289cb017          	auipc	zero,0x289cb
    de94:	00138133          	add	sp,t2,ra
    de98:	00218133          	add	sp,gp,sp
    de9c:	00616133          	or	sp,sp,t1
    dea0:	3784d3b7          	lui	t2,0x3784d
    dea4:	4fd17113          	andi	sp,sp,1277
    dea8:	0034c133          	xor	sp,s1,gp
    deac:	559c3197          	auipc	gp,0x559c3
    deb0:	78aec097          	auipc	ra,0x78aec
    deb4:	0041e133          	or	sp,gp,tp
    deb8:	bccf4297          	auipc	t0,0xbccf4
    debc:	304fa597          	auipc	a1,0x304fa
    dec0:	0000e0b3          	or	ra,ra,zero
    dec4:	403100b3          	sub	ra,sp,gp
    dec8:	72a060b7          	lui	ra,0x72a06
    decc:	2b8f7117          	auipc	sp,0x2b8f7
    ded0:	13016193          	ori	gp,sp,304
    ded4:	4fb08093          	addi	ra,ra,1275 # 0x72a064fb
    ded8:	72590137          	lui	sp,0x72590
    dedc:	a6b95637          	lui	a2,0xa6b95
    dee0:	7da92097          	auipc	ra,0x7da92
    dee4:	54204097          	auipc	ra,0x54204
    dee8:	3bcd0197          	auipc	gp,0x3bcd0
    deec:	0010c133          	xor	sp,ra,ra
    def0:	24f82117          	auipc	sp,0x24f82
    def4:	0020f233          	and	tp,ra,sp
    def8:	2a318317          	auipc	t1,0x2a318
    defc:	c97a10b7          	lui	ra,0xc97a1
    df00:	6974b1b7          	lui	gp,0x6974b
    df04:	0021f3b3          	and	t2,gp,sp
    df08:	c2f63337          	lui	t1,0xc2f63
    df0c:	a855f093          	andi	ra,a1,-1403
    df10:	00330233          	add	tp,t1,gp
    df14:	8b8fc917          	auipc	s2,0x8b8fc
    df18:	5cac5097          	auipc	ra,0x5cac5
    df1c:	568bd117          	auipc	sp,0x568bd
    df20:	00308263          	beq	ra,gp,0xdf24
    df24:	2010016f          	jal	sp,0xe924
    df28:	68508113          	addi	sp,ra,1669 # 0x5cad359d
    df2c:	9c3f6137          	lui	sp,0x9c3f6
    df30:	83bf1217          	auipc	tp,0x83bf1
    df34:	a18ae197          	auipc	gp,0xa18ae
    df38:	00236133          	or	sp,t1,sp
    df3c:	ff204313          	xori	t1,zero,-14
    df40:	b0e34113          	xori	sp,t1,-1266
    df44:	74ac1317          	auipc	t1,0x74ac1
    df48:	49fe2117          	auipc	sp,0x49fe2
    df4c:	d66c9137          	lui	sp,0xd66c9
    df50:	e92184b7          	lui	s1,0xe9218
    df54:	fe500113          	li	sp,-27
    df58:	0031e233          	or	tp,gp,gp
    df5c:	403300b3          	sub	ra,t1,gp
    df60:	8bad61b7          	lui	gp,0x8bad6
    df64:	2b046117          	auipc	sp,0x2b046
    df68:	ee36d037          	lui	zero,0xee36d
    df6c:	a9df9197          	auipc	gp,0xa9df9
    df70:	778ba197          	auipc	gp,0x778ba
    df74:	cb408117          	auipc	sp,0xcb408
    df78:	ca7721b7          	lui	gp,0xca772
    df7c:	484f3097          	auipc	ra,0x484f3
    df80:	78039097          	auipc	ra,0x78039
    df84:	00a99137          	lui	sp,0xa99
    df88:	a9ddf097          	auipc	ra,0xa9ddf
    df8c:	f6020137          	lui	sp,0xf6020
    df90:	369c2337          	lui	t1,0x369c2
    df94:	f9ca91b7          	lui	gp,0xf9ca9
    df98:	249ff1b7          	lui	gp,0x249ff
    df9c:	4e0721b7          	lui	gp,0x4e072
    dfa0:	36b16193          	ori	gp,sp,875
    dfa4:	00130263          	beq	t1,ra,0xdfa8
    dfa8:	7350016f          	jal	sp,0xeedc
    dfac:	b33bf113          	andi	sp,s7,-1229
    dfb0:	61cfd117          	auipc	sp,0x61cfd
    dfb4:	40208fb3          	sub	t6,ra,sp
    dfb8:	12528317          	auipc	t1,0x12528
    dfbc:	2993c037          	lui	zero,0x2993c
    dfc0:	003081b3          	add	gp,ra,gp
    dfc4:	00317033          	and	zero,sp,gp
    dfc8:	7520f193          	andi	gp,ra,1874
    dfcc:	d0215137          	lui	sp,0xd0215
    dfd0:	97af7197          	auipc	gp,0x97af7
    dfd4:	64697137          	lui	sp,0x64697
    dfd8:	bb3f2137          	lui	sp,0xbb3f2
    dfdc:	79f20193          	addi	gp,tp,1951 # 0xffffffff83bff6cf
    dfe0:	002163b3          	or	t2,sp,sp
    dfe4:	00510133          	add	sp,sp,t0
    dfe8:	c6528093          	addi	ra,t0,-923 # 0xffffffffbcd01b1d
    dfec:	ac6fc3b7          	lui	t2,0xac6fc
    dff0:	002181b3          	add	gp,gp,sp
    dff4:	402b00b3          	sub	ra,s6,sp
    dff8:	6dac0317          	auipc	t1,0x6dac0
    dffc:	6d834113          	xori	sp,t1,1752
    e000:	a3d4c097          	auipc	ra,0xa3d4c
    e004:	6c769197          	auipc	gp,0x6c769
    e008:	b541e093          	ori	ra,gp,-1196
    e00c:	0052c2b3          	xor	t0,t0,t0
    e010:	5e0731b7          	lui	gp,0x5e073
    e014:	006200b3          	add	ra,tp,t1
    e018:	e8308093          	addi	ra,ra,-381 # 0xffffffffa3d59e83
    e01c:	f100e293          	ori	t0,ra,-240
    e020:	2903f113          	andi	sp,t2,656
    e024:	3af17113          	andi	sp,sp,943
    e028:	dc95c1b7          	lui	gp,0xdc95c
    e02c:	3df4c197          	auipc	gp,0x3df4c
    e030:	3c1f0237          	lui	tp,0x3c1f0
    e034:	000281b3          	add	gp,t0,zero
    e038:	00618263          	beq	gp,t1,0xe03c
    e03c:	059000ef          	jal	ra,0xe894
    e040:	4a470097          	auipc	ra,0x4a470
    e044:	006140b3          	xor	ra,sp,t1
    e048:	9cd89137          	lui	sp,0x9cd89
    e04c:	56d18113          	addi	sp,gp,1389 # 0x3df5a599
    e050:	0d10d197          	auipc	gp,0xd10d
    e054:	ef4d2137          	lui	sp,0xef4d2
    e058:	1bdfc1b7          	lui	gp,0x1bdfc
    e05c:	0021e033          	or	zero,gp,sp
    e060:	0031f1b3          	and	gp,gp,gp
    e064:	be043417          	auipc	s0,0xbe043
    e068:	fd406193          	ori	gp,zero,-44
    e06c:	0011fc33          	and	s8,gp,ra
    e070:	0051f133          	and	sp,gp,t0
    e074:	002170b3          	and	ra,sp,sp
    e078:	a9732317          	auipc	t1,0xa9732
    e07c:	003001b3          	add	gp,zero,gp
    e080:	0b4601b7          	lui	gp,0xb460
    e084:	3fd28093          	addi	ra,t0,1021
    e088:	cb3d80b7          	lui	ra,0xcb3d8
    e08c:	000081b3          	add	gp,ra,zero
    e090:	002161b3          	or	gp,sp,sp
    e094:	82e85097          	auipc	ra,0x82e85
    e098:	c46b4217          	auipc	tp,0xc46b4
    e09c:	001a01b3          	add	gp,s4,ra
    e0a0:	001160b3          	or	ra,sp,ra
    e0a4:	9cb16193          	ori	gp,sp,-1589
    e0a8:	7b83f1b7          	lui	gp,0x7b83f
    e0ac:	0020e0b3          	or	ra,ra,sp
    e0b0:	003175b3          	and	a1,sp,gp
    e0b4:	b101c193          	xori	gp,gp,-1264
    e0b8:	c0a710b7          	lui	ra,0xc0a71
    e0bc:	6aeee097          	auipc	ra,0x6aeee
    e0c0:	347e6137          	lui	sp,0x347e6
    e0c4:	75295097          	auipc	ra,0x75295
    e0c8:	00030793          	mv	a5,t1
    e0cc:	3e678c63          	beq	a5,t1,0xe4c4
    e0d0:	36ad8097          	auipc	ra,0x36ad8
    e0d4:	a138d097          	auipc	ra,0xa138d
    e0d8:	50116093          	ori	ra,sp,1281
    e0dc:	6c7ef0b7          	lui	ra,0x6c7ef
    e0e0:	305a5017          	auipc	zero,0x305a5
    e0e4:	8f90f213          	andi	tp,ra,-1799
    e0e8:	3fb38117          	auipc	sp,0x3fb38
    e0ec:	004001b3          	add	gp,zero,tp
    e0f0:	745ac1b7          	lui	gp,0x745ac
    e0f4:	11be2137          	lui	sp,0x11be2
    e0f8:	401101b3          	sub	gp,sp,ra
    e0fc:	75111097          	auipc	ra,0x75111
    e100:	00268133          	add	sp,a3,sp
    e104:	c7f530b7          	lui	ra,0xc7f53
    e108:	fa03d297          	auipc	t0,0xfa03d
    e10c:	83c80137          	lui	sp,0x83c80
    e110:	aca17093          	andi	ra,sp,-1334
    e114:	c9a741b7          	lui	gp,0xc9a74
    e118:	65ec50b7          	lui	ra,0x65ec5
    e11c:	0010e2b3          	or	t0,ra,ra
    e120:	90310193          	addi	gp,sp,-1789 # 0xffffffff83c7f903
    e124:	cd5400b7          	lui	ra,0xcd540
    e128:	d3e26117          	auipc	sp,0xd3e26
    e12c:	001281b3          	add	gp,t0,ra
    e130:	0a8e3117          	auipc	sp,0xa8e3
    e134:	003270b3          	and	ra,tp,gp
    e138:	7bc0e1b7          	lui	gp,0x7bc0e
    e13c:	00310133          	add	sp,sp,gp
    e140:	f433f093          	andi	ra,t2,-189
    e144:	01cf20b7          	lui	ra,0x1cf2
    e148:	dc708093          	addi	ra,ra,-569 # 0x1cf1dc7
    e14c:	ea570197          	auipc	gp,0xea570
    e150:	0986e197          	auipc	gp,0x986e
    e154:	004173b3          	and	t2,sp,tp
    e158:	9b1f1137          	lui	sp,0x9b1f1
    e15c:	c3106f37          	lui	t5,0xc3106
    e160:	7e387697          	auipc	a3,0x7e387
    e164:	f6008393          	addi	t2,ra,-160
    e168:	24208063          	beq	ra,sp,0xe3a8
    e16c:	23c002ef          	jal	t0,0xe3a8
    e170:	0010c133          	xor	sp,ra,ra
    e174:	84c47197          	auipc	gp,0x84c47
    e178:	0110e8b3          	or	a7,ra,a7
    e17c:	88d090b7          	lui	ra,0x88d09
    e180:	00317033          	and	zero,sp,gp
    e184:	a7f841b7          	lui	gp,0xa7f84
    e188:	26d10193          	addi	gp,sp,621 # 0xffffffff9b1f126d
    e18c:	b6f10093          	addi	ra,sp,-1169
    e190:	173733b7          	lui	t2,0x17373
    e194:	a100d0b7          	lui	ra,0xa100d
    e198:	459d3017          	auipc	zero,0x459d3
    e19c:	52186137          	lui	sp,0x52186
    e1a0:	0954e337          	lui	t1,0x954e
    e1a4:	00617033          	and	zero,sp,t1
    e1a8:	0050c333          	xor	t1,ra,t0
    e1ac:	8142c197          	auipc	gp,0x8142c
    e1b0:	0091e0b3          	or	ra,gp,s1
    e1b4:	4e6c8093          	addi	ra,s9,1254 # 0x5144b4e6
    e1b8:	08a6d1b7          	lui	gp,0x8a6d
    e1bc:	cfc2c117          	auipc	sp,0xcfc2c
    e1c0:	328f1197          	auipc	gp,0x328f1
    e1c4:	002140b3          	xor	ra,sp,sp
    e1c8:	9785f137          	lui	sp,0x9785f
    e1cc:	68531137          	lui	sp,0x68531
    e1d0:	8eee2097          	auipc	ra,0x8eee2
    e1d4:	f278d097          	auipc	ra,0xf278d
    e1d8:	1d86c1b7          	lui	gp,0x1d86c
    e1dc:	4b6f81b7          	lui	gp,0x4b6f8
    e1e0:	9be45097          	auipc	ra,0x9be45
    e1e4:	a7a66197          	auipc	gp,0xa7a66
    e1e8:	00418133          	add	sp,gp,tp
    e1ec:	be817193          	andi	gp,sp,-1048
    e1f0:	01376117          	auipc	sp,0x1376
    e1f4:	00030d93          	mv	s11,t1
    e1f8:	4e6d8863          	beq	s11,t1,0xe6e8
    e1fc:	00207133          	and	sp,zero,sp
    e200:	b7fab297          	auipc	t0,0xb7fab
    e204:	9c060197          	auipc	gp,0x9c060
    e208:	cfb3a237          	lui	tp,0xcfb3a
    e20c:	c0e7e1b7          	lui	gp,0xc0e7e
    e210:	99c16093          	ori	ra,sp,-1636
    e214:	5a11c113          	xori	sp,gp,1441
    e218:	81108193          	addi	gp,ra,-2031 # 0xffffffff9be529f1
    e21c:	5890c193          	xori	gp,ra,1417
    e220:	af210113          	addi	sp,sp,-1294 # 0x1383ce2
    e224:	1f9f63b7          	lui	t2,0x1f9f6
    e228:	0011e133          	or	sp,gp,ra
    e22c:	c49ca017          	auipc	zero,0xc49ca
    e230:	d0045197          	auipc	gp,0xd0045
    e234:	aebfe397          	auipc	t2,0xaebfe
    e238:	fa9ba197          	auipc	gp,0xfa9ba
    e23c:	00c280b3          	add	ra,t0,a2
    e240:	cfa7a1b7          	lui	gp,0xcfa7a
    e244:	ba4610b7          	lui	ra,0xba461
    e248:	dc3f6317          	auipc	t1,0xdc3f6
    e24c:	914503b7          	lui	t2,0x91450
    e250:	9de160b7          	lui	ra,0x9de16
    e254:	7e61b197          	auipc	gp,0x7e61b
    e258:	29314193          	xori	gp,sp,659
    e25c:	3add1197          	auipc	gp,0x3add1
    e260:	9ec0e193          	ori	gp,ra,-1556
    e264:	0ba0f193          	andi	gp,ra,186
    e268:	381fe113          	ori	sp,t6,897
    e26c:	14eb1097          	auipc	ra,0x14eb1
    e270:	e6bc9117          	auipc	sp,0xe6bc9
    e274:	64e18113          	addi	sp,gp,1614 # 0x3addf8aa
    e278:	00078093          	mv	ra,a5
    e27c:	1af08e63          	beq	ra,a5,0xe438
    e280:	66d11237          	lui	tp,0x66d11
    e284:	00318133          	add	sp,gp,gp
    e288:	001280b3          	add	ra,t0,ra
    e28c:	3b510013          	addi	zero,sp,949 # 0xffffffffe6bd7625
    e290:	aa8c9117          	auipc	sp,0xaa8c9
    e294:	4f901117          	auipc	sp,0x4f901
    e298:	0015e133          	or	sp,a1,ra
    e29c:	a44c14b7          	lui	s1,0xa44c1
    e2a0:	eb3c8393          	addi	t2,s9,-333
    e2a4:	1940c093          	xori	ra,ra,404
    e2a8:	002160b3          	or	ra,sp,sp
    e2ac:	15d2c313          	xori	t1,t0,349
    e2b0:	0030c1b3          	xor	gp,ra,gp
    e2b4:	1d05d197          	auipc	gp,0x1d05d
    e2b8:	00217eb3          	and	t4,sp,sp
    e2bc:	1fe140b7          	lui	ra,0x1fe14
    e2c0:	8b431197          	auipc	gp,0x8b431
    e2c4:	fc5e0317          	auipc	t1,0xfc5e0
    e2c8:	86065117          	auipc	sp,0x86065
    e2cc:	46edd237          	lui	tp,0x46edd
    e2d0:	7ae1e193          	ori	gp,gp,1966
    e2d4:	19dfe117          	auipc	sp,0x19dfe
    e2d8:	0901c293          	xori	t0,gp,144
    e2dc:	7bf10193          	addi	gp,sp,1983 # 0x19e0ca93
    e2e0:	a52c71b7          	lui	gp,0xa52c7
    e2e4:	00310133          	add	sp,sp,gp
    e2e8:	8302d397          	auipc	t2,0x8302d
    e2ec:	001201b3          	add	gp,tp,ra
    e2f0:	40110033          	sub	zero,sp,ra
    e2f4:	13408093          	addi	ra,ra,308 # 0x1fe14134
    e2f8:	a5bc8137          	lui	sp,0xa5bc8
    e2fc:	0021c1b3          	xor	gp,gp,sp
    e300:	003181b3          	add	gp,gp,gp
    e304:	21284097          	auipc	ra,0x21284
    e308:	dd452117          	auipc	sp,0xdd452
    e30c:	e61382e3          	beq	t2,ra,0xe170
    e310:	e61ff3ef          	jal	t2,0xe170
    e314:	0071f1b3          	and	gp,gp,t2
    e318:	0010e5b3          	or	a1,ra,ra
    e31c:	76843197          	auipc	gp,0x76843
    e320:	4ee48117          	auipc	sp,0x4ee48
    e324:	b33d55b7          	lui	a1,0xb33d5
    e328:	40208333          	sub	t1,ra,sp
    e32c:	f2cdc1b7          	lui	gp,0xf2cdc
    e330:	72a0a0b7          	lui	ra,0x72a0a
    e334:	bbb71137          	lui	sp,0xbbb71
    e338:	070b1317          	auipc	t1,0x70b1
    e33c:	402107b3          	sub	a5,sp,sp
    e340:	405681b3          	sub	gp,a3,t0
    e344:	b5a8c097          	auipc	ra,0xb5a8c
    e348:	00218133          	add	sp,gp,sp
    e34c:	26d17013          	andi	zero,sp,621
    e350:	57f1e317          	auipc	t1,0x57f1e
    e354:	16ea6417          	auipc	s0,0x16ea6
    e358:	4e9af097          	auipc	ra,0x4e9af
    e35c:	8a11f0b7          	lui	ra,0x8a11f
    e360:	414301b3          	sub	gp,t1,s4
    e364:	f6510193          	addi	gp,sp,-155 # 0xffffffffbbb70f65
    e368:	63970037          	lui	zero,0x63970
    e36c:	3e3d31b7          	lui	gp,0x3e3d3
    e370:	152b4117          	auipc	sp,0x152b4
    e374:	f5c28097          	auipc	ra,0xf5c28
    e378:	930df3b7          	lui	t2,0x930df
    e37c:	d901c793          	xori	a5,gp,-624
    e380:	2ed070b7          	lui	ra,0x2ed07
    e384:	0049f133          	and	sp,s3,tp
    e388:	34fb0797          	auipc	a5,0x34fb0
    e38c:	010ac137          	lui	sp,0x10ac
    e390:	20d73097          	auipc	ra,0x20d73
    e394:	f03110b7          	lui	ra,0xf0311
    e398:	c8c3f093          	andi	ra,t2,-884
    e39c:	000361b3          	or	gp,t1,zero
    e3a0:	ae2088e3          	beq	ra,sp,0xde90
    e3a4:	aedff0ef          	jal	ra,0xde90
    e3a8:	1cd11137          	lui	sp,0x1cd11
    e3ac:	c6652097          	auipc	ra,0xc6652
    e3b0:	f32f2117          	auipc	sp,0xf32f2
    e3b4:	c03592b7          	lui	t0,0xc0359
    e3b8:	f95d5017          	auipc	zero,0xf95d5
    e3bc:	40118233          	sub	tp,gp,ra
    e3c0:	0003c1b3          	xor	gp,t2,zero
    e3c4:	6ea2e0b7          	lui	ra,0x6ea2e
    e3c8:	00207f33          	and	t5,zero,sp
    e3cc:	d4d391b7          	lui	gp,0xd4d39
    e3d0:	479d4237          	lui	tp,0x479d4
    e3d4:	0041c3b3          	xor	t2,gp,tp
    e3d8:	fdf58297          	auipc	t0,0xfdf58
    e3dc:	f23c7217          	auipc	tp,0xf23c7
    e3e0:	6ab57337          	lui	t1,0x6ab57
    e3e4:	d8459197          	auipc	gp,0xd8459
    e3e8:	160793b7          	lui	t2,0x16079
    e3ec:	00110033          	add	zero,sp,ra
    e3f0:	401301b3          	sub	gp,t1,ra
    e3f4:	0020c0b3          	xor	ra,ra,sp
    e3f8:	40310133          	sub	sp,sp,gp
    e3fc:	0011c0b3          	xor	ra,gp,ra
    e400:	04a9e197          	auipc	gp,0x4a9e
    e404:	a684e1b7          	lui	gp,0xa684e
    e408:	ffa23137          	lui	sp,0xffa23
    e40c:	1f990197          	auipc	gp,0x1f990
    e410:	0979e137          	lui	sp,0x979e
    e414:	f0b17297          	auipc	t0,0xf0b17
    e418:	589940b7          	lui	ra,0x58994
    e41c:	53889137          	lui	sp,0x53889
    e420:	004140b3          	xor	ra,sp,tp
    e424:	cc768093          	addi	ra,a3,-825 # 0x7e394e27
    e428:	6250e593          	ori	a1,ra,1573
    e42c:	17f38193          	addi	gp,t2,383 # 0x1607917f
    e430:	00010193          	mv	gp,sp
    e434:	b6218ce3          	beq	gp,sp,0xdfac
    e438:	fafabab7          	lui	s5,0xfafab
    e43c:	b4aa5197          	auipc	gp,0xb4aa5
    e440:	0071c1b3          	xor	gp,gp,t2
    e444:	007372b3          	and	t0,t1,t2
    e448:	402181b3          	sub	gp,gp,sp
    e44c:	40118133          	sub	sp,gp,ra
    e450:	0033f1b3          	and	gp,t2,gp
    e454:	0011e0b3          	or	ra,gp,ra
    e458:	002d41b3          	xor	gp,s10,sp
    e45c:	403180b3          	sub	ra,gp,gp
    e460:	6873e113          	ori	sp,t2,1671
    e464:	a385d097          	auipc	ra,0xa385d
    e468:	c7bce217          	auipc	tp,0xc7bce
    e46c:	49727193          	andi	gp,tp,1175
    e470:	d0ddec93          	ori	s9,s11,-755
    e474:	479ae197          	auipc	gp,0x479ae
    e478:	fac190b7          	lui	ra,0xfac19
    e47c:	94638113          	addi	sp,t2,-1722
    e480:	2f882137          	lui	sp,0x2f882
    e484:	004271b3          	and	gp,tp,tp
    e488:	867c0217          	auipc	tp,0x867c0
    e48c:	e721d1b7          	lui	gp,0xe721d
    e490:	826ce0b7          	lui	ra,0x826ce
    e494:	a3376137          	lui	sp,0xa3376
    e498:	bea212b7          	lui	t0,0xbea21
    e49c:	a2f0c093          	xori	ra,ra,-1489
    e4a0:	71d26113          	ori	sp,tp,1821
    e4a4:	0001f4b3          	and	s1,gp,zero
    e4a8:	53292397          	auipc	t2,0x53292
    e4ac:	f1c5f097          	auipc	ra,0xf1c5f
    e4b0:	f5a08193          	addi	gp,ra,-166 # 0xfffffffff1c6d406
    e4b4:	7c5fd0b7          	lui	ra,0x7c5fd
    e4b8:	0b0f4137          	lui	sp,0xb0f4
    e4bc:	00000117          	auipc	sp,0x0
    e4c0:	1ac100e7          	jalr	428(sp) # 0xe668
    e4c4:	402080b3          	sub	ra,ra,sp
    e4c8:	0a11e013          	ori	zero,gp,161
    e4cc:	26749317          	auipc	t1,0x26749
    e4d0:	9352ddb7          	lui	s11,0x9352d
    e4d4:	cadd42b7          	lui	t0,0xcadd4
    e4d8:	b23ca117          	auipc	sp,0xb23ca
    e4dc:	401101b3          	sub	gp,sp,ra
    e4e0:	0030c1b3          	xor	gp,ra,gp
    e4e4:	66034113          	xori	sp,t1,1632
    e4e8:	3e833117          	auipc	sp,0x3e833
    e4ec:	5868a017          	auipc	zero,0x5868a
    e4f0:	7e7e30b7          	lui	ra,0x7e7e3
    e4f4:	403081b3          	sub	gp,ra,gp
    e4f8:	58f71117          	auipc	sp,0x58f71
    e4fc:	059363b7          	lui	t2,0x5936
    e500:	05b10093          	addi	ra,sp,91 # 0x58f7f553
    e504:	1811e093          	ori	ra,gp,385
    e508:	979df917          	auipc	s2,0x979df
    e50c:	9db04193          	xori	gp,zero,-1573
    e510:	40208133          	sub	sp,ra,sp
    e514:	ae3d8197          	auipc	gp,0xae3d8
    e518:	40310033          	sub	zero,sp,gp
    e51c:	25892097          	auipc	ra,0x25892
    e520:	ee693197          	auipc	gp,0xee693
    e524:	6bc16193          	ori	gp,sp,1724
    e528:	667951b7          	lui	gp,0x66795
    e52c:	f7835217          	auipc	tp,0xf7835
    e530:	e1f3e113          	ori	sp,t2,-481
    e534:	ed3bf117          	auipc	sp,0xed3bf
    e538:	002181b3          	add	gp,gp,sp
    e53c:	b8128ae3          	beq	t0,ra,0xe0d0
    e540:	b91ff1ef          	jal	gp,0xe0d0
    e544:	8c872317          	auipc	t1,0x8c872
    e548:	c34a2197          	auipc	gp,0xc34a2
    e54c:	f027c137          	lui	sp,0xf027c
    e550:	cc516013          	ori	zero,sp,-827
    e554:	fdadd497          	auipc	s1,0xfdadd
    e558:	4aefc197          	auipc	gp,0x4aefc
    e55c:	402180b3          	sub	ra,gp,sp
    e560:	0035f3b3          	and	t2,a1,gp
    e564:	e9e24093          	xori	ra,tp,-354
    e568:	a88e5337          	lui	t1,0xa88e5
    e56c:	404101b3          	sub	gp,sp,tp
    e570:	ce117193          	andi	gp,sp,-799
    e574:	ac4a3137          	lui	sp,0xac4a3
    e578:	0051e133          	or	sp,gp,t0
    e57c:	7d40f193          	andi	gp,ra,2004
    e580:	44620693          	addi	a3,tp,1094 # 0xfffffffff7843972
    e584:	12106f13          	ori	t5,zero,289
    e588:	7ac1f193          	andi	gp,gp,1964
    e58c:	0e8b16b7          	lui	a3,0xe8b1
    e590:	43a140b7          	lui	ra,0x43a14
    e594:	cbd10393          	addi	t2,sp,-835 # 0xffffffffac4a2cbd
    e598:	c0f24193          	xori	gp,tp,-1009
    e59c:	31b0c093          	xori	ra,ra,795
    e5a0:	006e81b3          	add	gp,t4,t1
    e5a4:	30e0e093          	ori	ra,ra,782
    e5a8:	0020c133          	xor	sp,ra,sp
    e5ac:	0011c6b3          	xor	a3,gp,ra
    e5b0:	7f353097          	auipc	ra,0x7f353
    e5b4:	e13dc097          	auipc	ra,0xe13dc
    e5b8:	8c718113          	addi	sp,gp,-1849 # 0x4af09e1f
    e5bc:	e7e2f0b7          	lui	ra,0xe7e2f
    e5c0:	e8517193          	andi	gp,sp,-379
    e5c4:	a6320ee3          	beq	tp,gp,0xe040
    e5c8:	a79ff1ef          	jal	gp,0xe040
    e5cc:	00586833          	or	a6,a6,t0
    e5d0:	001043b3          	xor	t2,zero,ra
    e5d4:	8a3851b7          	lui	gp,0x8a385
    e5d8:	f5d8d317          	auipc	t1,0xf5d8d
    e5dc:	3bdc2097          	auipc	ra,0x3bdc2
    e5e0:	47b07113          	andi	sp,zero,1147
    e5e4:	4001e193          	ori	gp,gp,1024
    e5e8:	f0b55217          	auipc	tp,0xf0b55
    e5ec:	50af00b7          	lui	ra,0x50af0
    e5f0:	37b9d017          	auipc	zero,0x37b9d
    e5f4:	0010e3b3          	or	t2,ra,ra
    e5f8:	3f696113          	ori	sp,s2,1014
    e5fc:	6fc1c193          	xori	gp,gp,1788
    e600:	aaa17193          	andi	gp,sp,-1366
    e604:	c1e0f993          	andi	s3,ra,-994
    e608:	c38fd1b7          	lui	gp,0xc38fd
    e60c:	001082b3          	add	t0,ra,ra
    e610:	d890d017          	auipc	zero,0xd890d
    e614:	3e541197          	auipc	gp,0x3e541
    e618:	20307093          	andi	ra,zero,515
    e61c:	a5708fb7          	lui	t6,0xa5708
    e620:	d0b14313          	xori	t1,sp,-757
    e624:	02874137          	lui	sp,0x2874
    e628:	0040c3b3          	xor	t2,ra,tp
    e62c:	8e736197          	auipc	gp,0x8e736
    e630:	a4d22137          	lui	sp,0xa4d22
    e634:	87326213          	ori	tp,tp,-1933
    e638:	aa882317          	auipc	t1,0xaa882
    e63c:	7c22e213          	ori	tp,t0,1986
    e640:	adfd54b7          	lui	s1,0xadfd5
    e644:	403204b3          	sub	s1,tp,gp
    e648:	7e817213          	andi	tp,sp,2024
    e64c:	5f5431b7          	lui	gp,0x5f543
    e650:	0031f2b3          	and	t0,gp,gp
    e654:	ea520113          	addi	sp,tp,-347 # 0xfffffffff0b6348d
    e658:	414180b3          	sub	ra,gp,s4
    e65c:	0071f0b3          	and	ra,gp,t2
    e660:	ca530ae3          	beq	t1,t0,0xe314
    e664:	cb1ff16f          	jal	sp,0xe314
    e668:	de91d197          	auipc	gp,0xde91d
    e66c:	c5761117          	auipc	sp,0xc5761
    e670:	5dc610b7          	lui	ra,0x5dc61
    e674:	40210133          	sub	sp,sp,sp
    e678:	401001b3          	neg	gp,ra
    e67c:	40108133          	sub	sp,ra,ra
    e680:	edc18193          	addi	gp,gp,-292 # 0xffffffffde92b544
    e684:	cde43197          	auipc	gp,0xcde43
    e688:	40110833          	sub	a6,sp,ra
    e68c:	47329097          	auipc	ra,0x47329
    e690:	7737f193          	andi	gp,a5,1907
    e694:	44c601b7          	lui	gp,0x44c60
    e698:	a0d0e0b7          	lui	ra,0xa0d0e
    e69c:	22038113          	addi	sp,t2,544 # 0x5936220
    e6a0:	a1204113          	xori	sp,zero,-1518
    e6a4:	2570e193          	ori	gp,ra,599
    e6a8:	3bd47217          	auipc	tp,0x3bd47
    e6ac:	e3d11237          	lui	tp,0xe3d11
    e6b0:	00644133          	xor	sp,s0,t1
    e6b4:	00728133          	add	sp,t0,t2
    e6b8:	f58d7197          	auipc	gp,0xf58d7
    e6bc:	cae2e093          	ori	ra,t0,-850
    e6c0:	59c26093          	ori	ra,tp,1436
    e6c4:	c8aae017          	auipc	zero,0xc8aae
    e6c8:	0df15137          	lui	sp,0xdf15
    e6cc:	014471b7          	lui	gp,0x1447
    e6d0:	d45ec037          	lui	zero,0xd45ec
    e6d4:	81911797          	auipc	a5,0x81911
    e6d8:	b7d1e093          	ori	ra,gp,-1155
    e6dc:	003140b3          	xor	ra,sp,gp
    e6e0:	00000217          	auipc	tp,0x0
    e6e4:	eec20167          	jalr	sp,-276(tp) # 0x0
    e6e8:	537e0097          	auipc	ra,0x537e0
    e6ec:	0000c1b3          	xor	gp,ra,zero
    e6f0:	00b0e1b3          	or	gp,ra,a1
    e6f4:	002161b3          	or	gp,sp,sp
    e6f8:	eb30e193          	ori	gp,ra,-333
    e6fc:	6d1400b7          	lui	ra,0x6d140
    e700:	caeffb97          	auipc	s7,0xcaeff
    e704:	2bd921b7          	lui	gp,0x2bd92
    e708:	00310133          	add	sp,sp,gp
    e70c:	56a38193          	addi	gp,t2,1386
    e710:	86c4e193          	ori	gp,s1,-1940
    e714:	35320137          	lui	sp,0x35320
    e718:	78c30193          	addi	gp,t1,1932 # 0xffffffffaa890dc4
    e71c:	31b0c193          	xori	gp,ra,795
    e720:	00217233          	and	tp,sp,sp
    e724:	aa808093          	addi	ra,ra,-1368 # 0x6d13faa8
    e728:	72f14f93          	xori	t6,sp,1839
    e72c:	71c14093          	xori	ra,sp,1820
    e730:	00814113          	xori	sp,sp,8
    e734:	94ead137          	lui	sp,0x94ead
    e738:	67e26197          	auipc	gp,0x67e26
    e73c:	43f18113          	addi	sp,gp,1087 # 0x67e34b77
    e740:	b37881b7          	lui	gp,0xb3788
    e744:	ae3d70b7          	lui	ra,0xae3d7
    e748:	002140b3          	xor	ra,sp,sp
    e74c:	2ef18213          	addi	tp,gp,751 # 0xffffffffb37882ef
    e750:	d950e097          	auipc	ra,0xd950e
    e754:	0041e133          	or	sp,gp,tp
    e758:	c6e1e113          	ori	sp,gp,-914
    e75c:	767260b7          	lui	ra,0x76726
    e760:	788fe117          	auipc	sp,0x788fe
    e764:	0c1a3317          	auipc	t1,0xc1a3
    e768:	e9b08093          	addi	ra,ra,-357 # 0x76725e9b
    e76c:	9af14093          	xori	ra,sp,-1617
    e770:	0033e133          	or	sp,t2,gp
    e774:	00110133          	add	sp,sp,ra
    e778:	dc4106e3          	beq	sp,tp,0xe544
    e77c:	dc9ff16f          	jal	sp,0xe544
    e780:	fcd3c113          	xori	sp,t2,-51
    e784:	f4a69197          	auipc	gp,0xf4a69
    e788:	4154c013          	xori	zero,s1,1045
    e78c:	0051f133          	and	sp,gp,t0
    e790:	d8eae337          	lui	t1,0xd8eae
    e794:	85517113          	andi	sp,sp,-1963
    e798:	8a120093          	addi	ra,tp,-1887 # 0xfffffffffffff8a1
    e79c:	7dd16193          	ori	gp,sp,2013
    e7a0:	1991ed17          	auipc	s10,0x1991e
    e7a4:	326920b7          	lui	ra,0x32692
    e7a8:	33df5117          	auipc	sp,0x33df5
    e7ac:	0571e193          	ori	gp,gp,87
    e7b0:	bf4ac097          	auipc	ra,0xbf4ac
    e7b4:	00f281b3          	add	gp,t0,a5
    e7b8:	e2217113          	andi	sp,sp,-478
    e7bc:	11816313          	ori	t1,sp,280
    e7c0:	5b5e7737          	lui	a4,0x5b5e7
    e7c4:	001171b3          	and	gp,sp,ra
    e7c8:	198e11b7          	lui	gp,0x198e1
    e7cc:	bd4ac117          	auipc	sp,0xbd4ac
    e7d0:	0030e0b3          	or	ra,ra,gp
    e7d4:	400607b3          	sub	a5,a2,zero
    e7d8:	9d1da317          	auipc	t1,0x9d1da
    e7dc:	d05c0037          	lui	zero,0xd05c0
    e7e0:	006161b3          	or	gp,sp,t1
    e7e4:	77c061b7          	lui	gp,0x77c06
    e7e8:	c6999197          	auipc	gp,0xc6999
    e7ec:	7b53f337          	lui	t1,0x7b53f
    e7f0:	60922117          	auipc	sp,0x60922
    e7f4:	5ac17197          	auipc	gp,0x5ac17
    e7f8:	00000113          	li	sp,0
    e7fc:	00010263          	beqz	sp,0xe800
    e800:	0020c2b3          	xor	t0,ra,sp
    e804:	fce0f193          	andi	gp,ra,-50
    e808:	33f00293          	li	t0,831
    e80c:	40218133          	sub	sp,gp,sp
    e810:	27c021b7          	lui	gp,0x27c02
    e814:	00214cb3          	xor	s9,sp,sp
    e818:	c1fb36b7          	lui	a3,0xc1fb3
    e81c:	00004133          	xor	sp,zero,zero
    e820:	003170b3          	and	ra,sp,gp
    e824:	32581217          	auipc	tp,0x32581
    e828:	0bb5c117          	auipc	sp,0xbb5c
    e82c:	0ee87137          	lui	sp,0xee87
    e830:	487d8197          	auipc	gp,0x487d8
    e834:	e9c2f113          	andi	sp,t0,-356
    e838:	651390b7          	lui	ra,0x65139
    e83c:	0011f1b3          	and	gp,gp,ra
    e840:	fb72d097          	auipc	ra,0xfb72d
    e844:	7e550097          	auipc	ra,0x7e550
    e848:	53ede137          	lui	sp,0x53ede
    e84c:	00f182b3          	add	t0,gp,a5
    e850:	002370b3          	and	ra,t1,sp
    e854:	2b1e4117          	auipc	sp,0x2b1e4
    e858:	0021f1b3          	and	gp,gp,sp
    e85c:	0013c0b3          	xor	ra,t2,ra
    e860:	36c8d097          	auipc	ra,0x36c8d
    e864:	0a60f193          	andi	gp,ra,166
    e868:	003303b3          	add	t2,t1,gp
    e86c:	00717133          	and	sp,sp,t2
    e870:	40128033          	sub	zero,t0,ra
    e874:	4a210193          	addi	gp,sp,1186 # 0x2b1f2cf6
    e878:	003340b3          	xor	ra,t1,gp
    e87c:	5a7cd117          	auipc	sp,0x5a7cd
    e880:	0021c3b3          	xor	t2,gp,sp
    e884:	9e85c0b7          	lui	ra,0x9e85c
    e888:	0020f1b3          	and	gp,ra,sp
    e88c:	00018263          	beqz	gp,0xe890
    e890:	e98ff36f          	jal	t1,0xdf28
    e894:	7f4e4297          	auipc	t0,0x7f4e4
    e898:	00414133          	xor	sp,sp,tp
    e89c:	4e4cd6b7          	lui	a3,0x4e4cd
    e8a0:	4a41f397          	auipc	t2,0x4a41f
    e8a4:	9244f097          	auipc	ra,0x9244f
    e8a8:	1b766117          	auipc	sp,0x1b766
    e8ac:	3624e297          	auipc	t0,0x3624e
    e8b0:	12db8217          	auipc	tp,0x12db8
    e8b4:	d9051317          	auipc	t1,0xd9051
    e8b8:	0020f1b3          	and	gp,ra,sp
    e8bc:	2f9a4297          	auipc	t0,0x2f9a4
    e8c0:	7ab3f113          	andi	sp,t2,1963
    e8c4:	001276b3          	and	a3,tp,ra
    e8c8:	5d33c337          	lui	t1,0x5d33c
    e8cc:	7a714093          	xori	ra,sp,1959
    e8d0:	b045f117          	auipc	sp,0xb045f
    e8d4:	943c0117          	auipc	sp,0x943c0
    e8d8:	0020f0b3          	and	ra,ra,sp
    e8dc:	bf0840b7          	lui	ra,0xbf084
    e8e0:	aa80e113          	ori	sp,ra,-1368
    e8e4:	2ebbe337          	lui	t1,0x2ebbe
    e8e8:	40300133          	neg	sp,gp
    e8ec:	03462197          	auipc	gp,0x3462
    e8f0:	1eb3e113          	ori	sp,t2,491
    e8f4:	001171b3          	and	gp,sp,ra
    e8f8:	b0b28117          	auipc	sp,0xb0b28
    e8fc:	0030e233          	or	tp,ra,gp
    e900:	28f6f0b7          	lui	ra,0x28f6f
    e904:	4ed7e197          	auipc	gp,0x4ed7e
    e908:	e98f6193          	ori	gp,t5,-360
    e90c:	ec91e113          	ori	sp,gp,-311
    e910:	b13c41b7          	lui	gp,0xb13c4
    e914:	0010f0b3          	and	ra,ra,ra
    e918:	402f81b3          	sub	gp,t6,sp
    e91c:	e62002e3          	beq	zero,sp,0xe780
    e920:	e61ff1ef          	jal	gp,0xe780
    e924:	173af197          	auipc	gp,0x173af
    e928:	40f101b3          	sub	gp,sp,a5
    e92c:	e0614193          	xori	gp,sp,-506
    e930:	97b0e513          	ori	a0,ra,-1669
    e934:	cdec7137          	lui	sp,0xcdec7
    e938:	2d8ad437          	lui	s0,0x2d8ad
    e93c:	f2b17193          	andi	gp,sp,-213
    e940:	2721e093          	ori	ra,gp,626
    e944:	7195b797          	auipc	a5,0x7195b
    e948:	79d4a017          	auipc	zero,0x79d4a
    e94c:	006180b3          	add	ra,gp,t1
    e950:	56728237          	lui	tp,0x56728
    e954:	00114133          	xor	sp,sp,ra
    e958:	84d1e113          	ori	sp,gp,-1971
    e95c:	21a36913          	ori	s2,t1,538
    e960:	01e2e2b3          	or	t0,t0,t5
    e964:	1f514113          	xori	sp,sp,501
    e968:	4c60c113          	xori	sp,ra,1222
    e96c:	63f6b397          	auipc	t2,0x63f6b
    e970:	001170b3          	and	ra,sp,ra
    e974:	001170b3          	and	ra,sp,ra
    e978:	b9d0c193          	xori	gp,ra,-1123
    e97c:	7c318193          	addi	gp,gp,1987 # 0x173be0e7
    e980:	327fe837          	lui	a6,0x327fe
    e984:	8fdc6217          	auipc	tp,0x8fdc6
    e988:	c7c26393          	ori	t2,tp,-900
    e98c:	fce2b017          	auipc	zero,0xfce2b
    e990:	c0210113          	addi	sp,sp,-1022 # 0xffffffffcdec6c02
    e994:	0051c0b3          	xor	ra,gp,t0
    e998:	078b4137          	lui	sp,0x78b4
    e99c:	6c11f193          	andi	gp,gp,1729
    e9a0:	b130c113          	xori	sp,ra,-1261
    e9a4:	1243f093          	andi	ra,t2,292
    e9a8:	b6989197          	auipc	gp,0xb6989
    e9ac:	62f223b7          	lui	t2,0x62f22
    e9b0:	00028113          	mv	sp,t0
    e9b4:	8c5106e3          	beq	sp,t0,0xe280
    e9b8:	07e1d0b7          	lui	ra,0x7e1d
    e9bc:	6e6fa417          	auipc	s0,0x6e6fa
    e9c0:	646e6197          	auipc	gp,0x646e6
    e9c4:	0036e1b3          	or	gp,a3,gp
    e9c8:	000a80b3          	add	ra,s5,zero
    e9cc:	ea924393          	xori	t2,tp,-343
    e9d0:	1bf08193          	addi	gp,ra,447 # 0x7e1d1bf
    e9d4:	73f0f793          	andi	a5,ra,1855
    e9d8:	2d625497          	auipc	s1,0x2d625
    e9dc:	63a08593          	addi	a1,ra,1594
    e9e0:	bc40f213          	andi	tp,ra,-1084
    e9e4:	b19db317          	auipc	t1,0xb19db
    e9e8:	40328333          	sub	t1,t0,gp
    e9ec:	01c0c1b3          	xor	gp,ra,t3
    e9f0:	1d624117          	auipc	sp,0x1d624
    e9f4:	fa47f337          	lui	t1,0xfa47f
    e9f8:	002081b3          	add	gp,ra,sp
    e9fc:	2ed4d237          	lui	tp,0x2ed4d
    ea00:	93637113          	andi	sp,t1,-1738
    ea04:	5c914193          	xori	gp,sp,1481
    ea08:	fd724393          	xori	t2,tp,-41
    ea0c:	7c1fa297          	auipc	t0,0x7c1fa
    ea10:	6a1030b7          	lui	ra,0x6a103
    ea14:	81667697          	auipc	a3,0x81667
    ea18:	bd43a097          	auipc	ra,0xbd43a
    ea1c:	00108b33          	add	s6,ra,ra
    ea20:	84402117          	auipc	sp,0x84402
    ea24:	c60af0b7          	lui	ra,0xc60af
    ea28:	35d10193          	addi	gp,sp,861 # 0xffffffff84410d7d
    ea2c:	0a460117          	auipc	sp,0xa460
    ea30:	00000197          	auipc	gp,0x0
    ea34:	008181e7          	jalr	gp,8(gp) # 0xea38
    ea38:	7a40f193          	andi	gp,ra,1956
    ea3c:	dc41e113          	ori	sp,gp,-572
    ea40:	00e262b3          	or	t0,tp,a4
    ea44:	0030c133          	xor	sp,ra,gp
    ea48:	b5e6f1b7          	lui	gp,0xb5e6f
    ea4c:	6fba7017          	auipc	zero,0x6fba7
    ea50:	40120133          	sub	sp,tp,ra
    ea54:	002271b3          	and	gp,tp,sp
    ea58:	f4158037          	lui	zero,0xf4158
    ea5c:	0030c3b3          	xor	t2,ra,gp
    ea60:	007083b3          	add	t2,ra,t2
    ea64:	92927113          	andi	sp,tp,-1751
    ea68:	407180b3          	sub	ra,gp,t2
    ea6c:	b48980b7          	lui	ra,0xb4898
    ea70:	58910113          	addi	sp,sp,1417 # 0xa46efb5
    ea74:	304477b7          	lui	a5,0x30447
    ea78:	09ca0093          	addi	ra,s4,156 # 0xffffffffdadfb09c
    ea7c:	df736093          	ori	ra,t1,-521
    ea80:	00600133          	add	sp,zero,t1
    ea84:	753b2117          	auipc	sp,0x753b2
    ea88:	bb5e3197          	auipc	gp,0xbb5e3
    ea8c:	8a8d50b7          	lui	ra,0x8a8d5
    ea90:	3fac7037          	lui	zero,0x3fac7
    ea94:	00108033          	add	zero,ra,ra
    ea98:	3e10f093          	andi	ra,ra,993
    ea9c:	1e3340b7          	lui	ra,0x1e334
    eaa0:	13710237          	lui	tp,0x13710
    eaa4:	d9ee9117          	auipc	sp,0xd9ee9
    eaa8:	00b08333          	add	t1,ra,a1
    eaac:	002370b3          	and	ra,t1,sp
    eab0:	003185b3          	add	a1,gp,gp
    eab4:	c8638193          	addi	gp,t2,-890 # 0x62f21c86
    eab8:	883c8093          	addi	ra,s9,-1917
    eabc:	401d0033          	sub	zero,s10,ra
    eac0:	0070c333          	xor	t1,ra,t2
    eac4:	366bd197          	auipc	gp,0x366bd
    eac8:	88d28113          	addi	sp,t0,-1907 # 0x7c208299
    eacc:	fa0990b7          	lui	ra,0xfa099
    ead0:	00218263          	beq	gp,sp,0xead4
    ead4:	11d001ef          	jal	gp,0xf3f0
    ead8:	c12d6297          	auipc	t0,0xc12d6
    eadc:	db51f193          	andi	gp,gp,-587
    eae0:	f5e16093          	ori	ra,sp,-162
    eae4:	c0f12137          	lui	sp,0xc0f12
    eae8:	e7e75797          	auipc	a5,0xe7e75
    eaec:	c4a18193          	addi	gp,gp,-950 # 0x366cb70e
    eaf0:	6cf80137          	lui	sp,0x6cf80
    eaf4:	95ada497          	auipc	s1,0x95ada
    eaf8:	0000ee33          	or	t3,ra,zero
    eafc:	2631a217          	auipc	tp,0x2631a
    eb00:	1db17093          	andi	ra,sp,475
    eb04:	12028193          	addi	gp,t0,288 # 0xffffffffc12e4bf8
    eb08:	0b01c113          	xori	sp,gp,176
    eb0c:	64f8b137          	lui	sp,0x64f8b
    eb10:	40320133          	sub	sp,tp,gp
    eb14:	70a16093          	ori	ra,sp,1802
    eb18:	2dc36393          	ori	t2,t1,732
    eb1c:	01968333          	add	t1,a3,s9
    eb20:	13103197          	auipc	gp,0x13103
    eb24:	009641b3          	xor	gp,a2,s1
    eb28:	2ebe40b7          	lui	ra,0x2ebe4
    eb2c:	3bd91197          	auipc	gp,0x3bd91
    eb30:	c533c093          	xori	ra,t2,-941
    eb34:	dbf30097          	auipc	ra,0xdbf30
    eb38:	06b18393          	addi	t2,gp,107 # 0x3bd9fb97
    eb3c:	8716f017          	auipc	zero,0x8716f
    eb40:	41f16093          	ori	ra,sp,1055
    eb44:	548c3137          	lui	sp,0x548c3
    eb48:	954d2137          	lui	sp,0x954d2
    eb4c:	8d000093          	li	ra,-1840
    eb50:	401101b3          	sub	gp,sp,ra
    eb54:	0031f733          	and	a4,gp,gp
    eb58:	00010093          	mv	ra,sp
    eb5c:	12208863          	beq	ra,sp,0xec8c
    eb60:	0040e6b3          	or	a3,ra,tp
    eb64:	0020c1b3          	xor	gp,ra,sp
    eb68:	00d10133          	add	sp,sp,a3
    eb6c:	74010113          	addi	sp,sp,1856 # 0xffffffff954d2740
    eb70:	fec20117          	auipc	sp,0xfec20
    eb74:	405c8133          	sub	sp,s9,t0
    eb78:	ea0df137          	lui	sp,0xea0df
    eb7c:	c3a0e193          	ori	gp,ra,-966
    eb80:	70b3c393          	xori	t2,t2,1803
    eb84:	bcba60b7          	lui	ra,0xbcba6
    eb88:	0011c0b3          	xor	ra,gp,ra
    eb8c:	9d596e97          	auipc	t4,0x9d596
    eb90:	32416193          	ori	gp,sp,804
    eb94:	f760e193          	ori	gp,ra,-138
    eb98:	003081b3          	add	gp,ra,gp
    eb9c:	15d1f093          	andi	ra,gp,349
    eba0:	41aaa197          	auipc	gp,0x41aaa
    eba4:	e3617013          	andi	zero,sp,-458
    eba8:	002100b3          	add	ra,sp,sp
    ebac:	fd617093          	andi	ra,sp,-42
    ebb0:	7c816293          	ori	t0,sp,1992
    ebb4:	0000c133          	xor	sp,ra,zero
    ebb8:	de11e013          	ori	zero,gp,-543
    ebbc:	a7c2a137          	lui	sp,0xa7c2a
    ebc0:	003b8333          	add	t1,s7,gp
    ebc4:	bcc17193          	andi	gp,sp,-1076
    ebc8:	403185b3          	sub	a1,gp,gp
    ebcc:	0021e5b3          	or	a1,gp,sp
    ebd0:	c78ed117          	auipc	sp,0xc78ed
    ebd4:	4dcf8097          	auipc	ra,0x4dcf8
    ebd8:	ef4ef1b7          	lui	gp,0xef4ef
    ebdc:	0021c133          	xor	sp,gp,sp
    ebe0:	c250f013          	andi	zero,ra,-987
    ebe4:	00030693          	mv	a3,t1
    ebe8:	00668263          	beq	a3,t1,0xebec
    ebec:	0011e133          	or	sp,gp,ra
    ebf0:	de71f113          	andi	sp,gp,-537
    ebf4:	638da117          	auipc	sp,0x638da
    ebf8:	40310233          	sub	tp,sp,gp
    ebfc:	ad82e0b7          	lui	ra,0xad82e
    ec00:	0cda9097          	auipc	ra,0xcda9
    ec04:	eca09117          	auipc	sp,0xeca09
    ec08:	1ff091b7          	lui	gp,0x1ff09
    ec0c:	002171b3          	and	gp,sp,sp
    ec10:	2770c293          	xori	t0,ra,631
    ec14:	9b606013          	ori	zero,zero,-1610
    ec18:	495e91b7          	lui	gp,0x495e9
    ec1c:	e13a6f17          	auipc	t5,0xe13a6
    ec20:	3625f697          	auipc	a3,0x3625f
    ec24:	002161b3          	or	gp,sp,sp
    ec28:	0020f0b3          	and	ra,ra,sp
    ec2c:	f4fe92b7          	lui	t0,0xf4fe9
    ec30:	5c4fd097          	auipc	ra,0x5c4fd
    ec34:	d1ed7897          	auipc	a7,0xd1ed7
    ec38:	ab894737          	lui	a4,0xab894
    ec3c:	7cfb91b7          	lui	gp,0x7cfb9
    ec40:	00110b33          	add	s6,sp,ra
    ec44:	001041b3          	xor	gp,zero,ra
    ec48:	a375d0b7          	lui	ra,0xa375d
    ec4c:	001381b3          	add	gp,t2,ra
    ec50:	9f905097          	auipc	ra,0x9f905
    ec54:	00334133          	xor	sp,t1,gp
    ec58:	0032c033          	xor	zero,t0,gp
    ec5c:	6331e093          	ori	ra,gp,1587
    ec60:	eb0c0297          	auipc	t0,0xeb0c0
    ec64:	ad782097          	auipc	ra,0xad782
    ec68:	ddeaa117          	auipc	sp,0xddeaa
    ec6c:	402100b3          	sub	ra,sp,sp
    ec70:	da51f113          	andi	sp,gp,-603
    ec74:	1911f237          	lui	tp,0x1911f
    ec78:	b8753237          	lui	tp,0xb8753
    ec7c:	b21181b7          	lui	gp,0xb2118
    ec80:	24010197          	auipc	gp,0x24010
    ec84:	00308263          	beq	ra,gp,0xec88
    ec88:	3b5007ef          	jal	a5,0xf83c
    ec8c:	00117133          	and	sp,sp,ra
    ec90:	6e547293          	andi	t0,s0,1765
    ec94:	d768b197          	auipc	gp,0xd768b
    ec98:	77a782b7          	lui	t0,0x77a78
    ec9c:	e64a7193          	andi	gp,s4,-412
    eca0:	dab10013          	addi	zero,sp,-597 # 0xffffffffddeb8a13
    eca4:	0a26f1b7          	lui	gp,0xa26f
    eca8:	0660e213          	ori	tp,ra,102
    ecac:	f17c3117          	auipc	sp,0xf17c3
    ecb0:	806250b7          	lui	ra,0x80625
    ecb4:	909e3137          	lui	sp,0x909e3
    ecb8:	0a810213          	addi	tp,sp,168 # 0xffffffff909e30a8
    ecbc:	bef0c193          	xori	gp,ra,-1041
    ecc0:	004166b3          	or	a3,sp,tp
    ecc4:	00217133          	and	sp,sp,sp
    ecc8:	00d304b3          	add	s1,t1,a3
    eccc:	eae8d337          	lui	t1,0xeae8d
    ecd0:	eeab5137          	lui	sp,0xeeab5
    ecd4:	ca839197          	auipc	gp,0xca839
    ecd8:	23b850b7          	lui	ra,0x23b85
    ecdc:	f96050b7          	lui	ra,0xf9605
    ece0:	003101b3          	add	gp,sp,gp
    ece4:	01d170b3          	and	ra,sp,t4
    ece8:	0010c1b3          	xor	gp,ra,ra
    ecec:	0033f2b3          	and	t0,t2,gp
    ecf0:	aa1a3137          	lui	sp,0xaa1a3
    ecf4:	4a706097          	auipc	ra,0x4a706
    ecf8:	42f72237          	lui	tp,0x42f72
    ecfc:	dc58d097          	auipc	ra,0xdc58d
    ed00:	57c10213          	addi	tp,sp,1404 # 0xffffffffaa1a357c
    ed04:	f0037193          	andi	gp,t1,-256
    ed08:	00616033          	or	zero,sp,t1
    ed0c:	403180b3          	sub	ra,gp,gp
    ed10:	e14d7097          	auipc	ra,0xe14d7
    ed14:	99652ab7          	lui	s5,0x99652
    ed18:	40510133          	sub	sp,sp,t0
    ed1c:	8eeb2217          	auipc	tp,0x8eeb2
    ed20:	00018793          	mv	a5,gp
    ed24:	00378263          	beq	a5,gp,0xed28
    ed28:	0352c093          	xori	ra,t0,53
    ed2c:	003181b3          	add	gp,gp,gp
    ed30:	65863137          	lui	sp,0x65863
    ed34:	16c3b017          	auipc	zero,0x16c3b
    ed38:	2c6bf3b7          	lui	t2,0x2c6bf
    ed3c:	7b66edb7          	lui	s11,0x7b66e
    ed40:	19a22e17          	auipc	t3,0x19a22
    ed44:	545311b7          	lui	gp,0x54531
    ed48:	2cc26393          	ori	t2,tp,716
    ed4c:	3a5eb397          	auipc	t2,0x3a5eb
    ed50:	32117313          	andi	t1,sp,801
    ed54:	00616133          	or	sp,sp,t1
    ed58:	4beb2197          	auipc	gp,0x4beb2
    ed5c:	2b242097          	auipc	ra,0x2b242
    ed60:	0030c0b3          	xor	ra,ra,gp
    ed64:	0011f0b3          	and	ra,gp,ra
    ed68:	d1bee197          	auipc	gp,0xd1bee
    ed6c:	4430ec93          	ori	s9,ra,1091
    ed70:	53c1c093          	xori	ra,gp,1340
    ed74:	3171c093          	xori	ra,gp,791
    ed78:	0002e1b3          	or	gp,t0,zero
    ed7c:	bd29e117          	auipc	sp,0xbd29e
    ed80:	0641f093          	andi	ra,gp,100
    ed84:	f2f1f293          	andi	t0,gp,-209
    ed88:	eccce193          	ori	gp,s9,-308
    ed8c:	614fa197          	auipc	gp,0x614fa
    ed90:	6051c093          	xori	ra,gp,1541
    ed94:	5d229137          	lui	sp,0x5d229
    ed98:	b1f6c5b7          	lui	a1,0xb1f6c
    ed9c:	b782c113          	xori	sp,t0,-1160
    eda0:	cd916093          	ori	ra,sp,-807
    eda4:	0a026193          	ori	gp,tp,160
    eda8:	c0f08013          	addi	zero,ra,-1009 # 0x2b25096b
    edac:	2e218463          	beq	gp,sp,0xf094
    edb0:	2e4003ef          	jal	t2,0xf094
    edb4:	40108233          	sub	tp,ra,ra
    edb8:	508261b7          	lui	gp,0x50826
    edbc:	b3869197          	auipc	gp,0xb3869
    edc0:	7e90b097          	auipc	ra,0x7e90b
    edc4:	bb508113          	addi	sp,ra,-1099 # 0x7e919975
    edc8:	c27c4937          	lui	s2,0xc27c4
    edcc:	b4e1c013          	xori	zero,gp,-1202
    edd0:	2e86b117          	auipc	sp,0x2e86b
    edd4:	0020f133          	and	sp,ra,sp
    edd8:	403080b3          	sub	ra,ra,gp
    eddc:	402541b7          	lui	gp,0x40254
    ede0:	40210133          	sub	sp,sp,sp
    ede4:	e3fcb397          	auipc	t2,0xe3fcb
    ede8:	b21cb117          	auipc	sp,0xb21cb
    edec:	8d829037          	lui	zero,0x8d829
    edf0:	9bc0c013          	xori	zero,ra,-1604
    edf4:	a22662b7          	lui	t0,0xa2266
    edf8:	0021c0b3          	xor	ra,gp,sp
    edfc:	86892117          	auipc	sp,0x86892
    ee00:	32514113          	xori	sp,sp,805
    ee04:	242a74b7          	lui	s1,0x242a7
    ee08:	66616093          	ori	ra,sp,1638
    ee0c:	998ff017          	auipc	zero,0x998ff
    ee10:	011172b3          	and	t0,sp,a7
    ee14:	1756c037          	lui	zero,0x1756c
    ee18:	54021137          	lui	sp,0x54021
    ee1c:	f9980097          	auipc	ra,0xf9980
    ee20:	09e710b7          	lui	ra,0x9e71
    ee24:	003243b3          	xor	t2,tp,gp
    ee28:	f561e113          	ori	sp,gp,-170
    ee2c:	01a0c137          	lui	sp,0x1a0c
    ee30:	846bbbb7          	lui	s7,0x846bb
    ee34:	2c310113          	addi	sp,sp,707 # 0x1a0c2c3
    ee38:	c873a197          	auipc	gp,0xc873a
    ee3c:	1a55a097          	auipc	ra,0x1a55a
    ee40:	6a39b397          	auipc	t2,0x6a39b
    ee44:	c3111137          	lui	sp,0xc3111
    ee48:	19fb11b7          	lui	gp,0x19fb1
    ee4c:	fd5e3097          	auipc	ra,0xfd5e3
    ee50:	60230e63          	beq	t1,sp,0xf46c
    ee54:	618002ef          	jal	t0,0xf46c
    ee58:	5dd1fc13          	andi	s8,gp,1501
    ee5c:	fd338097          	auipc	ra,0xfd338
    ee60:	01f16133          	or	sp,sp,t6
    ee64:	407a2117          	auipc	sp,0x407a2
    ee68:	002164b3          	or	s1,sp,sp
    ee6c:	17df91b7          	lui	gp,0x17df9
    ee70:	50927093          	andi	ra,tp,1289
    ee74:	0011e133          	or	sp,gp,ra
    ee78:	7ed4b1b7          	lui	gp,0x7ed4b
    ee7c:	4eed5117          	auipc	sp,0x4eed5
    ee80:	0013e133          	or	sp,t2,ra
    ee84:	dfd13217          	auipc	tp,0xdfd13
    ee88:	0040f4b3          	and	s1,ra,tp
    ee8c:	cccec137          	lui	sp,0xcccec
    ee90:	88d243b7          	lui	t2,0x88d24
    ee94:	9bf371b7          	lui	gp,0x9bf37
    ee98:	834401b7          	lui	gp,0x83440
    ee9c:	41c30333          	sub	t1,t1,t3
    eea0:	39e6f137          	lui	sp,0x39e6f
    eea4:	40985117          	auipc	sp,0x40985
    eea8:	2d23e093          	ori	ra,t2,722
    eeac:	97b0b137          	lui	sp,0x97b0b
    eeb0:	de877137          	lui	sp,0xde877
    eeb4:	974d4337          	lui	t1,0x974d4
    eeb8:	55cf0117          	auipc	sp,0x55cf0
    eebc:	3d87f197          	auipc	gp,0x3d87f
    eec0:	003080b3          	add	ra,ra,gp
    eec4:	a7d8f5b7          	lui	a1,0xa7d8f
    eec8:	4d414113          	xori	sp,sp,1236
    eecc:	e2518213          	addi	tp,gp,-475 # 0x3d88dce1
    eed0:	5aa0c393          	xori	t2,ra,1450
    eed4:	0a308063          	beq	ra,gp,0xef74
    eed8:	09c0016f          	jal	sp,0xef74
    eedc:	1e20e193          	ori	gp,ra,482
    eee0:	0011c033          	xor	zero,gp,ra
    eee4:	d9ae91b7          	lui	gp,0xd9ae9
    eee8:	85971117          	auipc	sp,0x85971
    eeec:	e5acb0b7          	lui	ra,0xe5acb
    eef0:	106e5297          	auipc	t0,0x106e5
    eef4:	614d50b7          	lui	ra,0x614d5
    eef8:	feca4137          	lui	sp,0xfeca4
    eefc:	e560e113          	ori	sp,ra,-426
    ef00:	002380b3          	add	ra,t2,sp
    ef04:	0011e1b3          	or	gp,gp,ra
    ef08:	1d5ac137          	lui	sp,0x1d5ac
    ef0c:	246760b7          	lui	ra,0x24676
    ef10:	d2e02097          	auipc	ra,0xd2e02
    ef14:	a9c520b7          	lui	ra,0xa9c52
    ef18:	0021e0b3          	or	ra,gp,sp
    ef1c:	48920117          	auipc	sp,0x48920
    ef20:	0011c1b3          	xor	gp,gp,ra
    ef24:	00217933          	and	s2,sp,sp
    ef28:	e7f37117          	auipc	sp,0xe7f37
    ef2c:	c7d17493          	andi	s1,sp,-899
    ef30:	0021e0b3          	or	ra,gp,sp
    ef34:	002100b3          	add	ra,sp,sp
    ef38:	51a1c0b7          	lui	ra,0x51a1c
    ef3c:	0012c1b3          	xor	gp,t0,ra
    ef40:	760c5097          	auipc	ra,0x760c5
    ef44:	36343397          	auipc	t2,0x36343
    ef48:	97c1f393          	andi	t2,gp,-1668
    ef4c:	a60d6113          	ori	sp,s10,-1440
    ef50:	0030f1b3          	and	gp,ra,gp
    ef54:	0011e0b3          	or	ra,gp,ra
    ef58:	d733c037          	lui	zero,0xd733c
    ef5c:	9f70c113          	xori	sp,ra,-1545
    ef60:	001071b3          	and	gp,zero,ra
    ef64:	7ba17113          	andi	sp,sp,1978
    ef68:	f28f01b7          	lui	gp,0xf28f0
    ef6c:	a42006e3          	beq	zero,sp,0xe9b8
    ef70:	a49ff1ef          	jal	gp,0xe9b8
    ef74:	00a26133          	or	sp,tp,a0
    ef78:	0013e1b3          	or	gp,t2,ra
    ef7c:	a8228117          	auipc	sp,0xa8228
    ef80:	ab017093          	andi	ra,sp,-1360
    ef84:	0ad2d137          	lui	sp,0xad2d
    ef88:	4f06c297          	auipc	t0,0x4f06c
    ef8c:	037142b7          	lui	t0,0x3714
    ef90:	6d59f097          	auipc	ra,0x6d59f
    ef94:	86016093          	ori	ra,sp,-1952
    ef98:	36634313          	xori	t1,t1,870
    ef9c:	26714217          	auipc	tp,0x26714
    efa0:	86b02117          	auipc	sp,0x86b02
    efa4:	e3768137          	lui	sp,0xe3768
    efa8:	b2408113          	addi	sp,ra,-1244 # 0x6d5adab4
    efac:	0011e0b3          	or	ra,gp,ra
    efb0:	9406de37          	lui	t3,0x9406d
    efb4:	0020c1b3          	xor	gp,ra,sp
    efb8:	914b5097          	auipc	ra,0x914b5
    efbc:	ede85097          	auipc	ra,0xede85
    efc0:	0037e333          	or	t1,a5,gp
    efc4:	986a8197          	auipc	gp,0x986a8
    efc8:	026223b7          	lui	t2,0x2622
    efcc:	40110133          	sub	sp,sp,ra
    efd0:	4bda1217          	auipc	tp,0x4bda1
    efd4:	30c94117          	auipc	sp,0x30c94
    efd8:	c64680b7          	lui	ra,0xc6468
    efdc:	d81a5317          	auipc	t1,0xd81a5
    efe0:	00137133          	and	sp,t1,ra
    efe4:	7e516193          	ori	gp,sp,2021
    efe8:	fc5141b7          	lui	gp,0xfc514
    efec:	9f933117          	auipc	sp,0x9f933
    eff0:	5e53c1b7          	lui	gp,0x5e53c
    eff4:	aa01c093          	xori	ra,gp,-1376
    eff8:	0021cdb3          	xor	s11,gp,sp
    effc:	00314233          	xor	tp,sp,gp
    f000:	00048293          	mv	t0,s1
    f004:	00928263          	beq	t0,s1,0xf008
    f008:	00610133          	add	sp,sp,t1
    f00c:	40210133          	sub	sp,sp,sp
    f010:	84e10113          	addi	sp,sp,-1970 # 0xffffffff9f94183a
    f014:	0051f0b3          	and	ra,gp,t0
    f018:	0b7cd097          	auipc	ra,0xb7cd
    f01c:	403081b3          	sub	gp,ra,gp
    f020:	73a00713          	li	a4,1850
    f024:	00124133          	xor	sp,tp,ra
    f028:	6137e137          	lui	sp,0x6137e
    f02c:	2aa430b7          	lui	ra,0x2aa43
    f030:	bb8b4c17          	auipc	s8,0xbb8b4
    f034:	9b405c97          	auipc	s9,0x9b405
    f038:	34481137          	lui	sp,0x34481
    f03c:	d9c014b7          	lui	s1,0xd9c01
    f040:	18c5b117          	auipc	sp,0x18c5b
    f044:	9f178237          	lui	tp,0x9f178
    f048:	d76a4237          	lui	tp,0xd76a4
    f04c:	e23d6797          	auipc	a5,0xe23d6
    f050:	90d7d117          	auipc	sp,0x90d7d
    f054:	03310293          	addi	t0,sp,51 # 0xffffffff90d8c083
    f058:	b2c350b7          	lui	ra,0xb2c35
    f05c:	260061b7          	lui	gp,0x26006
    f060:	a0b44097          	auipc	ra,0xa0b44
    f064:	401000b3          	neg	ra,ra
    f068:	0091f233          	and	tp,gp,s1
    f06c:	50317313          	andi	t1,sp,1283
    f070:	a2bce097          	auipc	ra,0xa2bce
    f074:	0013e333          	or	t1,t2,ra
    f078:	007081b3          	add	gp,ra,t2
    f07c:	d7116093          	ori	ra,sp,-655
    f080:	35801197          	auipc	gp,0x35801
    f084:	407081b3          	sub	gp,ra,t2
    f088:	20a0f793          	andi	a5,ra,522
    f08c:	00038213          	mv	tp,t2
    f090:	24720263          	beq	tp,t2,0xf2d4
    f094:	00114133          	xor	sp,sp,ra
    f098:	39d2c197          	auipc	gp,0x39d2c
    f09c:	dac07213          	andi	tp,zero,-596
    f0a0:	00608233          	add	tp,ra,t1
    f0a4:	ca5cb037          	lui	zero,0xca5cb
    f0a8:	40f183b3          	sub	t2,gp,a5
    f0ac:	4c8cf117          	auipc	sp,0x4c8cf
    f0b0:	002141b3          	xor	gp,sp,sp
    f0b4:	001001b3          	add	gp,zero,ra
    f0b8:	0871a337          	lui	t1,0x871a
    f0bc:	b5282097          	auipc	ra,0xb5282
    f0c0:	01b0f133          	and	sp,ra,s11
    f0c4:	0030e3b3          	or	t2,ra,gp
    f0c8:	de2530b7          	lui	ra,0xde253
    f0cc:	6d40c393          	xori	t2,ra,1748
    f0d0:	002176b3          	and	a3,sp,sp
    f0d4:	a3808e93          	addi	t4,ra,-1480 # 0xffffffffde252a38
    f0d8:	bc1f00b7          	lui	ra,0xbc1f0
    f0dc:	683d6293          	ori	t0,s10,1667
    f0e0:	855801b7          	lui	gp,0x85580
    f0e4:	f9116093          	ori	ra,sp,-111
    f0e8:	90f34193          	xori	gp,t1,-1777
    f0ec:	44c6ef13          	ori	t5,a3,1100
    f0f0:	0060e2b3          	or	t0,ra,t1
    f0f4:	38215117          	auipc	sp,0x38215
    f0f8:	2630d8b7          	lui	a7,0x2630d
    f0fc:	00106133          	or	sp,zero,ra
    f100:	0031e1b3          	or	gp,gp,gp
    f104:	00110333          	add	t1,sp,ra
    f108:	43810393          	addi	t2,sp,1080 # 0x3822452c
    f10c:	00236333          	or	t1,t1,sp
    f110:	c2d44137          	lui	sp,0xc2d44
    f114:	00000097          	auipc	ra,0x0
    f118:	ca008067          	jr	-864(ra) # 0xedb4
    f11c:	1d514097          	auipc	ra,0x1d514
    f120:	0021f1b3          	and	gp,gp,sp
    f124:	ff864097          	auipc	ra,0xff864
    f128:	2774f0b7          	lui	ra,0x2774f
    f12c:	0011c333          	xor	t1,gp,ra
    f130:	8e016013          	ori	zero,sp,-1824
    f134:	eef07197          	auipc	gp,0xeef07
    f138:	11f3d097          	auipc	ra,0x11f3d
    f13c:	6fa3e013          	ori	zero,t2,1786
    f140:	eb797097          	auipc	ra,0xeb797
    f144:	003160b3          	or	ra,sp,gp
    f148:	00238333          	add	t1,t2,sp
    f14c:	a77ce137          	lui	sp,0xa77ce
    f150:	27588137          	lui	sp,0x27588
    f154:	5176f197          	auipc	gp,0x5176f
    f158:	cf637b13          	andi	s6,t1,-778
    f15c:	a7ead297          	auipc	t0,0xa7ead
    f160:	8db20113          	addi	sp,tp,-1829 # 0xffffffffd76a38db
    f164:	158ee117          	auipc	sp,0x158ee
    f168:	00226233          	or	tp,tp,sp
    f16c:	00416133          	or	sp,sp,tp
    f170:	002240b3          	xor	ra,tp,sp
    f174:	0010c6b3          	xor	a3,ra,ra
    f178:	402100b3          	sub	ra,sp,sp
    f17c:	0031c3b3          	xor	t2,gp,gp
    f180:	869161b7          	lui	gp,0x86916
    f184:	f8c7c3b7          	lui	t2,0xf8c7c
    f188:	5a11b117          	auipc	sp,0x5a11b
    f18c:	9c377117          	auipc	sp,0x9c377
    f190:	8ab811b7          	lui	gp,0x8ab81
    f194:	19025097          	auipc	ra,0x19025
    f198:	75a13137          	lui	sp,0x75a13
    f19c:	e3b83017          	auipc	zero,0xe3b83
    f1a0:	d731c093          	xori	ra,gp,-653
    f1a4:	0e2dc117          	auipc	sp,0xe2dc
    f1a8:	c3bf9017          	auipc	zero,0xc3bf9
    f1ac:	00000217          	auipc	tp,0x0
    f1b0:	cac206e7          	jalr	a3,-852(tp) # 0x0
    f1b4:	3c786197          	auipc	gp,0x3c786
    f1b8:	0022c0b3          	xor	ra,t0,sp
    f1bc:	5b929f37          	lui	t5,0x5b929
    f1c0:	a7163097          	auipc	ra,0xa7163
    f1c4:	0000f133          	and	sp,ra,zero
    f1c8:	0000e233          	or	tp,ra,zero
    f1cc:	fa000193          	li	gp,-96
    f1d0:	ae7d2117          	auipc	sp,0xae7d2
    f1d4:	0060e333          	or	t1,ra,t1
    f1d8:	0013f233          	and	tp,t2,ra
    f1dc:	8360e093          	ori	ra,ra,-1994
    f1e0:	a0fc8297          	auipc	t0,0xa0fc8
    f1e4:	d012d1b7          	lui	gp,0xd012d
    f1e8:	e7d3f293          	andi	t0,t2,-387
    f1ec:	40308133          	sub	sp,ra,gp
    f1f0:	00114133          	xor	sp,sp,ra
    f1f4:	4b838113          	addi	sp,t2,1208 # 0xfffffffff8c7c4b8
    f1f8:	0021e033          	or	zero,gp,sp
    f1fc:	72417113          	andi	sp,sp,1828
    f200:	c4dd7337          	lui	t1,0xc4dd7
    f204:	7de0e113          	ori	sp,ra,2014
    f208:	56694013          	xori	zero,s2,1382
    f20c:	0071e133          	or	sp,gp,t2
    f210:	406201b3          	sub	gp,tp,t1
    f214:	8cb0c113          	xori	sp,ra,-1845
    f218:	7925b137          	lui	sp,0x7925b
    f21c:	94200293          	li	t0,-1726
    f220:	403101b3          	sub	gp,sp,gp
    f224:	3d3d1337          	lui	t1,0x3d3d1
    f228:	f9f0f113          	andi	sp,ra,-97
    f22c:	40158033          	sub	zero,a1,ra
    f230:	40318333          	sub	t1,gp,gp
    f234:	40f28bb3          	sub	s7,t0,a5
    f238:	40308f33          	sub	t5,ra,gp
    f23c:	00000117          	auipc	sp,0x0
    f240:	128102e7          	jalr	t0,296(sp) # 0xf364
    f244:	00316133          	or	sp,sp,gp
    f248:	4b447137          	lui	sp,0x4b447
    f24c:	00d1c2b3          	xor	t0,gp,a3
    f250:	20916093          	ori	ra,sp,521
    f254:	8ec1e193          	ori	gp,gp,-1812
    f258:	001181b3          	add	gp,gp,ra
    f25c:	944750b7          	lui	ra,0x94475
    f260:	400180b3          	sub	ra,gp,zero
    f264:	00230133          	add	sp,t1,sp
    f268:	001080b3          	add	ra,ra,ra
    f26c:	8a69e3b7          	lui	t2,0x8a69e
    f270:	37017113          	andi	sp,sp,880
    f274:	783e6097          	auipc	ra,0x783e6
    f278:	002181b3          	add	gp,gp,sp
    f27c:	86a9f137          	lui	sp,0x86a9f
    f280:	ddb06197          	auipc	gp,0xddb06
    f284:	af19b117          	auipc	sp,0xaf19b
    f288:	90b0e113          	ori	sp,ra,-1781
    f28c:	001171b3          	and	gp,sp,ra
    f290:	0fd7e697          	auipc	a3,0xfd7e
    f294:	06329137          	lui	sp,0x6329
    f298:	50fe13b7          	lui	t2,0x50fe1
    f29c:	d5c62237          	lui	tp,0xd5c62
    f2a0:	2c2230b7          	lui	ra,0x2c223
    f2a4:	c4118193          	addi	gp,gp,-959 # 0xffffffffddb14ec1
    f2a8:	a3806037          	lui	zero,0xa3806
    f2ac:	e9e17113          	andi	sp,sp,-354
    f2b0:	304b0237          	lui	tp,0x304b0
    f2b4:	0031c0b3          	xor	ra,gp,gp
    f2b8:	0051e233          	or	tp,gp,t0
    f2bc:	001161b3          	or	gp,sp,ra
    f2c0:	407c05b3          	sub	a1,s8,t2
    f2c4:	2801c193          	xori	gp,gp,640
    f2c8:	0010e0b3          	or	ra,ra,ra
    f2cc:	00018193          	mv	gp,gp
    f2d0:	883188e3          	beq	gp,gp,0xeb60
    f2d4:	4e481197          	auipc	gp,0x4e481
    f2d8:	151d8137          	lui	sp,0x151d8
    f2dc:	9e5c31b7          	lui	gp,0x9e5c3
    f2e0:	11914113          	xori	sp,sp,281
    f2e4:	fae6e0b7          	lui	ra,0xfae6e
    f2e8:	2115f117          	auipc	sp,0x2115f
    f2ec:	8cf34f93          	xori	t6,t1,-1841
    f2f0:	403101b3          	sub	gp,sp,gp
    f2f4:	0bd17093          	andi	ra,sp,189
    f2f8:	1fa08113          	addi	sp,ra,506 # 0xfffffffffae6e1fa
    f2fc:	315a8117          	auipc	sp,0x315a8
    f300:	f5ae1397          	auipc	t2,0xf5ae1
    f304:	aeaf5137          	lui	sp,0xaeaf5
    f308:	39a1c137          	lui	sp,0x39a1c
    f30c:	67812137          	lui	sp,0x67812
    f310:	6de89337          	lui	t1,0x6de89
    f314:	be3a50b7          	lui	ra,0xbe3a5
    f318:	1be37193          	andi	gp,t1,446
    f31c:	c789f137          	lui	sp,0xc789f
    f320:	001141b3          	xor	gp,sp,ra
    f324:	42014313          	xori	t1,sp,1056
    f328:	e5a16113          	ori	sp,sp,-422
    f32c:	081532b7          	lui	t0,0x8153
    f330:	00334133          	xor	sp,t1,gp
    f334:	37714213          	xori	tp,sp,887
    f338:	dd0c3137          	lui	sp,0xdd0c3
    f33c:	341df197          	auipc	gp,0x341df
    f340:	0091e133          	or	sp,gp,s1
    f344:	4a910237          	lui	tp,0x4a910
    f348:	003081b3          	add	gp,ra,gp
    f34c:	9ac72497          	auipc	s1,0x9ac72
    f350:	efd3f0b7          	lui	ra,0xefd3f
    f354:	80837197          	auipc	gp,0x80837
    f358:	85a82137          	lui	sp,0x85a82
    f35c:	00000197          	auipc	gp,0x0
    f360:	ee8180e7          	jalr	-280(gp) # 0xf244
    f364:	0e818093          	addi	ra,gp,232
    f368:	d2b16097          	auipc	ra,0xd2b16
    f36c:	30492097          	auipc	ra,0x30492
    f370:	fb828293          	addi	t0,t0,-72 # 0x8152fb8
    f374:	72bef017          	auipc	zero,0x72bef
    f378:	e4c5f1b7          	lui	gp,0xe4c5f
    f37c:	00327133          	and	sp,tp,gp
    f380:	00626133          	or	sp,tp,t1
    f384:	1067ab17          	auipc	s6,0x1067a
    f388:	b951c293          	xori	t0,gp,-1131
    f38c:	cf4a6337          	lui	t1,0xcf4a6
    f390:	52c18113          	addi	sp,gp,1324 # 0xffffffffe4c5f52c
    f394:	19144017          	auipc	zero,0x19144
    f398:	002201b3          	add	gp,tp,sp
    f39c:	db917013          	andi	zero,sp,-583
    f3a0:	382ab0b7          	lui	ra,0x382ab
    f3a4:	0e7760b7          	lui	ra,0xe776
    f3a8:	41570817          	auipc	a6,0x41570
    f3ac:	0f3641b7          	lui	gp,0xf364
    f3b0:	c1427193          	andi	gp,tp,-1004
    f3b4:	00214333          	xor	t1,sp,sp
    f3b8:	a11ac237          	lui	tp,0xa11ac
    f3bc:	406080b3          	sub	ra,ra,t1
    f3c0:	26c28137          	lui	sp,0x26c28
    f3c4:	96b7f197          	auipc	gp,0x96b7f
    f3c8:	00227933          	and	s2,tp,sp
    f3cc:	04da31b7          	lui	gp,0x4da3
    f3d0:	80cb9197          	auipc	gp,0x80cb9
    f3d4:	122ed397          	auipc	t2,0x122ed
    f3d8:	a6a4f1b7          	lui	gp,0xa6a4f
    f3dc:	52c08113          	addi	sp,ra,1324 # 0xe77652c
    f3e0:	0010e0b3          	or	ra,ra,ra
    f3e4:	00107333          	and	t1,zero,ra
    f3e8:	00078113          	mv	sp,a5
    f3ec:	d2f108e3          	beq	sp,a5,0xf11c
    f3f0:	47de5137          	lui	sp,0x47de5
    f3f4:	63c1f093          	andi	ra,gp,1596
    f3f8:	8a0210b7          	lui	ra,0x8a021
    f3fc:	00300133          	add	sp,zero,gp
    f400:	00faf133          	and	sp,s5,a5
    f404:	f9d631b7          	lui	gp,0xf9d63
    f408:	b590f193          	andi	gp,ra,-1191
    f40c:	0021f233          	and	tp,gp,sp
    f410:	355ba097          	auipc	ra,0x355ba
    f414:	000241b3          	xor	gp,tp,zero
    f418:	0153d097          	auipc	ra,0x153d
    f41c:	006301b3          	add	gp,t1,t1
    f420:	dbc420b7          	lui	ra,0xdbc42
    f424:	40230033          	sub	zero,t1,sp
    f428:	bb108193          	addi	gp,ra,-1103 # 0xffffffffdbc41bb1
    f42c:	89faa0b7          	lui	ra,0x89faa
    f430:	ebdf4337          	lui	t1,0xebdf4
    f434:	2bfab097          	auipc	ra,0x2bfab
    f438:	25099317          	auipc	t1,0x25099
    f43c:	002280b3          	add	ra,t0,sp
    f440:	b734d197          	auipc	gp,0xb734d
    f444:	be505097          	auipc	ra,0xbe505
    f448:	0031c233          	xor	tp,gp,gp
    f44c:	c910e017          	auipc	zero,0xc910e
    f450:	bc60c193          	xori	gp,ra,-1082
    f454:	37008313          	addi	t1,ra,880 # 0xffffffffbe5147b4
    f458:	75410113          	addi	sp,sp,1876 # 0x47de5754
    f45c:	401003b3          	neg	t2,ra
    f460:	92083117          	auipc	sp,0x92083
    f464:	00110263          	beq	sp,ra,0xf468
    f468:	e70ff0ef          	jal	ra,0xead8
    f46c:	402183b3          	sub	t2,gp,sp
    f470:	8310e293          	ori	t0,ra,-1999
    f474:	0031c0b3          	xor	ra,gp,gp
    f478:	00f0c133          	xor	sp,ra,a5
    f47c:	79434293          	xori	t0,t1,1940
    f480:	81b14313          	xori	t1,sp,-2021
    f484:	339d73b7          	lui	t2,0x339d7
    f488:	72de20b7          	lui	ra,0x72de2
    f48c:	8d4b0197          	auipc	gp,0x8d4b0
    f490:	0001e1b3          	or	gp,gp,zero
    f494:	24d9e117          	auipc	sp,0x24d9e
    f498:	00014833          	xor	a6,sp,zero
    f49c:	00317333          	and	t1,sp,gp
    f4a0:	401000b3          	neg	ra,ra
    f4a4:	002042b3          	xor	t0,zero,sp
    f4a8:	00214133          	xor	sp,sp,sp
    f4ac:	bce08137          	lui	sp,0xbce08
    f4b0:	cab07093          	andi	ra,zero,-853
    f4b4:	004082b3          	add	t0,ra,tp
    f4b8:	002101b3          	add	gp,sp,sp
    f4bc:	da5332b7          	lui	t0,0xda533
    f4c0:	74728193          	addi	gp,t0,1863 # 0xffffffffda533747
    f4c4:	8ba3b117          	auipc	sp,0x8ba3b
    f4c8:	7925b1b7          	lui	gp,0x7925b
    f4cc:	b041e093          	ori	ra,gp,-1276
    f4d0:	a45de197          	auipc	gp,0xa45de
    f4d4:	cc13d3b7          	lui	t2,0xcc13d
    f4d8:	6be65117          	auipc	sp,0x6be65
    f4dc:	ddad3a97          	auipc	s5,0xddad3
    f4e0:	86993137          	lui	sp,0x86993
    f4e4:	a6e390b7          	lui	ra,0xa6e39
    f4e8:	00000117          	auipc	sp,0x0
    f4ec:	ccc100e7          	jalr	-820(sp) # 0xf1b4
    f4f0:	48d3e213          	ori	tp,t2,1165
    f4f4:	003171b3          	and	gp,sp,gp
    f4f8:	78bd5137          	lui	sp,0x78bd5
    f4fc:	8c22f093          	andi	ra,t0,-1854
    f500:	0061e133          	or	sp,gp,t1
    f504:	0191e0b3          	or	ra,gp,s9
    f508:	be618113          	addi	sp,gp,-1050 # 0xffffffffa45ed0b6
    f50c:	ed3310b7          	lui	ra,0xed331
    f510:	dfc08093          	addi	ra,ra,-516 # 0xffffffffed330dfc
    f514:	0010c1b3          	xor	gp,ra,ra
    f518:	5db011b7          	lui	gp,0x5db01
    f51c:	1757ee93          	ori	t4,a5,373
    f520:	0022f133          	and	sp,t0,sp
    f524:	72e1f093          	andi	ra,gp,1838
    f528:	89260337          	lui	t1,0x89260
    f52c:	0035c0b3          	xor	ra,a1,gp
    f530:	636900b7          	lui	ra,0x63690
    f534:	43a1a1b7          	lui	gp,0x43a1a
    f538:	822f4137          	lui	sp,0x822f4
    f53c:	0a10d137          	lui	sp,0xa10d
    f540:	a6534293          	xori	t0,t1,-1435
    f544:	d7434393          	xori	t2,t1,-652
    f548:	40f200b3          	sub	ra,tp,a5
    f54c:	61a3c097          	auipc	ra,0x61a3c
    f550:	3af16193          	ori	gp,sp,943
    f554:	2841e213          	ori	tp,gp,644
    f558:	cace9197          	auipc	gp,0xcace9
    f55c:	74d5e693          	ori	a3,a1,1869
    f560:	f2d0f193          	andi	gp,ra,-211
    f564:	0071c093          	xori	ra,gp,7
    f568:	c523e193          	ori	gp,t2,-942
    f56c:	00008193          	mv	gp,ra
    f570:	72118663          	beq	gp,ra,0xfc9c
    f574:	b96a9197          	auipc	gp,0xb96a9
    f578:	7d7240b7          	lui	ra,0x7d724
    f57c:	7b8f40b7          	lui	ra,0x7b8f4
    f580:	b7c1aa97          	auipc	s5,0xb7c1a
    f584:	0020f0b3          	and	ra,ra,sp
    f588:	a100f093          	andi	ra,ra,-1520
    f58c:	bee16113          	ori	sp,sp,-1042
    f590:	08d14013          	xori	zero,sp,141
    f594:	003184b3          	add	s1,gp,gp
    f598:	c8aa7637          	lui	a2,0xc8aa7
    f59c:	27cc1197          	auipc	gp,0x27cc1
    f5a0:	10317293          	andi	t0,sp,259
    f5a4:	eef1c197          	auipc	gp,0xeef1c
    f5a8:	70310113          	addi	sp,sp,1795 # 0xa10d703
    f5ac:	fe4141b7          	lui	gp,0xfe414
    f5b0:	0020e1b3          	or	gp,ra,sp
    f5b4:	2a206197          	auipc	gp,0x2a206
    f5b8:	7cd56117          	auipc	sp,0x7cd56
    f5bc:	964f7137          	lui	sp,0x964f7
    f5c0:	eb317193          	andi	gp,sp,-333
    f5c4:	8021f337          	lui	t1,0x8021f
    f5c8:	3d924193          	xori	gp,tp,985
    f5cc:	002a6333          	or	t1,s4,sp
    f5d0:	6993a097          	auipc	ra,0x6993a
    f5d4:	3658f1b7          	lui	gp,0x3658f
    f5d8:	c15cf017          	auipc	zero,0xc15cf
    f5dc:	864110b7          	lui	ra,0x86411
    f5e0:	8d0ba097          	auipc	ra,0x8d0ba
    f5e4:	ce2da0b7          	lui	ra,0xce2da
    f5e8:	406680b3          	sub	ra,a3,t1
    f5ec:	398e92b7          	lui	t0,0x398e9
    f5f0:	0023f1b3          	and	gp,t2,sp
    f5f4:	e22d4493          	xori	s1,s10,-478
    f5f8:	a1210113          	addi	sp,sp,-1518 # 0xffffffff964f6a12
    f5fc:	00010093          	mv	ra,sp
    f600:	52208263          	beq	ra,sp,0xfb24
    f604:	00600333          	add	t1,zero,t1
    f608:	34b0c093          	xori	ra,ra,843
    f60c:	004a0eb3          	add	t4,s4,tp
    f610:	68079137          	lui	sp,0x68079
    f614:	ef6d7197          	auipc	gp,0xef6d7
    f618:	0e097037          	lui	zero,0xe097
    f61c:	71207013          	andi	zero,zero,1810
    f620:	72216093          	ori	ra,sp,1826
    f624:	3a0630b7          	lui	ra,0x3a063
    f628:	0cd11137          	lui	sp,0xcd11
    f62c:	1a46a0b7          	lui	ra,0x1a46a
    f630:	a74e6197          	auipc	gp,0xa74e6
    f634:	69af00b7          	lui	ra,0x69af0
    f638:	a1a770b7          	lui	ra,0xa1a77
    f63c:	0023f1b3          	and	gp,t2,sp
    f640:	18366317          	auipc	t1,0x18366
    f644:	003261b3          	or	gp,tp,gp
    f648:	00408133          	add	sp,ra,tp
    f64c:	00b14033          	xor	zero,sp,a1
    f650:	ea278397          	auipc	t2,0xea278
    f654:	28117013          	andi	zero,sp,641
    f658:	2ce4d1b7          	lui	gp,0x2ce4d
    f65c:	402103b3          	sub	t2,sp,sp
    f660:	794e3017          	auipc	zero,0x794e3
    f664:	40220233          	sub	tp,tp,sp
    f668:	86b14193          	xori	gp,sp,-1941
    f66c:	22c0c093          	xori	ra,ra,556
    f670:	4f050193          	addi	gp,a0,1264 # 0x3bf346d4
    f674:	b3ab31b7          	lui	gp,0xb3ab3
    f678:	f851e113          	ori	sp,gp,-123
    f67c:	0bc1c313          	xori	t1,gp,188
    f680:	46d1f013          	andi	zero,gp,1133
    f684:	d570e393          	ori	t2,ra,-681
    f688:	b920e113          	ori	sp,ra,-1134
    f68c:	d4246197          	auipc	gp,0xd4246
    f690:	b793a5b7          	lui	a1,0xb793a
    f694:	58284317          	auipc	t1,0x58284
    f698:	00000097          	auipc	ra,0x0
    f69c:	3f4081e7          	jalr	gp,1012(ra) # 0xfa8c
    f6a0:	ce217193          	andi	gp,sp,-798
    f6a4:	d2ce5197          	auipc	gp,0xd2ce5
    f6a8:	cab06113          	ori	sp,zero,-853
    f6ac:	5820d197          	auipc	gp,0x5820d
    f6b0:	d1f520b7          	lui	ra,0xd1f52
    f6b4:	75a24117          	auipc	sp,0x75a24
    f6b8:	002af0b3          	and	ra,s5,sp
    f6bc:	ec40f293          	andi	t0,ra,-316
    f6c0:	f9332397          	auipc	t2,0xf9332
    f6c4:	00410233          	add	tp,sp,tp
    f6c8:	21024197          	auipc	gp,0x21024
    f6cc:	b181a0b7          	lui	ra,0xb181a
    f6d0:	3b501117          	auipc	sp,0x3b501
    f6d4:	c6f16193          	ori	gp,sp,-913
    f6d8:	56733197          	auipc	gp,0x56733
    f6dc:	999630b7          	lui	ra,0x99963
    f6e0:	0039f133          	and	sp,s3,gp
    f6e4:	8864e0b7          	lui	ra,0x8864e
    f6e8:	002261b3          	or	gp,tp,sp
    f6ec:	34e3a597          	auipc	a1,0x34e3a
    f6f0:	0b932137          	lui	sp,0xb932
    f6f4:	4e55c117          	auipc	sp,0x4e55c
    f6f8:	b0073197          	auipc	gp,0xb0073
    f6fc:	e8d6e117          	auipc	sp,0xe8d6e
    f700:	73c37293          	andi	t0,t1,1852
    f704:	3e210113          	addi	sp,sp,994 # 0xffffffffe8d7dade
    f708:	11178117          	auipc	sp,0x11178
    f70c:	df6bf237          	lui	tp,0xdf6bf
    f710:	00110263          	beq	sp,ra,0xf714
    f714:	0ed0036f          	jal	t1,0x10000
    f718:	00000013          	nop
    f71c:	00000013          	nop
    f720:	00000013          	nop
    f724:	00000013          	nop
    f728:	0000006f          	j	0xf728
    f72c:	ea317193          	andi	gp,sp,-349
    f730:	409081b3          	sub	gp,ra,s1
    f734:	214bf217          	auipc	tp,0x214bf
    f738:	01607133          	and	sp,zero,s6
    f73c:	b748a197          	auipc	gp,0xb748a
    f740:	00328333          	add	t1,t0,gp
    f744:	d6fd61b7          	lui	gp,0xd6fd6
    f748:	9c9bc097          	auipc	ra,0x9c9bc
    f74c:	ea8b1137          	lui	sp,0xea8b1
    f750:	bb695217          	auipc	tp,0xbb695
    f754:	ffd391b7          	lui	gp,0xffd39
    f758:	e6914113          	xori	sp,sp,-407
    f75c:	969ea1b7          	lui	gp,0x969ea
    f760:	b4416293          	ori	t0,sp,-1212
    f764:	2f8fe4b7          	lui	s1,0x2f8fe
    f768:	002161b3          	or	gp,sp,sp
    f76c:	00324033          	xor	zero,tp,gp
    f770:	f8ea71b7          	lui	gp,0xf8ea7
    f774:	0010c1b3          	xor	gp,ra,ra
    f778:	1c264213          	xori	tp,a2,450
    f77c:	002360b3          	or	ra,t1,sp
    f780:	eee9a0b7          	lui	ra,0xeee9a
    f784:	e8550c97          	auipc	s9,0xe8550
    f788:	00018033          	add	zero,gp,zero
    f78c:	006360b3          	or	ra,t1,t1
    f790:	0030e233          	or	tp,ra,gp
    f794:	5f3612b7          	lui	t0,0x5f361
    f798:	7f21a117          	auipc	sp,0x7f21a
    f79c:	19f1c193          	xori	gp,gp,415
    f7a0:	b467b1b7          	lui	gp,0xb467b
    f7a4:	00010a13          	mv	s4,sp
    f7a8:	002a0263          	beq	s4,sp,0xf7ac
    f7ac:	e3e76297          	auipc	t0,0xe3e76
    f7b0:	401182b3          	sub	t0,gp,ra
    f7b4:	ebfb11b7          	lui	gp,0xebfb1
    f7b8:	6b7fd137          	lui	sp,0x6b7fd
    f7bc:	da12cc97          	auipc	s9,0xda12c
    f7c0:	80861317          	auipc	t1,0x80861
    f7c4:	fafbb137          	lui	sp,0xfafbb
    f7c8:	a4ee1db7          	lui	s11,0xa4ee1
    f7cc:	a0ad1197          	auipc	gp,0xa0ad1
    f7d0:	ad308593          	addi	a1,ra,-1325 # 0xffffffffeee99ad3
    f7d4:	52880397          	auipc	t2,0x52880
    f7d8:	f2f20097          	auipc	ra,0xf2f20
    f7dc:	0010e0b3          	or	ra,ra,ra
    f7e0:	ccfee013          	ori	zero,t4,-817
    f7e4:	8107f217          	auipc	tp,0x8107f
    f7e8:	a451e093          	ori	ra,gp,-1467
    f7ec:	51600197          	auipc	gp,0x51600
    f7f0:	6e175037          	lui	zero,0x6e175
    f7f4:	003800b3          	add	ra,a6,gp
    f7f8:	a4c7b237          	lui	tp,0xa4c7b
    f7fc:	e750f197          	auipc	gp,0xe750f
    f800:	46610093          	addi	ra,sp,1126 # 0xfffffffffafbb466
    f804:	d4aac037          	lui	zero,0xd4aac
    f808:	00317b33          	and	s6,sp,gp
    f80c:	cf68c117          	auipc	sp,0xcf68c
    f810:	80518093          	addi	ra,gp,-2043 # 0xffffffffe751e001
    f814:	4a201d17          	auipc	s10,0x4a201
    f818:	7e142117          	auipc	sp,0x7e142
    f81c:	ecc18093          	addi	ra,gp,-308
    f820:	9b00c113          	xori	sp,ra,-1616
    f824:	00200133          	add	sp,zero,sp
    f828:	d430fc93          	andi	s9,ra,-701
    f82c:	01a10333          	add	t1,sp,s10
    f830:	0060c133          	xor	sp,ra,t1
    f834:	00018193          	mv	gp,gp
    f838:	12318c63          	beq	gp,gp,0xf970
    f83c:	053e4097          	auipc	ra,0x53e4
    f840:	8a218393          	addi	t2,gp,-1886
    f844:	0020f133          	and	sp,ra,sp
    f848:	499f4137          	lui	sp,0x499f4
    f84c:	c29f23b7          	lui	t2,0xc29f2
    f850:	e10e11b7          	lui	gp,0xe10e1
    f854:	47dd5217          	auipc	tp,0x47dd5
    f858:	cf01e193          	ori	gp,gp,-784
    f85c:	b4c20093          	addi	ra,tp,-1204 # 0x47de43a0
    f860:	0060f333          	and	t1,ra,t1
    f864:	d330e113          	ori	sp,ra,-717
    f868:	f0ca5137          	lui	sp,0xf0ca5
    f86c:	9ea50117          	auipc	sp,0x9ea50
    f870:	90c7e197          	auipc	gp,0x90c7e
    f874:	0020c6b3          	xor	a3,ra,sp
    f878:	0020c0b3          	xor	ra,ra,sp
    f87c:	8264c097          	auipc	ra,0x8264c
    f880:	5b484097          	auipc	ra,0x5b484
    f884:	d231e293          	ori	t0,gp,-733
    f888:	70373097          	auipc	ra,0x70373
    f88c:	6db27197          	auipc	gp,0x6db27
    f890:	fb89d0b7          	lui	ra,0xfb89d
    f894:	4f5c31b7          	lui	gp,0x4f5c3
    f898:	fe1bd017          	auipc	zero,0xfe1bd
    f89c:	0030c333          	xor	t1,ra,gp
    f8a0:	9f5991b7          	lui	gp,0x9f599
    f8a4:	17c16093          	ori	ra,sp,380
    f8a8:	09614337          	lui	t1,0x9614
    f8ac:	d790f193          	andi	gp,ra,-647
    f8b0:	7b972097          	auipc	ra,0x7b972
    f8b4:	edb89117          	auipc	sp,0xedb89
    f8b8:	0015c133          	xor	sp,a1,ra
    f8bc:	d52340b7          	lui	ra,0xd5234
    f8c0:	6b21c093          	xori	ra,gp,1714
    f8c4:	8f8b71b7          	lui	gp,0x8f8b7
    f8c8:	1b54a117          	auipc	sp,0x1b54a
    f8cc:	eb6cd117          	auipc	sp,0xeb6cd
    f8d0:	3130f137          	lui	sp,0x3130f
    f8d4:	00000797          	auipc	a5,0x0
    f8d8:	c1c781e7          	jalr	gp,-996(a5) # 0xf4f0
    f8dc:	43d42097          	auipc	ra,0x43d42
    f8e0:	fb635117          	auipc	sp,0xfb635
    f8e4:	97f8e0b7          	lui	ra,0x97f8e
    f8e8:	0b310113          	addi	sp,sp,179 # 0xfffffffffb644993
    f8ec:	9ae9a097          	auipc	ra,0x9ae9a
    f8f0:	006048b3          	xor	a7,zero,t1
    f8f4:	8bdfd0b7          	lui	ra,0x8bdfd
    f8f8:	cff36117          	auipc	sp,0xcff36
    f8fc:	d7ac3117          	auipc	sp,0xd7ac3
    f900:	0011f1b3          	and	gp,gp,ra
    f904:	402181b3          	sub	gp,gp,sp
    f908:	65c71137          	lui	sp,0x65c71
    f90c:	5d1a8097          	auipc	ra,0x5d1a8
    f910:	f62a13b7          	lui	t2,0xf62a1
    f914:	783d2117          	auipc	sp,0x783d2
    f918:	3dfd10b7          	lui	ra,0x3dfd1
    f91c:	7e570217          	auipc	tp,0x7e570
    f920:	0021c7b3          	xor	a5,gp,sp
    f924:	8ed17193          	andi	gp,sp,-1811
    f928:	03217193          	andi	gp,sp,50
    f92c:	00530933          	add	s2,t1,t0
    f930:	87116313          	ori	t1,sp,-1935
    f934:	003162b3          	or	t0,sp,gp
    f938:	00316133          	or	sp,sp,gp
    f93c:	f71f0393          	addi	t2,t5,-143 # 0x5b928f71
    f940:	40308333          	sub	t1,ra,gp
    f944:	001100b3          	add	ra,sp,ra
    f948:	d180f093          	andi	ra,ra,-744
    f94c:	ab90e193          	ori	gp,ra,-1351
    f950:	8900b7b7          	lui	a5,0x8900b
    f954:	d0358097          	auipc	ra,0xd0358
    f958:	0014e1b3          	or	gp,s1,ra
    f95c:	57514093          	xori	ra,sp,1397
    f960:	0020f9b3          	and	s3,ra,sp
    f964:	002480b3          	add	ra,s1,sp
    f968:	00010093          	mv	ra,sp
    f96c:	2a208c63          	beq	ra,sp,0xfc24
    f970:	00110333          	add	t1,sp,ra
    f974:	a99c50b7          	lui	ra,0xa99c5
    f978:	ae61f193          	andi	gp,gp,-1306
    f97c:	04bac137          	lui	sp,0x4bac
    f980:	4958f097          	auipc	ra,0x4958f
    f984:	314c4137          	lui	sp,0x314c4
    f988:	29c2f213          	andi	tp,t0,668
    f98c:	4d91e017          	auipc	zero,0x4d91e
    f990:	00118133          	add	sp,gp,ra
    f994:	0030e333          	or	t1,ra,gp
    f998:	84900137          	lui	sp,0x84900
    f99c:	28c8b117          	auipc	sp,0x28c8b
    f9a0:	00408233          	add	tp,ra,tp
    f9a4:	e6e17a93          	andi	s5,sp,-402
    f9a8:	b471f093          	andi	ra,gp,-1209
    f9ac:	94377337          	lui	t1,0x94377
    f9b0:	edc82137          	lui	sp,0xedc82
    f9b4:	27220093          	addi	ra,tp,626 # 0x7e57fb8e
    f9b8:	0020e1b3          	or	gp,ra,sp
    f9bc:	37355017          	auipc	zero,0x37355
    f9c0:	a817a197          	auipc	gp,0xa817a
    f9c4:	30a10097          	auipc	ra,0x30a10
    f9c8:	3de34113          	xori	sp,t1,990
    f9cc:	cf8d4137          	lui	sp,0xcf8d4
    f9d0:	d1be20b7          	lui	ra,0xd1be2
    f9d4:	ee437217          	auipc	tp,0xee437
    f9d8:	001041b3          	xor	gp,zero,ra
    f9dc:	a8724113          	xori	sp,tp,-1401
    f9e0:	5c213397          	auipc	t2,0x5c213
    f9e4:	ec61f193          	andi	gp,gp,-314
    f9e8:	401189b3          	sub	s3,gp,ra
    f9ec:	ba367197          	auipc	gp,0xba367
    f9f0:	bd1fbcb7          	lui	s9,0xbd1fb
    f9f4:	0043c1b3          	xor	gp,t2,tp
    f9f8:	85df2117          	auipc	sp,0x85df2
    f9fc:	00000217          	auipc	tp,0x0
    fa00:	334201e7          	jalr	gp,820(tp) # 0x0
    fa04:	01e0e1b3          	or	gp,ra,t5
    fa08:	d0d16093          	ori	ra,sp,-755
    fa0c:	5d001037          	lui	zero,0x5d001
    fa10:	d010e093          	ori	ra,ra,-767
    fa14:	0031c0b3          	xor	ra,gp,gp
    fa18:	0070f1b3          	and	gp,ra,t2
    fa1c:	6211c393          	xori	t2,gp,1569
    fa20:	d323e113          	ori	sp,t2,-718
    fa24:	8c6a7297          	auipc	t0,0x8c6a7
    fa28:	ead191b7          	lui	gp,0xead19
    fa2c:	00b1f0b3          	and	ra,gp,a1
    fa30:	b5f590b7          	lui	ra,0xb5f59
    fa34:	c4a63117          	auipc	sp,0xc4a63
    fa38:	40310133          	sub	sp,sp,gp
    fa3c:	8dbfc137          	lui	sp,0x8dbfc
    fa40:	a8d9e217          	auipc	tp,0xa8d9e
    fa44:	00f001b3          	add	gp,zero,a5
    fa48:	3251e113          	ori	sp,gp,805
    fa4c:	6a917093          	andi	ra,sp,1705
    fa50:	a2636117          	auipc	sp,0xa2636
    fa54:	8fc87093          	andi	ra,a6,-1796
    fa58:	002201b3          	add	gp,tp,sp
    fa5c:	57a08237          	lui	tp,0x57a08
    fa60:	40210333          	sub	t1,sp,sp
    fa64:	00330133          	add	sp,t1,gp
    fa68:	1890a117          	auipc	sp,0x1890a
    fa6c:	00508233          	add	tp,ra,t0
    fa70:	38acb097          	auipc	ra,0x38acb
    fa74:	0002e1b3          	or	gp,t0,zero
    fa78:	0030e233          	or	tp,ra,gp
    fa7c:	dab22317          	auipc	t1,0xdab22
    fa80:	20968193          	addi	gp,a3,521 # 0xfd8d499
    fa84:	43810a63          	beq	sp,s8,0xfeb8
    fa88:	430001ef          	jal	gp,0xfeb8
    fa8c:	e452e797          	auipc	a5,0xe452e
    fa90:	5731e113          	ori	sp,gp,1395
    fa94:	cb15b117          	auipc	sp,0xcb15b
    fa98:	91ab81b7          	lui	gp,0x91ab8
    fa9c:	405107b3          	sub	a5,sp,t0
    faa0:	ef636117          	auipc	sp,0xef636
    faa4:	00e20197          	auipc	gp,0xe20
    faa8:	6c51d0b7          	lui	ra,0x6c51d
    faac:	ffca9137          	lui	sp,0xffca9
    fab0:	ce420093          	addi	ra,tp,-796 # 0x57a07ce4
    fab4:	0023f333          	and	t1,t2,sp
    fab8:	00008133          	add	sp,ra,zero
    fabc:	d5a1c713          	xori	a4,gp,-678
    fac0:	6da78097          	auipc	ra,0x6da78
    fac4:	002163b3          	or	t2,sp,sp
    fac8:	25d74337          	lui	t1,0x25d74
    facc:	abccd3b7          	lui	t2,0xabccd
    fad0:	f97fa037          	lui	zero,0xf97fa
    fad4:	d8e551b7          	lui	gp,0xd8e55
    fad8:	40238033          	sub	zero,t2,sp
    fadc:	0030c1b3          	xor	gp,ra,gp
    fae0:	00108133          	add	sp,ra,ra
    fae4:	6cd8d1b7          	lui	gp,0x6cd8d
    fae8:	003160b3          	or	ra,sp,gp
    faec:	d2a14093          	xori	ra,sp,-726
    faf0:	00906033          	or	zero,zero,s1
    faf4:	0040e1b3          	or	gp,ra,tp
    faf8:	000300b3          	add	ra,t1,zero
    fafc:	0020c1b3          	xor	gp,ra,sp
    fb00:	67bb6297          	auipc	t0,0x67bb6
    fb04:	405000b3          	neg	ra,t0
    fb08:	00b0ffb3          	and	t6,ra,a1
    fb0c:	000185b3          	add	a1,gp,zero
    fb10:	a261c113          	xori	sp,gp,-1498
    fb14:	25a60117          	auipc	sp,0x25a60
    fb18:	402e33b7          	lui	t2,0x402e3
    fb1c:	30300863          	beq	zero,gp,0xfe2c
    fb20:	30c003ef          	jal	t2,0xfe2c
    fb24:	002303b3          	add	t2,t1,sp
    fb28:	0011e133          	or	sp,gp,ra
    fb2c:	0020f133          	and	sp,ra,sp
    fb30:	92f6b097          	auipc	ra,0x92f6b
    fb34:	005080b3          	add	ra,ra,t0
    fb38:	00214333          	xor	t1,sp,sp
    fb3c:	0ef18113          	addi	sp,gp,239 # 0x6cd8d0ef
    fb40:	2e313197          	auipc	gp,0x2e313
    fb44:	13a14193          	xori	gp,sp,314
    fb48:	b240f197          	auipc	gp,0xb240f
    fb4c:	401081b3          	sub	gp,ra,ra
    fb50:	fcf18113          	addi	sp,gp,-49 # 0xffffffffb241eb17
    fb54:	00b44033          	xor	zero,s0,a1
    fb58:	ee7f5117          	auipc	sp,0xee7f5
    fb5c:	b69ac2b7          	lui	t0,0xb69ac
    fb60:	b9bcb197          	auipc	gp,0xb9bcb
    fb64:	2ea0f913          	andi	s2,ra,746
    fb68:	96414113          	xori	sp,sp,-1692
    fb6c:	00208133          	add	sp,ra,sp
    fb70:	c87d5197          	auipc	gp,0xc87d5
    fb74:	402081b3          	sub	gp,ra,sp
    fb78:	1b815037          	lui	zero,0x1b815
    fb7c:	006143b3          	xor	t2,sp,t1
    fb80:	fd38e117          	auipc	sp,0xfd38e
    fb84:	e251f113          	andi	sp,gp,-475
    fb88:	001583b3          	add	t2,a1,ra
    fb8c:	00308133          	add	sp,ra,gp
    fb90:	001161b3          	or	gp,sp,ra
    fb94:	9aa36193          	ori	gp,t1,-1622
    fb98:	c959e0b7          	lui	ra,0xc959e
    fb9c:	40300133          	neg	sp,gp
    fba0:	00018213          	mv	tp,gp
    fba4:	a63200e3          	beq	tp,gp,0xf604
    fba8:	bd712197          	auipc	gp,0xbd712
    fbac:	2ea1e493          	ori	s1,gp,746
    fbb0:	48e651b7          	lui	gp,0x48e65
    fbb4:	dae0e193          	ori	gp,ra,-594
    fbb8:	00137033          	and	zero,t1,ra
    fbbc:	6d29a217          	auipc	tp,0x6d29a
    fbc0:	ad573017          	auipc	zero,0xad573
    fbc4:	0003e1b3          	or	gp,t2,zero
    fbc8:	cee16093          	ori	ra,sp,-786
    fbcc:	9829c0b7          	lui	ra,0x9829c
    fbd0:	aec69197          	auipc	gp,0xaec69
    fbd4:	d001c193          	xori	gp,gp,-768
    fbd8:	9ccff097          	auipc	ra,0x9ccff
    fbdc:	046f8137          	lui	sp,0x46f8
    fbe0:	9d7f0197          	auipc	gp,0x9d7f0
    fbe4:	aa6f6317          	auipc	t1,0xaa6f6
    fbe8:	40200133          	neg	sp,sp
    fbec:	cf141397          	auipc	t2,0xcf141
    fbf0:	2ff710b7          	lui	ra,0x2ff71
    fbf4:	793a1217          	auipc	tp,0x793a1
    fbf8:	23024137          	lui	sp,0x23024
    fbfc:	2bd28193          	addi	gp,t0,701 # 0xffffffffb69ac2bd
    fc00:	001361b3          	or	gp,t1,ra
    fc04:	00116233          	or	tp,sp,ra
    fc08:	013581b3          	add	gp,a1,s3
    fc0c:	3fcd21b7          	lui	gp,0x3fcd2
    fc10:	a76a6137          	lui	sp,0xa76a6
    fc14:	003177b3          	and	a5,sp,gp
    fc18:	f09d7297          	auipc	t0,0xf09d7
    fc1c:	b05108e3          	beq	sp,t0,0xf72c
    fc20:	b0dff16f          	jal	sp,0xf72c
    fc24:	b29b6197          	auipc	gp,0xb29b6
    fc28:	99b27097          	auipc	ra,0x99b27
    fc2c:	001060b3          	or	ra,zero,ra
    fc30:	75f66137          	lui	sp,0x75f66
    fc34:	8f0ac197          	auipc	gp,0x8f0ac
    fc38:	1ba46117          	auipc	sp,0x1ba46
    fc3c:	402200b3          	sub	ra,tp,sp
    fc40:	6c11e013          	ori	zero,gp,1729
    fc44:	5a106193          	ori	gp,zero,1441
    fc48:	ee21f793          	andi	a5,gp,-286
    fc4c:	74f8e117          	auipc	sp,0x74f8e
    fc50:	ff2241b7          	lui	gp,0xff224
    fc54:	000303b3          	add	t2,t1,zero
    fc58:	37f0f093          	andi	ra,ra,895
    fc5c:	0441c193          	xori	gp,gp,68
    fc60:	002170b3          	and	ra,sp,sp
    fc64:	00216133          	or	sp,sp,sp
    fc68:	3cdbd0b7          	lui	ra,0x3cdbd
    fc6c:	0011e1b3          	or	gp,gp,ra
    fc70:	ef3200b7          	lui	ra,0xef320
    fc74:	a83b7317          	auipc	t1,0xa83b7
    fc78:	0068f033          	and	zero,a7,t1
    fc7c:	e05b11b7          	lui	gp,0xe05b1
    fc80:	40200133          	neg	sp,sp
    fc84:	001381b3          	add	gp,t2,ra
    fc88:	9bc860b7          	lui	ra,0x9bc86
    fc8c:	c98bf1b7          	lui	gp,0xc98bf
    fc90:	e3f0e0b7          	lui	ra,0xe3f0e
    fc94:	00010093          	mv	ra,sp
    fc98:	d62086e3          	beq	ra,sp,0xfa04
    fc9c:	00118333          	add	t1,gp,ra
    fca0:	b9625117          	auipc	sp,0xb9625
    fca4:	006881b3          	add	gp,a7,t1
    fca8:	2ba0e313          	ori	t1,ra,698
    fcac:	41c1f493          	andi	s1,gp,1052
    fcb0:	6c718113          	addi	sp,gp,1735 # 0xffffffffc98bf6c7
    fcb4:	be268197          	auipc	gp,0xbe268
    fcb8:	535a0297          	auipc	t0,0x535a0
    fcbc:	b23e50b7          	lui	ra,0xb23e5
    fcc0:	4003a197          	auipc	gp,0x4003a
    fcc4:	922a7217          	auipc	tp,0x922a7
    fcc8:	49318113          	addi	sp,gp,1171 # 0x4004a153
    fccc:	8bf56a17          	auipc	s4,0x8bf56
    fcd0:	9c438137          	lui	sp,0x9c438
    fcd4:	003080b3          	add	ra,ra,gp
    fcd8:	3ab28193          	addi	gp,t0,939 # 0x535b0063
    fcdc:	52c17337          	lui	t1,0x52c17
    fce0:	05c96e97          	auipc	t4,0x5c96
    fce4:	d80880b7          	lui	ra,0xd8088
    fce8:	008180b3          	add	ra,gp,s0
    fcec:	003070b3          	and	ra,zero,gp
    fcf0:	00118033          	add	zero,gp,ra
    fcf4:	00f1e333          	or	t1,gp,a5
    fcf8:	09e91117          	auipc	sp,0x9e91
    fcfc:	24e37093          	andi	ra,t1,590
    fd00:	7002e093          	ori	ra,t0,1792
    fd04:	60ab6197          	auipc	gp,0x60ab6
    fd08:	b0921097          	auipc	ra,0xb0921
    fd0c:	e07b0117          	auipc	sp,0xe07b0
    fd10:	be608113          	addi	sp,ra,-1050 # 0xffffffffb09308ee
    fd14:	0dc9c0b7          	lui	ra,0xdc9c
    fd18:	9cdf5117          	auipc	sp,0x9cdf5
    fd1c:	809f8217          	auipc	tp,0x809f8
    fd20:	0070f0b3          	and	ra,ra,t2
    fd24:	e47e9117          	auipc	sp,0xe47e9
    fd28:	00010193          	mv	gp,sp
    fd2c:	842184e3          	beq	gp,sp,0xf574
    fd30:	0f33f0b7          	lui	ra,0xf33f
    fd34:	40118133          	sub	sp,gp,ra
    fd38:	12710337          	lui	t1,0x12710
    fd3c:	003160b3          	or	ra,sp,gp
    fd40:	df1f1117          	auipc	sp,0xdf1f1
    fd44:	f76202b7          	lui	t0,0xf7620
    fd48:	cb0cdb37          	lui	s6,0xcb0cd
    fd4c:	40d00333          	neg	t1,a3
    fd50:	ff660137          	lui	sp,0xff660
    fd54:	2b24f0b7          	lui	ra,0x2b24f
    fd58:	d6df3037          	lui	zero,0xd6df3
    fd5c:	00118333          	add	t1,gp,ra
    fd60:	3ff0c113          	xori	sp,ra,1023
    fd64:	a680c297          	auipc	t0,0xa680c
    fd68:	fd0e3237          	lui	tp,0xfd0e3
    fd6c:	0031f033          	and	zero,gp,gp
    fd70:	e511b117          	auipc	sp,0xe511b
    fd74:	c0b19117          	auipc	sp,0xc0b19
    fd78:	8581f113          	andi	sp,gp,-1960
    fd7c:	003201b3          	add	gp,tp,gp
    fd80:	40110233          	sub	tp,sp,ra
    fd84:	7cc16093          	ori	ra,sp,1996
    fd88:	0031f133          	and	sp,gp,gp
    fd8c:	1f41e093          	ori	ra,gp,500
    fd90:	e950c193          	xori	gp,ra,-363
    fd94:	33e94117          	auipc	sp,0x33e94
    fd98:	a1d9d017          	auipc	zero,0xa1d9d
    fd9c:	cee33197          	auipc	gp,0xcee33
    fda0:	607b90b7          	lui	ra,0x607b9
    fda4:	a90a0117          	auipc	sp,0xa90a0
    fda8:	c9436a13          	ori	s4,t1,-876
    fdac:	d69b91b7          	lui	gp,0xd69b9
    fdb0:	19208013          	addi	zero,ra,402 # 0x607b9192
    fdb4:	00010293          	mv	t0,sp
    fdb8:	8e2284e3          	beq	t0,sp,0xf6a0
    fdbc:	d9a1f113          	andi	sp,gp,-614
    fdc0:	f583e0b7          	lui	ra,0xf583e
    fdc4:	33fbc317          	auipc	t1,0x33fbc
    fdc8:	ccdf1097          	auipc	ra,0xccdf1
    fdcc:	9736c193          	xori	gp,a3,-1677
    fdd0:	3b705197          	auipc	gp,0x3b705
    fdd4:	4f20c297          	auipc	t0,0x4f20c
    fdd8:	18718193          	addi	gp,gp,391 # 0x3b714f57
    fddc:	d9dc53b7          	lui	t2,0xd9dc5
    fde0:	a55780b7          	lui	ra,0xa5578
    fde4:	00214133          	xor	sp,sp,sp
    fde8:	b33bb1b7          	lui	gp,0xb33bb
    fdec:	2a777117          	auipc	sp,0x2a777
    fdf0:	00214133          	xor	sp,sp,sp
    fdf4:	9501f293          	andi	t0,gp,-1712
    fdf8:	bbed70b7          	lui	ra,0xbbed7
    fdfc:	bf0d3097          	auipc	ra,0xbf0d3
    fe00:	0681f293          	andi	t0,gp,104
    fe04:	00014133          	xor	sp,sp,zero
    fe08:	eb105137          	lui	sp,0xeb105
    fe0c:	2ef17213          	andi	tp,sp,751
    fe10:	cb81f013          	andi	zero,gp,-840
    fe14:	402301b3          	sub	gp,t1,sp
    fe18:	5735d197          	auipc	gp,0x5735d
    fe1c:	0dd0a097          	auipc	ra,0xdd0a
    fe20:	00237333          	and	t1,t1,sp
    fe24:	d8b102e3          	beq	sp,a1,0xfba8
    fe28:	d81ff2ef          	jal	t0,0xfba8
    fe2c:	8e990137          	lui	sp,0x8e990
    fe30:	00566097          	auipc	ra,0x566
    fe34:	0031f1b3          	and	gp,gp,gp
    fe38:	0010e233          	or	tp,ra,ra
    fe3c:	b18970b7          	lui	ra,0xb1897
    fe40:	1aed91b7          	lui	gp,0x1aed9
    fe44:	1de0f113          	andi	sp,ra,478
    fe48:	9ea1e113          	ori	sp,gp,-1558
    fe4c:	32314193          	xori	gp,sp,803
    fe50:	4384d497          	auipc	s1,0x4384d
    fe54:	f5d03117          	auipc	sp,0xf5d03
    fe58:	6a67c117          	auipc	sp,0x6a67c
    fe5c:	bc5130b7          	lui	ra,0xbc513
    fe60:	00a04397          	auipc	t2,0xa04
    fe64:	a1d15197          	auipc	gp,0xa1d15
    fe68:	84230213          	addi	tp,t1,-1982 # 0x33fcb606
    fe6c:	46734193          	xori	gp,t1,1127
    fe70:	1671e113          	ori	sp,gp,359
    fe74:	0015e133          	or	sp,a1,ra
    fe78:	b1852297          	auipc	t0,0xb1852
    fe7c:	b64c90b7          	lui	ra,0xb64c9
    fe80:	7a39f197          	auipc	gp,0x7a39f
    fe84:	e5cab1b7          	lui	gp,0xe5cab
    fe88:	4ed2a0b7          	lui	ra,0x4ed2a
    fe8c:	49e1e7b7          	lui	a5,0x49e1e
    fe90:	6ec06193          	ori	gp,zero,1772
    fe94:	1d5b3117          	auipc	sp,0x1d5b3
    fe98:	9b918193          	addi	gp,gp,-1607 # 0xffffffffe5caa9b9
    fe9c:	aee23117          	auipc	sp,0xaee23
    fea0:	b398a197          	auipc	gp,0xb398a
    fea4:	bdb2f093          	andi	ra,t0,-1061
    fea8:	08ea8497          	auipc	s1,0x8ea8
    feac:	0070f733          	and	a4,ra,t2
    feb0:	a27106e3          	beq	sp,t2,0xf8dc
    feb4:	a29ff1ef          	jal	gp,0xf8dc
    feb8:	4e179017          	auipc	zero,0x4e179
    febc:	004187b3          	add	a5,gp,tp
    fec0:	00618033          	add	zero,gp,t1
    fec4:	8bfa8097          	auipc	ra,0x8bfa8
    fec8:	403181b3          	sub	gp,gp,gp
    fecc:	c87b0097          	auipc	ra,0xc87b0
    fed0:	401181b3          	sub	gp,gp,ra
    fed4:	ef018193          	addi	gp,gp,-272 # 0xffffffffb3999d90
    fed8:	78688217          	auipc	tp,0x78688
    fedc:	2595e097          	auipc	ra,0x2595e
    fee0:	93d14113          	xori	sp,sp,-1731
    fee4:	00310133          	add	sp,sp,gp
    fee8:	16b880b7          	lui	ra,0x16b88
    feec:	5a665117          	auipc	sp,0x5a665
    fef0:	3dd16093          	ori	ra,sp,989
    fef4:	0020e333          	or	t1,ra,sp
    fef8:	e57c1117          	auipc	sp,0xe57c1
    fefc:	e495d0b7          	lui	ra,0xe495d
    ff00:	6ef1c137          	lui	sp,0x6ef1c
    ff04:	a7521137          	lui	sp,0xa7521
    ff08:	e1e8f5b7          	lui	a1,0xe1e8f
    ff0c:	00d260b3          	or	ra,tp,a3
    ff10:	ac949097          	auipc	ra,0xac949
    ff14:	8c914193          	xori	gp,sp,-1847
    ff18:	9790f293          	andi	t0,ra,-1671
    ff1c:	003263b3          	or	t2,tp,gp
    ff20:	e143f197          	auipc	gp,0xe143f
    ff24:	5fe24193          	xori	gp,tp,1534
    ff28:	8e0b01b7          	lui	gp,0x8e0b0
    ff2c:	bc7ca197          	auipc	gp,0xbc7ca
    ff30:	24d088b7          	lui	a7,0x24d08
    ff34:	b4e89017          	auipc	zero,0xb4e89
    ff38:	e7733117          	auipc	sp,0xe7733
    ff3c:	004266b3          	or	a3,tp,tp
    ff40:	0001e333          	or	t1,gp,zero
    ff44:	e1f55097          	auipc	ra,0xe1f55
    ff48:	00000197          	auipc	gp,0x0
    ff4c:	e74181e7          	jalr	gp,-396(gp) # 0xfdbc
    ff50:	deadbeef          	jal	t4,0xfffffffffffeb53a
    ff54:	deadbeef          	jal	t4,0xfffffffffffeb53e
    ff58:	deadbeef          	jal	t4,0xfffffffffffeb542
    ff5c:	deadbeef          	jal	t4,0xfffffffffffeb546
    ff60:	deadbeef          	jal	t4,0xfffffffffffeb54a
    ff64:	deadbeef          	jal	t4,0xfffffffffffeb54e
    ff68:	deadbeef          	jal	t4,0xfffffffffffeb552
    ff6c:	deadbeef          	jal	t4,0xfffffffffffeb556
    ff70:	deadbeef          	jal	t4,0xfffffffffffeb55a
    ff74:	deadbeef          	jal	t4,0xfffffffffffeb55e
    ff78:	deadbeef          	jal	t4,0xfffffffffffeb562
    ff7c:	deadbeef          	jal	t4,0xfffffffffffeb566
    ff80:	deadbeef          	jal	t4,0xfffffffffffeb56a
    ff84:	deadbeef          	jal	t4,0xfffffffffffeb56e
    ff88:	deadbeef          	jal	t4,0xfffffffffffeb572
    ff8c:	deadbeef          	jal	t4,0xfffffffffffeb576
    ff90:	deadbeef          	jal	t4,0xfffffffffffeb57a
    ff94:	deadbeef          	jal	t4,0xfffffffffffeb57e
    ff98:	deadbeef          	jal	t4,0xfffffffffffeb582
    ff9c:	deadbeef          	jal	t4,0xfffffffffffeb586
    ffa0:	deadbeef          	jal	t4,0xfffffffffffeb58a
    ffa4:	deadbeef          	jal	t4,0xfffffffffffeb58e
    ffa8:	deadbeef          	jal	t4,0xfffffffffffeb592
    ffac:	deadbeef          	jal	t4,0xfffffffffffeb596
    ffb0:	deadbeef          	jal	t4,0xfffffffffffeb59a
    ffb4:	deadbeef          	jal	t4,0xfffffffffffeb59e
    ffb8:	deadbeef          	jal	t4,0xfffffffffffeb5a2
    ffbc:	deadbeef          	jal	t4,0xfffffffffffeb5a6
    ffc0:	deadbeef          	jal	t4,0xfffffffffffeb5aa
    ffc4:	deadbeef          	jal	t4,0xfffffffffffeb5ae
    ffc8:	deadbeef          	jal	t4,0xfffffffffffeb5b2
    ffcc:	deadbeef          	jal	t4,0xfffffffffffeb5b6
